TMS320C3x/4x COFF AssemblerVersion 5.12     Wed Jul 24 11:03:43 2019
Copyright (c) 1987-1999 Texas Instruments Incorporatedasm30.exe -@_30G.AAB 

G:\workspace\EEA\V615\APP\SOURCE\ASM\adc.asm                         PAGE    1

        1                   ;******************************************************************************
        2                   ;* TMS320C3x/4x ANSI C Code Generator                            Version 5.11 *
        3                   ;* Date/Time created: Wed Jul 24 11:03:43 2019                                *
        4                   ;******************************************************************************
        5                           .regalias       ; enable floating point register aliases
        6          0000000b fp      .set    ar3
        7          0000000b FP      .set    ar3
        8                   ;******************************************************************************
        9                   ;* GLOBAL FILE PARAMETERS                                                     *
       10                   ;*                                                                            *
       11                   ;*   Optimization       : Always Choose Smaller Code Size                     *
       12                   ;*   Memory             : Big Memory Model                                    *
       13                   ;*   Float-to-Int       : Normal Conversions (round toward zero)              *
       14                   ;*   Multiply           : in Software (32 bits)                               *
       15                   ;*   Memory Info        : Unmapped Memory Exists                              *
       16                   ;*   Repeat Loops       : Use RPTS and/or RPTB                                *
       17                   ;*   Calls              : Normal Library ASM calls                            *
       18                   ;*   Debug Info         : Standard TI Debug Information                       *
       19                   ;******************************************************************************
       20                   ;       C:\tic3x4x\c3x4x\cgtools\bin\ac30.exe -@_30G.AAA 
       21                           .file   "adc.c"
       22                           .file   "G:\workspace\EEA\V615\APP\SOURCE\INCLUDE\GLBLS.H"
       23                           .file   "G:\workspace\EEA\V615\INCLUDE\stdarg.h"
       24                           .sym    _va_list,0,18,13,32
       25                           .file   "G:\workspace\EEA\V615\INCLUDE\format.h"
       26                           .stag   .fake0,128
       27                           .member _flags,0,14,8,32
       28                           .member _fwidth,32,4,8,32
       29                           .member _precision,64,4,8,32
       30                           .member _conv,96,2,8,32
       31                           .eos
       32                           .sym    __PFIELD,0,8,13,128,.fake0
       33                           .stag   .fake1,3200
       34                           .member _flags,0,14,8,32
       35                           .member _fwidth,32,4,8,32
       36                           .member _precision,64,4,8,32
       37                           .member _scanset,96,50,8,3072,,96
       38                           .member _conv,3168,2,8,32
       39                           .eos
       40                           .sym    __SFIELD,0,8,13,3200,.fake1
       41                           .file   "G:\workspace\EEA\V615\INCLUDE\string.h"
       42                           .sym    _size_t,0,14,13,32
       43                           .file   "G:\workspace\EEA\V615\INCLUDE\stdio.h"
       44                           .stag   .fake2,224
       45                           .member _fd,0,4,8,32
       46                           .member _buf,32,28,8,32
       47                           .member _pos,64,28,8,32
       48                           .member _bufend,96,28,8,32
       49                           .member _buff_stop,128,28,8,32
       50                           .member _flags,160,14,8,32
       51                           .member _index,192,4,8,32
       52                           .eos
       53                           .sym    _FILE,0,8,13,224,.fake2
       54                           .sym    _fpos_t,0,5,13,32
TMS320C3x/4x COFF AssemblerVersion 5.12     Wed Jul 24 11:03:43 2019
Copyright (c) 1987-1999 Texas Instruments Incorporatedasm30.exe -@_30G.AAB 

G:\workspace\EEA\V615\APP\SOURCE\ASM\adc.asm                         PAGE    2

       55                           .stag   .fake3,544
       56                           .member _name,0,50,8,288,,9
       57                           .member _flags,288,13,8,32
       58                           .member _OPEN,320,148,8,32
       59                           .member _CLOSE,352,148,8,32
       60                           .member _READ,384,148,8,32
       61                           .member _WRITE,416,148,8,32
       62                           .member _LSEEK,448,149,8,32
       63                           .member _UNLINK,480,148,8,32
       64                           .member _RENAME,512,148,8,32
       65                           .eos
       66                           .sym    __DEVICE,0,8,13,544,.fake3
       67                           .file   "G:\workspace\EEA\V615\INCLUDE\stdlib.h"
       68                           .sym    _wchar_t,0,2,13,32
       69                           .stag   __div_t,64
       70                           .member _quot,0,4,8,32
       71                           .member _rem,32,4,8,32
       72                           .eos
       73                           .sym    _div_t,0,8,13,64,__div_t
       74                           .sym    _ldiv_t,0,8,13,64,__div_t
       75                           .file   "G:\workspace\EEA\V615\INCLUDE\math.h"
       76                           .file   "G:\workspace\EEA\V615\INCLUDE\time.h"
       77                           .sym    _clock_t,0,15,13,32
       78                           .sym    _time_t,0,15,13,32
       79                           .stag   _tm,288
       80                           .member _tm_sec,0,4,8,32
       81                           .member _tm_min,32,4,8,32
       82                           .member _tm_hour,64,4,8,32
       83                           .member _tm_mday,96,4,8,32
       84                           .member _tm_mon,128,4,8,32
       85                           .member _tm_year,160,4,8,32
       86                           .member _tm_wday,192,4,8,32
       87                           .member _tm_yday,224,4,8,32
       88                           .member _tm_isdst,256,4,8,32
       89                           .eos
       90                           .stag   _tmzone,320
       91                           .member _daylight,0,3,8,32
       92                           .member _timezone,32,5,8,32
       93                           .member _tzname,64,50,8,128,,4
       94                           .member _dstname,192,50,8,128,,4
       95                           .eos
       96                           .file   "G:\workspace\EEA\V615\INCLUDE\ETC.H"
       97                           .sym    _BOOL,0,14,13,32
       98                           .file   "G:\workspace\EEA\V615\INCLUDE\LIST.H"
       99                           .stag   .fake4,96
      100                           .member _head,0,20,8,32
      101                           .member _tail,32,20,8,32
      102                           .member _n,64,4,8,32
      103                           .eos
      104                           .sym    _LIST,0,8,13,96,.fake4
      105                           .stag   .fake5,64
      106                           .member _prev,0,20,8,32
      107                           .member _next,32,20,8,32
      108                           .eos
TMS320C3x/4x COFF AssemblerVersion 5.12     Wed Jul 24 11:03:43 2019
Copyright (c) 1987-1999 Texas Instruments Incorporatedasm30.exe -@_30G.AAB 

G:\workspace\EEA\V615\APP\SOURCE\ASM\adc.asm                         PAGE    3

      109                           .sym    _GENERIC,0,8,13,64,.fake5
      110                           .file   "G:\workspace\EEA\V615\APP\SOURCE\INCLUDE\VARIABLE.H"
      111                           .stag   .fake6,1408
      112                           .member _val,0,6,8,32
      113                           .member _vect1,32,20,8,32
      114                           .member _vect2,64,20,8,32
      115                           .member _STAT,96,4,8,32
      116                           .member _dampening,128,6,8,32
      117                           .member _damp_count,160,4,8,32
      118                           .member _aux,192,4,8,32
      119                           .member _val1,224,6,8,32
      120                           .member _val2,256,6,8,32
      121                           .member _calc_val,288,11,8,64
      122                           .member _base_val,352,11,8,64
      123                           .member _unit,416,4,8,32
      124                           .member _calc_unit,448,4,8,32
      125                           .member _class,480,4,8,32
      126                           .member _scale,512,6,8,32
      127                           .member _scale_long,544,6,8,32
      128                           .member _bound_hi_set,576,6,8,32
      129                           .member _bound_lo_set,608,6,8,32
      130                           .member _alarm_hi_set,640,6,8,32
      131                           .member _alarm_lo_set,672,6,8,32
      132                           .member _name,704,50,8,672,,21
      133                           .member _name_r,1376,4,8,32
      134                           .eos
      135                           .sym    _VAR,0,8,13,1408,.fake6
      136                           .stag   .fake7,96
      137                           .member _val,0,14,8,32
      138                           .member _vect,32,20,8,32
      139                           .member _vect2,64,20,8,32
      140                           .eos
      141                           .sym    _COIL,0,8,13,96,.fake7
      142                           .stag   .fake8,64
      143                           .member _val,0,4,8,32
      144                           .member _vect,32,20,8,32
      145                           .eos
      146                           .sym    _REGVECT,0,8,13,64,.fake8
      147                           .stag   .fake9,96
      148                           .member _prev,0,20,8,32
      149                           .member _next,32,20,8,32
      150                           .member _v,64,24,8,32,.fake6
      151                           .eos
      152                           .sym    _DPKT,0,8,13,96,.fake9
      153                           .file   "G:\workspace\EEA\V615\APP\SOURCE\INCLUDE\BUFFER.H"
      154                           .stag   .fake10,9824
      155                           .member _head,0,4,8,32
      156                           .member _tail,32,4,8,32
      157                           .member _n,64,4,8,32
      158                           .member _GSEED,96,14,8,32
      159                           .member _CRC16,128,14,8,32
      160                           .member _buff,160,62,8,9600,,300
      161                           .member _sum,9760,4,8,32
      162                           .member _locked,9792,14,8,32
TMS320C3x/4x COFF AssemblerVersion 5.12     Wed Jul 24 11:03:43 2019
Copyright (c) 1987-1999 Texas Instruments Incorporatedasm30.exe -@_30G.AAB 

G:\workspace\EEA\V615\APP\SOURCE\ASM\adc.asm                         PAGE    4

      163                           .eos
      164                           .sym    _BFR,0,8,13,9824,.fake10
      165                           .file   "G:\workspace\EEA\V615\INCLUDE\UNITS.H"
      166                           .file   "G:\workspace\EEA\V615\APP\SOURCE\INCLUDE\TIMER.H"
      167                           .stag   .fake11,320
      168                           .member _prev,0,20,8,32
      169                           .member _next,32,20,8,32
      170                           .member _vect,64,20,8,32
      171                           .member _priority,96,4,8,32
      172                           .member _parent,128,20,8,32
      173                           .member _n,160,4,8,32
      174                           .member _prev_n,192,4,8,32
      175                           .member _countdown,224,4,8,32
      176                           .member _preset_time,256,4,8,32
      177                           .member _t,288,6,8,32
      178                           .eos
      179                           .sym    _TPKT,0,8,13,320,.fake11
      180                           .file   "G:\workspace\EEA\V615\INCLUDE\I2C.H"
      181                           .file   "G:\workspace\EEA\V615\APP\SOURCE\INCLUDE\ERRORS.H"
      182                           .file   "G:\workspace\EEA\V615\APP\SOURCE\INCLUDE\SERIAL.H"
      183                           .stag   .fake12,2272
      184                           .member _Slave,0,4,8,32
      185                           .member _SNUM,32,4,8,32
      186                           .member _PRESENT,64,14,8,32
      187                           .member _TX_complete,96,14,8,32
      188                           .member _RX_pending,128,14,8,32
      189                           .member _BUSY,160,14,8,32
      190                           .member _IGNORE_RX,192,14,8,32
      191                           .member _STAT,224,12,8,32
      192                           .member _DAT,256,12,8,32
      193                           .member _broadcast,288,14,8,32
      194                           .member _TMR_Network_WDOG,320,4,8,32
      195                           .member _TMR_EOT_Delay,352,4,8,32
      196                           .member _TMR_Prefix_Delay,384,4,8,32
      197                           .member _TMR_Suffix_Delay,416,4,8,32
      198                           .member _TMR_Char,448,4,8,32
      199                           .member _TMR_Poll,480,8,8,320,.fake11
      200                           .member _TMR_Retry,800,8,8,320,.fake11
      201                           .member _nr,1120,4,8,32
      202                           .member _Received_PKT,1152,14,8,32
      203                           .member _TMR_enabled,1184,14,8,32
      204                           .member _tvector,1216,20,8,32
      205                           .member _pvector,1248,20,8,32
      206                           .member _pvector_main,1280,20,8,32
      207                           .member _tvector_main,1312,20,8,32
      208                           .member _fvector,1344,20,8,32
      209                           .member _actual_baud_rate,1376,6,8,32
      210                           .member _c,1408,14,8,32
      211                           .member _r,1440,14,8,32
      212                           .member _n,1472,4,8,32
      213                           .member _n_exp,1504,4,8,32
      214                           .member _ai,1536,4,8,32
      215                           .member _start,1568,4,8,32
      216                           .member _i,1600,4,8,32
TMS320C3x/4x COFF AssemblerVersion 5.12     Wed Jul 24 11:03:43 2019
Copyright (c) 1987-1999 Texas Instruments Incorporatedasm30.exe -@_30G.AAB 

G:\workspace\EEA\V615\APP\SOURCE\ASM\adc.asm                         PAGE    5

      217                           .member _i_main,1632,4,8,32
      218                           .member _func,1664,14,8,32
      219                           .member _ERROR_COUNT,1696,14,8,32
      220                           .member _WDOG_COUNT,1728,14,8,32
      221                           .member _INV_CMD_COUNT,1760,14,8,32
      222                           .member _INV_PKT_COUNT,1792,14,8,32
      223                           .member _SUCCESS,1824,14,8,32
      224                           .member _NUM_RETRIES,1856,14,8,32
      225                           .member _FLAG1,1888,14,8,32
      226                           .member _FLAG2,1920,14,8,32
      227                           .member _FLAG3,1952,14,8,32
      228                           .member _LONG_ADDRESS,1984,14,8,32
      229                           .member _MASTER,2016,8,8,96,.fake4
      230                           .member _p,2112,20,8,32
      231                           .member _data,2144,14,8,32
      232                           .member _f,2176,22,8,32
      233                           .member _l,2208,30,8,32
      234                           .member _failed,2240,14,8,32
      235                           .eos
      236                           .sym    _PORTV,0,8,13,2272,.fake12
      237                           .stag   .fake13,11488
      238                           .member _PREFIX,0,8,8,1408,.fake6
      239                           .member _SUFFIX,1408,8,8,1408,.fake6
      240                           .member _NETWDOG,2816,8,8,1408,.fake6
      241                           .member _Slave_ID,4224,8,8,1408,.fake6
      242                           .member _Baud_Rate,5632,8,8,1408,.fake6
      243                           .member _Parity,7040,4,8,32
      244                           .member _n_bits,7072,4,8,32
      245                           .member _STP,7104,4,8,32
      246                           .member _N,7136,4,8,32
      247                           .member _N_retry,7168,4,8,32
      248                           .member _EOT_Delay,7200,8,8,1408,.fake6
      249                           .member _Retry_Time,8608,8,8,1408,.fake6
      250                           .member _Num_Retry,10016,8,8,1408,.fake6
      251                           .member _poll_time,11424,4,8,32
      252                           .member _timeout,11456,4,8,32
      253                           .eos
      254                           .sym    _PORTC,0,8,13,11488,.fake13
      255                           .stag   .fake14,672
      256                           .member _prev,0,20,8,32
      257                           .member _next,32,20,8,32
      258                           .member _rxvect,64,20,8,32
      259                           .member _txvect,96,20,8,32
      260                           .member _n,128,4,8,32
      261                           .member _slave,160,4,8,32
      262                           .member _func,192,4,8,32
      263                           .member _addr,224,4,8,32
      264                           .member _num,256,4,8,32
      265                           .member _v,288,54,8,320,,10
      266                           .member _flt_ptr,608,22,8,32
      267                           .member _int_ptr,640,20,8,32
      268                           .eos
      269                           .sym    _MPKT,0,8,13,672,.fake14
      270                           .file   "G:\workspace\EEA\V615\APP\SOURCE\INCLUDE\ADC.H"
TMS320C3x/4x COFF AssemblerVersion 5.12     Wed Jul 24 11:03:43 2019
Copyright (c) 1987-1999 Texas Instruments Incorporatedasm30.exe -@_30G.AAB 

G:\workspace\EEA\V615\APP\SOURCE\ASM\adc.asm                         PAGE    6

      271                           .stag   .fake15,10176
      272                           .member _CURRENT,0,8,8,1408,.fake6
      273                           .member _CURRENT_PERCENT_OF_RANGE,1408,8,8,1408,.fake6
      274                           .member _LRV,2816,8,8,1408,.fake6
      275                           .member _URV,4224,8,8,1408,.fake6
      276                           .member _TRIM_MIN,5632,8,8,1408,.fake6
      277                           .member _TRIM_MAX,7040,8,8,1408,.fake6
      278                           .member _VALUE,8448,8,8,1408,.fake6
      279                           .member _TRIM_MIN_C,9856,6,8,32
      280                           .member _TRIM_MAX_C,9888,6,8,32
      281                           .member _v,9920,8,8,64,.fake8
      282                           .member _class,9984,8,8,64,.fake8
      283                           .member _unit,10048,8,8,64,.fake8
      284                           .member _present,10112,14,8,32
      285                           .member _val,10144,6,8,32
      286                           .eos
      287                           .sym    _LOOPDATA_I,0,8,13,10176,.fake15
      288                           .file   "G:\workspace\EEA\V615\APP\SOURCE\INCLUDE\DAC.H"
      289                           .stag   .fake16,13408
      290                           .member _CURRENT,0,8,8,1408,.fake6
      291                           .member _CURRENT_PERCENT_OF_RANGE,1408,8,8,1408,.fake6
      292                           .member _LRV,2816,8,8,1408,.fake6
      293                           .member _URV,4224,8,8,1408,.fake6
      294                           .member _TRIM_MIN,5632,8,8,1408,.fake6
      295                           .member _TRIM_MAX,7040,8,8,1408,.fake6
      296                           .member _TRIM_MIN_C,8448,6,8,32
      297                           .member _TRIM_MAX_C,8480,6,8,32
      298                           .member _ALARM_SELECT,8512,4,8,32
      299                           .member _MINSPAN,8544,6,8,32
      300                           .member _v,8576,8,8,64,.fake8
      301                           .member _class,8640,8,8,64,.fake8
      302                           .member _unit,8704,8,8,64,.fake8
      303                           .member _MANUAL,8768,4,8,32
      304                           .member _MANUAL_PERCENT,8800,6,8,32
      305                           .member _REVERSE,8832,4,8,32
      306                           .member _PID_input,8864,6,8,32
      307                           .member _PID_setpoint,8896,6,8,32
      308                           .member _P,8928,8,8,1408,.fake6
      309                           .member _I,10336,8,8,1408,.fake6
      310                           .member _D,11744,8,8,1408,.fake6
      311                           .member _pid_lastcycle,13152,4,8,32
      312                           .member _pid_output,13184,6,8,32
      313                           .member _pid_propband,13216,6,8,32
      314                           .member _pid_error,13248,6,8,32
      315                           .member _pid_bias,13280,6,8,32
      316                           .member _present,13312,14,8,32
      317                           .member _PID_fail,13344,14,8,32
      318                           .member _PID_enable_failsafe,13376,14,8,32
      319                           .eos
      320                           .sym    _LOOPDATA_O,0,8,13,13408,.fake16
      321                           .file   "G:\workspace\EEA\V615\APP\SOURCE\INCLUDE\EXECUTE.H"
      322                           .stag   .fake17,128
      323                           .member _prev,0,20,8,32
      324                           .member _next,32,20,8,32
TMS320C3x/4x COFF AssemblerVersion 5.12     Wed Jul 24 11:03:43 2019
Copyright (c) 1987-1999 Texas Instruments Incorporatedasm30.exe -@_30G.AAB 

G:\workspace\EEA\V615\APP\SOURCE\ASM\adc.asm                         PAGE    7

      325                           .member _vect,64,20,8,32
      326                           .member _priority,96,4,8,32
      327                           .eos
      328                           .sym    _EPKT,0,8,13,128,.fake17
      329                           .file   "G:\workspace\EEA\V615\INCLUDE\FLASH.H"
      330                           .file   "G:\workspace\EEA\V615\APP\SOURCE\INCLUDE\LOG.H"
      331                           .stag   .fake18,384
      332                           .member _log_len,0,14,8,32
      333                           .member _log_n_sectors,32,14,8,32
      334                           .member _log_n_max_per_sector,64,14,8,32
      335                           .member _log_n,96,14,8,32
      336                           .member _log_current_sector,128,14,8,32
      337                           .member _log_absolute_index,160,14,8,32
      338                           .member _log_start,192,30,8,32
      339                           .member _log_sector_size,224,14,8,32
      340                           .member _log_record_size,256,14,8,32
      341                           .member _log_end,288,14,8,32
      342                           .member _LOG_ERASE,320,14,8,32
      343                           .member _erased_sector,352,14,8,32
      344                           .eos
      345                           .sym    _LOG,0,8,13,384,.fake18
      346                           .file   "G:\workspace\EEA\V615\APP\SOURCE\INCLUDE\DEMO.H"
      347                           .file   "G:\workspace\EEA\V615\APP\SOURCE\INCLUDE\SELFTEST.H"
      348                           .file   "G:\workspace\EEA\V615\APP\SOURCE\INCLUDE\MENU.H"
      349                           .stag   .fake19,16288
      350                           .member _INIT,0,14,8,32
      351                           .member _FRESH,32,14,8,32
      352                           .member _MENU,64,14,8,32
      353                           .member _SELECT,96,14,8,32
      354                           .member _VALUE,128,14,8,32
      355                           .member _ENTER,160,14,8,32
      356                           .member _DIR,192,4,8,32
      357                           .member _DIR_CHANGE,224,14,8,32
      358                           .member _M,256,14,8,32
      359                           .member _S,288,14,8,32
      360                           .member _V,320,14,8,32
      361                           .member _E,352,14,8,32
      362                           .member _CURSOR_ENABLED,384,14,8,32
      363                           .member _CURSOR_ROW,416,4,8,32
      364                           .member _CURSOR_COL,448,4,8,32
      365                           .member _CNT,480,14,8,32
      366                           .member _MENU_CNT,512,14,8,32
      367                           .member _SELECT_CNT,544,14,8,32
      368                           .member _VALUE_CNT,576,14,8,32
      369                           .member _k,608,14,8,32
      370                           .member _MODE_LOCKDOWN,640,14,8,32
      371                           .member _MODE_WPROT,672,14,8,32
      372                           .member _MODE_DEFINE,704,14,8,32
      373                           .member _MODE_USER,736,14,8,32
      374                           .member _MODE_TECH,768,14,8,32
      375                           .member _MODE_NORMAL,800,14,8,32
      376                           .member _menu_list_top,832,14,8,32
      377                           .member _menu_list_operations,864,14,8,32
      378                           .member _menu_list_configurations,896,14,8,32
TMS320C3x/4x COFF AssemblerVersion 5.12     Wed Jul 24 11:03:43 2019
Copyright (c) 1987-1999 Texas Instruments Incorporatedasm30.exe -@_30G.AAB 

G:\workspace\EEA\V615\APP\SOURCE\ASM\adc.asm                         PAGE    8

      379                           .member _menu_list_security_info,928,14,8,32
      380                           .member _menu_list_measurements,960,14,8,32
      381                           .member _menu_list_changed,992,14,8,32
      382                           .member _PAGE,1024,14,8,32
      383                           .member _SUBPAGE,1056,14,8,32
      384                           .member _MENU_TRAP,1088,14,8,32
      385                           .member _DIP,1120,62,8,128,,4
      386                           .member _tmpf,1248,54,8,320,,10
      387                           .member _tmpi,1568,52,8,320,,10
      388                           .member _str,1888,242,8,12928,,4,101
      389                           .member _tmpv,14816,8,8,1408,.fake6
      390                           .member _ptmpv,16224,24,8,32,.fake6
      391                           .member _tbl,16256,20,8,32
      392                           .eos
      393                           .sym    _MENU_STRUCT,0,8,13,16288,.fake19
      394                           .file   "G:\workspace\EEA\V615\APP\SOURCE\INCLUDE\FLOAT1.H"
      395                           .file   "G:\workspace\EEA\V615\APP\SOURCE\INCLUDE\GLBLS.H"
      396                           .stag   .fake20,480
      397                           .member _i,0,4,8,32
      398                           .member _Watercut,32,6,8,32
      399                           .member _Temperature,64,6,8,32
      400                           .member _Salinity,96,6,8,32
      401                           .member _Frequency_Oil,128,6,8,32
      402                           .member _Frequency_Water,160,6,8,32
      403                           .member _RefPower_Oil,192,6,8,32
      404                           .member _RefPower_Water,224,6,8,32
      405                           .member _Dadj,256,6,8,32
      406                           .member _Time_HH,288,4,8,32
      407                           .member _Time_MM,320,4,8,32
      408                           .member _Time_MONTH,352,4,8,32
      409                           .member _Time_DAY,384,4,8,32
      410                           .member _Time_DAY_OF_WEEK,416,4,8,32
      411                           .member _Time_YEAR,448,4,8,32
      412                           .eos
      413                           .sym    _CAPDATA,0,8,13,480,.fake20
      414                           .stag   .fake21,640
      415                           .member _Watercut,0,54,8,64,,2
      416                           .member _Temperature,64,54,8,64,,2
      417                           .member _Salinity,128,54,8,64,,2
      418                           .member _Frequency_Oil,192,54,8,64,,2
      419                           .member _Frequency_Water,256,54,8,64,,2
      420                           .member _RefPower_Oil,320,54,8,64,,2
      421                           .member _RefPower_Water,384,54,8,64,,2
      422                           .member _Dadj,448,54,8,64,,2
      423                           .member _Time_MONTH_DAY_HH_MM,512,52,8,64,,2
      424                           .member _CLRSTAT_Time_YEAR,576,52,8,64,,2
      425                           .eos
      426                           .sym    _CAPRECORD,0,8,13,640,.fake21
      427                           .stag   .fake22,800
      428                           .member _Start_HH,0,4,8,32
      429                           .member _Start_MM,32,4,8,32
      430                           .member _Start_SS,64,4,8,32
      431                           .member _Start_MONTH,96,4,8,32
      432                           .member _Start_DAY,128,4,8,32
TMS320C3x/4x COFF AssemblerVersion 5.12     Wed Jul 24 11:03:43 2019
Copyright (c) 1987-1999 Texas Instruments Incorporatedasm30.exe -@_30G.AAB 

G:\workspace\EEA\V615\APP\SOURCE\ASM\adc.asm                         PAGE    9

      433                           .member _Start_YEAR,160,4,8,32
      434                           .member _Stop_HH,192,4,8,32
      435                           .member _Stop_MM,224,4,8,32
      436                           .member _Stop_SS,256,4,8,32
      437                           .member _Stop_MONTH,288,4,8,32
      438                           .member _Stop_DAY,320,4,8,32
      439                           .member _Stop_YEAR,352,4,8,32
      440                           .member _stream,384,6,8,32
      441                           .member _elapsed_s,416,6,8,32
      442                           .member _duration,448,6,8,32
      443                           .member _purge,480,6,8,32
      444                           .member _gross_gas,512,6,8,32
      445                           .member _gross_oil,544,6,8,32
      446                           .member _gross_water,576,6,8,32
      447                           .member _gross_total,608,6,8,32
      448                           .member _gas24,640,6,8,32
      449                           .member _oil24,672,6,8,32
      450                           .member _water24,704,6,8,32
      451                           .member _total24,736,6,8,32
      452                           .member _watercut,768,6,8,32
      453                           .eos
      454                           .sym    _CCMRECORD,0,8,13,800,.fake22
      455                           .stag   .fake23,224
      456                           .member _SNUM,0,4,8,32
      457                           .member _ADDR,32,4,8,32
      458                           .member _BNUM,64,4,8,32
      459                           .member _REV,96,4,8,32
      460                           .member _MONTH,128,4,8,32
      461                           .member _DAY,160,4,8,32
      462                           .member _YEAR,192,4,8,32
      463                           .eos
      464                           .sym    _BOARD,0,8,13,224,.fake23
      465                           .etag   _Pulse_Input_Type,32
      466                           .member _PULSE_GAS_TEMP,1,4,16,32
      467                           .member _PULSE_SALINITY,2,4,16,32
      468                           .member _PULSE_STREAM_SELECT,3,4,16,32
      469                           .member _PULSE_USER_TEMP,4,4,16,32
      470                           .member _PULSE_FC_WC,5,4,16,32
      471                           .member _PULSE_FC_TEMP,6,4,16,32
      472                           .member _PULSE_FC_TOTAL_FLOW,7,4,16,32
      473                           .member _PULSE_FC_PRESSURE,8,4,16,32
      474                           .member _PULSE_FC_DENSITY,9,4,16,32
      475                           .member _PULSE_FC_SALINITY,10,4,16,32
      476                           .member _PULSE_FC_OIL_DENSITY,11,4,16,32
      477                           .member _PULSE_FC_OIL_DENSITY_ST,12,4,16,32
      478                           .member _PULSE_FC_WATER_DENSITY,13,4,16,32
      479                           .member _PULSE_FC_WATER_DENSITY_ST,14,4,16,32
      480                           .member _PULSE_NONE,15,4,16,32
      481                           .eos
      482                           .stag   .fake24,64
      483                           .member _freq,0,6,8,32
      484                           .member _counter,32,4,8,32
      485                           .eos
      486                           .sym    _Boxcar_Var,0,8,13,64,.fake24
TMS320C3x/4x COFF AssemblerVersion 5.12     Wed Jul 24 11:03:43 2019
Copyright (c) 1987-1999 Texas Instruments Incorporatedasm30.exe -@_30G.AAB 

G:\workspace\EEA\V615\APP\SOURCE\ASM\adc.asm                         PAGE   10

      487                           .stag   .fake25,1088
      488                           .member _data,0,54,8,960,,30
      489                           .member _head,960,4,8,32
      490                           .member _tail,992,4,8,32
      491                           .member _length,1024,4,8,32
      492                           .member _average,1056,6,8,32
      493                           .eos
      494                           .sym    _bubble_struct,0,8,13,1088,.fake25
      495                           .stag   .fake26,3008
      496                           .member _data,0,54,8,2880,,90
      497                           .member _head,2880,4,8,32
      498                           .member _tail,2912,4,8,32
      499                           .member _length,2944,4,8,32
      500                           .member _average,2976,6,8,32
      501                           .eos
      502                           .sym    _pattern_struct,0,8,13,3008,.fake26
      503                           .stag   .fake27,320
      504                           .member _MODE,0,4,8,32
      505                           .member _STATUS_MASK,32,4,8,32
      506                           .member _v,64,8,8,64,.fake8
      507                           .member _setpoint,128,6,8,32
      508                           .member _ON,160,8,8,96,.fake7
      509                           .member _class,256,4,8,32
      510                           .member _unit,288,4,8,32
      511                           .eos
      512                           .sym    _RELAYDATA,0,8,13,320,.fake27
      513                           .stag   .fake28,12224
      514                           .member _diag,0,6,8,32
      515                           .member _mfr,32,6,8,32
      516                           .member _u_mfr,64,4,8,32
      517                           .member _density,96,6,8,32
      518                           .member _u_density,128,4,8,32
      519                           .member _density_PDI_corrected,160,6,8,32
      520                           .member _density_corrected,192,6,8,32
      521                           .member _u_density_corrected,224,4,8,32
      522                           .member _T,256,6,8,32
      523                           .member _u_T,288,4,8,32
      524                           .member _vfr,320,6,8,32
      525                           .member _u_vfr,352,4,8,32
      526                           .member _visc,384,6,8,32
      527                           .member _u_visc,416,4,8,32
      528                           .member _press,448,6,8,32
      529                           .member _mass_total,480,6,8,32
      530                           .member _u_m,512,4,8,32
      531                           .member _volume_total,544,6,8,32
      532                           .member _u_v,576,4,8,32
      533                           .member _u_P,608,4,8,32
      534                           .member _P,640,6,8,32
      535                           .member _mass_inv,672,6,8,32
      536                           .member _volume_inv,704,6,8,32
      537                           .member _raw_tube_freq,736,6,8,32
      538                           .member _left_pickup_value,768,6,8,32
      539                           .member _right_pickup_value,800,6,8,32
      540                           .member _drive_gain,832,6,8,32
TMS320C3x/4x COFF AssemblerVersion 5.12     Wed Jul 24 11:03:43 2019
Copyright (c) 1987-1999 Texas Instruments Incorporatedasm30.exe -@_30G.AAB 

G:\workspace\EEA\V615\APP\SOURCE\ASM\adc.asm                         PAGE   11

      541                           .member _damp_flow_rate,864,8,8,1408,.fake6
      542                           .member _damp_density,2272,8,8,1408,.fake6
      543                           .member _mfr_cutoff,3680,8,8,1408,.fake6
      544                           .member _vfr_cutoff,5088,8,8,1408,.fake6
      545                           .member _mcf,6496,8,8,1408,.fake6
      546                           .member _address,7904,8,8,1408,.fake6
      547                           .member _mass_unit,9312,8,8,1408,.fake6
      548                           .member _density_cutoff,10720,8,8,1408,.fake6
      549                           .member _Z,12128,8,8,96,.fake7
      550                           .eos
      551                           .sym    _CORIOLIS,0,8,13,12224,.fake28
      552                           .stag   .fake29,288
      553                           .member _p_delta,0,6,8,32
      554                           .member _p_static,32,6,8,32
      555                           .member _T,64,6,8,32
      556                           .member _diag0,96,6,8,32
      557                           .member _diag1,128,6,8,32
      558                           .member _diag2,160,6,8,32
      559                           .member _u_DP,192,4,8,32
      560                           .member _u_SP,224,4,8,32
      561                           .member _u_PT,256,4,8,32
      562                           .eos
      563                           .sym    _PRESSURE,0,8,13,288,.fake29
      564                           .stag   .fake30,192
      565                           .member _T,0,6,8,32
      566                           .member _etc0,32,6,8,32
      567                           .member _etc1,64,6,8,32
      568                           .member _etc2,96,6,8,32
      569                           .member _etc3,128,6,8,32
      570                           .member _etc4,160,6,8,32
      571                           .eos
      572                           .sym    _TMPT,0,8,13,192,.fake30
      573                           .stag   .fake31,42752
      574                           .member _watercut,0,8,8,1408,.fake6
      575                           .member _T,1408,8,8,1408,.fake6
      576                           .member _pressure,2816,8,8,1408,.fake6
      577                           .member _density,4224,8,8,1408,.fake6
      578                           .member _density_PDI_corrected,5632,6,8,32
      579                           .member _density_adj,5664,6,8,32
      580                           .member _density_oilST,5696,8,8,1408,.fake6
      581                           .member _density_oil,7104,8,8,1408,.fake6
      582                           .member _density_waterST,8512,8,8,1408,.fake6
      583                           .member _density_water,9920,8,8,1408,.fake6
      584                           .member _salinity,11328,8,8,1408,.fake6
      585                           .member _API_TABLE,12736,4,8,32
      586                           .member _a,12768,6,8,32
      587                           .member _Meter_Factor,12800,8,8,1408,.fake6
      588                           .member _Shrinkage,14208,8,8,1408,.fake6
      589                           .member _VCFo,15616,6,8,32
      590                           .member _VCFw,15648,6,8,32
      591                           .member _net_watercut,15680,6,8,32
      592                           .member _net_watercut_mass,15712,6,8,32
      593                           .member _Dadj,15744,6,8,32
      594                           .member _NET_FLOW_OIL,15776,8,8,1408,.fake6
TMS320C3x/4x COFF AssemblerVersion 5.12     Wed Jul 24 11:03:43 2019
Copyright (c) 1987-1999 Texas Instruments Incorporatedasm30.exe -@_30G.AAB 

G:\workspace\EEA\V615\APP\SOURCE\ASM\adc.asm                         PAGE   12

      595                           .member _NET_FLOW_WATER,17184,8,8,1408,.fake6
      596                           .member _NET_FLOW_TOTAL,18592,8,8,1408,.fake6
      597                           .member _NET_OIL,20000,8,8,1408,.fake6
      598                           .member _NET_WATER,21408,8,8,1408,.fake6
      599                           .member _NET_TOTAL,22816,8,8,1408,.fake6
      600                           .member _AVG_NET_TOTAL,24224,8,8,1408,.fake6
      601                           .member _GROSS_OIL,25632,8,8,1408,.fake6
      602                           .member _gross_oil_whole_part,27040,11,8,64
      603                           .member _gross_oil_fract_part,27104,11,8,64
      604                           .member _GROSS_WATER,27168,8,8,1408,.fake6
      605                           .member _gross_water_whole_part,28576,11,8,64
      606                           .member _gross_water_fract_part,28640,11,8,64
      607                           .member _GROSS_TOTAL,28704,8,8,1408,.fake6
      608                           .member _AVG_GROSS_TOTAL,30112,8,8,1408,.fake6
      609                           .member _FLOW_OIL,31520,8,8,1408,.fake6
      610                           .member _FLOW_WATER,32928,8,8,1408,.fake6
      611                           .member _FLOW_TOTAL,34336,8,8,1408,.fake6
      612                           .member _PULSES_PER_ACCUM_UNIT,35744,14,8,32
      613                           .member _PULSE_TOTAL,35776,8,8,1408,.fake6
      614                           .member _PULSE_FLOW,37184,8,8,1408,.fake6
      615                           .member _PULSE_FREQ,38592,8,8,1408,.fake6
      616                           .member _PULSE_COUNTER,40000,14,8,32
      617                           .member _PULSE,40032,4,8,32
      618                           .member _CNT,40064,4,8,32
      619                           .member _PULSE_DELTA,40096,4,8,32
      620                           .member _PULSE_FACTOR,40128,6,8,32
      621                           .member _PULSE_STAT,40160,4,8,32
      622                           .member _enable_NET,40192,14,8,32
      623                           .member _enable_GROSS,40224,14,8,32
      624                           .member _enable_FLOW,40256,14,8,32
      625                           .member _enable_DENSITY,40288,14,8,32
      626                           .member _enable_PULSE,40320,14,8,32
      627                           .member _flow_class,40352,8,8,64,.fake8
      628                           .member _flow_unit,40416,8,8,64,.fake8
      629                           .member _accum_unit,40480,8,8,64,.fake8
      630                           .member _Z,40544,8,8,96,.fake7
      631                           .member _use_totalizer,40640,8,8,96,.fake7
      632                           .member _pulse_v,40736,8,8,64,.fake8
      633                           .member _pulse_class,40800,8,8,64,.fake8
      634                           .member _pulse_unit,40864,8,8,64,.fake8
      635                           .member _pulse_VALUE,40928,8,8,1408,.fake6
      636                           .member _USE_PDI_TEMP,42336,14,8,32
      637                           .member _USE_PDI_SALINITY,42368,14,8,32
      638                           .member _CALC_WC_DENSITY,42400,14,8,32
      639                           .member _MAN_TEMP,42432,14,8,32
      640                           .member _MAN_SALINITY,42464,14,8,32
      641                           .member _MAN_WATERCUT,42496,14,8,32
      642                           .member _MAN_DENSITY,42528,14,8,32
      643                           .member _MAN_PRESSURE,42560,14,8,32
      644                           .member _MAN_FLOW,42592,14,8,32
      645                           .member _AUTHORIZATION_CODE1,42624,14,8,32
      646                           .member _AUTHORIZATION_CODE2,42656,14,8,32
      647                           .member _AUTHORIZATION_CODE3,42688,14,8,32
      648                           .member _AUTHORIZATION_CODE4,42720,14,8,32
TMS320C3x/4x COFF AssemblerVersion 5.12     Wed Jul 24 11:03:43 2019
Copyright (c) 1987-1999 Texas Instruments Incorporatedasm30.exe -@_30G.AAB 

G:\workspace\EEA\V615\APP\SOURCE\ASM\adc.asm                         PAGE   13

      649                           .eos
      650                           .sym    _FLOW_COMP,0,8,13,42752,.fake31
      651                           .stag   .fake32,2176
      652                           .member _WATERCUT,0,6,8,32
      653                           .member _FLOW_RATE,32,6,8,32
      654                           .member _TEMPERATURE,64,6,8,32
      655                           .member _DENSITY,96,6,8,32
      656                           .member _VISCOSITY,128,6,8,32
      657                           .member _iWATERCUTz,160,4,8,32
      658                           .member _iWATERCUT,192,4,8,32
      659                           .member _iFLOW_RATE,224,4,8,32
      660                           .member _iTEMPERATURE,256,4,8,32
      661                           .member _iDENSITY,288,4,8,32
      662                           .member _iVISCOSITY,320,4,8,32
      663                           .member _maxWATERCUTz,352,6,8,32
      664                           .member _maxWATERCUT,384,6,8,32
      665                           .member _maxFLOW_RATE,416,6,8,32
      666                           .member _maxTEMPERATURE,448,6,8,32
      667                           .member _maxDENSITY,480,6,8,32
      668                           .member _maxVISCOSITY,512,6,8,32
      669                           .member _minWATERCUTz,544,6,8,32
      670                           .member _minWATERCUT,576,6,8,32
      671                           .member _minFLOW_RATE,608,6,8,32
      672                           .member _minTEMPERATURE,640,6,8,32
      673                           .member _minDENSITY,672,6,8,32
      674                           .member _minVISCOSITY,704,6,8,32
      675                           .member _ENABLED,736,14,8,32
      676                           .member _DESTINATION_ADDRESS,768,8,8,1408,.fake6
      677                           .eos
      678                           .sym    _ALYESKA_STRUCT,0,8,13,2176,.fake32
      679                           .stag   .fake33,2464
      680                           .member _ENABLED,0,8,8,96,.fake7
      681                           .member _flow_threshold,96,8,8,1408,.fake6
      682                           .member _S3,1504,6,8,32
      683                           .member _S2,1536,6,8,32
      684                           .member _S1,1568,6,8,32
      685                           .member _S0,1600,6,8,32
      686                           .member _Fmin,1632,6,8,32
      687                           .member _Dmin,1664,6,8,32
      688                           .member _Dmax,1696,6,8,32
      689                           .member _CHANGED,1728,14,8,32
      690                           .member _PURGING,1760,14,8,32
      691                           .member _TEST_IN_PROGRESS,1792,14,8,32
      692                           .member _SP3A,1824,6,8,32
      693                           .member _SP2A,1856,6,8,32
      694                           .member _SP1A,1888,6,8,32
      695                           .member _SP0A,1920,6,8,32
      696                           .member _SPLOA,1952,6,8,32
      697                           .member _SPHIA,1984,6,8,32
      698                           .member _SP3B,2016,6,8,32
      699                           .member _SP2B,2048,6,8,32
      700                           .member _SP1B,2080,6,8,32
      701                           .member _SP0B,2112,6,8,32
      702                           .member _SPLOB,2144,6,8,32
TMS320C3x/4x COFF AssemblerVersion 5.12     Wed Jul 24 11:03:43 2019
Copyright (c) 1987-1999 Texas Instruments Incorporatedasm30.exe -@_30G.AAB 

G:\workspace\EEA\V615\APP\SOURCE\ASM\adc.asm                         PAGE   14

      703                           .member _SPHIB,2176,6,8,32
      704                           .member _FBHI3,2208,6,8,32
      705                           .member _FBHI2,2240,6,8,32
      706                           .member _FBHI1,2272,6,8,32
      707                           .member _FBHI0,2304,6,8,32
      708                           .member _FBLO3,2336,6,8,32
      709                           .member _FBLO2,2368,6,8,32
      710                           .member _FBLO1,2400,6,8,32
      711                           .member _FBLO0,2432,6,8,32
      712                           .eos
      713                           .sym    _HS_STRUCT,0,8,13,2464,.fake33
      714                           .file   "G:\workspace\EEA\V615\APP\SOURCE\INCLUDE\HART.H"
      715                           .file   "G:\workspace\EEA\V615\APP\SOURCE\INCLUDE\MODBUSRTU.H"
      716                           .file   "G:\workspace\EEA\V615\APP\SOURCE\INCLUDE\MISC.H"
      717                           .file   "G:\workspace\EEA\V615\APP\SOURCE\INCLUDE\API.H"
      718                           .file   "adc.c"
      719 00000000                  .sect    "initialization"
      720                   
      721                           .global _Setup_ADC
      722                           .sym    _Setup_ADC,_Setup_ADC,32,2,0
      723                           .func   36
      724                   ;******************************************************************************
      725                   ;* FUNCTION NAME: _Setup_ADC                                                  *
      726                   ;*                                                                            *
      727                   ;*   Architecture       : TMS320C33                                           *
      728                   ;*   Calling Convention : TI Standard Register Parameters                     *
      729                   ;*   Function Uses Regs : f0,r0,r2,r3,ar0,ar1,ar2,fp,ir0,st                   *
      730                   ;*   Regs Saved         :                                                     *
      731                   ;*   Stack Frame        : Full (w/ debug)                                     *
      732                   ;*   Total Frame Size   : 2 Call + 0 Parm + 4 Auto + 0 SOE = 6 words          *
      733                   ;******************************************************************************
      734 00000000          _Setup_ADC:
      735                   ;* ar2   assigned to _n
      736                           .sym    _n,10,4,17,32
      737                           .sym    _n,1,4,1,32
      738                           .sym    _p,2,62,1,64,,2
      739                           .sym    _r,4,14,1,32
      740                           .line   1
      741                   ;----------------------------------------------------------------------
      742                   ;  36 | void Setup_ADC(int n)                                                  
      743                   ;----------------------------------------------------------------------
      744 00000000 0f2b0000         push      fp
      745 00000001 500b0014         ldiu      sp,fp
      746 00000002 02740004         addi      4,sp
      747                           .line   2
      748                   ;----------------------------------------------------------------------
      749                   ;  38 | unsigned int p[2];                                                     
      750                   ;  39 | BOOL r;                                                                
      751                   ;----------------------------------------------------------------------
      752 00000003 154a0301         sti       ar2,*+fp(1)           ; |37| 
      753                           .line   6
      754                   ;----------------------------------------------------------------------
      755                   ;  41 | READ_ADC_INPUTS = 0;                                                   
      756                   ;----------------------------------------------------------------------
TMS320C3x/4x COFF AssemblerVersion 5.12     Wed Jul 24 11:03:43 2019
Copyright (c) 1987-1999 Texas Instruments Incorporatedasm30.exe -@_30G.AAB 

G:\workspace\EEA\V615\APP\SOURCE\ASM\adc.asm                         PAGE   15

      757 00000004 08700000-        ldp       @CL1,DP
      758 00000005 50280012-        ldiu      @CL1,ar0              ; |41| 
      759 00000006 50600000         ldiu      0,r0                  ; |41| 
      760 00000007 1540c000         sti       r0,*ar0               ; |41| 
      761                           .line   8
      762                   ;----------------------------------------------------------------------
      763                   ;  43 | if ((n>=ADC_Ain1) && (n<=ADC_Ain5))                                    
      764                   ;----------------------------------------------------------------------
      765 00000008 50400301         ldiu      *+fp(1),r0            ; |43| 
      766 00000009 04e00005         cmpi      5,r0                  ; |43| 
      767 0000000a 6a070009         blt       L4                    ; |43| 
      768                   ;*      Branch Occurs to L4             ; |43| 
      769 0000000b 04e00009         cmpi      9,r0                  ; |43| 
      770 0000000c 6a090007         bgt       L4                    ; |43| 
      771                   ;*      Branch Occurs to L4             ; |43| 
      772                           .line   9
      773                   ;----------------------------------------------------------------------
      774                   ;  44 | AI[n-ADC_Ain1].present = FALSE;                                        
      775                   ;----------------------------------------------------------------------
      776 0000000d 50110000         ldiu      r0,ir0
      777 0000000e 08700000-        ldp       @CL2,DP
      778 0000000f 0af1013e         mpyi      318,ir0               ; |44| 
      779 00000010 50280013-        ldiu      @CL2,ar0              ; |44| 
      780 00000011 18710636         subi      1590,ir0              ; |44| 
      781 00000012 50600000         ldiu      0,r0                  ; |44| 
      782 00000013 15404000         sti       r0,*+ar0(ir0)         ; |44| 
      783 00000014          L4:        
      784                           .line   11
      785                   ;----------------------------------------------------------------------
      786                   ;  46 | VAR_NaN(&REG_ADC[n]);                                                  
      787                   ;----------------------------------------------------------------------
      788 00000014 504a0301         ldiu      *+fp(1),ar2           ; |46| 
      789 00000015 08700000-        ldp       @CL3,DP
      790 00000016 0aea002c         mpyi      44,ar2                ; |46| 
      791 00000017 022a0014-        addi      @CL3,ar2              ; |46| Unsigned
      792 00000018 08700000-        ldp       @CL4,DP
      793 00000019 50200015-        ldiu      @CL4,r0               ; |46| 
      794 0000001a 70000000         callu     r0                    ; far call to _VAR_NaN  ; |46| 
      795                                                           ; |46| Far Call Occurs
      796                           .line   12
      797                   ;----------------------------------------------------------------------
      798                   ;  47 | ADC_INT[n] = 0;                                                        
      799                   ;----------------------------------------------------------------------
      800 0000001b 08700000-        ldp       @CL5,DP
      801 0000001c 50280016-        ldiu      @CL5,ar0              ; |47| 
      802 0000001d 50510301         ldiu      *+fp(1),ir0           ; |47| 
      803 0000001e 50600000         ldiu      0,r0                  ; |47| 
      804 0000001f 15404000         sti       r0,*+ar0(ir0)         ; |47| 
      805                           .line   14
      806                   ;----------------------------------------------------------------------
      807                   ;  49 | if (SA)                                                                
      808                   ;----------------------------------------------------------------------
      809 00000020 08700000-        ldp       @CL6,DP
      810 00000021 50280017-        ldiu      @CL6,ar0              ; |49| 
TMS320C3x/4x COFF AssemblerVersion 5.12     Wed Jul 24 11:03:43 2019
Copyright (c) 1987-1999 Texas Instruments Incorporatedasm30.exe -@_30G.AAB 

G:\workspace\EEA\V615\APP\SOURCE\ASM\adc.asm                         PAGE   16

      811 00000022 5040c000         ldiu      *ar0,r0               ; |49| 
      812 00000023 04e00000         cmpi      0,r0                  ; |49| 
      813 00000024 6a0500d0         beq       L21                   ; |49| 
      814                   ;*      Branch Occurs to L21            ; |49| 
      815                           .line   16
      816                   ;----------------------------------------------------------------------
      817                   ;  51 | _GIEP;                                                                 
      818                   ;  53 | switch(n)                                                              
      819                   ;  55 |         case ADC_Text:                                                 
      820                   ;----------------------------------------------------------------------
      821 00000025 0f350000         push    ST                      
      822 00000026 03752000         andn    2000h, ST       
      823 00000027 6a000071         bu        L10                   ; |35| 
      824                   ;*      Branch Occurs to L10            ; |35| 
      825 00000028          L6:        
      826                           .line   22
      827                   ;----------------------------------------------------------------------
      828                   ;  57 | RTD_R = 100.0;  /* do not break */                                     
      829                   ;----------------------------------------------------------------------
      830 00000028 08700000-        ldp       @CL7,DP
      831 00000029 50280018-        ldiu      @CL7,ar0              ; |57| 
      832 0000002a 40606480         ldfu      1.0000000000e+02,f0   ; |57| 
      833 0000002b 1440c000         stf       f0,*ar0               ; |57| 
      834                           .line   28
      835                   ;----------------------------------------------------------------------
      836                   ;  63 | SEL_ADC;                                                               
      837                   ;----------------------------------------------------------------------
      838 0000002c 08780026         ldi             26h,IOF         
      839                           .line   29
      840                   ;----------------------------------------------------------------------
      841                   ;  64 | *SP0_TXDATA = TLV_WRCFR;        /* INIT HOST SELECT MODE */            
      842                   ;----------------------------------------------------------------------
      843 0000002d 08700000-        ldp       @CL8,DP
      844 0000002e 50280019-        ldiu      @CL8,ar0              ; |64| 
      845 0000002f 08700000-        ldp       @CL9,DP
      846 00000030 5020001a-        ldiu      @CL9,r0               ; |64| 
      847 00000031 1540c000         sti       r0,*ar0               ; |64| 
      848                           .line   30
      849                   ;----------------------------------------------------------------------
      850                   ;  65 | WAIT_SP0;                                                              
      851                   ;----------------------------------------------------------------------
      852 00000032 08700000-        ldp       @CL11,DP
      853 00000033 5028001c-        ldiu      @CL11,ar0             ; |65| 
      854 00000034 08700000-        ldp       @CL10,DP
      855 00000035 5029001b-        ldiu      @CL10,ar1             ; |65| 
      856 00000036 5040c000         ldiu      *ar0,r0               ; |65| 
      857 00000037 02e0ffff         and       65535,r0              ; |65| 
      858 00000038 1540c100         sti       r0,*ar1               ; |65| 
      859 00000039 1a770020         tstb    0020h, IF       
      860 0000003a 6a05fffe         .word   6A05FFFEh       
      861 0000003b 03770020         andn    0020h, IF
      862 0000003c 08780022         ldi             22h,IOF         
      863 0000003d 08700000-        ldp       @CL11,DP
      864 0000003e 5029001c-        ldiu      @CL11,ar1             ; |65| 
TMS320C3x/4x COFF AssemblerVersion 5.12     Wed Jul 24 11:03:43 2019
Copyright (c) 1987-1999 Texas Instruments Incorporatedasm30.exe -@_30G.AAB 

G:\workspace\EEA\V615\APP\SOURCE\ASM\adc.asm                         PAGE   17

      865 0000003f 08700000-        ldp       @CL10,DP
      866 00000040 5028001b-        ldiu      @CL10,ar0             ; |65| 
      867 00000041 5040c100         ldiu      *ar1,r0               ; |65| 
      868 00000042 02e0ffff         and       65535,r0              ; |65| 
      869 00000043 1540c000         sti       r0,*ar0               ; |65| 
      870                           .line   32
      871                   ;----------------------------------------------------------------------
      872                   ;  67 | SEL_ADC;                                        /* setup ADC */        
      873                   ;----------------------------------------------------------------------
      874 00000044 08780026         ldi             26h,IOF         
      875                           .line   33
      876                   ;----------------------------------------------------------------------
      877                   ;  68 | *SP0_TXDATA = (ADC_CONFIG | TLV_CFR_EXTREF);                           
      878                   ;----------------------------------------------------------------------
      879 00000045 08700000-        ldp       @CL8,DP
      880 00000046 50280019-        ldiu      @CL8,ar0              ; |68| 
      881 00000047 08700000-        ldp       @CL12,DP
      882 00000048 5020001d-        ldiu      @CL12,r0              ; |68| 
      883 00000049 1540c000         sti       r0,*ar0               ; |68| 
      884                           .line   34
      885                   ;----------------------------------------------------------------------
      886                   ;  69 | WAIT_SP0;                                                              
      887                   ;----------------------------------------------------------------------
      888 0000004a 08700000-        ldp       @CL11,DP
      889 0000004b 5028001c-        ldiu      @CL11,ar0             ; |69| 
      890 0000004c 08700000-        ldp       @CL10,DP
      891 0000004d 5040c000         ldiu      *ar0,r0               ; |69| 
      892 0000004e 5029001b-        ldiu      @CL10,ar1             ; |69| 
      893 0000004f 02e0ffff         and       65535,r0              ; |69| 
      894 00000050 1540c100         sti       r0,*ar1               ; |69| 
      895 00000051 1a770020         tstb    0020h, IF       
      896 00000052 6a05fffe         .word   6A05FFFEh       
      897 00000053 03770020         andn    0020h, IF
      898 00000054 08780022         ldi             22h,IOF         
      899 00000055 08700000-        ldp       @CL11,DP
      900 00000056 5029001c-        ldiu      @CL11,ar1             ; |69| 
      901 00000057 08700000-        ldp       @CL10,DP
      902 00000058 5040c100         ldiu      *ar1,r0               ; |69| 
      903 00000059 5028001b-        ldiu      @CL10,ar0             ; |69| 
      904 0000005a 02e0ffff         and       65535,r0              ; |69| 
      905 0000005b 1540c000         sti       r0,*ar0               ; |69| 
      906                           .line   36
      907                   ;----------------------------------------------------------------------
      908                   ;  71 | ENABLE_EXTINT2;                                                        
      909                   ;----------------------------------------------------------------------
      910 0000005c 0f350000         push    ST                      
      911 0000005d 03752000         andn    2000h, ST       
      912 0000005e 08700000-        ldp       @CL13,DP
      913 0000005f 5028001e-        ldiu      @CL13,ar0             ; |71| 
      914 00000060 50600004         ldiu      4,r0                  ; |71| 
      915 00000061 25a0c000         or3       r0,*ar0,r0            ; |71| 
      916 00000062 1540c000         sti       r0,*ar0               ; |71| 
      917 00000063 0e350000         pop             ST                      
      918                           .line   37
TMS320C3x/4x COFF AssemblerVersion 5.12     Wed Jul 24 11:03:43 2019
Copyright (c) 1987-1999 Texas Instruments Incorporatedasm30.exe -@_30G.AAB 

G:\workspace\EEA\V615\APP\SOURCE\ASM\adc.asm                         PAGE   18

      919                   ;----------------------------------------------------------------------
      920                   ;  72 | DISABLE_INT2;                                                          
      921                   ;----------------------------------------------------------------------
      922 00000064 03760004         andn    0004h, IE
      923                           .line   38
      924                   ;----------------------------------------------------------------------
      925                   ;  73 | CLEAR_INT2;                                                            
      926                   ;----------------------------------------------------------------------
      927 00000065 03770004         andn    0004h, IF
      928                           .line   40
      929                   ;----------------------------------------------------------------------
      930                   ;  75 | break;                                                                 
      931                   ;  77 | case ADC_Tint:                                                         
      932                   ;----------------------------------------------------------------------
      933 00000066 6a000037         bu        L12                   ; |75| 
      934                   ;*      Branch Occurs to L12            ; |75| 
      935 00000067          L7:        
      936                           .line   44
      937                   ;----------------------------------------------------------------------
      938                   ;  79 | if (HW_VER>=0xB7)                                                      
      939                   ;----------------------------------------------------------------------
      940 00000067 08700000-        ldp       @CL14,DP
      941 00000068 5028001f-        ldiu      @CL14,ar0             ; |79| 
      942 00000069 5040c000         ldiu      *ar0,r0               ; |79| 
      943 0000006a 04e000b7         cmpi      183,r0                ; |79| 
      944 0000006b 6a010032         blo       L12                   ; |79| 
      945                   ;*      Branch Occurs to L12            ; |79| 
      946                           .line   46
      947                   ;----------------------------------------------------------------------
      948                   ;  81 | p[0] = 0x70;                                                           
      949                   ;----------------------------------------------------------------------
      950 0000006c 5008000b         ldiu      fp,ar0                ; |81| 
      951 0000006d 02680002         addi      2,ar0                 ; |81| 
      952 0000006e 50600070         ldiu      112,r0                ; |81| 
      953 0000006f 1540c000         sti       r0,*ar0               ; |81| 
      954                           .line   47
      955                   ;----------------------------------------------------------------------
      956                   ;  82 | r        = Write_TMP75(1, 1, (unsigned char*)p);        /* config regis
      957                   ;     | ter */                                                                 
      958                   ;----------------------------------------------------------------------
      959 00000070 5003000b         ldiu      fp,r3                 ; |82| 
      960 00000071 08700000-        ldp       @CL15,DP
      961 00000072 506a0001         ldiu      1,ar2                 ; |82| 
      962 00000073 50620001         ldiu      1,r2                  ; |82| 
      963 00000074 02630002         addi      2,r3                  ; |82| 
      964 00000075 50200020-        ldiu      @CL15,r0              ; |82| 
      965 00000076 70000000         callu     r0                    ; far call to _Write_TMP75      ; |82| 
      966                                                           ; |82| Far Call Occurs
      967 00000077 15400304         sti       r0,*+fp(4)            ; |82| 
      968                           .line   49
      969                   ;----------------------------------------------------------------------
      970                   ;  84 | p[0] = 0x40;                                                           
      971                   ;----------------------------------------------------------------------
      972 00000078 5008000b         ldiu      fp,ar0                ; |84| 
TMS320C3x/4x COFF AssemblerVersion 5.12     Wed Jul 24 11:03:43 2019
Copyright (c) 1987-1999 Texas Instruments Incorporatedasm30.exe -@_30G.AAB 

G:\workspace\EEA\V615\APP\SOURCE\ASM\adc.asm                         PAGE   19

      973 00000079 02680002         addi      2,ar0                 ; |84| 
      974 0000007a 50600040         ldiu      64,r0                 ; |84| 
      975 0000007b 1540c000         sti       r0,*ar0               ; |84| 
      976                           .line   50
      977                   ;----------------------------------------------------------------------
      978                   ;  85 | p[1] = 0x00;                                                           
      979                   ;----------------------------------------------------------------------
      980 0000007c 5008000b         ldiu      fp,ar0                ; |85| 
      981 0000007d 02680003         addi      3,ar0                 ; |85| 
      982 0000007e 50600000         ldiu      0,r0                  ; |85| 
      983 0000007f 1540c000         sti       r0,*ar0               ; |85| 
      984                           .line   51
      985                   ;----------------------------------------------------------------------
      986                   ;  86 | r        = Write_TMP75(2, 2, (unsigned char*)p);        /* Tlow */     
      987                   ;----------------------------------------------------------------------
      988 00000080 08700000-        ldp       @CL15,DP
      989 00000081 506a0002         ldiu      2,ar2                 ; |86| 
      990 00000082 5003000b         ldiu      fp,r3                 ; |86| 
      991 00000083 50620002         ldiu      2,r2                  ; |86| 
      992 00000084 50200020-        ldiu      @CL15,r0              ; |86| 
      993 00000085 02630002         addi      2,r3                  ; |86| 
      994 00000086 70000000         callu     r0                    ; far call to _Write_TMP75      ; |86| 
      995                                                           ; |86| Far Call Occurs
      996 00000087 15400304         sti       r0,*+fp(4)            ; |86| 
      997                           .line   53
      998                   ;----------------------------------------------------------------------
      999                   ;  88 | p[0] = 0xE7;                                                           
     1000                   ;----------------------------------------------------------------------
     1001 00000088 5008000b         ldiu      fp,ar0                ; |88| 
     1002 00000089 02680002         addi      2,ar0                 ; |88| 
     1003 0000008a 506000e7         ldiu      231,r0                ; |88| 
     1004 0000008b 1540c000         sti       r0,*ar0               ; |88| 
     1005                           .line   54
     1006                   ;----------------------------------------------------------------------
     1007                   ;  89 | p[1] = 0x00;                                                           
     1008                   ;----------------------------------------------------------------------
     1009 0000008c 5008000b         ldiu      fp,ar0                ; |89| 
     1010 0000008d 02680003         addi      3,ar0                 ; |89| 
     1011 0000008e 50600000         ldiu      0,r0                  ; |89| 
     1012 0000008f 1540c000         sti       r0,*ar0               ; |89| 
     1013                           .line   55
     1014                   ;----------------------------------------------------------------------
     1015                   ;  90 | r        = Write_TMP75(3, 2, (unsigned char*)p);        /* Thigh */    
     1016                   ;----------------------------------------------------------------------
     1017 00000090 08700000-        ldp       @CL15,DP
     1018 00000091 50200020-        ldiu      @CL15,r0              ; |90| 
     1019 00000092 5003000b         ldiu      fp,r3                 ; |90| 
     1020 00000093 50620002         ldiu      2,r2                  ; |90| 
     1021 00000094 506a0003         ldiu      3,ar2                 ; |90| 
     1022 00000095 02630002         addi      2,r3                  ; |90| 
     1023 00000096 70000000         callu     r0                    ; far call to _Write_TMP75      ; |90| 
     1024                                                           ; |90| Far Call Occurs
     1025 00000097 15400304         sti       r0,*+fp(4)            ; |90| 
     1026                           .line   58
TMS320C3x/4x COFF AssemblerVersion 5.12     Wed Jul 24 11:03:43 2019
Copyright (c) 1987-1999 Texas Instruments Incorporatedasm30.exe -@_30G.AAB 

G:\workspace\EEA\V615\APP\SOURCE\ASM\adc.asm                         PAGE   20

     1027                   ;----------------------------------------------------------------------
     1028                   ;  93 | break;                                                                 
     1029                   ;----------------------------------------------------------------------
     1030 00000098 6a000005         bu        L12                   ; |93| 
     1031                   ;*      Branch Occurs to L12            ; |93| 
     1032 00000099          L10:        
     1033                           .line   18
     1034 00000099 50400301         ldiu      *+fp(1),r0            ; |53| 
     1035 0000009a 04e00002         cmpi      2,r0                  ; |53| 
     1036 0000009b 6a05ff8c         beq       L6                    ; |53| 
     1037                   ;*      Branch Occurs to L6             ; |53| 
     1038 0000009c 04e0000a         cmpi      10,r0                 ; |53| 
     1039 0000009d 6a05ffc9         beq       L7                    ; |53| 
     1040                   ;*      Branch Occurs to L7             ; |53| 
     1041 0000009e          L12:        
     1042                           .line   62
     1043                   ;----------------------------------------------------------------------
     1044                   ;  97 | GIEP;                                                                  
     1045                   ;----------------------------------------------------------------------
     1046 0000009e 0e350000         pop             ST                      
     1047                           .line   63
     1048                   ;----------------------------------------------------------------------
     1049                   ;  98 | return;                                                                
     1050                   ; 101 | switch(n)                                                              
     1051                   ; 103 | case ADC_Tint:                                                         
     1052                   ;----------------------------------------------------------------------
     1053 0000009f 6a00005c         bu        L23                   ; |98| 
     1054                   ;*      Branch Occurs to L23            ; |98| 
     1055 000000a0          L14:        
     1056                           .line   70
     1057                   ;----------------------------------------------------------------------
     1058                   ; 105 | p[0] = 0x70;                                                           
     1059                   ;----------------------------------------------------------------------
     1060 000000a0 5008000b         ldiu      fp,ar0                ; |105| 
     1061 000000a1 02680002         addi      2,ar0                 ; |105| 
     1062 000000a2 50600070         ldiu      112,r0                ; |105| 
     1063 000000a3 1540c000         sti       r0,*ar0               ; |105| 
     1064                           .line   71
     1065                   ;----------------------------------------------------------------------
     1066                   ; 106 | r = Write_TMP75(1, 1, (unsigned char*)p);       /* config register */  
     1067                   ;----------------------------------------------------------------------
     1068 000000a4 5003000b         ldiu      fp,r3                 ; |106| 
     1069 000000a5 08700000-        ldp       @CL15,DP
     1070 000000a6 506a0001         ldiu      1,ar2                 ; |106| 
     1071 000000a7 50620001         ldiu      1,r2                  ; |106| 
     1072 000000a8 02630002         addi      2,r3                  ; |106| 
     1073 000000a9 50200020-        ldiu      @CL15,r0              ; |106| 
     1074 000000aa 70000000         callu     r0                    ; far call to _Write_TMP75      ; |106| 
     1075                                                           ; |106| Far Call Occurs
     1076 000000ab 15400304         sti       r0,*+fp(4)            ; |106| 
     1077                           .line   73
     1078                   ;----------------------------------------------------------------------
     1079                   ; 108 | p[0] = 0x40;                                                           
     1080                   ;----------------------------------------------------------------------
TMS320C3x/4x COFF AssemblerVersion 5.12     Wed Jul 24 11:03:43 2019
Copyright (c) 1987-1999 Texas Instruments Incorporatedasm30.exe -@_30G.AAB 

G:\workspace\EEA\V615\APP\SOURCE\ASM\adc.asm                         PAGE   21

     1081 000000ac 5008000b         ldiu      fp,ar0                ; |108| 
     1082 000000ad 02680002         addi      2,ar0                 ; |108| 
     1083 000000ae 50600040         ldiu      64,r0                 ; |108| 
     1084 000000af 1540c000         sti       r0,*ar0               ; |108| 
     1085                           .line   74
     1086                   ;----------------------------------------------------------------------
     1087                   ; 109 | p[1] = 0x00;                                                           
     1088                   ;----------------------------------------------------------------------
     1089 000000b0 5008000b         ldiu      fp,ar0                ; |109| 
     1090 000000b1 02680003         addi      3,ar0                 ; |109| 
     1091 000000b2 50600000         ldiu      0,r0                  ; |109| 
     1092 000000b3 1540c000         sti       r0,*ar0               ; |109| 
     1093                           .line   75
     1094                   ;----------------------------------------------------------------------
     1095                   ; 110 | r = Write_TMP75(2, 2, (unsigned char*)p);       /* Tlow */             
     1096                   ;----------------------------------------------------------------------
     1097 000000b4 08700000-        ldp       @CL15,DP
     1098 000000b5 506a0002         ldiu      2,ar2                 ; |110| 
     1099 000000b6 5003000b         ldiu      fp,r3                 ; |110| 
     1100 000000b7 50620002         ldiu      2,r2                  ; |110| 
     1101 000000b8 50200020-        ldiu      @CL15,r0              ; |110| 
     1102 000000b9 02630002         addi      2,r3                  ; |110| 
     1103 000000ba 70000000         callu     r0                    ; far call to _Write_TMP75      ; |110| 
     1104                                                           ; |110| Far Call Occurs
     1105 000000bb 15400304         sti       r0,*+fp(4)            ; |110| 
     1106                           .line   77
     1107                   ;----------------------------------------------------------------------
     1108                   ; 112 | p[0] = 0xE7;                                                           
     1109                   ;----------------------------------------------------------------------
     1110 000000bc 5008000b         ldiu      fp,ar0                ; |112| 
     1111 000000bd 02680002         addi      2,ar0                 ; |112| 
     1112 000000be 506000e7         ldiu      231,r0                ; |112| 
     1113 000000bf 1540c000         sti       r0,*ar0               ; |112| 
     1114                           .line   78
     1115                   ;----------------------------------------------------------------------
     1116                   ; 113 | p[1] = 0x00;                                                           
     1117                   ;----------------------------------------------------------------------
     1118 000000c0 5008000b         ldiu      fp,ar0                ; |113| 
     1119 000000c1 02680003         addi      3,ar0                 ; |113| 
     1120 000000c2 50600000         ldiu      0,r0                  ; |113| 
     1121 000000c3 1540c000         sti       r0,*ar0               ; |113| 
     1122                           .line   79
     1123                   ;----------------------------------------------------------------------
     1124                   ; 114 | r = Write_TMP75(3, 2, (unsigned char*)p);       /* Thigh */            
     1125                   ;----------------------------------------------------------------------
     1126 000000c4 08700000-        ldp       @CL15,DP
     1127 000000c5 50200020-        ldiu      @CL15,r0              ; |114| 
     1128 000000c6 5003000b         ldiu      fp,r3                 ; |114| 
     1129 000000c7 50620002         ldiu      2,r2                  ; |114| 
     1130 000000c8 506a0003         ldiu      3,ar2                 ; |114| 
     1131 000000c9 02630002         addi      2,r3                  ; |114| 
     1132 000000ca 70000000         callu     r0                    ; far call to _Write_TMP75      ; |114| 
     1133                                                           ; |114| Far Call Occurs
     1134 000000cb 15400304         sti       r0,*+fp(4)            ; |114| 
TMS320C3x/4x COFF AssemblerVersion 5.12     Wed Jul 24 11:03:43 2019
Copyright (c) 1987-1999 Texas Instruments Incorporatedasm30.exe -@_30G.AAB 

G:\workspace\EEA\V615\APP\SOURCE\ASM\adc.asm                         PAGE   22

     1135                           .line   81
     1136                   ;----------------------------------------------------------------------
     1137                   ; 116 | break;                                                                 
     1138                   ; 118 | case ADC_Text:                                                         
     1139                   ;----------------------------------------------------------------------
     1140 000000cc 6a00002f         bu        L23                   ; |116| 
     1141                   ;*      Branch Occurs to L23            ; |116| 
     1142 000000cd          L15:        
     1143                           .line   85
     1144                   ;----------------------------------------------------------------------
     1145                   ; 120 | RTD_R = 100.0;          /* do not break */                             
     1146                   ; 122 | case ADC_Vinc:                                                         
     1147                   ; 123 | case ADC_Vref:                                                         
     1148                   ;----------------------------------------------------------------------
     1149 000000cd 08700000-        ldp       @CL7,DP
     1150 000000ce 50280018-        ldiu      @CL7,ar0              ; |120| 
     1151 000000cf 40606480         ldfu      1.0000000000e+02,f0   ; |120| 
     1152 000000d0 1440c000         stf       f0,*ar0               ; |120| 
     1153 000000d1          L16:        
     1154                           .line   90
     1155                   ;----------------------------------------------------------------------
     1156                   ; 125 | Read_ADCn(n, 1);        /* start conversion */                         
     1157                   ;----------------------------------------------------------------------
     1158 000000d1 08700000-        ldp       @CL16,DP
     1159 000000d2 504a0301         ldiu      *+fp(1),ar2           ; |125| 
     1160 000000d3 50620001         ldiu      1,r2                  ; |125| 
     1161 000000d4 50200021-        ldiu      @CL16,r0              ; |125| 
     1162 000000d5 70000000         callu     r0                    ; far call to _Read_ADCn        ; |125| 
     1163                                                           ; |125| Far Call Occurs
     1164                           .line   91
     1165                   ;----------------------------------------------------------------------
     1166                   ; 126 | ADC_ACTIVE[0] = n;                                                     
     1167                   ;----------------------------------------------------------------------
     1168 000000d6 08700000-        ldp       @CL17,DP
     1169 000000d7 50280022-        ldiu      @CL17,ar0             ; |126| 
     1170 000000d8 50400301         ldiu      *+fp(1),r0            ; |126| 
     1171 000000d9 1540c000         sti       r0,*ar0               ; |126| 
     1172                           .line   92
     1173                   ;----------------------------------------------------------------------
     1174                   ; 127 | break;                                                                 
     1175                   ; 129 | case ADC_Ain1:                                                         
     1176                   ; 130 | case ADC_GNDSEN:                                                       
     1177                   ; 131 | case ADC_VTUNE:                                                        
     1178                   ;----------------------------------------------------------------------
     1179 000000da 6a000021         bu        L23                   ; |127| 
     1180                   ;*      Branch Occurs to L23            ; |127| 
     1181 000000db          L17:        
     1182                           .line   98
     1183                   ;----------------------------------------------------------------------
     1184                   ; 133 | Read_ADCn(n, 1);        /* start conversion */                         
     1185                   ;----------------------------------------------------------------------
     1186 000000db 08700000-        ldp       @CL16,DP
     1187 000000dc 504a0301         ldiu      *+fp(1),ar2           ; |133| 
     1188 000000dd 50620001         ldiu      1,r2                  ; |133| 
TMS320C3x/4x COFF AssemblerVersion 5.12     Wed Jul 24 11:03:43 2019
Copyright (c) 1987-1999 Texas Instruments Incorporatedasm30.exe -@_30G.AAB 

G:\workspace\EEA\V615\APP\SOURCE\ASM\adc.asm                         PAGE   23

     1189 000000de 50200021-        ldiu      @CL16,r0              ; |133| 
     1190 000000df 70000000         callu     r0                    ; far call to _Read_ADCn        ; |133| 
     1191                                                           ; |133| Far Call Occurs
     1192                           .line   99
     1193                   ;----------------------------------------------------------------------
     1194                   ; 134 | ADC_ACTIVE[1] = n;                                                     
     1195                   ;----------------------------------------------------------------------
     1196 000000e0 08700000-        ldp       @CL18,DP
     1197 000000e1 50280023-        ldiu      @CL18,ar0             ; |134| 
     1198 000000e2 50400301         ldiu      *+fp(1),r0            ; |134| 
     1199 000000e3 1540c000         sti       r0,*ar0               ; |134| 
     1200                           .line   100
     1201                   ;----------------------------------------------------------------------
     1202                   ; 135 | break;                                                                 
     1203                   ; 137 | case ADC_Ain4:                                                         
     1204                   ; 138 | case ADC_Ain3:                                                         
     1205                   ; 139 | case ADC_Ain2:                                                         
     1206                   ;----------------------------------------------------------------------
     1207 000000e4 6a000017         bu        L23                   ; |135| 
     1208                   ;*      Branch Occurs to L23            ; |135| 
     1209 000000e5          L18:        
     1210                           .line   106
     1211                   ;----------------------------------------------------------------------
     1212                   ; 141 | Read_ADCn(n, 1);        /* start conversion */                         
     1213                   ;----------------------------------------------------------------------
     1214 000000e5 08700000-        ldp       @CL16,DP
     1215 000000e6 504a0301         ldiu      *+fp(1),ar2           ; |141| 
     1216 000000e7 50620001         ldiu      1,r2                  ; |141| 
     1217 000000e8 50200021-        ldiu      @CL16,r0              ; |141| 
     1218 000000e9 70000000         callu     r0                    ; far call to _Read_ADCn        ; |141| 
     1219                                                           ; |141| Far Call Occurs
     1220                           .line   107
     1221                   ;----------------------------------------------------------------------
     1222                   ; 142 | ADC_ACTIVE[2] = n;                                                     
     1223                   ;----------------------------------------------------------------------
     1224 000000ea 08700000-        ldp       @CL19,DP
     1225 000000eb 50280024-        ldiu      @CL19,ar0             ; |142| 
     1226 000000ec 50400301         ldiu      *+fp(1),r0            ; |142| 
     1227 000000ed 1540c000         sti       r0,*ar0               ; |142| 
     1228                           .line   108
     1229                   ;----------------------------------------------------------------------
     1230                   ; 143 | break;                                                                 
     1231                   ; 145 | case ADC_Ain5:                                                         
     1232                   ;----------------------------------------------------------------------
     1233 000000ee 6a00000d         bu        L23                   ; |143| 
     1234                   ;*      Branch Occurs to L23            ; |143| 
     1235 000000ef          L19:        
     1236                           .line   112
     1237                   ;----------------------------------------------------------------------
     1238                   ; 147 | Read_ADCn(n, 1);        /* start continuous conversion */              
     1239                   ;----------------------------------------------------------------------
     1240 000000ef 08700000-        ldp       @CL16,DP
     1241 000000f0 504a0301         ldiu      *+fp(1),ar2           ; |147| 
     1242 000000f1 50620001         ldiu      1,r2                  ; |147| 
TMS320C3x/4x COFF AssemblerVersion 5.12     Wed Jul 24 11:03:43 2019
Copyright (c) 1987-1999 Texas Instruments Incorporatedasm30.exe -@_30G.AAB 

G:\workspace\EEA\V615\APP\SOURCE\ASM\adc.asm                         PAGE   24

     1243 000000f2 50200021-        ldiu      @CL16,r0              ; |147| 
     1244 000000f3 70000000         callu     r0                    ; far call to _Read_ADCn        ; |147| 
     1245                                                           ; |147| Far Call Occurs
     1246                           .line   113
     1247                   ;----------------------------------------------------------------------
     1248                   ; 148 | break;                                                                 
     1249                   ; 150 | default:                                                               
     1250                   ;----------------------------------------------------------------------
     1251 000000f4 6a000007         bu        L23                   ; |148| 
     1252                   ;*      Branch Occurs to L23            ; |148| 
     1253                           .line   117
     1254                   ;----------------------------------------------------------------------
     1255                   ; 152 | break;                                                                 
     1256                   ;----------------------------------------------------------------------
     1257 000000f5          L21:        
     1258                           .line   66
     1259 000000f5 50510301         ldiu      *+fp(1),ir0           ; |101| 
     1260 000000f6 04f1000a         cmpi      10,ir0                ; |101| 
     1261 000000f7 6a030004         bhi       L23                   ; |101| 
     1262                   ;*      Branch Occurs to L23            ; |101| 
     1263 000000f8 08700000-        ldp       @CL20,DP
     1264 000000f9 50280025-        ldiu      @CL20,ar0             ; |101| 
     1265 000000fa 50404000         ldiu      *+ar0(ir0),r0         ; |101| 
     1266 000000fb 68000000         bu        r0                    ; |101| 
     1267                   
     1268 00000000                  .sect   ".text"
     1269 00000000 000000d1+SW0:    .word   L16     ; 0
     1270 00000001 000000d1+        .word   L16     ; 1
     1271 00000002 000000cd+        .word   L15     ; 2
     1272 00000003 000000db+        .word   L17     ; 3
     1273 00000004 000000db+        .word   L17     ; 4
     1274 00000005 000000db+        .word   L17     ; 5
     1275 00000006 000000e5+        .word   L18     ; 6
     1276 00000007 000000e5+        .word   L18     ; 7
     1277 00000008 000000e5+        .word   L18     ; 8
     1278 00000009 000000ef+        .word   L19     ; 9
     1279 0000000a 000000a0+        .word   L14     ; 10
     1280 000000fc                  .sect   "initialization"
     1281                   ;*      Branch Occurs to r0             ; |101| 
     1282 000000fc          L23:        
     1283                           .line   120
     1284                                                           ; Begin Epilog Code
     1285 000000fc 50410b01         ldiu      *-fp(1),r1
     1286 000000fd 504bc300         ldiu      *fp,fp
     1287                                                           ; Unallocate the Frame
     1288 000000fe 18740006         subi      6,sp
     1289 000000ff 68000001         bu        r1
     1290                   ;*      Branch Occurs to r1 
     1291                           .endfunc        155,000000000h,4
     1292                   
     1293                   
     1294 0000000b                  .sect    ".text"
     1295                   
     1296                           .global _Read_ADC_test
TMS320C3x/4x COFF AssemblerVersion 5.12     Wed Jul 24 11:03:43 2019
Copyright (c) 1987-1999 Texas Instruments Incorporatedasm30.exe -@_30G.AAB 

G:\workspace\EEA\V615\APP\SOURCE\ASM\adc.asm                         PAGE   25

     1297                           .sym    _Read_ADC_test,_Read_ADC_test,32,2,0
     1298                           .func   169
     1299                   ;******************************************************************************
     1300                   ;* FUNCTION NAME: _Read_ADC_test                                              *
     1301                   ;*                                                                            *
     1302                   ;*   Architecture       : TMS320C33                                           *
     1303                   ;*   Calling Convention : TI Standard Register Parameters                     *
     1304                   ;*   Function Uses Regs : r0,ar0,ar1,st                                       *
     1305                   ;*   Regs Saved         :                                                     *
     1306                   ;*   Stack Frame        : Full (w/ debug)                                     *
     1307                   ;*   Total Frame Size   : 2 Call + 0 Parm + 0 Auto + 0 SOE = 2 words          *
     1308                   ;******************************************************************************
     1309 0000000b          _Read_ADC_test:
     1310                           .line   1
     1311                   ;----------------------------------------------------------------------
     1312                   ; 169 | void Read_ADC_test(void)                                               
     1313                   ;----------------------------------------------------------------------
     1314 0000000b 0f2b0000         push      fp
     1315 0000000c 500b0014         ldiu      sp,fp
     1316                           .line   3
     1317                   ;----------------------------------------------------------------------
     1318                   ; 171 | if (!SA) return;                                                       
     1319                   ;----------------------------------------------------------------------
     1320 0000000d 08700000-        ldp       @CL6,DP
     1321 0000000e 50280017-        ldiu      @CL6,ar0              ; |171| 
     1322 0000000f 5040c000         ldiu      *ar0,r0               ; |171| 
     1323 00000010 04e00000         cmpi      0,r0                  ; |171| 
     1324 00000011 6a05005d         beq       L27                   ; |171| 
     1325                   ;*      Branch Occurs to L27            ; |171| 
     1326                           .line   5
     1327                   ;----------------------------------------------------------------------
     1328                   ; 173 | _GIEP;                                                                 
     1329                   ;----------------------------------------------------------------------
     1330 00000012 0f350000         push    ST                      
     1331 00000013 03752000         andn    2000h, ST       
     1332                           .line   8
     1333                   ;----------------------------------------------------------------------
     1334                   ; 176 | SEL_ADC; *SP0_TXDATA = (TLV_REFPM); WAIT_SP0;                          
     1335                   ;----------------------------------------------------------------------
     1336 00000014 08780026         ldi             26h,IOF         
     1337 00000015 08700000-        ldp       @CL8,DP
     1338 00000016 50280019-        ldiu      @CL8,ar0              ; |176| 
     1339 00000017 08700000-        ldp       @CL21,DP
     1340 00000018 50200026-        ldiu      @CL21,r0              ; |176| 
     1341 00000019 1540c000         sti       r0,*ar0               ; |176| 
     1342 0000001a 08700000-        ldp       @CL11,DP
     1343 0000001b 5029001c-        ldiu      @CL11,ar1             ; |176| 
     1344 0000001c 08700000-        ldp       @CL10,DP
     1345 0000001d 5040c100         ldiu      *ar1,r0               ; |176| 
     1346 0000001e 5028001b-        ldiu      @CL10,ar0             ; |176| 
     1347 0000001f 02e0ffff         and       65535,r0              ; |176| 
     1348 00000020 1540c000         sti       r0,*ar0               ; |176| 
     1349 00000021 1a770020         tstb    0020h, IF       
     1350 00000022 6a05fffe         .word   6A05FFFEh       
TMS320C3x/4x COFF AssemblerVersion 5.12     Wed Jul 24 11:03:43 2019
Copyright (c) 1987-1999 Texas Instruments Incorporatedasm30.exe -@_30G.AAB 

G:\workspace\EEA\V615\APP\SOURCE\ASM\adc.asm                         PAGE   26

     1351 00000023 03770020         andn    0020h, IF
     1352 00000024 08780022         ldi             22h,IOF         
     1353 00000025 08700000-        ldp       @CL11,DP
     1354 00000026 5029001c-        ldiu      @CL11,ar1             ; |176| 
     1355 00000027 08700000-        ldp       @CL10,DP
     1356 00000028 5028001b-        ldiu      @CL10,ar0             ; |176| 
     1357 00000029 5040c100         ldiu      *ar1,r0               ; |176| 
     1358 0000002a 02e0ffff         and       65535,r0              ; |176| 
     1359 0000002b 1540c000         sti       r0,*ar0               ; |176| 
     1360                           .line   9
     1361                   ;----------------------------------------------------------------------
     1362                   ; 177 | TLV_REF[0] = SP0_RX_DATA & 0xFFF0;                                     
     1363                   ;----------------------------------------------------------------------
     1364 0000002c 5029001b-        ldiu      @CL10,ar1             ; |177| 
     1365 0000002d 08700000-        ldp       @CL22,DP
     1366 0000002e 50280027-        ldiu      @CL22,ar0             ; |177| 
     1367 0000002f 5040c100         ldiu      *ar1,r0               ; |177| 
     1368 00000030 02e0fff0         and       65520,r0              ; |177| 
     1369 00000031 1540c000         sti       r0,*ar0               ; |177| 
     1370                           .line   13
     1371                   ;----------------------------------------------------------------------
     1372                   ; 181 | SEL_ADC; *SP0_TXDATA = (TLV_REFP); WAIT_SP0;                           
     1373                   ;----------------------------------------------------------------------
     1374 00000032 08780026         ldi             26h,IOF         
     1375 00000033 08700000-        ldp       @CL8,DP
     1376 00000034 50280019-        ldiu      @CL8,ar0              ; |181| 
     1377 00000035 08700000-        ldp       @CL23,DP
     1378 00000036 50200028-        ldiu      @CL23,r0              ; |181| 
     1379 00000037 1540c000         sti       r0,*ar0               ; |181| 
     1380 00000038 08700000-        ldp       @CL11,DP
     1381 00000039 5028001c-        ldiu      @CL11,ar0             ; |181| 
     1382 0000003a 08700000-        ldp       @CL10,DP
     1383 0000003b 5040c000         ldiu      *ar0,r0               ; |181| 
     1384 0000003c 5029001b-        ldiu      @CL10,ar1             ; |181| 
     1385 0000003d 02e0ffff         and       65535,r0              ; |181| 
     1386 0000003e 1540c100         sti       r0,*ar1               ; |181| 
     1387 0000003f 1a770020         tstb    0020h, IF       
     1388 00000040 6a05fffe         .word   6A05FFFEh       
     1389 00000041 03770020         andn    0020h, IF
     1390 00000042 08780022         ldi             22h,IOF         
     1391 00000043 08700000-        ldp       @CL11,DP
     1392 00000044 5028001c-        ldiu      @CL11,ar0             ; |181| 
     1393 00000045 08700000-        ldp       @CL10,DP
     1394 00000046 5040c000         ldiu      *ar0,r0               ; |181| 
     1395 00000047 5029001b-        ldiu      @CL10,ar1             ; |181| 
     1396 00000048 02e0ffff         and       65535,r0              ; |181| 
     1397 00000049 1540c100         sti       r0,*ar1               ; |181| 
     1398                           .line   14
     1399                   ;----------------------------------------------------------------------
     1400                   ; 182 | TLV_REF[1] = SP0_RX_DATA & 0xFFF0;                                     
     1401                   ;----------------------------------------------------------------------
     1402 0000004a 5028001b-        ldiu      @CL10,ar0             ; |182| 
     1403 0000004b 08700000-        ldp       @CL24,DP
     1404 0000004c 5040c000         ldiu      *ar0,r0               ; |182| 
TMS320C3x/4x COFF AssemblerVersion 5.12     Wed Jul 24 11:03:43 2019
Copyright (c) 1987-1999 Texas Instruments Incorporatedasm30.exe -@_30G.AAB 

G:\workspace\EEA\V615\APP\SOURCE\ASM\adc.asm                         PAGE   27

     1405 0000004d 50290029-        ldiu      @CL24,ar1             ; |182| 
     1406 0000004e 02e0fff0         and       65520,r0              ; |182| 
     1407 0000004f 1540c100         sti       r0,*ar1               ; |182| 
     1408                           .line   18
     1409                   ;----------------------------------------------------------------------
     1410                   ; 186 | SEL_ADC; *SP0_TXDATA = (TLV_REFM); WAIT_SP0;                           
     1411                   ;----------------------------------------------------------------------
     1412 00000050 08780026         ldi             26h,IOF         
     1413 00000051 08700000-        ldp       @CL8,DP
     1414 00000052 50280019-        ldiu      @CL8,ar0              ; |186| 
     1415 00000053 08700000-        ldp       @CL25,DP
     1416 00000054 5020002a-        ldiu      @CL25,r0              ; |186| 
     1417 00000055 1540c000         sti       r0,*ar0               ; |186| 
     1418 00000056 08700000-        ldp       @CL11,DP
     1419 00000057 5029001c-        ldiu      @CL11,ar1             ; |186| 
     1420 00000058 08700000-        ldp       @CL10,DP
     1421 00000059 5040c100         ldiu      *ar1,r0               ; |186| 
     1422 0000005a 5028001b-        ldiu      @CL10,ar0             ; |186| 
     1423 0000005b 02e0ffff         and       65535,r0              ; |186| 
     1424 0000005c 1540c000         sti       r0,*ar0               ; |186| 
     1425 0000005d 1a770020         tstb    0020h, IF       
     1426 0000005e 6a05fffe         .word   6A05FFFEh       
     1427 0000005f 03770020         andn    0020h, IF
     1428 00000060 08780022         ldi             22h,IOF         
     1429 00000061 08700000-        ldp       @CL11,DP
     1430 00000062 5028001c-        ldiu      @CL11,ar0             ; |186| 
     1431 00000063 08700000-        ldp       @CL10,DP
     1432 00000064 5040c000         ldiu      *ar0,r0               ; |186| 
     1433 00000065 5029001b-        ldiu      @CL10,ar1             ; |186| 
     1434 00000066 02e0ffff         and       65535,r0              ; |186| 
     1435 00000067 1540c100         sti       r0,*ar1               ; |186| 
     1436                           .line   19
     1437                   ;----------------------------------------------------------------------
     1438                   ; 187 | TLV_REF[2] = SP0_RX_DATA & 0xFFF0;                                     
     1439                   ;----------------------------------------------------------------------
     1440 00000068 5029001b-        ldiu      @CL10,ar1             ; |187| 
     1441 00000069 08700000-        ldp       @CL26,DP
     1442 0000006a 5040c100         ldiu      *ar1,r0               ; |187| 
     1443 0000006b 5028002b-        ldiu      @CL26,ar0             ; |187| 
     1444 0000006c 02e0fff0         and       65520,r0              ; |187| 
     1445 0000006d 1540c000         sti       r0,*ar0               ; |187| 
     1446                           .line   22
     1447                   ;----------------------------------------------------------------------
     1448                   ; 190 | GIEP;                                                                  
     1449                   ;----------------------------------------------------------------------
     1450 0000006e 0e350000         pop             ST                      
     1451 0000006f          L27:        
     1452                           .line   23
     1453                                                           ; Begin Epilog Code
     1454 0000006f 50410b01         ldiu      *-fp(1),r1
     1455 00000070 504bc300         ldiu      *fp,fp
     1456                                                           ; Unallocate the Frame
     1457 00000071 18740002         subi      2,sp
     1458 00000072 68000001         bu        r1
TMS320C3x/4x COFF AssemblerVersion 5.12     Wed Jul 24 11:03:43 2019
Copyright (c) 1987-1999 Texas Instruments Incorporatedasm30.exe -@_30G.AAB 

G:\workspace\EEA\V615\APP\SOURCE\ASM\adc.asm                         PAGE   28

     1459                   ;*      Branch Occurs to r1 
     1460                           .endfunc        191,000000000h,0
     1461                   
     1462                   
     1463 00000073                  .sect    ".text"
     1464                   
     1465                           .global _Read_ADC_FIFO
     1466                           .sym    _Read_ADC_FIFO,_Read_ADC_FIFO,32,2,0
     1467                           .func   206
     1468                   ;******************************************************************************
     1469                   ;* FUNCTION NAME: _Read_ADC_FIFO                                              *
     1470                   ;*                                                                            *
     1471                   ;*   Architecture       : TMS320C33                                           *
     1472                   ;*   Calling Convention : TI Standard Register Parameters                     *
     1473                   ;*   Function Uses Regs : f0,r0,f1,r1,f2,f3,r3,ar0,ar1,ar2,fp,ar4,ar5,ar6,ir0,*
     1474                   ;*                        st,rc                                               *
     1475                   ;*   Regs Saved         : ar4,ar5,ar6                                         *
     1476                   ;*   Stack Frame        : Full (w/ debug)                                     *
     1477                   ;*   Total Frame Size   : 2 Call + 0 Parm + 6 Auto + 3 SOE = 11 words         *
     1478                   ;******************************************************************************
     1479 00000073          _Read_ADC_FIFO:
     1480                           .sym    _i,1,4,1,32
     1481                           .sym    _f,2,6,1,32
     1482                           .sym    _a,3,62,1,128,,4
     1483                           .line   1
     1484                   ;----------------------------------------------------------------------
     1485                   ; 206 | void Read_ADC_FIFO(void)                                               
     1486                   ; 208 | int i;                                                                 
     1487                   ; 209 | float f;                                                               
     1488                   ; 210 | unsigned int a[4];                                                     
     1489                   ;----------------------------------------------------------------------
     1490 00000073 0f2b0000         push      fp
     1491 00000074 500b0014         ldiu      sp,fp
     1492 00000075 02740006         addi      6,sp
     1493 00000076 0f2c0000         push      ar4
     1494 00000077 0f2d0000         push      ar5
     1495 00000078 0f2e0000         push      ar6
     1496                           .line   7
     1497                   ;----------------------------------------------------------------------
     1498                   ; 212 | if (!SA)                                                               
     1499                   ;----------------------------------------------------------------------
     1500 00000079 08700000-        ldp       @CL6,DP
     1501 0000007a 50280017-        ldiu      @CL6,ar0              ; |212| 
     1502 0000007b 5040c000         ldiu      *ar0,r0               ; |212| 
     1503 0000007c 04e00000         cmpi      0,r0                  ; |212| 
     1504 0000007d 6a0500f4         beq       L36                   ; |212| 
     1505                   ;*      Branch Occurs to L36            ; |212| 
     1506                           .line   8
     1507                   ;----------------------------------------------------------------------
     1508                   ; 213 | return;                                                                
     1509                   ;----------------------------------------------------------------------
     1510                           .line   10
     1511                   ;----------------------------------------------------------------------
     1512                   ; 215 | _GIEP;                                                                 
TMS320C3x/4x COFF AssemblerVersion 5.12     Wed Jul 24 11:03:43 2019
Copyright (c) 1987-1999 Texas Instruments Incorporatedasm30.exe -@_30G.AAB 

G:\workspace\EEA\V615\APP\SOURCE\ASM\adc.asm                         PAGE   29

     1513                   ;----------------------------------------------------------------------
     1514 0000007e 0f350000         push    ST                      
     1515 0000007f 03752000         andn    2000h, ST       
     1516                           .line   12
     1517                   ;----------------------------------------------------------------------
     1518                   ; 217 | for (i=0;i<4;i++)                                                      
     1519                   ;----------------------------------------------------------------------
     1520 00000080 50600000         ldiu      0,r0                  ; |217| 
     1521 00000081 15400301         sti       r0,*+fp(1)            ; |217| 
     1522 00000082 04e00004         cmpi      4,r0                  ; |217| 
     1523 00000083 6a0a0025         bge       L32                   ; |217| 
     1524                   ;*      Branch Occurs to L32            ; |217| 
     1525 00000084          L31:        
     1526                           .line   14
     1527                   ;----------------------------------------------------------------------
     1528                   ; 219 | SEL_ADC;                                                               
     1529                   ;----------------------------------------------------------------------
     1530 00000084 08780026         ldi             26h,IOF         
     1531                           .line   15
     1532                   ;----------------------------------------------------------------------
     1533                   ; 220 | *SP0_TXDATA = (TLV_FIFO);                                              
     1534                   ;----------------------------------------------------------------------
     1535 00000085 08700000-        ldp       @CL8,DP
     1536 00000086 50280019-        ldiu      @CL8,ar0              ; |220| 
     1537 00000087 08700000-        ldp       @CL27,DP
     1538 00000088 5020002c-        ldiu      @CL27,r0              ; |220| 
     1539 00000089 1540c000         sti       r0,*ar0               ; |220| 
     1540                           .line   16
     1541                   ;----------------------------------------------------------------------
     1542                   ; 221 | WAIT_SP0;                                                              
     1543                   ;----------------------------------------------------------------------
     1544 0000008a 08700000-        ldp       @CL11,DP
     1545 0000008b 5028001c-        ldiu      @CL11,ar0             ; |221| 
     1546 0000008c 08700000-        ldp       @CL10,DP
     1547 0000008d 5040c000         ldiu      *ar0,r0               ; |221| 
     1548 0000008e 5029001b-        ldiu      @CL10,ar1             ; |221| 
     1549 0000008f 02e0ffff         and       65535,r0              ; |221| 
     1550 00000090 1540c100         sti       r0,*ar1               ; |221| 
     1551 00000091 1a770020         tstb    0020h, IF       
     1552 00000092 6a05fffe         .word   6A05FFFEh       
     1553 00000093 03770020         andn    0020h, IF
     1554 00000094 08780022         ldi             22h,IOF         
     1555 00000095 08700000-        ldp       @CL11,DP
     1556 00000096 5028001c-        ldiu      @CL11,ar0             ; |221| 
     1557 00000097 08700000-        ldp       @CL10,DP
     1558 00000098 5029001b-        ldiu      @CL10,ar1             ; |221| 
     1559 00000099 5040c000         ldiu      *ar0,r0               ; |221| 
     1560 0000009a 02e0ffff         and       65535,r0              ; |221| 
     1561 0000009b 1540c100         sti       r0,*ar1               ; |221| 
     1562                           .line   19
     1563                   ;----------------------------------------------------------------------
     1564                   ; 224 | a[i] = (SP0_RX_DATA & 0xFFF0)>>4;                                      
     1565                   ;----------------------------------------------------------------------
     1566 0000009c 5008000b         ldiu      fp,ar0                ; |224| 
TMS320C3x/4x COFF AssemblerVersion 5.12     Wed Jul 24 11:03:43 2019
Copyright (c) 1987-1999 Texas Instruments Incorporatedasm30.exe -@_30G.AAB 

G:\workspace\EEA\V615\APP\SOURCE\ASM\adc.asm                         PAGE   30

     1567 0000009d 5029001b-        ldiu      @CL10,ar1             ; |224| 
     1568 0000009e 02680003         addi      3,ar0                 ; |224| 
     1569 0000009f 5040c100         ldiu      *ar1,r0               ; |224| 
     1570 000000a0 02e0fff0         and       65520,r0              ; |224| 
     1571 000000a1 50510301         ldiu      *+fp(1),ir0           ; |224| 
     1572 000000a2 09e0fffc         lsh       -4,r0                 ; |224| 
     1573 000000a3 15404000         sti       r0,*+ar0(ir0)         ; |224| 
     1574                           .line   12
     1575 000000a4 50600001         ldiu      1,r0                  ; |217| 
     1576 000000a5 02400301         addi      *+fp(1),r0            ; |217| 
     1577 000000a6 15400301         sti       r0,*+fp(1)            ; |217| 
     1578 000000a7 04e00004         cmpi      4,r0                  ; |217| 
     1579 000000a8 6a07ffdb         blt       L31                   ; |217| 
     1580                   ;*      Branch Occurs to L31            ; |217| 
     1581 000000a9          L32:        
     1582                           .line   23
     1583                   ;----------------------------------------------------------------------
     1584                   ; 228 | ADC_INT[ADC_Text]       = a[3];                                        
     1585                   ;----------------------------------------------------------------------
     1586 000000a9 5008000b         ldiu      fp,ar0                ; |228| 
     1587 000000aa 08700000-        ldp       @CL28,DP
     1588 000000ab 02680006         addi      6,ar0                 ; |228| 
     1589 000000ac 5029002d-        ldiu      @CL28,ar1             ; |228| 
     1590 000000ad 5040c000         ldiu      *ar0,r0               ; |228| 
     1591 000000ae 1540c100         sti       r0,*ar1               ; |228| 
     1592                           .line   24
     1593                   ;----------------------------------------------------------------------
     1594                   ; 229 | f                                       = ((float)ADC_INT[ADC_Text] * A
     1595                   ;     | DC_TRIM_F_1[ADC_Text] / ADC_TRIM_I_1[ADC_Text]);                       
     1596                   ;----------------------------------------------------------------------
     1597 000000af 5029002d-        ldiu      @CL28,ar1             ; |229| 
     1598 000000b0 08700000-        ldp       @CL29,DP
     1599 000000b1 502a002e-        ldiu      @CL29,ar2             ; |229| 
     1600 000000b2 08700000-        ldp       @CL30,DP
     1601 000000b3 05c0c100         float     *ar1,f0               ; |229| 
     1602 000000b4 5028002f-        ldiu      @CL30,ar0             ; |229| 
     1603 000000b5 24c000c2         mpyf3     *ar2,f0,f0            ; |229| 
     1604 000000b6 05c1c000         float     *ar0,f1               ; |229| 
     1605 000000b7 62000000!        call      DIV_F30               ; |229| 
     1606                                                           ; |229| Call Occurs
     1607 000000b8 14400302         stf       f0,*+fp(2)            ; |229| 
     1608                           .line   25
     1609                   ;----------------------------------------------------------------------
     1610                   ; 230 | f                                       =   ((RTD_CAL_HI_OHM - RTD_CAL_
     1611                   ;     | LO_OHM) / (RTD_CAL_HI_V - RTD_CAL_LO_V)) * f                           
     1612                   ; 231 |                                           + ((RTD_CAL_LO_OHM * RTD_CAL_
     1613                   ;     | HI_V - RTD_CAL_HI_OHM * RTD_CAL_LO_V) / (RTD_CAL_HI_V - RTD_CAL_LO_V));
     1614                   ;----------------------------------------------------------------------
     1615 000000b9 08700000-        ldp       @CL32,DP
     1616 000000ba 502a0031-        ldiu      @CL32,ar2             ; |230| 
     1617 000000bb 08700000-        ldp       @CL31,DP
     1618 000000bc 50280030-        ldiu      @CL31,ar0             ; |230| 
     1619 000000bd 08700000-        ldp       @CL34,DP
     1620 000000be 50290033-        ldiu      @CL34,ar1             ; |230| 
TMS320C3x/4x COFF AssemblerVersion 5.12     Wed Jul 24 11:03:43 2019
Copyright (c) 1987-1999 Texas Instruments Incorporatedasm30.exe -@_30G.AAB 

G:\workspace\EEA\V615\APP\SOURCE\ASM\adc.asm                         PAGE   31

     1621 000000bf 08700000-        ldp       @CL33,DP
     1622 000000c0 502c0032-        ldiu      @CL33,ar4             ; |230| 
     1623 000000c1 26e0c0c2         subf3     *ar2,*ar0,f0          ; |230| 
     1624 000000c2 26e1c4c1         subf3     *ar1,*ar4,f1          ; |230| 
     1625 000000c3 62000000!        call      DIV_F30               ; |230| 
     1626                                                           ; |230| Call Occurs
     1627 000000c4 08700000-        ldp       @CL31,DP
     1628 000000c5 502a0030-        ldiu      @CL31,ar2             ; |230| 
     1629 000000c6 08700000-        ldp       @CL34,DP
     1630 000000c7 50280033-        ldiu      @CL34,ar0             ; |230| 
     1631 000000c8 08700000-        ldp       @CL32,DP
     1632 000000c9 502d0031-        ldiu      @CL32,ar5             ; |230| 
     1633 000000ca 08700000-        ldp       @CL33,DP
     1634 000000cb 502c0032-        ldiu      @CL33,ar4             ; |230| 
     1635 000000cc 08700000-        ldp       @CL34,DP
     1636 000000cd 502e0033-        ldiu      @CL34,ar6             ; |230| 
     1637 000000ce 24e1c2c0         mpyf3     *ar0,*ar2,f1          ; |230| 
     1638 000000cf 24e3c5c4         mpyf3     *ar4,*ar5,f3          ; |230| 
     1639 000000d0 40020000         ldfu      f0,f2                 ; |230| 
     1640 000000d1 08700000-        ldp       @CL33,DP
     1641 000000d2 26800301         subf3     f1,f3,f0              ; |230| 
     1642 000000d3 50290032-        ldiu      @CL33,ar1             ; |230| 
     1643 000000d4 0a420302         mpyf      *+fp(2),f2            ; |230| 
     1644 000000d5 26e1c1c6         subf3     *ar6,*ar1,f1          ; |230| 
     1645 000000d6 62000000!        call      DIV_F30               ; |230| 
     1646                                                           ; |230| Call Occurs
     1647 000000d7 20800002         addf3     f2,f0,f0              ; |230| 
     1648 000000d8 14400302         stf       f0,*+fp(2)            ; |230| 
     1649                           .line   27
     1650                   ;----------------------------------------------------------------------
     1651                   ; 232 | RTD_R                           = f;                                   
     1652                   ;----------------------------------------------------------------------
     1653 000000d9 08700000-        ldp       @CL7,DP
     1654 000000da 50280018-        ldiu      @CL7,ar0              ; |232| 
     1655 000000db 1440c000         stf       f0,*ar0               ; |232| 
     1656                           .line   28
     1657                   ;----------------------------------------------------------------------
     1658                   ; 233 | f                                       = TCE2 * TCE * TCE * f * f + TC
     1659                   ;     | E1 * TCE * f + TCE0;                                                   
     1660                   ;----------------------------------------------------------------------
     1661 000000dc 08700000-        ldp       @CL36,DP
     1662 000000dd 40400302         ldfu      *+fp(2),f0            ; |233| 
     1663 000000de 0a200035-        mpyf      @CL36,f0              ; |233| 
     1664 000000df 08700000-        ldp       @CL35,DP
     1665 000000e0 40410302         ldfu      *+fp(2),f1            ; |233| 
     1666 000000e1 0a210034-        mpyf      @CL35,f1              ; |233| 
     1667 000000e2 0a400302         mpyf      *+fp(2),f0            ; |233| 
     1668 000000e3 08700000-        ldp       @CL37,DP
     1669 000000e4 20800100         addf3     f0,f1,f0              ; |233| 
     1670 000000e5 01a00036-        addf      @CL37,f0              ; |233| 
     1671 000000e6 14400302         stf       f0,*+fp(2)            ; |233| 
     1672                           .line   29
     1673                   ;----------------------------------------------------------------------
     1674                   ; 234 | f                                       = (f * TEMPERATURE_TRIM_T1) + T
TMS320C3x/4x COFF AssemblerVersion 5.12     Wed Jul 24 11:03:43 2019
Copyright (c) 1987-1999 Texas Instruments Incorporatedasm30.exe -@_30G.AAB 

G:\workspace\EEA\V615\APP\SOURCE\ASM\adc.asm                         PAGE   32

     1675                   ;     | EMPERATURE_TRIM_T0;                                                    
     1676                   ;----------------------------------------------------------------------
     1677 000000e7 08700000-        ldp       @CL39,DP
     1678 000000e8 50280038-        ldiu      @CL39,ar0             ; |234| 
     1679 000000e9 08700000-        ldp       @CL38,DP
     1680 000000ea 4040c000         ldfu      *ar0,f0               ; |234| 
     1681 000000eb 50290037-        ldiu      @CL38,ar1             ; |234| 
     1682 000000ec 0a400302         mpyf      *+fp(2),f0            ; |234| 
     1683 000000ed 20a0c100         addf3     f0,*ar1,f0            ; |234| 
     1684 000000ee 14400302         stf       f0,*+fp(2)            ; |234| 
     1685                           .line   31
     1686                   ;----------------------------------------------------------------------
     1687                   ; 236 | VAR_Update(&REG_ADC[ADC_Text], f, 0, 0);                               
     1688                   ;----------------------------------------------------------------------
     1689 000000ef 08700000-        ldp       @CL40,DP
     1690 000000f0 506300ff         ldiu      255,r3                ; |236| 
     1691 000000f1 502a0039-        ldiu      @CL40,ar2             ; |236| 
     1692 000000f2 40020000         ldfu      f0,f2                 ; |236| Move F32 into F40 for CONV
     1693 000000f3 03020003         andn      r3,f2                 ; |236| Bit mask for F32/F40 conversion
     1694 000000f4 08700000-        ldp       @CL41,DP
     1695 000000f5 507b0000         ldiu      0,rc                  ; |236| 
     1696 000000f6 5021003a-        ldiu      @CL41,r1              ; |236| 
     1697 000000f7 50630000         ldiu      0,r3                  ; |236| 
     1698 000000f8 70000001         callu     r1                    ; far call to _VAR_Update       ; |236| 
     1699                                                           ; |236| Far Call Occurs
     1700                           .line   33
     1701                   ;----------------------------------------------------------------------
     1702                   ; 238 | if(HW_VER<0xB7)                                                        
     1703                   ;----------------------------------------------------------------------
     1704 000000f9 08700000-        ldp       @CL14,DP
     1705 000000fa 5028001f-        ldiu      @CL14,ar0             ; |238| 
     1706 000000fb 5040c000         ldiu      *ar0,r0               ; |238| 
     1707 000000fc 04e000b7         cmpi      183,r0                ; |238| 
     1708 000000fd 6a040020         bhs       L34                   ; |238| 
     1709                   ;*      Branch Occurs to L34            ; |238| 
     1710                           .line   35
     1711                   ;----------------------------------------------------------------------
     1712                   ; 240 | ADC_INT[ADC_Tint]       = a[2];                                        
     1713                   ;----------------------------------------------------------------------
     1714 000000fe 5008000b         ldiu      fp,ar0                ; |240| 
     1715 000000ff 08700000-        ldp       @CL42,DP
     1716 00000100 02680005         addi      5,ar0                 ; |240| 
     1717 00000101 5029003b-        ldiu      @CL42,ar1             ; |240| 
     1718 00000102 5040c000         ldiu      *ar0,r0               ; |240| 
     1719 00000103 1540c100         sti       r0,*ar1               ; |240| 
     1720                           .line   36
     1721                   ;----------------------------------------------------------------------
     1722                   ; 241 | f                                       = ((float)ADC_INT[ADC_Tint] * A
     1723                   ;     | DC_TRIM_F_1[ADC_Tint] / ADC_TRIM_I_1[ADC_Tint]);                       
     1724                   ; 243 | #define TCI 182.1493625                                                
     1725                   ;----------------------------------------------------------------------
     1726 00000104 5028003b-        ldiu      @CL42,ar0             ; |241| 
     1727 00000105 08700000-        ldp       @CL43,DP
     1728 00000106 502a003c-        ldiu      @CL43,ar2             ; |241| 
TMS320C3x/4x COFF AssemblerVersion 5.12     Wed Jul 24 11:03:43 2019
Copyright (c) 1987-1999 Texas Instruments Incorporatedasm30.exe -@_30G.AAB 

G:\workspace\EEA\V615\APP\SOURCE\ASM\adc.asm                         PAGE   33

     1729 00000107 08700000-        ldp       @CL44,DP
     1730 00000108 05c0c000         float     *ar0,f0               ; |241| 
     1731 00000109 5029003d-        ldiu      @CL44,ar1             ; |241| 
     1732 0000010a 24c000c2         mpyf3     *ar2,f0,f0            ; |241| 
     1733 0000010b 05c1c100         float     *ar1,f1               ; |241| 
     1734 0000010c 62000000!        call      DIV_F30               ; |241| 
     1735                                                           ; |241| Call Occurs
     1736 0000010d 14400302         stf       f0,*+fp(2)            ; |241| 
     1737                           .line   40
     1738                   ;----------------------------------------------------------------------
     1739                   ; 245 | f = TCI*f - 273.15;                                                    
     1740                   ;----------------------------------------------------------------------
     1741 0000010e 08700000-        ldp       @CL45,DP
     1742 0000010f 0a20003e-        mpyf      @CL45,f0              ; |245| 
     1743 00000110 08700000-        ldp       @CL46,DP
     1744 00000111 17a0003f-        subf      @CL46,f0              ; |245| 
     1745 00000112 14400302         stf       f0,*+fp(2)            ; |245| 
     1746                           .line   42
     1747                   ;----------------------------------------------------------------------
     1748                   ; 247 | VAR_Update(&REG_ADC[ADC_Tint], f, 0, 0);                               
     1749                   ; 249 | else                                                                   
     1750                   ;----------------------------------------------------------------------
     1751 00000113 08700000-        ldp       @CL47,DP
     1752 00000114 506300ff         ldiu      255,r3                ; |247| 
     1753 00000115 502a0040-        ldiu      @CL47,ar2             ; |247| 
     1754 00000116 507b0000         ldiu      0,rc                  ; |247| 
     1755 00000117 08700000-        ldp       @CL41,DP
     1756 00000118 40020000         ldfu      f0,f2                 ; |247| Move F32 into F40 for CONV
     1757 00000119 03020003         andn      r3,f2                 ; |247| Bit mask for F32/F40 conversion
     1758 0000011a 5021003a-        ldiu      @CL41,r1              ; |247| 
     1759 0000011b 50630000         ldiu      0,r3                  ; |247| 
     1760 0000011c 70000001         callu     r1                    ; far call to _VAR_Update       ; |247| 
     1761                                                           ; |247| Far Call Occurs
     1762 0000011d 6a00001a         bu        L35                   ; |205| 
     1763                   ;*      Branch Occurs to L35            ; |205| 
     1764 0000011e          L34:        
     1765                           .line   46
     1766                   ;----------------------------------------------------------------------
     1767                   ; 251 | ADC_INT[ADC_Spare]      = a[2];                                        
     1768                   ;----------------------------------------------------------------------
     1769 0000011e 5008000b         ldiu      fp,ar0                ; |251| 
     1770 0000011f 08700000-        ldp       @CL48,DP
     1771 00000120 02680005         addi      5,ar0                 ; |251| 
     1772 00000121 50290041-        ldiu      @CL48,ar1             ; |251| 
     1773 00000122 5040c000         ldiu      *ar0,r0               ; |251| 
     1774 00000123 1540c100         sti       r0,*ar1               ; |251| 
     1775                           .line   47
     1776                   ;----------------------------------------------------------------------
     1777                   ; 252 | f                                       = ((float)ADC_INT[ADC_Spare]*AD
     1778                   ;     | C_TRIM_F_1[ADC_Spare]/ADC_TRIM_I_1[ADC_Spare]);                        
     1779                   ;----------------------------------------------------------------------
     1780 00000124 50280041-        ldiu      @CL48,ar0             ; |252| 
     1781 00000125 08700000-        ldp       @CL49,DP
     1782 00000126 502a0042-        ldiu      @CL49,ar2             ; |252| 
TMS320C3x/4x COFF AssemblerVersion 5.12     Wed Jul 24 11:03:43 2019
Copyright (c) 1987-1999 Texas Instruments Incorporatedasm30.exe -@_30G.AAB 

G:\workspace\EEA\V615\APP\SOURCE\ASM\adc.asm                         PAGE   34

     1783 00000127 08700000-        ldp       @CL50,DP
     1784 00000128 05c0c000         float     *ar0,f0               ; |252| 
     1785 00000129 50290043-        ldiu      @CL50,ar1             ; |252| 
     1786 0000012a 24c000c2         mpyf3     *ar2,f0,f0            ; |252| 
     1787 0000012b 05c1c100         float     *ar1,f1               ; |252| 
     1788 0000012c 62000000!        call      DIV_F30               ; |252| 
     1789                                                           ; |252| Call Occurs
     1790 0000012d 14400302         stf       f0,*+fp(2)            ; |252| 
     1791                           .line   49
     1792                   ;----------------------------------------------------------------------
     1793                   ; 254 | VAR_Update(&REG_ADC[ADC_Spare], f, 0, 0);                              
     1794                   ;----------------------------------------------------------------------
     1795 0000012e 08700000-        ldp       @CL51,DP
     1796 0000012f 506300ff         ldiu      255,r3                ; |254| 
     1797 00000130 502a0044-        ldiu      @CL51,ar2             ; |254| 
     1798 00000131 08700000-        ldp       @CL41,DP
     1799 00000132 507b0000         ldiu      0,rc                  ; |254| 
     1800 00000133 40020000         ldfu      f0,f2                 ; |254| Move F32 into F40 for CONV
     1801 00000134 5021003a-        ldiu      @CL41,r1              ; |254| 
     1802 00000135 03020003         andn      r3,f2                 ; |254| Bit mask for F32/F40 conversion
     1803 00000136 50630000         ldiu      0,r3                  ; |254| 
     1804 00000137 70000001         callu     r1                    ; far call to _VAR_Update       ; |254| 
     1805                                                           ; |254| Far Call Occurs
     1806 00000138          L35:        
     1807                           .line   53
     1808                   ;----------------------------------------------------------------------
     1809                   ; 258 | ADC_INT[ADC_Vinc]       = a[1];                                        
     1810                   ;----------------------------------------------------------------------
     1811 00000138 5008000b         ldiu      fp,ar0                ; |258| 
     1812 00000139 08700000-        ldp       @CL52,DP
     1813 0000013a 02680004         addi      4,ar0                 ; |258| 
     1814 0000013b 50290045-        ldiu      @CL52,ar1             ; |258| 
     1815 0000013c 5040c000         ldiu      *ar0,r0               ; |258| 
     1816 0000013d 1540c100         sti       r0,*ar1               ; |258| 
     1817                           .line   54
     1818                   ;----------------------------------------------------------------------
     1819                   ; 259 | f                                       = ((float)ADC_INT[ADC_Vinc]*ADC
     1820                   ;     | _TRIM_F_1[ADC_Vinc]/ADC_TRIM_I_1[ADC_Vinc]);                           
     1821                   ;----------------------------------------------------------------------
     1822 0000013e 50290045-        ldiu      @CL52,ar1             ; |259| 
     1823 0000013f 08700000-        ldp       @CL53,DP
     1824 00000140 502a0046-        ldiu      @CL53,ar2             ; |259| 
     1825 00000141 08700000-        ldp       @CL54,DP
     1826 00000142 05c0c100         float     *ar1,f0               ; |259| 
     1827 00000143 50280047-        ldiu      @CL54,ar0             ; |259| 
     1828 00000144 24c000c2         mpyf3     *ar2,f0,f0            ; |259| 
     1829 00000145 05c1c000         float     *ar0,f1               ; |259| 
     1830 00000146 62000000!        call      DIV_F30               ; |259| 
     1831                                                           ; |259| Call Occurs
     1832 00000147 14400302         stf       f0,*+fp(2)            ; |259| 
     1833                           .line   56
     1834                   ;----------------------------------------------------------------------
     1835                   ; 261 | VAR_Update(&REG_ADC[ADC_Vinc], f, 0, 0);                               
     1836                   ;----------------------------------------------------------------------
TMS320C3x/4x COFF AssemblerVersion 5.12     Wed Jul 24 11:03:43 2019
Copyright (c) 1987-1999 Texas Instruments Incorporatedasm30.exe -@_30G.AAB 

G:\workspace\EEA\V615\APP\SOURCE\ASM\adc.asm                         PAGE   35

     1837 00000148 506300ff         ldiu      255,r3                ; |261| 
     1838 00000149 08700000-        ldp       @CL55,DP
     1839 0000014a 507b0000         ldiu      0,rc                  ; |261| 
     1840 0000014b 502a0048-        ldiu      @CL55,ar2             ; |261| 
     1841 0000014c 08700000-        ldp       @CL41,DP
     1842 0000014d 40010000         ldfu      f0,f1                 ; |261| 
     1843 0000014e 5020003a-        ldiu      @CL41,r0              ; |261| 
     1844 0000014f 40020001         ldfu      f1,f2                 ; |261| Move F32 into F40 for CONV
     1845 00000150 03020003         andn      r3,f2                 ; |261| Bit mask for F32/F40 conversion
     1846 00000151 50630000         ldiu      0,r3                  ; |261| 
     1847 00000152 70000000         callu     r0                    ; far call to _VAR_Update       ; |261| 
     1848                                                           ; |261| Far Call Occurs
     1849                           .line   59
     1850                   ;----------------------------------------------------------------------
     1851                   ; 264 | ADC_INT[ADC_Vref]       = a[0];                                        
     1852                   ;----------------------------------------------------------------------
     1853 00000153 5008000b         ldiu      fp,ar0                ; |264| 
     1854 00000154 08700000-        ldp       @CL5,DP
     1855 00000155 02680003         addi      3,ar0                 ; |264| 
     1856 00000156 50290016-        ldiu      @CL5,ar1              ; |264| 
     1857 00000157 5040c000         ldiu      *ar0,r0               ; |264| 
     1858 00000158 1540c100         sti       r0,*ar1               ; |264| 
     1859                           .line   60
     1860                   ;----------------------------------------------------------------------
     1861                   ; 265 | f                                       = ((float)ADC_INT[ADC_Vref]*ADC
     1862                   ;     | _TRIM_F_1[ADC_Vref]/ADC_TRIM_I_1[ADC_Vref]);                           
     1863                   ;----------------------------------------------------------------------
     1864 00000159 502a0016-        ldiu      @CL5,ar2              ; |265| 
     1865 0000015a 08700000-        ldp       @CL56,DP
     1866 0000015b 50290049-        ldiu      @CL56,ar1             ; |265| 
     1867 0000015c 08700000-        ldp       @CL57,DP
     1868 0000015d 05c0c200         float     *ar2,f0               ; |265| 
     1869 0000015e 5028004a-        ldiu      @CL57,ar0             ; |265| 
     1870 0000015f 24c000c1         mpyf3     *ar1,f0,f0            ; |265| 
     1871 00000160 05c1c000         float     *ar0,f1               ; |265| 
     1872 00000161 62000000!        call      DIV_F30               ; |265| 
     1873                                                           ; |265| Call Occurs
     1874 00000162 14400302         stf       f0,*+fp(2)            ; |265| 
     1875                           .line   62
     1876                   ;----------------------------------------------------------------------
     1877                   ; 267 | VAR_Update(&REG_ADC[ADC_Vref], f, 0, 0);                               
     1878                   ;----------------------------------------------------------------------
     1879 00000163 08700000-        ldp       @CL3,DP
     1880 00000164 507b0000         ldiu      0,rc                  ; |267| 
     1881 00000165 502a0014-        ldiu      @CL3,ar2              ; |267| 
     1882 00000166 40020000         ldfu      f0,f2                 ; |267| 
     1883 00000167 08700000-        ldp       @CL41,DP
     1884 00000168 506100ff         ldiu      255,r1                ; |267| 
     1885 00000169 5020003a-        ldiu      @CL41,r0              ; |267| 
     1886 0000016a 03020001         andn      r1,f2                 ; |267| Bit mask for F32/F40 conversion
     1887 0000016b 50630000         ldiu      0,r3                  ; |267| 
     1888 0000016c 70000000         callu     r0                    ; far call to _VAR_Update       ; |267| 
     1889                                                           ; |267| Far Call Occurs
     1890                           .line   64
TMS320C3x/4x COFF AssemblerVersion 5.12     Wed Jul 24 11:03:43 2019
Copyright (c) 1987-1999 Texas Instruments Incorporatedasm30.exe -@_30G.AAB 

G:\workspace\EEA\V615\APP\SOURCE\ASM\adc.asm                         PAGE   36

     1891                   ;----------------------------------------------------------------------
     1892                   ; 269 | READ_ADC_INPUTS = 4;                                                   
     1893                   ;----------------------------------------------------------------------
     1894 0000016d 08700000-        ldp       @CL1,DP
     1895 0000016e 50280012-        ldiu      @CL1,ar0              ; |269| 
     1896 0000016f 50600004         ldiu      4,r0                  ; |269| 
     1897 00000170 1540c000         sti       r0,*ar0               ; |269| 
     1898                           .line   65
     1899                   ;----------------------------------------------------------------------
     1900                   ; 270 | GIEP;                                                                  
     1901                   ;----------------------------------------------------------------------
     1902 00000171 0e350000         pop             ST                      
     1903 00000172          L36:        
     1904                           .line   66
     1905                                                           ; Begin Epilog Code
     1906 00000172 50410b01         ldiu      *-fp(1),r1
     1907 00000173 504bc300         ldiu      *fp,fp
     1908                                                           ; Restore SOE Registers
     1909 00000174 0e2e0000         pop       ar6
     1910 00000175 0e2d0000         pop       ar5
     1911 00000176 0e2c0000         pop       ar4
     1912                                                           ; Unallocate the Frame
     1913 00000177 18740008         subi      8,sp
     1914 00000178 68000001         bu        r1
     1915                   ;*      Branch Occurs to r1 
     1916                           .endfunc        271,000007000h,6
     1917                   
     1918                   
     1919 00000179                  .sect    ".text"
     1920                   
     1921                           .global _Convert_ADC
     1922                           .sym    _Convert_ADC,_Convert_ADC,32,2,0
     1923                           .func   285
     1924                   ;******************************************************************************
     1925                   ;* FUNCTION NAME: _Convert_ADC                                                *
     1926                   ;*                                                                            *
     1927                   ;*   Architecture       : TMS320C33                                           *
     1928                   ;*   Calling Convention : TI Standard Register Parameters                     *
     1929                   ;*   Function Uses Regs : r0,ar0,ar1,st                                       *
     1930                   ;*   Regs Saved         :                                                     *
     1931                   ;*   Stack Frame        : Full (w/ debug)                                     *
     1932                   ;*   Total Frame Size   : 2 Call + 0 Parm + 2 Auto + 0 SOE = 4 words          *
     1933                   ;******************************************************************************
     1934 00000179          _Convert_ADC:
     1935                           .sym    _i,1,4,1,32
     1936                           .sym    _j,2,4,1,32
     1937                           .line   1
     1938                   ;----------------------------------------------------------------------
     1939                   ; 285 | void Convert_ADC(void)                                                 
     1940                   ; 287 | int i,j;                                                               
     1941                   ;----------------------------------------------------------------------
     1942 00000179 0f2b0000         push      fp
     1943 0000017a 500b0014         ldiu      sp,fp
     1944 0000017b 02740002         addi      2,sp
TMS320C3x/4x COFF AssemblerVersion 5.12     Wed Jul 24 11:03:43 2019
Copyright (c) 1987-1999 Texas Instruments Incorporatedasm30.exe -@_30G.AAB 

G:\workspace\EEA\V615\APP\SOURCE\ASM\adc.asm                         PAGE   37

     1945                           .line   5
     1946                   ;----------------------------------------------------------------------
     1947                   ; 289 | if (!SA)                                                               
     1948                   ;----------------------------------------------------------------------
     1949 0000017c 08700000-        ldp       @CL6,DP
     1950 0000017d 50280017-        ldiu      @CL6,ar0              ; |289| 
     1951 0000017e 5040c000         ldiu      *ar0,r0               ; |289| 
     1952 0000017f 04e00000         cmpi      0,r0                  ; |289| 
     1953 00000180 6a05002e         beq       L44                   ; |289| 
     1954                   ;*      Branch Occurs to L44            ; |289| 
     1955                           .line   6
     1956                   ;----------------------------------------------------------------------
     1957                   ; 290 | return;                                                                
     1958                   ;----------------------------------------------------------------------
     1959                           .line   8
     1960                   ;----------------------------------------------------------------------
     1961                   ; 292 | _GIEP;                                                                 
     1962                   ;----------------------------------------------------------------------
     1963 00000181 0f350000         push    ST                      
     1964 00000182 03752000         andn    2000h, ST       
     1965                           .line   10
     1966                   ;----------------------------------------------------------------------
     1967                   ; 294 | CLEAR_INT2;                                                            
     1968                   ;----------------------------------------------------------------------
     1969 00000183 03770004         andn    0004h, IF
     1970                           .line   12
     1971                   ;----------------------------------------------------------------------
     1972                   ; 296 | for (i=0;i<4;i++)                                                      
     1973                   ;----------------------------------------------------------------------
     1974 00000184 50600000         ldiu      0,r0                  ; |296| 
     1975 00000185 15400301         sti       r0,*+fp(1)            ; |296| 
     1976 00000186 04e00004         cmpi      4,r0                  ; |296| 
     1977 00000187 6a0a0025         bge       L43                   ; |296| 
     1978                   ;*      Branch Occurs to L43            ; |296| 
     1979 00000188          L40:        
     1980                           .line   14
     1981                   ;----------------------------------------------------------------------
     1982                   ; 298 | SEL_ADC;                                                               
     1983                   ;----------------------------------------------------------------------
     1984 00000188 08780026         ldi             26h,IOF         
     1985                           .line   15
     1986                   ;----------------------------------------------------------------------
     1987                   ; 299 | *SP0_TXDATA = TLV_AIN0;                                                
     1988                   ;----------------------------------------------------------------------
     1989 00000189 08700000-        ldp       @CL8,DP
     1990 0000018a 50280019-        ldiu      @CL8,ar0              ; |299| 
     1991 0000018b 50600000         ldiu      0,r0                  ; |299| 
     1992 0000018c 1540c000         sti       r0,*ar0               ; |299| 
     1993                           .line   16
     1994                   ;----------------------------------------------------------------------
     1995                   ; 300 | WAIT_SP0;                                                              
     1996                   ;----------------------------------------------------------------------
     1997 0000018d 08700000-        ldp       @CL11,DP
     1998 0000018e 5029001c-        ldiu      @CL11,ar1             ; |300| 
TMS320C3x/4x COFF AssemblerVersion 5.12     Wed Jul 24 11:03:43 2019
Copyright (c) 1987-1999 Texas Instruments Incorporatedasm30.exe -@_30G.AAB 

G:\workspace\EEA\V615\APP\SOURCE\ASM\adc.asm                         PAGE   38

     1999 0000018f 08700000-        ldp       @CL10,DP
     2000 00000190 5040c100         ldiu      *ar1,r0               ; |300| 
     2001 00000191 5028001b-        ldiu      @CL10,ar0             ; |300| 
     2002 00000192 02e0ffff         and       65535,r0              ; |300| 
     2003 00000193 1540c000         sti       r0,*ar0               ; |300| 
     2004 00000194 1a770020         tstb    0020h, IF       
     2005 00000195 6a05fffe         .word   6A05FFFEh       
     2006 00000196 03770020         andn    0020h, IF
     2007 00000197 08780022         ldi             22h,IOF         
     2008 00000198 08700000-        ldp       @CL11,DP
     2009 00000199 5029001c-        ldiu      @CL11,ar1             ; |300| 
     2010 0000019a 08700000-        ldp       @CL10,DP
     2011 0000019b 5028001b-        ldiu      @CL10,ar0             ; |300| 
     2012 0000019c 5040c100         ldiu      *ar1,r0               ; |300| 
     2013 0000019d 02e0ffff         and       65535,r0              ; |300| 
     2014 0000019e 1540c000         sti       r0,*ar0               ; |300| 
     2015                           .line   18
     2016                   ;----------------------------------------------------------------------
     2017                   ; 302 | for (j=0;j<100;j++);    /* wait at least 14 serial bus clock cycles */ 
     2018                   ;----------------------------------------------------------------------
     2019 0000019f 50600000         ldiu      0,r0                  ; |302| 
     2020 000001a0 15400302         sti       r0,*+fp(2)            ; |302| 
     2021 000001a1 04e00064         cmpi      100,r0                ; |302| 
     2022 000001a2 6a0a0005         bge       L42                   ; |302| 
     2023                   ;*      Branch Occurs to L42            ; |302| 
     2024 000001a3          L41:        
     2025 000001a3 50600001         ldiu      1,r0                  ; |302| 
     2026 000001a4 02400302         addi      *+fp(2),r0            ; |302| 
     2027 000001a5 15400302         sti       r0,*+fp(2)            ; |302| 
     2028 000001a6 04e00064         cmpi      100,r0                ; |302| 
     2029 000001a7 6a07fffb         blt       L41                   ; |302| 
     2030                   ;*      Branch Occurs to L41            ; |302| 
     2031 000001a8          L42:        
     2032                           .line   12
     2033 000001a8 50600001         ldiu      1,r0                  ; |296| 
     2034 000001a9 02400301         addi      *+fp(1),r0            ; |296| 
     2035 000001aa 15400301         sti       r0,*+fp(1)            ; |296| 
     2036 000001ab 04e00004         cmpi      4,r0                  ; |296| 
     2037 000001ac 6a07ffdb         blt       L40                   ; |296| 
     2038                   ;*      Branch Occurs to L40            ; |296| 
     2039 000001ad          L43:        
     2040                           .line   21
     2041                   ;----------------------------------------------------------------------
     2042                   ; 305 | ENABLE_INT2;                                                           
     2043                   ;----------------------------------------------------------------------
     2044 000001ad 10760004         or              0004h, IE
     2045                           .line   23
     2046                   ;----------------------------------------------------------------------
     2047                   ; 307 | GIEP;                                                                  
     2048                   ;----------------------------------------------------------------------
     2049 000001ae 0e350000         pop             ST                      
     2050 000001af          L44:        
     2051                           .line   24
     2052                                                           ; Begin Epilog Code
TMS320C3x/4x COFF AssemblerVersion 5.12     Wed Jul 24 11:03:43 2019
Copyright (c) 1987-1999 Texas Instruments Incorporatedasm30.exe -@_30G.AAB 

G:\workspace\EEA\V615\APP\SOURCE\ASM\adc.asm                         PAGE   39

     2053 000001af 50410b01         ldiu      *-fp(1),r1
     2054 000001b0 504bc300         ldiu      *fp,fp
     2055                                                           ; Unallocate the Frame
     2056 000001b1 18740004         subi      4,sp
     2057 000001b2 68000001         bu        r1
     2058                   ;*      Branch Occurs to r1 
     2059                           .endfunc        308,000000000h,2
     2060                   
     2061                   
     2062 000001b3                  .sect    ".text"
     2063                   
     2064                           .global _Write_ADC_DAC
     2065                           .sym    _Write_ADC_DAC,_Write_ADC_DAC,46,2,0
     2066                           .func   324
     2067                   ;******************************************************************************
     2068                   ;* FUNCTION NAME: _Write_ADC_DAC                                              *
     2069                   ;*                                                                            *
     2070                   ;*   Architecture       : TMS320C33                                           *
     2071                   ;*   Calling Convention : TI Standard Register Parameters                     *
     2072                   ;*   Function Uses Regs : r0,r2,r3,ar0,ar2,ir0,st                             *
     2073                   ;*   Regs Saved         :                                                     *
     2074                   ;*   Stack Frame        : Full (w/ debug)                                     *
     2075                   ;*   Total Frame Size   : 2 Call + 0 Parm + 7 Auto + 0 SOE = 9 words          *
     2076                   ;******************************************************************************
     2077 000001b3          _Write_ADC_DAC:
     2078                   ;* ar2   assigned to _addr
     2079                           .sym    _addr,10,4,17,32
     2080                   ;* r2    assigned to _n
     2081                           .sym    _n,2,4,17,32
     2082                   ;* r3    assigned to _p
     2083                           .sym    _p,3,28,17,32
     2084                           .sym    _addr,1,4,1,32
     2085                           .sym    _n,2,4,1,32
     2086                           .sym    _p,3,28,1,32
     2087                           .sym    _i,4,4,1,32
     2088                           .sym    _dat,5,12,1,32
     2089                           .sym    _ack,6,14,1,32
     2090                           .sym    _r,7,14,1,32
     2091                           .line   1
     2092                   ;----------------------------------------------------------------------
     2093                   ; 324 | BOOL Write_ADC_DAC(int addr, int n, unsigned char* p)                  
     2094                   ;----------------------------------------------------------------------
     2095 000001b3 0f2b0000         push      fp
     2096 000001b4 500b0014         ldiu      sp,fp
     2097 000001b5 02740007         addi      7,sp
     2098                           .line   2
     2099                   ;----------------------------------------------------------------------
     2100                   ; 326 | int i;                                                                 
     2101                   ; 327 | unsigned char dat;                                                     
     2102                   ; 328 | BOOL ack;                                                              
     2103                   ; 329 | BOOL r;                                                                
     2104                   ;----------------------------------------------------------------------
     2105 000001b6 15430303         sti       r3,*+fp(3)            ; |325| 
     2106 000001b7 15420302         sti       r2,*+fp(2)            ; |325| 
TMS320C3x/4x COFF AssemblerVersion 5.12     Wed Jul 24 11:03:43 2019
Copyright (c) 1987-1999 Texas Instruments Incorporatedasm30.exe -@_30G.AAB 

G:\workspace\EEA\V615\APP\SOURCE\ASM\adc.asm                         PAGE   40

     2107 000001b8 154a0301         sti       ar2,*+fp(1)           ; |325| 
     2108                           .line   8
     2109                   ;----------------------------------------------------------------------
     2110                   ; 331 | r = TRUE;                                                              
     2111                   ;----------------------------------------------------------------------
     2112 000001b9 50600001         ldiu      1,r0                  ; |331| 
     2113 000001ba 15400307         sti       r0,*+fp(7)            ; |331| 
     2114                           .line   9
     2115                   ;----------------------------------------------------------------------
     2116                   ; 332 | I2C_START;                                                             
     2117                   ; 334 | while(TRUE)                                                            
     2118                   ;----------------------------------------------------------------------
     2119 000001bb 08700000-        ldp       @CL58,DP
     2120 000001bc 5028004b-        ldiu      @CL58,ar0             ; |332| 
     2121 000001bd 50600004         ldiu      4,r0                  ; |332| 
     2122 000001be 25a0c000         or3       r0,*ar0,r0            ; |332| 
     2123 000001bf 1540c000         sti       r0,*ar0               ; |332| 
     2124 000001c0 50600001         ldiu      1,r0                  ; |332| 
     2125 000001c1 25a0c000         or3       r0,*ar0,r0            ; |332| 
     2126 000001c2 1540c000         sti       r0,*ar0               ; |332| 
     2127 000001c3 50600008         ldiu      8,r0                  ; |332| 
     2128 000001c4 25a0c000         or3       r0,*ar0,r0            ; |332| 
     2129 000001c5 1540c000         sti       r0,*ar0               ; |332| 
     2130 000001c6 50600002         ldiu      2,r0                  ; |332| 
     2131 000001c7 25a0c000         or3       r0,*ar0,r0            ; |332| 
     2132 000001c8 1540c000         sti       r0,*ar0               ; |332| 
     2133 000001c9 0f290000                 PUSH    AR1                     
     2134 000001ca 08690032                 LDI             50,AR1          
     2135 000001cb 6e46ffff                 .word   6E46FFFFh       
     2136 000001cc 0e290000                 POP             AR1                     
     2137 000001cd 506000fe         ldiu      254,r0                ; |332| 
     2138 000001ce 21a0c000         and3      r0,*ar0,r0            ; |332| 
     2139 000001cf 1540c000         sti       r0,*ar0               ; |332| 
     2140 000001d0 0f290000                 PUSH    AR1                     
     2141 000001d1 08690032                 LDI             50,AR1          
     2142 000001d2 6e46ffff                 .word   6E46FFFFh       
     2143 000001d3 0e290000                 POP             AR1                     
     2144 000001d4 506000fb         ldiu      251,r0                ; |332| 
     2145 000001d5 21a0c000         and3      r0,*ar0,r0            ; |332| 
     2146 000001d6 1540c000         sti       r0,*ar0               ; |332| 
     2147 000001d7 0f290000                 PUSH    AR1                     
     2148 000001d8 08690032                 LDI             50,AR1          
     2149 000001d9 6e46ffff                 .word   6E46FFFFh       
     2150 000001da 0e290000                 POP             AR1                     
     2151                           .line   13
     2152                   ;----------------------------------------------------------------------
     2153                   ; 336 | dat = addr;                                             /* address with
     2154                   ;     | out read bit set - indicates write */                                  
     2155                   ;----------------------------------------------------------------------
     2156 000001db 50400301         ldiu      *+fp(1),r0            ; |336| 
     2157 000001dc 15400305         sti       r0,*+fp(5)            ; |336| 
     2158                           .line   14
     2159                   ;----------------------------------------------------------------------
     2160                   ; 337 | ack = I2C_TX_BYTE(dat);                                                
TMS320C3x/4x COFF AssemblerVersion 5.12     Wed Jul 24 11:03:43 2019
Copyright (c) 1987-1999 Texas Instruments Incorporatedasm30.exe -@_30G.AAB 

G:\workspace\EEA\V615\APP\SOURCE\ASM\adc.asm                         PAGE   41

     2161                   ;----------------------------------------------------------------------
     2162 000001dd 08700000-        ldp       @CL59,DP
     2163 000001de 500a0000         ldiu      r0,ar2
     2164 000001df 5020004c-        ldiu      @CL59,r0              ; |337| 
     2165 000001e0 70000000         callu     r0                    ; far call to _I2C_TX_BYTE      ; |337| 
     2166                                                           ; |337| Far Call Occurs
     2167 000001e1 15400306         sti       r0,*+fp(6)            ; |337| 
     2168                           .line   16
     2169                   ;----------------------------------------------------------------------
     2170                   ; 339 | if (!ack)                                                              
     2171                   ;----------------------------------------------------------------------
     2172 000001e2 04e00000         cmpi      0,r0                  ; |339| 
     2173 000001e3 6a060003         bne       L48                   ; |339| 
     2174                   ;*      Branch Occurs to L48            ; |339| 
     2175                           .line   18
     2176                   ;----------------------------------------------------------------------
     2177                   ; 341 | r = FALSE;                                                             
     2178                   ;----------------------------------------------------------------------
     2179 000001e4 50600000         ldiu      0,r0                  ; |341| 
     2180 000001e5 15400307         sti       r0,*+fp(7)            ; |341| 
     2181                           .line   19
     2182                   ;----------------------------------------------------------------------
     2183                   ; 342 | break;                                                                 
     2184                   ;----------------------------------------------------------------------
     2185 000001e6 6a000016         bu        L54                   ; |342| 
     2186                   ;*      Branch Occurs to L54            ; |342| 
     2187 000001e7          L48:        
     2188                           .line   22
     2189                   ;----------------------------------------------------------------------
     2190                   ; 345 | for (i=0;i<n;i++)                                                      
     2191                   ;----------------------------------------------------------------------
     2192 000001e7 50600000         ldiu      0,r0                  ; |345| 
     2193 000001e8 15400304         sti       r0,*+fp(4)            ; |345| 
     2194 000001e9 04c00302         cmpi      *+fp(2),r0            ; |345| 
     2195 000001ea 6a0a0012         bge       L54                   ; |345| 
     2196                   ;*      Branch Occurs to L54            ; |345| 
     2197 000001eb          L49:        
     2198                           .line   24
     2199                   ;----------------------------------------------------------------------
     2200                   ; 347 | ack = I2C_TX_BYTE(p[i]);        /* write the bytes */                  
     2201                   ;----------------------------------------------------------------------
     2202 000001eb 08700000-        ldp       @CL59,DP
     2203 000001ec 50510303         ldiu      *+fp(3),ir0           ; |347| 
     2204 000001ed 50480304         ldiu      *+fp(4),ar0           ; |347| 
     2205 000001ee 5020004c-        ldiu      @CL59,r0              ; |347| 
     2206 000001ef 504a4000         ldiu      *+ar0(ir0),ar2        ; |347| 
     2207 000001f0 70000000         callu     r0                    ; far call to _I2C_TX_BYTE      ; |347| 
     2208                                                           ; |347| Far Call Occurs
     2209 000001f1 15400306         sti       r0,*+fp(6)            ; |347| 
     2210                           .line   26
     2211                   ;----------------------------------------------------------------------
     2212                   ; 349 | if (!ack)                                                              
     2213                   ;----------------------------------------------------------------------
     2214 000001f2 04e00000         cmpi      0,r0                  ; |349| 
TMS320C3x/4x COFF AssemblerVersion 5.12     Wed Jul 24 11:03:43 2019
Copyright (c) 1987-1999 Texas Instruments Incorporatedasm30.exe -@_30G.AAB 

G:\workspace\EEA\V615\APP\SOURCE\ASM\adc.asm                         PAGE   42

     2215 000001f3 6a060003         bne       L51                   ; |349| 
     2216                   ;*      Branch Occurs to L51            ; |349| 
     2217                           .line   28
     2218                   ;----------------------------------------------------------------------
     2219                   ; 351 | r = FALSE;                                                             
     2220                   ;----------------------------------------------------------------------
     2221 000001f4 50600000         ldiu      0,r0                  ; |351| 
     2222 000001f5 15400307         sti       r0,*+fp(7)            ; |351| 
     2223                           .line   29
     2224                   ;----------------------------------------------------------------------
     2225                   ; 352 | break;                                                                 
     2226                   ;----------------------------------------------------------------------
     2227 000001f6 6a000006         bu        L54                   ; |352| 
     2228                   ;*      Branch Occurs to L54            ; |352| 
     2229 000001f7          L51:        
     2230                           .line   22
     2231 000001f7 50600001         ldiu      1,r0                  ; |345| 
     2232 000001f8 02400304         addi      *+fp(4),r0            ; |345| 
     2233 000001f9 15400304         sti       r0,*+fp(4)            ; |345| 
     2234 000001fa 04c00302         cmpi      *+fp(2),r0            ; |345| 
     2235 000001fb 6a07ffef         blt       L49                   ; |345| 
     2236                   ;*      Branch Occurs to L49            ; |345| 
     2237                           .line   33
     2238                   ;----------------------------------------------------------------------
     2239                   ; 356 | break;                                                                 
     2240                   ;----------------------------------------------------------------------
     2241 000001fc 6a000000         bu        L54                   ; |356| 
     2242                   ;*      Branch Occurs to L54            ; |356| 
     2243                           .line   34
     2244 000001fd          L54:        
     2245                           .line   36
     2246                   ;----------------------------------------------------------------------
     2247                   ; 359 | I2C_STOP;                                                              
     2248                   ;----------------------------------------------------------------------
     2249 000001fd 08700000-        ldp       @CL58,DP
     2250 000001fe 5028004b-        ldiu      @CL58,ar0             ; |359| 
     2251 000001ff 50600002         ldiu      2,r0                  ; |359| 
     2252 00000200 25a0c000         or3       r0,*ar0,r0            ; |359| 
     2253 00000201 1540c000         sti       r0,*ar0               ; |359| 
     2254 00000202 506000fe         ldiu      254,r0                ; |359| 
     2255 00000203 21a0c000         and3      r0,*ar0,r0            ; |359| 
     2256 00000204 1540c000         sti       r0,*ar0               ; |359| 
     2257 00000205 0f290000                 PUSH    AR1                     
     2258 00000206 08690032                 LDI             50,AR1          
     2259 00000207 6e46ffff                 .word   6E46FFFFh       
     2260 00000208 0e290000                 POP             AR1                     
     2261 00000209 50600004         ldiu      4,r0                  ; |359| 
     2262 0000020a 25a0c000         or3       r0,*ar0,r0            ; |359| 
     2263 0000020b 1540c000         sti       r0,*ar0               ; |359| 
     2264 0000020c 506000f7         ldiu      247,r0                ; |359| 
     2265 0000020d 21a0c000         and3      r0,*ar0,r0            ; |359| 
     2266 0000020e 1540c000         sti       r0,*ar0               ; |359| 
     2267 0000020f 0f290000                 PUSH    AR1                     
     2268 00000210 08690032                 LDI             50,AR1          
TMS320C3x/4x COFF AssemblerVersion 5.12     Wed Jul 24 11:03:43 2019
Copyright (c) 1987-1999 Texas Instruments Incorporatedasm30.exe -@_30G.AAB 

G:\workspace\EEA\V615\APP\SOURCE\ASM\adc.asm                         PAGE   43

     2269 00000211 6e46ffff                 .word   6E46FFFFh       
     2270 00000212 0e290000                 POP             AR1                     
     2271 00000213 50600001         ldiu      1,r0                  ; |359| 
     2272 00000214 25a0c000         or3       r0,*ar0,r0            ; |359| 
     2273 00000215 1540c000         sti       r0,*ar0               ; |359| 
     2274 00000216 506000fd         ldiu      253,r0                ; |359| 
     2275 00000217 21a0c000         and3      r0,*ar0,r0            ; |359| 
     2276 00000218 1540c000         sti       r0,*ar0               ; |359| 
     2277 00000219 0f290000                 PUSH    AR1                     
     2278 0000021a 08690032                 LDI             50,AR1          
     2279 0000021b 6e46ffff                 .word   6E46FFFFh       
     2280 0000021c 0e290000                 POP             AR1                     
     2281                           .line   38
     2282                   ;----------------------------------------------------------------------
     2283                   ; 361 | return r;                                                              
     2284                   ;----------------------------------------------------------------------
     2285 0000021d 50400307         ldiu      *+fp(7),r0            ; |361| 
     2286                           .line   39
     2287                                                           ; Begin Epilog Code
     2288 0000021e 50410b01         ldiu      *-fp(1),r1            ; |362| 
     2289 0000021f 504bc300         ldiu      *fp,fp                ; |362| 
     2290                                                           ; Unallocate the Frame
     2291 00000220 18740009         subi      9,sp                  ; |362| 
     2292 00000221 68000001         bu        r1
     2293                   ;*      Branch Occurs to r1 
     2294                           .endfunc        362,000000000h,7
     2295                   
     2296                   
     2297 00000222                  .sect    ".text"
     2298                   
     2299                           .global _Read_ADC_DAC
     2300                           .sym    _Read_ADC_DAC,_Read_ADC_DAC,46,2,0
     2301                           .func   378
     2302                   ;******************************************************************************
     2303                   ;* FUNCTION NAME: _Read_ADC_DAC                                               *
     2304                   ;*                                                                            *
     2305                   ;*   Architecture       : TMS320C33                                           *
     2306                   ;*   Calling Convention : TI Standard Register Parameters                     *
     2307                   ;*   Function Uses Regs : r0,r1,r2,r3,ar0,ar2,st                              *
     2308                   ;*   Regs Saved         :                                                     *
     2309                   ;*   Stack Frame        : Full (w/ debug)                                     *
     2310                   ;*   Total Frame Size   : 2 Call + 0 Parm + 8 Auto + 0 SOE = 10 words         *
     2311                   ;******************************************************************************
     2312 00000222          _Read_ADC_DAC:
     2313                   ;* ar2   assigned to _addr
     2314                           .sym    _addr,10,4,17,32
     2315                   ;* r2    assigned to _n
     2316                           .sym    _n,2,4,17,32
     2317                   ;* r3    assigned to _p
     2318                           .sym    _p,3,28,17,32
     2319                           .sym    _addr,1,4,1,32
     2320                           .sym    _n,2,4,1,32
     2321                           .sym    _p,3,28,1,32
     2322                           .sym    _i,4,4,1,32
TMS320C3x/4x COFF AssemblerVersion 5.12     Wed Jul 24 11:03:43 2019
Copyright (c) 1987-1999 Texas Instruments Incorporatedasm30.exe -@_30G.AAB 

G:\workspace\EEA\V615\APP\SOURCE\ASM\adc.asm                         PAGE   44

     2323                           .sym    _j,5,4,1,32
     2324                           .sym    _dat,6,12,1,32
     2325                           .sym    _ack,7,14,1,32
     2326                           .sym    _r,8,14,1,32
     2327                           .line   1
     2328                   ;----------------------------------------------------------------------
     2329                   ; 378 | BOOL Read_ADC_DAC(int addr, int n, unsigned char* p)                   
     2330                   ;----------------------------------------------------------------------
     2331 00000222 0f2b0000         push      fp
     2332 00000223 500b0014         ldiu      sp,fp
     2333 00000224 02740008         addi      8,sp
     2334                           .line   2
     2335                   ;----------------------------------------------------------------------
     2336                   ; 380 | int i,j;                                                               
     2337                   ; 381 | unsigned char dat;                                                     
     2338                   ; 382 | BOOL ack;                                                              
     2339                   ; 383 | BOOL r;                                                                
     2340                   ;----------------------------------------------------------------------
     2341 00000225 15430303         sti       r3,*+fp(3)            ; |379| 
     2342 00000226 15420302         sti       r2,*+fp(2)            ; |379| 
     2343 00000227 154a0301         sti       ar2,*+fp(1)           ; |379| 
     2344                           .line   8
     2345                   ;----------------------------------------------------------------------
     2346                   ; 385 | r = TRUE;                                                              
     2347                   ;----------------------------------------------------------------------
     2348 00000228 50600001         ldiu      1,r0                  ; |385| 
     2349 00000229 15400308         sti       r0,*+fp(8)            ; |385| 
     2350                           .line   9
     2351                   ;----------------------------------------------------------------------
     2352                   ; 386 | I2C_START;                                                             
     2353                   ; 388 | while(TRUE)                                                            
     2354                   ;----------------------------------------------------------------------
     2355 0000022a 08700000-        ldp       @CL58,DP
     2356 0000022b 5028004b-        ldiu      @CL58,ar0             ; |386| 
     2357 0000022c 50600004         ldiu      4,r0                  ; |386| 
     2358 0000022d 25a0c000         or3       r0,*ar0,r0            ; |386| 
     2359 0000022e 1540c000         sti       r0,*ar0               ; |386| 
     2360 0000022f 50600001         ldiu      1,r0                  ; |386| 
     2361 00000230 25a0c000         or3       r0,*ar0,r0            ; |386| 
     2362 00000231 1540c000         sti       r0,*ar0               ; |386| 
     2363 00000232 50600008         ldiu      8,r0                  ; |386| 
     2364 00000233 25a0c000         or3       r0,*ar0,r0            ; |386| 
     2365 00000234 1540c000         sti       r0,*ar0               ; |386| 
     2366 00000235 50600002         ldiu      2,r0                  ; |386| 
     2367 00000236 25a0c000         or3       r0,*ar0,r0            ; |386| 
     2368 00000237 1540c000         sti       r0,*ar0               ; |386| 
     2369 00000238 0f290000                 PUSH    AR1                     
     2370 00000239 08690032                 LDI             50,AR1          
     2371 0000023a 6e46ffff                 .word   6E46FFFFh       
     2372 0000023b 0e290000                 POP             AR1                     
     2373 0000023c 506000fe         ldiu      254,r0                ; |386| 
     2374 0000023d 21a0c000         and3      r0,*ar0,r0            ; |386| 
     2375 0000023e 1540c000         sti       r0,*ar0               ; |386| 
     2376 0000023f 0f290000                 PUSH    AR1                     
TMS320C3x/4x COFF AssemblerVersion 5.12     Wed Jul 24 11:03:43 2019
Copyright (c) 1987-1999 Texas Instruments Incorporatedasm30.exe -@_30G.AAB 

G:\workspace\EEA\V615\APP\SOURCE\ASM\adc.asm                         PAGE   45

     2377 00000240 08690032                 LDI             50,AR1          
     2378 00000241 6e46ffff                 .word   6E46FFFFh       
     2379 00000242 0e290000                 POP             AR1                     
     2380 00000243 506000fb         ldiu      251,r0                ; |386| 
     2381 00000244 21a0c000         and3      r0,*ar0,r0            ; |386| 
     2382 00000245 1540c000         sti       r0,*ar0               ; |386| 
     2383 00000246 0f290000                 PUSH    AR1                     
     2384 00000247 08690032                 LDI             50,AR1          
     2385 00000248 6e46ffff                 .word   6E46FFFFh       
     2386 00000249 0e290000                 POP             AR1                     
     2387                           .line   13
     2388                   ;----------------------------------------------------------------------
     2389                   ; 390 | dat = addr | 0x01;                              /* address with read bi
     2390                   ;     | t set */                                                               
     2391                   ;----------------------------------------------------------------------
     2392 0000024a 50600001         ldiu      1,r0                  ; |390| 
     2393 0000024b 10400301         or        *+fp(1),r0            ; |390| 
     2394 0000024c 15400306         sti       r0,*+fp(6)            ; |390| 
     2395                           .line   14
     2396                   ;----------------------------------------------------------------------
     2397                   ; 391 | ack = I2C_TX_BYTE(dat);                                                
     2398                   ;----------------------------------------------------------------------
     2399 0000024d 08700000-        ldp       @CL59,DP
     2400 0000024e 500a0000         ldiu      r0,ar2
     2401 0000024f 5020004c-        ldiu      @CL59,r0              ; |391| 
     2402 00000250 70000000         callu     r0                    ; far call to _I2C_TX_BYTE      ; |391| 
     2403                                                           ; |391| Far Call Occurs
     2404 00000251 15400307         sti       r0,*+fp(7)            ; |391| 
     2405                           .line   16
     2406                   ;----------------------------------------------------------------------
     2407                   ; 393 | if (!ack)                                                              
     2408                   ;----------------------------------------------------------------------
     2409 00000252 04e00000         cmpi      0,r0                  ; |393| 
     2410 00000253 6a060003         bne       L59                   ; |393| 
     2411                   ;*      Branch Occurs to L59            ; |393| 
     2412                           .line   18
     2413                   ;----------------------------------------------------------------------
     2414                   ; 395 | r = FALSE;                                                             
     2415                   ;----------------------------------------------------------------------
     2416 00000254 50600000         ldiu      0,r0                  ; |395| 
     2417 00000255 15400308         sti       r0,*+fp(8)            ; |395| 
     2418                           .line   19
     2419                   ;----------------------------------------------------------------------
     2420                   ; 396 | break;                                                                 
     2421                   ;----------------------------------------------------------------------
     2422 00000256 6a00001d         bu        L63                   ; |396| 
     2423                   ;*      Branch Occurs to L63            ; |396| 
     2424 00000257          L59:        
     2425                           .line   22
     2426                   ;----------------------------------------------------------------------
     2427                   ; 399 | for (i=0;i<(n-1);i++)                                                  
     2428                   ;----------------------------------------------------------------------
     2429 00000257 50600000         ldiu      0,r0                  ; |399| 
     2430 00000258 15400304         sti       r0,*+fp(4)            ; |399| 
TMS320C3x/4x COFF AssemblerVersion 5.12     Wed Jul 24 11:03:43 2019
Copyright (c) 1987-1999 Texas Instruments Incorporatedasm30.exe -@_30G.AAB 

G:\workspace\EEA\V615\APP\SOURCE\ASM\adc.asm                         PAGE   46

     2431 00000259 50600001         ldiu      1,r0                  ; |399| 
     2432 0000025a 50410304         ldiu      *+fp(4),r1            ; |399| 
     2433 0000025b 19c00302         subri     *+fp(2),r0            ; |399| 
     2434 0000025c 23800100         cmpi3     r0,r1                 ; |399| 
     2435 0000025d 6a0a000e         bge       L61                   ; |399| 
     2436                   ;*      Branch Occurs to L61            ; |399| 
     2437 0000025e          L60:        
     2438                           .line   23
     2439                   ;----------------------------------------------------------------------
     2440                   ; 400 | I2C_RX_BYTE(&p[i],1);           /* read the bytes */                   
     2441                   ;----------------------------------------------------------------------
     2442 0000025e 504a0304         ldiu      *+fp(4),ar2           ; |400| 
     2443 0000025f 08700000-        ldp       @CL60,DP
     2444 00000260 024a0303         addi      *+fp(3),ar2           ; |400| Unsigned
     2445 00000261 5020004d-        ldiu      @CL60,r0              ; |400| 
     2446 00000262 50620001         ldiu      1,r2                  ; |400| 
     2447 00000263 70000000         callu     r0                    ; far call to _I2C_RX_BYTE      ; |400| 
     2448                                                           ; |400| Far Call Occurs
     2449                           .line   22
     2450 00000264 50600001         ldiu      1,r0                  ; |399| 
     2451 00000265 02400304         addi      *+fp(4),r0            ; |399| 
     2452 00000266 15400304         sti       r0,*+fp(4)            ; |399| 
     2453 00000267 50600001         ldiu      1,r0                  ; |399| 
     2454 00000268 50410304         ldiu      *+fp(4),r1            ; |399| 
     2455 00000269 19c00302         subri     *+fp(2),r0            ; |399| 
     2456 0000026a 23800100         cmpi3     r0,r1                 ; |399| 
     2457 0000026b 6a07fff2         blt       L60                   ; |399| 
     2458                   ;*      Branch Occurs to L60            ; |399| 
     2459 0000026c          L61:        
     2460                           .line   25
     2461                   ;----------------------------------------------------------------------
     2462                   ; 402 | I2C_RX_BYTE(&p[n-1],0);                 /* the final byte to read */   
     2463                   ;----------------------------------------------------------------------
     2464 0000026c 504a0302         ldiu      *+fp(2),ar2           ; |402| 
     2465 0000026d 08700000-        ldp       @CL60,DP
     2466 0000026e 024a0303         addi      *+fp(3),ar2           ; |402| Unsigned
     2467 0000026f 5020004d-        ldiu      @CL60,r0              ; |402| 
     2468 00000270 186a0001         subi      1,ar2                 ; |402| Unsigned
     2469 00000271 50620000         ldiu      0,r2                  ; |402| 
     2470 00000272 70000000         callu     r0                    ; far call to _I2C_RX_BYTE      ; |402| 
     2471                                                           ; |402| Far Call Occurs
     2472                           .line   27
     2473                   ;----------------------------------------------------------------------
     2474                   ; 404 | break;                                                                 
     2475                   ;----------------------------------------------------------------------
     2476 00000273 6a000000         bu        L63                   ; |404| 
     2477                   ;*      Branch Occurs to L63            ; |404| 
     2478                           .line   28
     2479 00000274          L63:        
     2480                           .line   30
     2481                   ;----------------------------------------------------------------------
     2482                   ; 407 | I2C_STOP;                                                              
     2483                   ;----------------------------------------------------------------------
     2484 00000274 08700000-        ldp       @CL58,DP
TMS320C3x/4x COFF AssemblerVersion 5.12     Wed Jul 24 11:03:43 2019
Copyright (c) 1987-1999 Texas Instruments Incorporatedasm30.exe -@_30G.AAB 

G:\workspace\EEA\V615\APP\SOURCE\ASM\adc.asm                         PAGE   47

     2485 00000275 5028004b-        ldiu      @CL58,ar0             ; |407| 
     2486 00000276 50600002         ldiu      2,r0                  ; |407| 
     2487 00000277 25a0c000         or3       r0,*ar0,r0            ; |407| 
     2488 00000278 1540c000         sti       r0,*ar0               ; |407| 
     2489 00000279 506000fe         ldiu      254,r0                ; |407| 
     2490 0000027a 21a0c000         and3      r0,*ar0,r0            ; |407| 
     2491 0000027b 1540c000         sti       r0,*ar0               ; |407| 
     2492 0000027c 0f290000                 PUSH    AR1                     
     2493 0000027d 08690032                 LDI             50,AR1          
     2494 0000027e 6e46ffff                 .word   6E46FFFFh       
     2495 0000027f 0e290000                 POP             AR1                     
     2496 00000280 50600004         ldiu      4,r0                  ; |407| 
     2497 00000281 25a0c000         or3       r0,*ar0,r0            ; |407| 
     2498 00000282 1540c000         sti       r0,*ar0               ; |407| 
     2499 00000283 506000f7         ldiu      247,r0                ; |407| 
     2500 00000284 21a0c000         and3      r0,*ar0,r0            ; |407| 
     2501 00000285 1540c000         sti       r0,*ar0               ; |407| 
     2502 00000286 0f290000                 PUSH    AR1                     
     2503 00000287 08690032                 LDI             50,AR1          
     2504 00000288 6e46ffff                 .word   6E46FFFFh       
     2505 00000289 0e290000                 POP             AR1                     
     2506 0000028a 50600001         ldiu      1,r0                  ; |407| 
     2507 0000028b 25a0c000         or3       r0,*ar0,r0            ; |407| 
     2508 0000028c 1540c000         sti       r0,*ar0               ; |407| 
     2509 0000028d 506000fd         ldiu      253,r0                ; |407| 
     2510 0000028e 21a0c000         and3      r0,*ar0,r0            ; |407| 
     2511 0000028f 1540c000         sti       r0,*ar0               ; |407| 
     2512 00000290 0f290000                 PUSH    AR1                     
     2513 00000291 08690032                 LDI             50,AR1          
     2514 00000292 6e46ffff                 .word   6E46FFFFh       
     2515 00000293 0e290000                 POP             AR1                     
     2516                           .line   32
     2517                   ;----------------------------------------------------------------------
     2518                   ; 409 | return r;                                                              
     2519                   ;----------------------------------------------------------------------
     2520 00000294 50400308         ldiu      *+fp(8),r0            ; |409| 
     2521                           .line   33
     2522                                                           ; Begin Epilog Code
     2523 00000295 50410b01         ldiu      *-fp(1),r1            ; |410| 
     2524 00000296 504bc300         ldiu      *fp,fp                ; |410| 
     2525                                                           ; Unallocate the Frame
     2526 00000297 1874000a         subi      10,sp                 ; |410| 
     2527 00000298 68000001         bu        r1
     2528                   ;*      Branch Occurs to r1 
     2529                           .endfunc        410,000000000h,8
     2530                   
     2531                   
     2532 00000299                  .sect    ".text"
     2533                   
     2534                           .global _Write_TMP75
     2535                           .sym    _Write_TMP75,_Write_TMP75,46,2,0
     2536                           .func   426
     2537                   ;******************************************************************************
     2538                   ;* FUNCTION NAME: _Write_TMP75                                                *
TMS320C3x/4x COFF AssemblerVersion 5.12     Wed Jul 24 11:03:43 2019
Copyright (c) 1987-1999 Texas Instruments Incorporatedasm30.exe -@_30G.AAB 

G:\workspace\EEA\V615\APP\SOURCE\ASM\adc.asm                         PAGE   48

     2539                   ;*                                                                            *
     2540                   ;*   Architecture       : TMS320C33                                           *
     2541                   ;*   Calling Convention : TI Standard Register Parameters                     *
     2542                   ;*   Function Uses Regs : r0,r2,r3,ar0,ar2,ir0,st                             *
     2543                   ;*   Regs Saved         :                                                     *
     2544                   ;*   Stack Frame        : Full (w/ debug)                                     *
     2545                   ;*   Total Frame Size   : 2 Call + 0 Parm + 7 Auto + 0 SOE = 9 words          *
     2546                   ;******************************************************************************
     2547 00000299          _Write_TMP75:
     2548                   ;* ar2   assigned to _addr
     2549                           .sym    _addr,10,4,17,32
     2550                   ;* r2    assigned to _n
     2551                           .sym    _n,2,4,17,32
     2552                   ;* r3    assigned to _p
     2553                           .sym    _p,3,28,17,32
     2554                           .sym    _addr,1,4,1,32
     2555                           .sym    _n,2,4,1,32
     2556                           .sym    _p,3,28,1,32
     2557                           .sym    _i,4,4,1,32
     2558                           .sym    _dat,5,12,1,32
     2559                           .sym    _ack,6,14,1,32
     2560                           .sym    _r,7,14,1,32
     2561                           .line   1
     2562                   ;----------------------------------------------------------------------
     2563                   ; 426 | BOOL Write_TMP75(int addr, int n, unsigned char* p)                    
     2564                   ;----------------------------------------------------------------------
     2565 00000299 0f2b0000         push      fp
     2566 0000029a 500b0014         ldiu      sp,fp
     2567 0000029b 02740007         addi      7,sp
     2568                           .line   2
     2569                   ;----------------------------------------------------------------------
     2570                   ; 428 | int i;                                                                 
     2571                   ; 429 | unsigned char dat;                                                     
     2572                   ; 430 | BOOL ack;                                                              
     2573                   ; 431 | BOOL r;                                                                
     2574                   ;----------------------------------------------------------------------
     2575 0000029c 15430303         sti       r3,*+fp(3)            ; |427| 
     2576 0000029d 15420302         sti       r2,*+fp(2)            ; |427| 
     2577 0000029e 154a0301         sti       ar2,*+fp(1)           ; |427| 
     2578                           .line   8
     2579                   ;----------------------------------------------------------------------
     2580                   ; 433 | r = TRUE;                                                              
     2581                   ;----------------------------------------------------------------------
     2582 0000029f 50600001         ldiu      1,r0                  ; |433| 
     2583 000002a0 15400307         sti       r0,*+fp(7)            ; |433| 
     2584                           .line   9
     2585                   ;----------------------------------------------------------------------
     2586                   ; 434 | _GIEP;                                                                 
     2587                   ;----------------------------------------------------------------------
     2588 000002a1 0f350000         push    ST                      
     2589 000002a2 03752000         andn    2000h, ST       
     2590                           .line   10
     2591                   ;----------------------------------------------------------------------
     2592                   ; 435 | I2C_START;                                                             
TMS320C3x/4x COFF AssemblerVersion 5.12     Wed Jul 24 11:03:43 2019
Copyright (c) 1987-1999 Texas Instruments Incorporatedasm30.exe -@_30G.AAB 

G:\workspace\EEA\V615\APP\SOURCE\ASM\adc.asm                         PAGE   49

     2593                   ; 437 | while(TRUE)                                                            
     2594                   ;----------------------------------------------------------------------
     2595 000002a3 08700000-        ldp       @CL58,DP
     2596 000002a4 5028004b-        ldiu      @CL58,ar0             ; |435| 
     2597 000002a5 50600004         ldiu      4,r0                  ; |435| 
     2598 000002a6 25a0c000         or3       r0,*ar0,r0            ; |435| 
     2599 000002a7 1540c000         sti       r0,*ar0               ; |435| 
     2600 000002a8 50600001         ldiu      1,r0                  ; |435| 
     2601 000002a9 25a0c000         or3       r0,*ar0,r0            ; |435| 
     2602 000002aa 1540c000         sti       r0,*ar0               ; |435| 
     2603 000002ab 50600008         ldiu      8,r0                  ; |435| 
     2604 000002ac 25a0c000         or3       r0,*ar0,r0            ; |435| 
     2605 000002ad 1540c000         sti       r0,*ar0               ; |435| 
     2606 000002ae 50600002         ldiu      2,r0                  ; |435| 
     2607 000002af 25a0c000         or3       r0,*ar0,r0            ; |435| 
     2608 000002b0 1540c000         sti       r0,*ar0               ; |435| 
     2609 000002b1 0f290000                 PUSH    AR1                     
     2610 000002b2 08690032                 LDI             50,AR1          
     2611 000002b3 6e46ffff                 .word   6E46FFFFh       
     2612 000002b4 0e290000                 POP             AR1                     
     2613 000002b5 506000fe         ldiu      254,r0                ; |435| 
     2614 000002b6 21a0c000         and3      r0,*ar0,r0            ; |435| 
     2615 000002b7 1540c000         sti       r0,*ar0               ; |435| 
     2616 000002b8 0f290000                 PUSH    AR1                     
     2617 000002b9 08690032                 LDI             50,AR1          
     2618 000002ba 6e46ffff                 .word   6E46FFFFh       
     2619 000002bb 0e290000                 POP             AR1                     
     2620 000002bc 506000fb         ldiu      251,r0                ; |435| 
     2621 000002bd 21a0c000         and3      r0,*ar0,r0            ; |435| 
     2622 000002be 1540c000         sti       r0,*ar0               ; |435| 
     2623 000002bf 0f290000                 PUSH    AR1                     
     2624 000002c0 08690032                 LDI             50,AR1          
     2625 000002c1 6e46ffff                 .word   6E46FFFFh       
     2626 000002c2 0e290000                 POP             AR1                     
     2627                           .line   14
     2628                   ;----------------------------------------------------------------------
     2629                   ; 439 | dat = ADC_TMP;                                  /* address without read
     2630                   ;     |  bit set - Indicates Write */                                          
     2631                   ;----------------------------------------------------------------------
     2632 000002c3 5060009a         ldiu      154,r0                ; |439| 
     2633 000002c4 15400305         sti       r0,*+fp(5)            ; |439| 
     2634                           .line   15
     2635                   ;----------------------------------------------------------------------
     2636                   ; 440 | ack = I2C_TX_BYTE(dat);                                                
     2637                   ;----------------------------------------------------------------------
     2638 000002c5 08700000-        ldp       @CL59,DP
     2639 000002c6 500a0000         ldiu      r0,ar2
     2640 000002c7 5020004c-        ldiu      @CL59,r0              ; |440| 
     2641 000002c8 70000000         callu     r0                    ; far call to _I2C_TX_BYTE      ; |440| 
     2642                                                           ; |440| Far Call Occurs
     2643 000002c9 15400306         sti       r0,*+fp(6)            ; |440| 
     2644                           .line   17
     2645                   ;----------------------------------------------------------------------
     2646                   ; 442 | if (!ack)                                                              
TMS320C3x/4x COFF AssemblerVersion 5.12     Wed Jul 24 11:03:43 2019
Copyright (c) 1987-1999 Texas Instruments Incorporatedasm30.exe -@_30G.AAB 

G:\workspace\EEA\V615\APP\SOURCE\ASM\adc.asm                         PAGE   50

     2647                   ;----------------------------------------------------------------------
     2648 000002ca 04e00000         cmpi      0,r0                  ; |442| 
     2649 000002cb 6a060003         bne       L68                   ; |442| 
     2650                   ;*      Branch Occurs to L68            ; |442| 
     2651                           .line   19
     2652                   ;----------------------------------------------------------------------
     2653                   ; 444 | r = FALSE;                                                             
     2654                   ;----------------------------------------------------------------------
     2655 000002cc 50600000         ldiu      0,r0                  ; |444| 
     2656 000002cd 15400307         sti       r0,*+fp(7)            ; |444| 
     2657                           .line   20
     2658                   ;----------------------------------------------------------------------
     2659                   ; 445 | break;                                                                 
     2660                   ;----------------------------------------------------------------------
     2661 000002ce 6a000020         bu        L76                   ; |445| 
     2662                   ;*      Branch Occurs to L76            ; |445| 
     2663 000002cf          L68:        
     2664                           .line   23
     2665                   ;----------------------------------------------------------------------
     2666                   ; 448 | ack = I2C_TX_BYTE(addr);                /* the set the pointer */      
     2667                   ;----------------------------------------------------------------------
     2668 000002cf 08700000-        ldp       @CL59,DP
     2669 000002d0 504a0301         ldiu      *+fp(1),ar2           ; |448| 
     2670 000002d1 5020004c-        ldiu      @CL59,r0              ; |448| 
     2671 000002d2 70000000         callu     r0                    ; far call to _I2C_TX_BYTE      ; |448| 
     2672                                                           ; |448| Far Call Occurs
     2673 000002d3 15400306         sti       r0,*+fp(6)            ; |448| 
     2674                           .line   25
     2675                   ;----------------------------------------------------------------------
     2676                   ; 450 | if (!ack)                                                              
     2677                   ;----------------------------------------------------------------------
     2678 000002d4 04e00000         cmpi      0,r0                  ; |450| 
     2679 000002d5 6a060003         bne       L70                   ; |450| 
     2680                   ;*      Branch Occurs to L70            ; |450| 
     2681                           .line   27
     2682                   ;----------------------------------------------------------------------
     2683                   ; 452 | r = FALSE;                                                             
     2684                   ;----------------------------------------------------------------------
     2685 000002d6 50600000         ldiu      0,r0                  ; |452| 
     2686 000002d7 15400307         sti       r0,*+fp(7)            ; |452| 
     2687                           .line   28
     2688                   ;----------------------------------------------------------------------
     2689                   ; 453 | break;                                                                 
     2690                   ;----------------------------------------------------------------------
     2691 000002d8 6a000016         bu        L76                   ; |453| 
     2692                   ;*      Branch Occurs to L76            ; |453| 
     2693 000002d9          L70:        
     2694                           .line   31
     2695                   ;----------------------------------------------------------------------
     2696                   ; 456 | for (i=0;i<n;i++)                                                      
     2697                   ;----------------------------------------------------------------------
     2698 000002d9 50600000         ldiu      0,r0                  ; |456| 
     2699 000002da 15400304         sti       r0,*+fp(4)            ; |456| 
     2700 000002db 04c00302         cmpi      *+fp(2),r0            ; |456| 
TMS320C3x/4x COFF AssemblerVersion 5.12     Wed Jul 24 11:03:43 2019
Copyright (c) 1987-1999 Texas Instruments Incorporatedasm30.exe -@_30G.AAB 

G:\workspace\EEA\V615\APP\SOURCE\ASM\adc.asm                         PAGE   51

     2701 000002dc 6a0a0012         bge       L76                   ; |456| 
     2702                   ;*      Branch Occurs to L76            ; |456| 
     2703 000002dd          L71:        
     2704                           .line   33
     2705                   ;----------------------------------------------------------------------
     2706                   ; 458 | ack = I2C_TX_BYTE(p[i]);        /* write the bytes */                  
     2707                   ;----------------------------------------------------------------------
     2708 000002dd 08700000-        ldp       @CL59,DP
     2709 000002de 50510303         ldiu      *+fp(3),ir0           ; |458| 
     2710 000002df 50480304         ldiu      *+fp(4),ar0           ; |458| 
     2711 000002e0 5020004c-        ldiu      @CL59,r0              ; |458| 
     2712 000002e1 504a4000         ldiu      *+ar0(ir0),ar2        ; |458| 
     2713 000002e2 70000000         callu     r0                    ; far call to _I2C_TX_BYTE      ; |458| 
     2714                                                           ; |458| Far Call Occurs
     2715 000002e3 15400306         sti       r0,*+fp(6)            ; |458| 
     2716                           .line   35
     2717                   ;----------------------------------------------------------------------
     2718                   ; 460 | if (!ack)                                                              
     2719                   ;----------------------------------------------------------------------
     2720 000002e4 04e00000         cmpi      0,r0                  ; |460| 
     2721 000002e5 6a060003         bne       L73                   ; |460| 
     2722                   ;*      Branch Occurs to L73            ; |460| 
     2723                           .line   37
     2724                   ;----------------------------------------------------------------------
     2725                   ; 462 | r = FALSE;                                                             
     2726                   ;----------------------------------------------------------------------
     2727 000002e6 50600000         ldiu      0,r0                  ; |462| 
     2728 000002e7 15400307         sti       r0,*+fp(7)            ; |462| 
     2729                           .line   38
     2730                   ;----------------------------------------------------------------------
     2731                   ; 463 | break;                                                                 
     2732                   ;----------------------------------------------------------------------
     2733 000002e8 6a000006         bu        L76                   ; |463| 
     2734                   ;*      Branch Occurs to L76            ; |463| 
     2735 000002e9          L73:        
     2736                           .line   31
     2737 000002e9 50600001         ldiu      1,r0                  ; |456| 
     2738 000002ea 02400304         addi      *+fp(4),r0            ; |456| 
     2739 000002eb 15400304         sti       r0,*+fp(4)            ; |456| 
     2740 000002ec 04c00302         cmpi      *+fp(2),r0            ; |456| 
     2741 000002ed 6a07ffef         blt       L71                   ; |456| 
     2742                   ;*      Branch Occurs to L71            ; |456| 
     2743                           .line   42
     2744                   ;----------------------------------------------------------------------
     2745                   ; 467 | break;                                                                 
     2746                   ;----------------------------------------------------------------------
     2747 000002ee 6a000000         bu        L76                   ; |467| 
     2748                   ;*      Branch Occurs to L76            ; |467| 
     2749                           .line   43
     2750 000002ef          L76:        
     2751                           .line   45
     2752                   ;----------------------------------------------------------------------
     2753                   ; 470 | I2C_STOP;                                                              
     2754                   ;----------------------------------------------------------------------
TMS320C3x/4x COFF AssemblerVersion 5.12     Wed Jul 24 11:03:43 2019
Copyright (c) 1987-1999 Texas Instruments Incorporatedasm30.exe -@_30G.AAB 

G:\workspace\EEA\V615\APP\SOURCE\ASM\adc.asm                         PAGE   52

     2755 000002ef 08700000-        ldp       @CL58,DP
     2756 000002f0 5028004b-        ldiu      @CL58,ar0             ; |470| 
     2757 000002f1 50600002         ldiu      2,r0                  ; |470| 
     2758 000002f2 25a0c000         or3       r0,*ar0,r0            ; |470| 
     2759 000002f3 1540c000         sti       r0,*ar0               ; |470| 
     2760 000002f4 506000fe         ldiu      254,r0                ; |470| 
     2761 000002f5 21a0c000         and3      r0,*ar0,r0            ; |470| 
     2762 000002f6 1540c000         sti       r0,*ar0               ; |470| 
     2763 000002f7 0f290000                 PUSH    AR1                     
     2764 000002f8 08690032                 LDI             50,AR1          
     2765 000002f9 6e46ffff                 .word   6E46FFFFh       
     2766 000002fa 0e290000                 POP             AR1                     
     2767 000002fb 50600004         ldiu      4,r0                  ; |470| 
     2768 000002fc 25a0c000         or3       r0,*ar0,r0            ; |470| 
     2769 000002fd 1540c000         sti       r0,*ar0               ; |470| 
     2770 000002fe 506000f7         ldiu      247,r0                ; |470| 
     2771 000002ff 21a0c000         and3      r0,*ar0,r0            ; |470| 
     2772 00000300 1540c000         sti       r0,*ar0               ; |470| 
     2773 00000301 0f290000                 PUSH    AR1                     
     2774 00000302 08690032                 LDI             50,AR1          
     2775 00000303 6e46ffff                 .word   6E46FFFFh       
     2776 00000304 0e290000                 POP             AR1                     
     2777 00000305 50600001         ldiu      1,r0                  ; |470| 
     2778 00000306 25a0c000         or3       r0,*ar0,r0            ; |470| 
     2779 00000307 1540c000         sti       r0,*ar0               ; |470| 
     2780 00000308 506000fd         ldiu      253,r0                ; |470| 
     2781 00000309 21a0c000         and3      r0,*ar0,r0            ; |470| 
     2782 0000030a 1540c000         sti       r0,*ar0               ; |470| 
     2783 0000030b 0f290000                 PUSH    AR1                     
     2784 0000030c 08690032                 LDI             50,AR1          
     2785 0000030d 6e46ffff                 .word   6E46FFFFh       
     2786 0000030e 0e290000                 POP             AR1                     
     2787                           .line   46
     2788                   ;----------------------------------------------------------------------
     2789                   ; 471 | GIEP;                                                                  
     2790                   ;----------------------------------------------------------------------
     2791 0000030f 0e350000         pop             ST                      
     2792                           .line   48
     2793                   ;----------------------------------------------------------------------
     2794                   ; 473 | return r;                                                              
     2795                   ;----------------------------------------------------------------------
     2796 00000310 50400307         ldiu      *+fp(7),r0            ; |473| 
     2797                           .line   49
     2798                                                           ; Begin Epilog Code
     2799 00000311 50410b01         ldiu      *-fp(1),r1            ; |474| 
     2800 00000312 504bc300         ldiu      *fp,fp                ; |474| 
     2801                                                           ; Unallocate the Frame
     2802 00000313 18740009         subi      9,sp                  ; |474| 
     2803 00000314 68000001         bu        r1
     2804                   ;*      Branch Occurs to r1 
     2805                           .endfunc        474,000000000h,7
     2806                   
     2807                   
     2808 00000315                  .sect    ".text"
TMS320C3x/4x COFF AssemblerVersion 5.12     Wed Jul 24 11:03:43 2019
Copyright (c) 1987-1999 Texas Instruments Incorporatedasm30.exe -@_30G.AAB 

G:\workspace\EEA\V615\APP\SOURCE\ASM\adc.asm                         PAGE   53

     2809                   
     2810                           .global _Read_TMP75
     2811                           .sym    _Read_TMP75,_Read_TMP75,46,2,0
     2812                           .func   490
     2813                   ;******************************************************************************
     2814                   ;* FUNCTION NAME: _Read_TMP75                                                 *
     2815                   ;*                                                                            *
     2816                   ;*   Architecture       : TMS320C33                                           *
     2817                   ;*   Calling Convention : TI Standard Register Parameters                     *
     2818                   ;*   Function Uses Regs : r0,r1,r2,r3,ar0,ar2,st                              *
     2819                   ;*   Regs Saved         :                                                     *
     2820                   ;*   Stack Frame        : Full (w/ debug)                                     *
     2821                   ;*   Total Frame Size   : 2 Call + 0 Parm + 8 Auto + 0 SOE = 10 words         *
     2822                   ;******************************************************************************
     2823 00000315          _Read_TMP75:
     2824                   ;* ar2   assigned to _addr
     2825                           .sym    _addr,10,4,17,32
     2826                   ;* r2    assigned to _n
     2827                           .sym    _n,2,4,17,32
     2828                   ;* r3    assigned to _p
     2829                           .sym    _p,3,28,17,32
     2830                           .sym    _addr,1,4,1,32
     2831                           .sym    _n,2,4,1,32
     2832                           .sym    _p,3,28,1,32
     2833                           .sym    _i,4,4,1,32
     2834                           .sym    _j,5,4,1,32
     2835                           .sym    _dat,6,12,1,32
     2836                           .sym    _ack,7,14,1,32
     2837                           .sym    _r,8,14,1,32
     2838                           .line   1
     2839                   ;----------------------------------------------------------------------
     2840                   ; 490 | BOOL Read_TMP75(int addr, int n, unsigned char* p)                     
     2841                   ;----------------------------------------------------------------------
     2842 00000315 0f2b0000         push      fp
     2843 00000316 500b0014         ldiu      sp,fp
     2844 00000317 02740008         addi      8,sp
     2845                           .line   2
     2846                   ;----------------------------------------------------------------------
     2847                   ; 492 | int i,j;                                                               
     2848                   ; 493 | unsigned char dat;                                                     
     2849                   ; 494 | BOOL ack;                                                              
     2850                   ; 495 | BOOL r;                                                                
     2851                   ;----------------------------------------------------------------------
     2852 00000318 15430303         sti       r3,*+fp(3)            ; |491| 
     2853 00000319 15420302         sti       r2,*+fp(2)            ; |491| 
     2854 0000031a 154a0301         sti       ar2,*+fp(1)           ; |491| 
     2855                           .line   8
     2856                   ;----------------------------------------------------------------------
     2857                   ; 497 | r = TRUE;                                                              
     2858                   ;----------------------------------------------------------------------
     2859 0000031b 50600001         ldiu      1,r0                  ; |497| 
     2860 0000031c 15400308         sti       r0,*+fp(8)            ; |497| 
     2861                           .line   9
     2862                   ;----------------------------------------------------------------------
TMS320C3x/4x COFF AssemblerVersion 5.12     Wed Jul 24 11:03:43 2019
Copyright (c) 1987-1999 Texas Instruments Incorporatedasm30.exe -@_30G.AAB 

G:\workspace\EEA\V615\APP\SOURCE\ASM\adc.asm                         PAGE   54

     2863                   ; 498 | _GIEP;                                                                 
     2864                   ;----------------------------------------------------------------------
     2865 0000031d 0f350000         push    ST                      
     2866 0000031e 03752000         andn    2000h, ST       
     2867                           .line   11
     2868                   ;----------------------------------------------------------------------
     2869                   ; 500 | if (!Write_TMP75(addr, 0, p))                                          
     2870                   ;----------------------------------------------------------------------
     2871 0000031f 08700000-        ldp       @CL15,DP
     2872 00000320 50200020-        ldiu      @CL15,r0              ; |500| 
     2873 00000321 50620000         ldiu      0,r2                  ; |500| 
     2874 00000322 70000000         callu     r0                    ; far call to _Write_TMP75      ; |500| 
     2875                                                           ; |500| Far Call Occurs
     2876 00000323 04e00000         cmpi      0,r0                  ; |500| 
     2877 00000324 6a060005         bne       L81                   ; |500| 
     2878                   ;*      Branch Occurs to L81            ; |500| 
     2879                           .line   13
     2880                   ;----------------------------------------------------------------------
     2881                   ; 502 | GIEP;                                                                  
     2882                   ;----------------------------------------------------------------------
     2883 00000325 0e350000         pop             ST                      
     2884                           .line   14
     2885                   ;----------------------------------------------------------------------
     2886                   ; 503 | return FALSE;                                                          
     2887                   ;----------------------------------------------------------------------
     2888 00000326 6a200068         bud       L90                   ; |503| 
     2889 00000327 0c800000         nop
     2890 00000328 0c800000         nop
     2891 00000329 50600000         ldiu      0,r0                  ; |503| 
     2892                   ;*      Branch Occurs to L90            ; |503| 
     2893 0000032a          L81:        
     2894                           .line   17
     2895                   ;----------------------------------------------------------------------
     2896                   ; 506 | I2C_START;                                                             
     2897                   ; 508 | while(TRUE)                                                            
     2898                   ;----------------------------------------------------------------------
     2899 0000032a 08700000-        ldp       @CL58,DP
     2900 0000032b 5028004b-        ldiu      @CL58,ar0             ; |506| 
     2901 0000032c 50600004         ldiu      4,r0                  ; |506| 
     2902 0000032d 25a0c000         or3       r0,*ar0,r0            ; |506| 
     2903 0000032e 1540c000         sti       r0,*ar0               ; |506| 
     2904 0000032f 50600001         ldiu      1,r0                  ; |506| 
     2905 00000330 25a0c000         or3       r0,*ar0,r0            ; |506| 
     2906 00000331 1540c000         sti       r0,*ar0               ; |506| 
     2907 00000332 50600008         ldiu      8,r0                  ; |506| 
     2908 00000333 25a0c000         or3       r0,*ar0,r0            ; |506| 
     2909 00000334 1540c000         sti       r0,*ar0               ; |506| 
     2910 00000335 50600002         ldiu      2,r0                  ; |506| 
     2911 00000336 25a0c000         or3       r0,*ar0,r0            ; |506| 
     2912 00000337 1540c000         sti       r0,*ar0               ; |506| 
     2913 00000338 0f290000                 PUSH    AR1                     
     2914 00000339 08690032                 LDI             50,AR1          
     2915 0000033a 6e46ffff                 .word   6E46FFFFh       
     2916 0000033b 0e290000                 POP             AR1                     
TMS320C3x/4x COFF AssemblerVersion 5.12     Wed Jul 24 11:03:43 2019
Copyright (c) 1987-1999 Texas Instruments Incorporatedasm30.exe -@_30G.AAB 

G:\workspace\EEA\V615\APP\SOURCE\ASM\adc.asm                         PAGE   55

     2917 0000033c 506000fe         ldiu      254,r0                ; |506| 
     2918 0000033d 21a0c000         and3      r0,*ar0,r0            ; |506| 
     2919 0000033e 1540c000         sti       r0,*ar0               ; |506| 
     2920 0000033f 0f290000                 PUSH    AR1                     
     2921 00000340 08690032                 LDI             50,AR1          
     2922 00000341 6e46ffff                 .word   6E46FFFFh       
     2923 00000342 0e290000                 POP             AR1                     
     2924 00000343 506000fb         ldiu      251,r0                ; |506| 
     2925 00000344 21a0c000         and3      r0,*ar0,r0            ; |506| 
     2926 00000345 1540c000         sti       r0,*ar0               ; |506| 
     2927 00000346 0f290000                 PUSH    AR1                     
     2928 00000347 08690032                 LDI             50,AR1          
     2929 00000348 6e46ffff                 .word   6E46FFFFh       
     2930 00000349 0e290000                 POP             AR1                     
     2931                           .line   21
     2932                   ;----------------------------------------------------------------------
     2933                   ; 510 | dat = ADC_TMP | 0x01;                           /* address with read bi
     2934                   ;     | t set */                                                               
     2935                   ;----------------------------------------------------------------------
     2936 0000034a 5060009b         ldiu      155,r0                ; |510| 
     2937 0000034b 15400306         sti       r0,*+fp(6)            ; |510| 
     2938                           .line   22
     2939                   ;----------------------------------------------------------------------
     2940                   ; 511 | ack = I2C_TX_BYTE(dat);                                                
     2941                   ;----------------------------------------------------------------------
     2942 0000034c 08700000-        ldp       @CL59,DP
     2943 0000034d 500a0000         ldiu      r0,ar2
     2944 0000034e 5020004c-        ldiu      @CL59,r0              ; |511| 
     2945 0000034f 70000000         callu     r0                    ; far call to _I2C_TX_BYTE      ; |511| 
     2946                                                           ; |511| Far Call Occurs
     2947 00000350 15400307         sti       r0,*+fp(7)            ; |511| 
     2948                           .line   24
     2949                   ;----------------------------------------------------------------------
     2950                   ; 513 | if (!ack)                                                              
     2951                   ;----------------------------------------------------------------------
     2952 00000351 04e00000         cmpi      0,r0                  ; |513| 
     2953 00000352 6a060003         bne       L83                   ; |513| 
     2954                   ;*      Branch Occurs to L83            ; |513| 
     2955                           .line   26
     2956                   ;----------------------------------------------------------------------
     2957                   ; 515 | r = FALSE;                                                             
     2958                   ;----------------------------------------------------------------------
     2959 00000353 50600000         ldiu      0,r0                  ; |515| 
     2960 00000354 15400308         sti       r0,*+fp(8)            ; |515| 
     2961                           .line   27
     2962                   ;----------------------------------------------------------------------
     2963                   ; 516 | break;                                                                 
     2964                   ;----------------------------------------------------------------------
     2965 00000355 6a000019         bu        L89                   ; |516| 
     2966                   ;*      Branch Occurs to L89            ; |516| 
     2967 00000356          L83:        
     2968                           .line   30
     2969                   ;----------------------------------------------------------------------
     2970                   ; 519 | ack = TRUE;                                                            
TMS320C3x/4x COFF AssemblerVersion 5.12     Wed Jul 24 11:03:43 2019
Copyright (c) 1987-1999 Texas Instruments Incorporatedasm30.exe -@_30G.AAB 

G:\workspace\EEA\V615\APP\SOURCE\ASM\adc.asm                         PAGE   56

     2971                   ;----------------------------------------------------------------------
     2972 00000356 50600001         ldiu      1,r0                  ; |519| 
     2973 00000357 15400307         sti       r0,*+fp(7)            ; |519| 
     2974                           .line   32
     2975                   ;----------------------------------------------------------------------
     2976                   ; 521 | for (i=0;i<n;i++)                                                      
     2977                   ;----------------------------------------------------------------------
     2978 00000358 50600000         ldiu      0,r0                  ; |521| 
     2979 00000359 15400304         sti       r0,*+fp(4)            ; |521| 
     2980 0000035a 04c00302         cmpi      *+fp(2),r0            ; |521| 
     2981 0000035b 6a0a0013         bge       L89                   ; |521| 
     2982                   ;*      Branch Occurs to L89            ; |521| 
     2983 0000035c          L84:        
     2984                           .line   34
     2985                   ;----------------------------------------------------------------------
     2986                   ; 523 | if (i==(n-1))                                                          
     2987                   ;----------------------------------------------------------------------
     2988 0000035c 50600001         ldiu      1,r0                  ; |523| 
     2989 0000035d 50410304         ldiu      *+fp(4),r1            ; |523| 
     2990 0000035e 19c00302         subri     *+fp(2),r0            ; |523| 
     2991 0000035f 23800100         cmpi3     r0,r1                 ; |523| 
     2992 00000360 6a060002         bne       L86                   ; |523| 
     2993                   ;*      Branch Occurs to L86            ; |523| 
     2994                           .line   35
     2995                   ;----------------------------------------------------------------------
     2996                   ; 524 | ack = FALSE;                                                           
     2997                   ;----------------------------------------------------------------------
     2998 00000361 50600000         ldiu      0,r0                  ; |524| 
     2999 00000362 15400307         sti       r0,*+fp(7)            ; |524| 
     3000 00000363          L86:        
     3001                           .line   37
     3002                   ;----------------------------------------------------------------------
     3003                   ; 526 | I2C_RX_BYTE(&p[i],ack);                 /* read the bytes */           
     3004                   ;----------------------------------------------------------------------
     3005 00000363 504a0304         ldiu      *+fp(4),ar2           ; |526| 
     3006 00000364 08700000-        ldp       @CL60,DP
     3007 00000365 50420307         ldiu      *+fp(7),r2            ; |526| 
     3008 00000366 024a0303         addi      *+fp(3),ar2           ; |526| Unsigned
     3009 00000367 5020004d-        ldiu      @CL60,r0              ; |526| 
     3010 00000368 70000000         callu     r0                    ; far call to _I2C_RX_BYTE      ; |526| 
     3011                                                           ; |526| Far Call Occurs
     3012                           .line   32
     3013 00000369 50600001         ldiu      1,r0                  ; |521| 
     3014 0000036a 02400304         addi      *+fp(4),r0            ; |521| 
     3015 0000036b 15400304         sti       r0,*+fp(4)            ; |521| 
     3016 0000036c 04c00302         cmpi      *+fp(2),r0            ; |521| 
     3017 0000036d 6a07ffee         blt       L84                   ; |521| 
     3018                   ;*      Branch Occurs to L84            ; |521| 
     3019                           .line   40
     3020                   ;----------------------------------------------------------------------
     3021                   ; 529 | break;                                                                 
     3022                   ;----------------------------------------------------------------------
     3023 0000036e 6a000000         bu        L89                   ; |529| 
     3024                   ;*      Branch Occurs to L89            ; |529| 
TMS320C3x/4x COFF AssemblerVersion 5.12     Wed Jul 24 11:03:43 2019
Copyright (c) 1987-1999 Texas Instruments Incorporatedasm30.exe -@_30G.AAB 

G:\workspace\EEA\V615\APP\SOURCE\ASM\adc.asm                         PAGE   57

     3025                           .line   41
     3026 0000036f          L89:        
     3027                           .line   43
     3028                   ;----------------------------------------------------------------------
     3029                   ; 532 | I2C_STOP;                                                              
     3030                   ;----------------------------------------------------------------------
     3031 0000036f 08700000-        ldp       @CL58,DP
     3032 00000370 5028004b-        ldiu      @CL58,ar0             ; |532| 
     3033 00000371 50600002         ldiu      2,r0                  ; |532| 
     3034 00000372 25a0c000         or3       r0,*ar0,r0            ; |532| 
     3035 00000373 1540c000         sti       r0,*ar0               ; |532| 
     3036 00000374 506000fe         ldiu      254,r0                ; |532| 
     3037 00000375 21a0c000         and3      r0,*ar0,r0            ; |532| 
     3038 00000376 1540c000         sti       r0,*ar0               ; |532| 
     3039 00000377 0f290000                 PUSH    AR1                     
     3040 00000378 08690032                 LDI             50,AR1          
     3041 00000379 6e46ffff                 .word   6E46FFFFh       
     3042 0000037a 0e290000                 POP             AR1                     
     3043 0000037b 50600004         ldiu      4,r0                  ; |532| 
     3044 0000037c 25a0c000         or3       r0,*ar0,r0            ; |532| 
     3045 0000037d 1540c000         sti       r0,*ar0               ; |532| 
     3046 0000037e 506000f7         ldiu      247,r0                ; |532| 
     3047 0000037f 21a0c000         and3      r0,*ar0,r0            ; |532| 
     3048 00000380 1540c000         sti       r0,*ar0               ; |532| 
     3049 00000381 0f290000                 PUSH    AR1                     
     3050 00000382 08690032                 LDI             50,AR1          
     3051 00000383 6e46ffff                 .word   6E46FFFFh       
     3052 00000384 0e290000                 POP             AR1                     
     3053 00000385 50600001         ldiu      1,r0                  ; |532| 
     3054 00000386 25a0c000         or3       r0,*ar0,r0            ; |532| 
     3055 00000387 1540c000         sti       r0,*ar0               ; |532| 
     3056 00000388 506000fd         ldiu      253,r0                ; |532| 
     3057 00000389 21a0c000         and3      r0,*ar0,r0            ; |532| 
     3058 0000038a 1540c000         sti       r0,*ar0               ; |532| 
     3059 0000038b 0f290000                 PUSH    AR1                     
     3060 0000038c 08690032                 LDI             50,AR1          
     3061 0000038d 6e46ffff                 .word   6E46FFFFh       
     3062 0000038e 0e290000                 POP             AR1                     
     3063                           .line   45
     3064                   ;----------------------------------------------------------------------
     3065                   ; 534 | GIEP;                                                                  
     3066                   ;----------------------------------------------------------------------
     3067 0000038f 0e350000         pop             ST                      
     3068                           .line   46
     3069                   ;----------------------------------------------------------------------
     3070                   ; 535 | return r;                                                              
     3071                   ;----------------------------------------------------------------------
     3072 00000390 50400308         ldiu      *+fp(8),r0            ; |535| 
     3073 00000391          L90:        
     3074                           .line   47
     3075                                                           ; Begin Epilog Code
     3076 00000391 50410b01         ldiu      *-fp(1),r1            ; |536| 
     3077 00000392 504bc300         ldiu      *fp,fp                ; |536| 
     3078                                                           ; Unallocate the Frame
TMS320C3x/4x COFF AssemblerVersion 5.12     Wed Jul 24 11:03:43 2019
Copyright (c) 1987-1999 Texas Instruments Incorporatedasm30.exe -@_30G.AAB 

G:\workspace\EEA\V615\APP\SOURCE\ASM\adc.asm                         PAGE   58

     3079 00000393 1874000a         subi      10,sp                 ; |536| 
     3080 00000394 68000001         bu        r1
     3081                   ;*      Branch Occurs to r1 
     3082                           .endfunc        536,000000000h,8
     3083                   
     3084                   
     3085 00000395                  .sect    ".text"
     3086                   
     3087                           .global _Read_ADCn
     3088                           .sym    _Read_ADCn,_Read_ADCn,32,2,0
     3089                           .func   552
     3090                   ;******************************************************************************
     3091                   ;* FUNCTION NAME: _Read_ADCn                                                  *
     3092                   ;*                                                                            *
     3093                   ;*   Architecture       : TMS320C33                                           *
     3094                   ;*   Calling Convention : TI Standard Register Parameters                     *
     3095                   ;*   Function Uses Regs : f0,r0,f1,r1,f2,r2,r3,ar0,ar1,ar2,fp,ar4,ar5,ar6,ir0,*
     3096                   ;*                        ir1,st,rc                                           *
     3097                   ;*   Regs Saved         : ar4,ar5,ar6                                         *
     3098                   ;*   Stack Frame        : Full (w/ debug)                                     *
     3099                   ;*   Total Frame Size   : 2 Call + 0 Parm + 9 Auto + 3 SOE = 14 words         *
     3100                   ;******************************************************************************
     3101 00000395          _Read_ADCn:
     3102                   ;* ar2   assigned to _n
     3103                           .sym    _n,10,4,17,32
     3104                   ;* r2    assigned to _START
     3105                           .sym    _START,2,14,17,32
     3106                           .sym    _n,1,4,1,32
     3107                           .sym    _START,2,14,1,32
     3108                           .sym    _f,3,6,1,32
     3109                           .sym    _addr,4,4,1,32
     3110                           .sym    _ch,5,14,1,32
     3111                           .sym    _p,6,62,1,96,,3
     3112                           .sym    _r,9,14,1,32
     3113                           .line   1
     3114                   ;----------------------------------------------------------------------
     3115                   ; 552 | void Read_ADCn(int n, BOOL START)                                      
     3116                   ;----------------------------------------------------------------------
     3117 00000395 0f2b0000         push      fp
     3118 00000396 500b0014         ldiu      sp,fp
     3119 00000397 02740009         addi      9,sp
     3120 00000398 0f2c0000         push      ar4
     3121 00000399 0f2d0000         push      ar5
     3122 0000039a 0f2e0000         push      ar6
     3123                           .line   2
     3124                   ;----------------------------------------------------------------------
     3125                   ; 554 | float f;                                                               
     3126                   ; 555 | int addr;                                                              
     3127                   ; 556 | unsigned int ch;                                                       
     3128                   ; 557 | unsigned int p[3];                                                     
     3129                   ; 558 | BOOL r;                                                                
     3130                   ; 560 | switch(n)                                                              
     3131                   ; 562 |         case ADC_Tint:                                                 
     3132                   ;----------------------------------------------------------------------
TMS320C3x/4x COFF AssemblerVersion 5.12     Wed Jul 24 11:03:43 2019
Copyright (c) 1987-1999 Texas Instruments Incorporatedasm30.exe -@_30G.AAB 

G:\workspace\EEA\V615\APP\SOURCE\ASM\adc.asm                         PAGE   59

     3133 0000039b 15420302         sti       r2,*+fp(2)            ; |553| 
     3134 0000039c 154a0301         sti       ar2,*+fp(1)           ; |553| 
     3135 0000039d 6a000298         bu        L156                  ; |551| 
     3136                   ;*      Branch Occurs to L156           ; |551| 
     3137 0000039e          L93:        
     3138                           .line   13
     3139                   ;----------------------------------------------------------------------
     3140                   ; 564 | r = Read_TMP75(0, 2, (unsigned char*)p);                               
     3141                   ;----------------------------------------------------------------------
     3142 0000039e 08700000-        ldp       @CL61,DP
     3143 0000039f 5003000b         ldiu      fp,r3                 ; |564| 
     3144 000003a0 506a0000         ldiu      0,ar2                 ; |564| 
     3145 000003a1 50620002         ldiu      2,r2                  ; |564| 
     3146 000003a2 5020004e-        ldiu      @CL61,r0              ; |564| 
     3147 000003a3 02630006         addi      6,r3                  ; |564| 
     3148 000003a4 70000000         callu     r0                    ; far call to _Read_TMP75       ; |564| 
     3149                                                           ; |564| Far Call Occurs
     3150 000003a5 15400309         sti       r0,*+fp(9)            ; |564| 
     3151                           .line   15
     3152                   ;----------------------------------------------------------------------
     3153                   ; 566 | if (!r)                                                                
     3154                   ;----------------------------------------------------------------------
     3155 000003a6 04e00000         cmpi      0,r0                  ; |566| 
     3156 000003a7 6a060008         bne       L95                   ; |566| 
     3157                   ;*      Branch Occurs to L95            ; |566| 
     3158                           .line   16
     3159                   ;----------------------------------------------------------------------
     3160                   ; 567 | VAR_NaN(&REG_ADC[n]);                                                  
     3161                   ; 568 | else                                                                   
     3162                   ;----------------------------------------------------------------------
     3163 000003a8 504a0301         ldiu      *+fp(1),ar2           ; |567| 
     3164 000003a9 08700000-        ldp       @CL3,DP
     3165 000003aa 0aea002c         mpyi      44,ar2                ; |567| 
     3166 000003ab 022a0014-        addi      @CL3,ar2              ; |567| Unsigned
     3167 000003ac 08700000-        ldp       @CL4,DP
     3168 000003ad 50200015-        ldiu      @CL4,r0               ; |567| 
     3169 000003ae 70000000         callu     r0                    ; far call to _VAR_NaN  ; |567| 
     3170                                                           ; |567| Far Call Occurs
     3171 000003af 6a000298         bu        L158                  ; |551| 
     3172                   ;*      Branch Occurs to L158           ; |551| 
     3173 000003b0          L95:        
     3174                           .line   19
     3175                   ;----------------------------------------------------------------------
     3176                   ; 570 | ADC_INT[n] = (((p[0]<<8) & 0xFF00) | (p[1] & 0x00FF));                 
     3177                   ;----------------------------------------------------------------------
     3178 000003b0 5009000b         ldiu      fp,ar1                ; |570| 
     3179 000003b1 5008000b         ldiu      fp,ar0                ; |570| 
     3180 000003b2 08700000-        ldp       @CL5,DP
     3181 000003b3 50600008         ldiu      8,r0                  ; |570| 
     3182 000003b4 506100ff         ldiu      255,r1                ; |570| 
     3183 000003b5 50510301         ldiu      *+fp(1),ir0           ; |570| 
     3184 000003b6 02690006         addi      6,ar1                 ; |570| 
     3185 000003b7 02680007         addi      7,ar0                 ; |570| 
     3186 000003b8 502a0016-        ldiu      @CL5,ar2              ; |570| 
TMS320C3x/4x COFF AssemblerVersion 5.12     Wed Jul 24 11:03:43 2019
Copyright (c) 1987-1999 Texas Instruments Incorporatedasm30.exe -@_30G.AAB 

G:\workspace\EEA\V615\APP\SOURCE\ASM\adc.asm                         PAGE   60

     3187 000003b9 22a0c100         ash3      r0,*ar1,r0            ; |570| 
     3188 000003ba 21a1c001         and3      r1,*ar0,r1            ; |570| 
     3189 000003bb 02e0ff00         and       65280,r0              ; |570| 
     3190 000003bc 25800100         or3       r0,r1,r0              ; |570| 
     3191 000003bd 15404200         sti       r0,*+ar2(ir0)         ; |570| 
     3192                           .line   20
     3193                   ;----------------------------------------------------------------------
     3194                   ; 571 | ADC_INT[n] = ADC_INT[n]>>4;                                            
     3195                   ;----------------------------------------------------------------------
     3196 000003be 50280016-        ldiu      @CL5,ar0              ; |571| 
     3197 000003bf 50290016-        ldiu      @CL5,ar1              ; |571| 
     3198 000003c0 50510301         ldiu      *+fp(1),ir0           ; |571| 
     3199 000003c1 5060fffc         ldiu      -4,r0                 ; |571| 
     3200 000003c2 50120011         ldiu      ir0,ir1               ; |571| 
     3201 000003c3 22a04000         ash3      r0,*+ar0(ir0),r0      ; |571| 
     3202 000003c4 15408100         sti       r0,*+ar1(ir1)         ; |571| 
     3203                           .line   21
     3204                   ;----------------------------------------------------------------------
     3205                   ; 572 | f = (float)ADC_INT[n]/16.0;                                            
     3206                   ;----------------------------------------------------------------------
     3207 000003c5 50280016-        ldiu      @CL5,ar0              ; |572| 
     3208 000003c6 50510301         ldiu      *+fp(1),ir0           ; |572| 
     3209 000003c7 08700000-        ldp       @CL62,DP
     3210 000003c8 05c04000         float     *+ar0(ir0),f0         ; |572| 
     3211 000003c9 0a20004f-        mpyf      @CL62,f0              ; |572| 
     3212 000003ca 14400303         stf       f0,*+fp(3)            ; |572| 
     3213                           .line   22
     3214                   ;----------------------------------------------------------------------
     3215                   ; 573 | VAR_Update(&REG_ADC[n], f, 0, 0);                                      
     3216                   ;----------------------------------------------------------------------
     3217 000003cb 500a0011         ldiu      ir0,ar2               ; |573| 
     3218 000003cc 0aea002c         mpyi      44,ar2                ; |573| 
     3219 000003cd 08700000-        ldp       @CL3,DP
     3220 000003ce 506300ff         ldiu      255,r3                ; |573| 
     3221 000003cf 022a0014-        addi      @CL3,ar2              ; |573| Unsigned
     3222 000003d0 08700000-        ldp       @CL41,DP
     3223 000003d1 40020000         ldfu      f0,f2                 ; |573| Move F32 into F40 for CONV
     3224 000003d2 5021003a-        ldiu      @CL41,r1              ; |573| 
     3225 000003d3 03020003         andn      r3,f2                 ; |573| Bit mask for F32/F40 conversion
     3226 000003d4 507b0000         ldiu      0,rc                  ; |573| 
     3227 000003d5 50630000         ldiu      0,r3                  ; |573| 
     3228 000003d6 70000001         callu     r1                    ; far call to _VAR_Update       ; |573| 
     3229                                                           ; |573| Far Call Occurs
     3230                           .line   24
     3231                   ;----------------------------------------------------------------------
     3232                   ; 575 | break;                                                                 
     3233                   ; 577 | case ADC_Text:                                                         
     3234                   ; 578 | case ADC_Vinc:                                                         
     3235                   ; 579 | case ADC_Vref:                                                         
     3236                   ;----------------------------------------------------------------------
     3237 000003d7 6a000270         bu        L158                  ; |575| 
     3238                   ;*      Branch Occurs to L158           ; |575| 
     3239 000003d8          L96:        
     3240                           .line   31
TMS320C3x/4x COFF AssemblerVersion 5.12     Wed Jul 24 11:03:43 2019
Copyright (c) 1987-1999 Texas Instruments Incorporatedasm30.exe -@_30G.AAB 

G:\workspace\EEA\V615\APP\SOURCE\ASM\adc.asm                         PAGE   61

     3241                   ;----------------------------------------------------------------------
     3242                   ; 582 | addr = ADC_ADDRA1;                                                     
     3243                   ;----------------------------------------------------------------------
     3244 000003d8 50600094         ldiu      148,r0                ; |582| 
     3245 000003d9 15400304         sti       r0,*+fp(4)            ; |582| 
     3246                           .line   33
     3247                   ;----------------------------------------------------------------------
     3248                   ; 584 | if (n==ADC_Vref)                                                       
     3249                   ;----------------------------------------------------------------------
     3250 000003da 50400301         ldiu      *+fp(1),r0            ; |584| 
     3251 000003db 04e00000         cmpi      0,r0                  ; |584| 
     3252 000003dc 6a060003         bne       L98                   ; |584| 
     3253                   ;*      Branch Occurs to L98            ; |584| 
     3254                           .line   34
     3255                   ;----------------------------------------------------------------------
     3256                   ; 585 | ch = ADC_CH0;                                                          
     3257                   ;----------------------------------------------------------------------
     3258 000003dd 50600040         ldiu      64,r0                 ; |585| 
     3259 000003de 15400305         sti       r0,*+fp(5)            ; |585| 
     3260 000003df 6a00000b         bu        L102                  ; |551| 
     3261                   ;*      Branch Occurs to L102           ; |551| 
     3262 000003e0          L98:        
     3263                           .line   35
     3264                   ;----------------------------------------------------------------------
     3265                   ; 586 | else if (n==ADC_Vinc)                                                  
     3266                   ;----------------------------------------------------------------------
     3267 000003e0 50400301         ldiu      *+fp(1),r0            ; |586| 
     3268 000003e1 04e00001         cmpi      1,r0                  ; |586| 
     3269 000003e2 6a060003         bne       L100                  ; |586| 
     3270                   ;*      Branch Occurs to L100           ; |586| 
     3271                           .line   36
     3272                   ;----------------------------------------------------------------------
     3273                   ; 587 | ch = ADC_CH1;                                                          
     3274                   ;----------------------------------------------------------------------
     3275 000003e3 50600060         ldiu      96,r0                 ; |587| 
     3276 000003e4 15400305         sti       r0,*+fp(5)            ; |587| 
     3277 000003e5 6a000005         bu        L102                  ; |551| 
     3278                   ;*      Branch Occurs to L102           ; |551| 
     3279 000003e6          L100:        
     3280                           .line   37
     3281                   ;----------------------------------------------------------------------
     3282                   ; 588 | else if (n==ADC_Text)                                                  
     3283                   ;----------------------------------------------------------------------
     3284 000003e6 50400301         ldiu      *+fp(1),r0            ; |588| 
     3285 000003e7 04e00002         cmpi      2,r0                  ; |588| 
     3286 000003e8 6a060002         bne       L102                  ; |588| 
     3287                   ;*      Branch Occurs to L102           ; |588| 
     3288                           .line   38
     3289                   ;----------------------------------------------------------------------
     3290                   ; 589 | ch = ADC_CH2;                                                          
     3291                   ;----------------------------------------------------------------------
     3292 000003e9 50600020         ldiu      32,r0                 ; |589| 
     3293 000003ea 15400305         sti       r0,*+fp(5)            ; |589| 
     3294 000003eb          L102:        
TMS320C3x/4x COFF AssemblerVersion 5.12     Wed Jul 24 11:03:43 2019
Copyright (c) 1987-1999 Texas Instruments Incorporatedasm30.exe -@_30G.AAB 

G:\workspace\EEA\V615\APP\SOURCE\ASM\adc.asm                         PAGE   62

     3295                           .line   40
     3296                   ;----------------------------------------------------------------------
     3297                   ; 591 | if (START)                                                             
     3298                   ;----------------------------------------------------------------------
     3299 000003eb 50400302         ldiu      *+fp(2),r0            ; |591| 
     3300 000003ec 04e00000         cmpi      0,r0                  ; |591| 
     3301 000003ed 6a05001b         beq       L105                  ; |591| 
     3302                   ;*      Branch Occurs to L105           ; |591| 
     3303                           .line   42
     3304                   ;----------------------------------------------------------------------
     3305                   ; 593 | p[0]    = 0x9C;                                                        
     3306                   ;----------------------------------------------------------------------
     3307 000003ee 5008000b         ldiu      fp,ar0                ; |593| 
     3308 000003ef 02680006         addi      6,ar0                 ; |593| 
     3309 000003f0 5060009c         ldiu      156,r0                ; |593| 
     3310 000003f1 1540c000         sti       r0,*ar0               ; |593| 
     3311                           .line   43
     3312                   ;----------------------------------------------------------------------
     3313                   ; 594 | p[0]   |= ch;                                                          
     3314                   ;----------------------------------------------------------------------
     3315 000003f2 5008000b         ldiu      fp,ar0                ; |594| 
     3316 000003f3 02680006         addi      6,ar0                 ; |594| 
     3317 000003f4 50400305         ldiu      *+fp(5),r0            ; |594| 
     3318 000003f5 25a0c000         or3       r0,*ar0,r0            ; |594| 
     3319 000003f6 1540c000         sti       r0,*ar0               ; |594| 
     3320                           .line   44
     3321                   ;----------------------------------------------------------------------
     3322                   ; 595 | r               = Write_ADC_DAC(addr, 1, (unsigned char*)p);    /* setu
     3323                   ;     | p cfg register */                                                      
     3324                   ;----------------------------------------------------------------------
     3325 000003f7 5003000b         ldiu      fp,r3                 ; |595| 
     3326 000003f8 08700000-        ldp       @CL63,DP
     3327 000003f9 50620001         ldiu      1,r2                  ; |595| 
     3328 000003fa 02630006         addi      6,r3                  ; |595| 
     3329 000003fb 504a0304         ldiu      *+fp(4),ar2           ; |595| 
     3330 000003fc 50200050-        ldiu      @CL63,r0              ; |595| 
     3331 000003fd 70000000         callu     r0                    ; far call to _Write_ADC_DAC    ; |595| 
     3332                                                           ; |595| Far Call Occurs
     3333 000003fe 15400309         sti       r0,*+fp(9)            ; |595| 
     3334                           .line   46
     3335                   ;----------------------------------------------------------------------
     3336                   ; 597 | if (!r)                                                                
     3337                   ;----------------------------------------------------------------------
     3338 000003ff 04e00000         cmpi      0,r0                  ; |597| 
     3339 00000400 6a060247         bne       L158                  ; |597| 
     3340                   ;*      Branch Occurs to L158           ; |597| 
     3341                           .line   47
     3342                   ;----------------------------------------------------------------------
     3343                   ; 598 | VAR_NaN(&REG_ADC[n]);                                                  
     3344                   ; 600 | else                                                                   
     3345                   ;----------------------------------------------------------------------
     3346 00000401 504a0301         ldiu      *+fp(1),ar2           ; |598| 
     3347 00000402 08700000-        ldp       @CL3,DP
     3348 00000403 0aea002c         mpyi      44,ar2                ; |598| 
TMS320C3x/4x COFF AssemblerVersion 5.12     Wed Jul 24 11:03:43 2019
Copyright (c) 1987-1999 Texas Instruments Incorporatedasm30.exe -@_30G.AAB 

G:\workspace\EEA\V615\APP\SOURCE\ASM\adc.asm                         PAGE   63

     3349 00000404 022a0014-        addi      @CL3,ar2              ; |598| Unsigned
     3350 00000405 08700000-        ldp       @CL4,DP
     3351 00000406 50200015-        ldiu      @CL4,r0               ; |598| 
     3352 00000407 70000000         callu     r0                    ; far call to _VAR_NaN  ; |598| 
     3353                                                           ; |598| Far Call Occurs
     3354 00000408 6a00023f         bu        L158                  ; |551| 
     3355                   ;*      Branch Occurs to L158           ; |551| 
     3356 00000409          L105:        
     3357                           .line   51
     3358                   ;----------------------------------------------------------------------
     3359                   ; 602 | r = Read_ADC_DAC(addr, 3, (unsigned char*)p);                          
     3360                   ;----------------------------------------------------------------------
     3361 00000409 08700000-        ldp       @CL64,DP
     3362 0000040a 5003000b         ldiu      fp,r3                 ; |602| 
     3363 0000040b 504a0304         ldiu      *+fp(4),ar2           ; |602| 
     3364 0000040c 50620003         ldiu      3,r2                  ; |602| 
     3365 0000040d 50200051-        ldiu      @CL64,r0              ; |602| 
     3366 0000040e 02630006         addi      6,r3                  ; |602| 
     3367 0000040f 70000000         callu     r0                    ; far call to _Read_ADC_DAC     ; |602| 
     3368                                                           ; |602| Far Call Occurs
     3369 00000410 15400309         sti       r0,*+fp(9)            ; |602| 
     3370                           .line   53
     3371                   ;----------------------------------------------------------------------
     3372                   ; 604 | if (!r)                                                                
     3373                   ;----------------------------------------------------------------------
     3374 00000411 04e00000         cmpi      0,r0                  ; |604| 
     3375 00000412 6a060008         bne       L107                  ; |604| 
     3376                   ;*      Branch Occurs to L107           ; |604| 
     3377                           .line   54
     3378                   ;----------------------------------------------------------------------
     3379                   ; 605 | VAR_NaN(&REG_ADC[n]);                                                  
     3380                   ; 606 | else                                                                   
     3381                   ;----------------------------------------------------------------------
     3382 00000413 504a0301         ldiu      *+fp(1),ar2           ; |605| 
     3383 00000414 08700000-        ldp       @CL3,DP
     3384 00000415 0aea002c         mpyi      44,ar2                ; |605| 
     3385 00000416 022a0014-        addi      @CL3,ar2              ; |605| Unsigned
     3386 00000417 08700000-        ldp       @CL4,DP
     3387 00000418 50200015-        ldiu      @CL4,r0               ; |605| 
     3388 00000419 70000000         callu     r0                    ; far call to _VAR_NaN  ; |605| 
     3389                                                           ; |605| Far Call Occurs
     3390 0000041a 6a00022d         bu        L158                  ; |551| 
     3391                   ;*      Branch Occurs to L158           ; |551| 
     3392 0000041b          L107:        
     3393                           .line   57
     3394                   ;----------------------------------------------------------------------
     3395                   ; 608 | if ((p[2]&ch)==ch) //if the data is from the correct "channel" (I2C add
     3396                   ;     | ress) ?                                                                
     3397                   ;----------------------------------------------------------------------
     3398 0000041b 5008000b         ldiu      fp,ar0                ; |608| 
     3399 0000041c 02680008         addi      8,ar0                 ; |608| 
     3400 0000041d 50400305         ldiu      *+fp(5),r0            ; |608| 
     3401 0000041e 21a0c000         and3      r0,*ar0,r0            ; |608| 
     3402 0000041f 04c00305         cmpi      *+fp(5),r0            ; |608| 
TMS320C3x/4x COFF AssemblerVersion 5.12     Wed Jul 24 11:03:43 2019
Copyright (c) 1987-1999 Texas Instruments Incorporatedasm30.exe -@_30G.AAB 

G:\workspace\EEA\V615\APP\SOURCE\ASM\adc.asm                         PAGE   64

     3403 00000420 6a060227         bne       L158                  ; |608| 
     3404                   ;*      Branch Occurs to L158           ; |608| 
     3405                           .line   59
     3406                   ;----------------------------------------------------------------------
     3407                   ; 610 | ADC_INT[n] = (((p[0]<<8) & 0xFF00) | (p[1] & 0x00FF)); //read the two b
     3408                   ;     | ytes, store in ADC_INT[n]                                              
     3409                   ;----------------------------------------------------------------------
     3410 00000421 5008000b         ldiu      fp,ar0                ; |610| 
     3411 00000422 5009000b         ldiu      fp,ar1                ; |610| 
     3412 00000423 08700000-        ldp       @CL5,DP
     3413 00000424 50600008         ldiu      8,r0                  ; |610| 
     3414 00000425 506100ff         ldiu      255,r1                ; |610| 
     3415 00000426 50510301         ldiu      *+fp(1),ir0           ; |610| 
     3416 00000427 02680006         addi      6,ar0                 ; |610| 
     3417 00000428 02690007         addi      7,ar1                 ; |610| 
     3418 00000429 502a0016-        ldiu      @CL5,ar2              ; |610| 
     3419 0000042a 22a0c000         ash3      r0,*ar0,r0            ; |610| 
     3420 0000042b 21a1c101         and3      r1,*ar1,r1            ; |610| 
     3421 0000042c 02e0ff00         and       65280,r0              ; |610| 
     3422 0000042d 25800100         or3       r0,r1,r0              ; |610| 
     3423 0000042e 15404200         sti       r0,*+ar2(ir0)         ; |610| 
     3424                           .line   61
     3425                   ;----------------------------------------------------------------------
     3426                   ; 612 | if (ADC_INT[n] & 0x8000) //if data msb is set, extend 1s into ADC_INT[n
     3427                   ;     | +1] ???                                                                
     3428                   ;----------------------------------------------------------------------
     3429 0000042f 50280016-        ldiu      @CL5,ar0              ; |612| 
     3430 00000430 50510301         ldiu      *+fp(1),ir0           ; |612| 
     3431 00000431 50404000         ldiu      *+ar0(ir0),r0         ; |612| 
     3432 00000432 1a608000         tstb      32768,r0              ; |612| 
     3433 00000433 6a050007         beq       L110                  ; |612| 
     3434                   ;*      Branch Occurs to L110           ; |612| 
     3435                           .line   62
     3436                   ;----------------------------------------------------------------------
     3437                   ; 613 | ADC_INT[n] |= 0xFFFF0000; //why?                                       
     3438                   ;----------------------------------------------------------------------
     3439 00000434 08700000-        ldp       @CL5,DP
     3440 00000435 50310016-        ldiu      @CL5,ir0              ; |613| 
     3441 00000436 08700000-        ldp       @CL65,DP
     3442 00000437 50480301         ldiu      *+fp(1),ar0           ; |613| 
     3443 00000438 50200052-        ldiu      @CL65,r0              ; |613| 
     3444 00000439 25a04000         or3       r0,*+ar0(ir0),r0      ; |613| 
     3445 0000043a 15404000         sti       r0,*+ar0(ir0)         ; |613| 
     3446 0000043b          L110:        
     3447                           .line   64
     3448                   ;----------------------------------------------------------------------
     3449                   ; 615 | f = (float)ADC_INT[n]*ADC_TRIM_F_1[n]/ADC_TRIM_I_1[n];                 
     3450                   ;----------------------------------------------------------------------
     3451 0000043b 50510301         ldiu      *+fp(1),ir0           ; |615| 
     3452 0000043c 08700000-        ldp       @CL5,DP
     3453 0000043d 50000011         ldiu      ir0,r0                ; |615| 
     3454 0000043e 50290016-        ldiu      @CL5,ar1              ; |615| 
     3455 0000043f 08700000-        ldp       @CL56,DP
     3456 00000440 502a0049-        ldiu      @CL56,ar2             ; |615| 
TMS320C3x/4x COFF AssemblerVersion 5.12     Wed Jul 24 11:03:43 2019
Copyright (c) 1987-1999 Texas Instruments Incorporatedasm30.exe -@_30G.AAB 

G:\workspace\EEA\V615\APP\SOURCE\ASM\adc.asm                         PAGE   65

     3457 00000441 50120000         ldiu      r0,ir1                ; |615| 
     3458 00000442 08700000-        ldp       @CL57,DP
     3459 00000443 05c14100         float     *+ar1(ir0),f1         ; |615| 
     3460 00000444 5028004a-        ldiu      @CL57,ar0             ; |615| 
     3461 00000445 24c00142         mpyf3     *+ar2(ir0),f1,f0      ; |615| 
     3462 00000446 05c18000         float     *+ar0(ir1),f1         ; |615| 
     3463 00000447 62000000!        call      DIV_F30               ; |615| 
     3464                                                           ; |615| Call Occurs
     3465 00000448 14400303         stf       f0,*+fp(3)            ; |615| 
     3466                           .line   66
     3467                   ;----------------------------------------------------------------------
     3468                   ; 617 | if (n==ADC_Text)                                                       
     3469                   ;----------------------------------------------------------------------
     3470 00000449 50400301         ldiu      *+fp(1),r0            ; |617| 
     3471 0000044a 04e00002         cmpi      2,r0                  ; |617| 
     3472 0000044b 6a060036         bne       L112                  ; |617| 
     3473                   ;*      Branch Occurs to L112           ; |617| 
     3474                           .line   68
     3475                   ;----------------------------------------------------------------------
     3476                   ; 619 | f               =   ((RTD_CAL_HI_OHM - RTD_CAL_LO_OHM) / (RTD_CAL_HI_V
     3477                   ;     | - RTD_CAL_LO_V)) * f                                                   
     3478                   ; 620 |                   + ((RTD_CAL_LO_OHM * RTD_CAL_HI_V - RTD_CAL_HI_OHM *
     3479                   ;     | RTD_CAL_LO_V) / (RTD_CAL_HI_V - RTD_CAL_LO_V));                        
     3480                   ;----------------------------------------------------------------------
     3481 0000044c 08700000-        ldp       @CL32,DP
     3482 0000044d 502c0031-        ldiu      @CL32,ar4             ; |619| 
     3483 0000044e 08700000-        ldp       @CL31,DP
     3484 0000044f 502a0030-        ldiu      @CL31,ar2             ; |619| 
     3485 00000450 08700000-        ldp       @CL34,DP
     3486 00000451 50290033-        ldiu      @CL34,ar1             ; |619| 
     3487 00000452 08700000-        ldp       @CL33,DP
     3488 00000453 50280032-        ldiu      @CL33,ar0             ; |619| 
     3489 00000454 26e0c2c4         subf3     *ar4,*ar2,f0          ; |619| 
     3490 00000455 26e1c0c1         subf3     *ar1,*ar0,f1          ; |619| 
     3491 00000456 62000000!        call      DIV_F30               ; |619| 
     3492                                                           ; |619| Call Occurs
     3493 00000457 08700000-        ldp       @CL31,DP
     3494 00000458 50290030-        ldiu      @CL31,ar1             ; |619| 
     3495 00000459 08700000-        ldp       @CL34,DP
     3496 0000045a 502d0033-        ldiu      @CL34,ar5             ; |619| 
     3497 0000045b 08700000-        ldp       @CL32,DP
     3498 0000045c 502c0031-        ldiu      @CL32,ar4             ; |619| 
     3499 0000045d 08700000-        ldp       @CL33,DP
     3500 0000045e 502a0032-        ldiu      @CL33,ar2             ; |619| 
     3501 0000045f 08700000-        ldp       @CL34,DP
     3502 00000460 502e0033-        ldiu      @CL34,ar6             ; |619| 
     3503 00000461 08700000-        ldp       @CL33,DP
     3504 00000462 40020000         ldfu      f0,f2                 ; |619| 
     3505 00000463 50280032-        ldiu      @CL33,ar0             ; |619| 
     3506 00000464 0a420303         mpyf      *+fp(3),f2            ; |619| 
     3507 00000465 24e0c1c5         mpyf3     *ar5,*ar1,f0          ; |619| 
     3508 00000466 24e1c4c2         mpyf3     *ar2,*ar4,f1          ; |619| 
     3509 00000467 26800100         subf3     f0,f1,f0              ; |619| 
     3510 00000468 26e1c0c6         subf3     *ar6,*ar0,f1          ; |619| 
TMS320C3x/4x COFF AssemblerVersion 5.12     Wed Jul 24 11:03:43 2019
Copyright (c) 1987-1999 Texas Instruments Incorporatedasm30.exe -@_30G.AAB 

G:\workspace\EEA\V615\APP\SOURCE\ASM\adc.asm                         PAGE   66

     3511 00000469 62000000!        call      DIV_F30               ; |619| 
     3512                                                           ; |619| Call Occurs
     3513 0000046a 20800002         addf3     f2,f0,f0              ; |619| 
     3514 0000046b 14400303         stf       f0,*+fp(3)            ; |619| 
     3515                           .line   70
     3516                   ;----------------------------------------------------------------------
     3517                   ; 621 | RTD_R   = f;                                                           
     3518                   ;----------------------------------------------------------------------
     3519 0000046c 08700000-        ldp       @CL7,DP
     3520 0000046d 50280018-        ldiu      @CL7,ar0              ; |621| 
     3521 0000046e 1440c000         stf       f0,*ar0               ; |621| 
     3522                           .line   71
     3523                   ;----------------------------------------------------------------------
     3524                   ; 622 | f               = TCE2 * TCE * TCE * f * f + TCE1 * TCE * f + TCE0;    
     3525                   ;----------------------------------------------------------------------
     3526 0000046f 08700000-        ldp       @CL36,DP
     3527 00000470 40400303         ldfu      *+fp(3),f0            ; |622| 
     3528 00000471 0a200035-        mpyf      @CL36,f0              ; |622| 
     3529 00000472 40410303         ldfu      *+fp(3),f1            ; |622| 
     3530 00000473 08700000-        ldp       @CL35,DP
     3531 00000474 0a400303         mpyf      *+fp(3),f0            ; |622| 
     3532 00000475 0a210034-        mpyf      @CL35,f1              ; |622| 
     3533 00000476 08700000-        ldp       @CL37,DP
     3534 00000477 20800100         addf3     f0,f1,f0              ; |622| 
     3535 00000478 01a00036-        addf      @CL37,f0              ; |622| 
     3536 00000479 14400303         stf       f0,*+fp(3)            ; |622| 
     3537                           .line   72
     3538                   ;----------------------------------------------------------------------
     3539                   ; 623 | f               = (f * TEMPERATURE_TRIM_T1) + (TEMPERATURE_TRIM_T0);   
     3540                   ;----------------------------------------------------------------------
     3541 0000047a 08700000-        ldp       @CL39,DP
     3542 0000047b 50280038-        ldiu      @CL39,ar0             ; |623| 
     3543 0000047c 08700000-        ldp       @CL38,DP
     3544 0000047d 50290037-        ldiu      @CL38,ar1             ; |623| 
     3545 0000047e 4040c000         ldfu      *ar0,f0               ; |623| 
     3546 0000047f 0a400303         mpyf      *+fp(3),f0            ; |623| 
     3547 00000480 20a0c100         addf3     f0,*ar1,f0            ; |623| 
     3548 00000481 14400303         stf       f0,*+fp(3)            ; |623| 
     3549 00000482          L112:        
     3550                           .line   75
     3551                   ;----------------------------------------------------------------------
     3552                   ; 626 | VAR_Update(&REG_ADC[n], f, 0, 0);                                      
     3553                   ;----------------------------------------------------------------------
     3554 00000482 504a0301         ldiu      *+fp(1),ar2           ; |626| 
     3555 00000483 08700000-        ldp       @CL3,DP
     3556 00000484 40400303         ldfu      *+fp(3),f0            ; |626| 
     3557 00000485 506100ff         ldiu      255,r1                ; |626| 
     3558 00000486 0aea002c         mpyi      44,ar2                ; |626| 
     3559 00000487 507b0000         ldiu      0,rc                  ; |626| 
     3560 00000488 022a0014-        addi      @CL3,ar2              ; |626| Unsigned
     3561 00000489 40020000         ldfu      f0,f2                 ; |626| Move F32 into F40 for CONV
     3562 0000048a 08700000-        ldp       @CL41,DP
     3563 0000048b 03020001         andn      r1,f2                 ; |626| Bit mask for F32/F40 conversion
     3564 0000048c 5020003a-        ldiu      @CL41,r0              ; |626| 
TMS320C3x/4x COFF AssemblerVersion 5.12     Wed Jul 24 11:03:43 2019
Copyright (c) 1987-1999 Texas Instruments Incorporatedasm30.exe -@_30G.AAB 

G:\workspace\EEA\V615\APP\SOURCE\ASM\adc.asm                         PAGE   67

     3565 0000048d 50630000         ldiu      0,r3                  ; |626| 
     3566 0000048e 70000000         callu     r0                    ; far call to _VAR_Update       ; |626| 
     3567                                                           ; |626| Far Call Occurs
     3568                           .line   79
     3569                   ;----------------------------------------------------------------------
     3570                   ; 630 | break;                                                                 
     3571                   ; 632 | case ADC_Ain1:                                                         
     3572                   ; 633 | case ADC_GNDSEN:                                                       
     3573                   ; 634 | case ADC_VTUNE:                                                        
     3574                   ;----------------------------------------------------------------------
     3575 0000048f 6a0001b8         bu        L158                  ; |630| 
     3576                   ;*      Branch Occurs to L158           ; |630| 
     3577 00000490          L113:        
     3578                           .line   86
     3579                   ;----------------------------------------------------------------------
     3580                   ; 637 | addr = ADC_ADDRA2;                                                     
     3581                   ;----------------------------------------------------------------------
     3582 00000490 50600092         ldiu      146,r0                ; |637| 
     3583 00000491 15400304         sti       r0,*+fp(4)            ; |637| 
     3584                           .line   88
     3585                   ;----------------------------------------------------------------------
     3586                   ; 639 | if (n==ADC_VTUNE)                                                      
     3587                   ;----------------------------------------------------------------------
     3588 00000492 50400301         ldiu      *+fp(1),r0            ; |639| 
     3589 00000493 04e00003         cmpi      3,r0                  ; |639| 
     3590 00000494 6a060003         bne       L115                  ; |639| 
     3591                   ;*      Branch Occurs to L115           ; |639| 
     3592                           .line   89
     3593                   ;----------------------------------------------------------------------
     3594                   ; 640 | ch = ADC_CH0;                                                          
     3595                   ;----------------------------------------------------------------------
     3596 00000495 50600040         ldiu      64,r0                 ; |640| 
     3597 00000496 15400305         sti       r0,*+fp(5)            ; |640| 
     3598 00000497 6a00000b         bu        L119                  ; |551| 
     3599                   ;*      Branch Occurs to L119           ; |551| 
     3600 00000498          L115:        
     3601                           .line   90
     3602                   ;----------------------------------------------------------------------
     3603                   ; 641 | else if (n==ADC_GNDSEN)                                                
     3604                   ;----------------------------------------------------------------------
     3605 00000498 50400301         ldiu      *+fp(1),r0            ; |641| 
     3606 00000499 04e00004         cmpi      4,r0                  ; |641| 
     3607 0000049a 6a060003         bne       L117                  ; |641| 
     3608                   ;*      Branch Occurs to L117           ; |641| 
     3609                           .line   91
     3610                   ;----------------------------------------------------------------------
     3611                   ; 642 | ch = ADC_CH1;                                                          
     3612                   ;----------------------------------------------------------------------
     3613 0000049b 50600060         ldiu      96,r0                 ; |642| 
     3614 0000049c 15400305         sti       r0,*+fp(5)            ; |642| 
     3615 0000049d 6a000005         bu        L119                  ; |551| 
     3616                   ;*      Branch Occurs to L119           ; |551| 
     3617 0000049e          L117:        
     3618                           .line   92
TMS320C3x/4x COFF AssemblerVersion 5.12     Wed Jul 24 11:03:43 2019
Copyright (c) 1987-1999 Texas Instruments Incorporatedasm30.exe -@_30G.AAB 

G:\workspace\EEA\V615\APP\SOURCE\ASM\adc.asm                         PAGE   68

     3619                   ;----------------------------------------------------------------------
     3620                   ; 643 | else if (n==ADC_Ain1)                                                  
     3621                   ;----------------------------------------------------------------------
     3622 0000049e 50400301         ldiu      *+fp(1),r0            ; |643| 
     3623 0000049f 04e00005         cmpi      5,r0                  ; |643| 
     3624 000004a0 6a060002         bne       L119                  ; |643| 
     3625                   ;*      Branch Occurs to L119           ; |643| 
     3626                           .line   93
     3627                   ;----------------------------------------------------------------------
     3628                   ; 644 | ch = ADC_CH2;                                                          
     3629                   ;----------------------------------------------------------------------
     3630 000004a1 50600020         ldiu      32,r0                 ; |644| 
     3631 000004a2 15400305         sti       r0,*+fp(5)            ; |644| 
     3632 000004a3          L119:        
     3633                           .line   95
     3634                   ;----------------------------------------------------------------------
     3635                   ; 646 | if (START)                                                             
     3636                   ;----------------------------------------------------------------------
     3637 000004a3 50400302         ldiu      *+fp(2),r0            ; |646| 
     3638 000004a4 04e00000         cmpi      0,r0                  ; |646| 
     3639 000004a5 6a050025         beq       L123                  ; |646| 
     3640                   ;*      Branch Occurs to L123           ; |646| 
     3641                           .line   97
     3642                   ;----------------------------------------------------------------------
     3643                   ; 648 | p[0]     = 0x9C;        /* single conversion mode & start conversion */
     3644                   ;----------------------------------------------------------------------
     3645 000004a6 5008000b         ldiu      fp,ar0                ; |648| 
     3646 000004a7 02680006         addi      6,ar0                 ; |648| 
     3647 000004a8 5060009c         ldiu      156,r0                ; |648| 
     3648 000004a9 1540c000         sti       r0,*ar0               ; |648| 
     3649                           .line   98
     3650                   ;----------------------------------------------------------------------
     3651                   ; 649 | p[0]    |= ch;                                                         
     3652                   ;----------------------------------------------------------------------
     3653 000004aa 5008000b         ldiu      fp,ar0                ; |649| 
     3654 000004ab 02680006         addi      6,ar0                 ; |649| 
     3655 000004ac 50400305         ldiu      *+fp(5),r0            ; |649| 
     3656 000004ad 25a0c000         or3       r0,*ar0,r0            ; |649| 
     3657 000004ae 1540c000         sti       r0,*ar0               ; |649| 
     3658                           .line   99
     3659                   ;----------------------------------------------------------------------
     3660                   ; 650 | r                = Write_ADC_DAC(addr, 1, (unsigned char*)p);   /* setu
     3661                   ;     | p cfg register */                                                      
     3662                   ;----------------------------------------------------------------------
     3663 000004af 5003000b         ldiu      fp,r3                 ; |650| 
     3664 000004b0 08700000-        ldp       @CL63,DP
     3665 000004b1 50620001         ldiu      1,r2                  ; |650| 
     3666 000004b2 02630006         addi      6,r3                  ; |650| 
     3667 000004b3 504a0304         ldiu      *+fp(4),ar2           ; |650| 
     3668 000004b4 50200050-        ldiu      @CL63,r0              ; |650| 
     3669 000004b5 70000000         callu     r0                    ; far call to _Write_ADC_DAC    ; |650| 
     3670                                                           ; |650| Far Call Occurs
     3671 000004b6 15400309         sti       r0,*+fp(9)            ; |650| 
     3672                           .line   101
TMS320C3x/4x COFF AssemblerVersion 5.12     Wed Jul 24 11:03:43 2019
Copyright (c) 1987-1999 Texas Instruments Incorporatedasm30.exe -@_30G.AAB 

G:\workspace\EEA\V615\APP\SOURCE\ASM\adc.asm                         PAGE   69

     3673                   ;----------------------------------------------------------------------
     3674                   ; 652 | if (!r)                                                                
     3675                   ;----------------------------------------------------------------------
     3676 000004b7 04e00000         cmpi      0,r0                  ; |652| 
     3677 000004b8 6a06018f         bne       L158                  ; |652| 
     3678                   ;*      Branch Occurs to L158           ; |652| 
     3679                           .line   103
     3680                   ;----------------------------------------------------------------------
     3681                   ; 654 | VAR_NaN(&REG_ADC[n]);                                                  
     3682                   ;----------------------------------------------------------------------
     3683 000004b9 504a0301         ldiu      *+fp(1),ar2           ; |654| 
     3684 000004ba 08700000-        ldp       @CL3,DP
     3685 000004bb 0aea002c         mpyi      44,ar2                ; |654| 
     3686 000004bc 022a0014-        addi      @CL3,ar2              ; |654| Unsigned
     3687 000004bd 08700000-        ldp       @CL4,DP
     3688 000004be 50200015-        ldiu      @CL4,r0               ; |654| 
     3689 000004bf 70000000         callu     r0                    ; far call to _VAR_NaN  ; |654| 
     3690                                                           ; |654| Far Call Occurs
     3691                           .line   105
     3692                   ;----------------------------------------------------------------------
     3693                   ; 656 | if (n==ADC_Ain1)                                                       
     3694                   ;----------------------------------------------------------------------
     3695 000004c0 50400301         ldiu      *+fp(1),r0            ; |656| 
     3696 000004c1 04e00005         cmpi      5,r0                  ; |656| 
     3697 000004c2 6a060185         bne       L158                  ; |656| 
     3698                   ;*      Branch Occurs to L158           ; |656| 
     3699                           .line   106
     3700                   ;----------------------------------------------------------------------
     3701                   ; 657 | AI[n-ADC_Ain1].present = FALSE;                                        
     3702                   ; 660 | else                                                                   
     3703                   ;----------------------------------------------------------------------
     3704 000004c3 50110000         ldiu      r0,ir0
     3705 000004c4 08700000-        ldp       @CL2,DP
     3706 000004c5 0af1013e         mpyi      318,ir0               ; |657| 
     3707 000004c6 50280013-        ldiu      @CL2,ar0              ; |657| 
     3708 000004c7 18710636         subi      1590,ir0              ; |657| 
     3709 000004c8 50600000         ldiu      0,r0                  ; |657| 
     3710 000004c9 15404000         sti       r0,*+ar0(ir0)         ; |657| 
     3711 000004ca 6a00017d         bu        L158                  ; |551| 
     3712                   ;*      Branch Occurs to L158           ; |551| 
     3713 000004cb          L123:        
     3714                           .line   111
     3715                   ;----------------------------------------------------------------------
     3716                   ; 662 | r = Read_ADC_DAC(addr, 3, (unsigned char*)p);                          
     3717                   ;----------------------------------------------------------------------
     3718 000004cb 08700000-        ldp       @CL64,DP
     3719 000004cc 5003000b         ldiu      fp,r3                 ; |662| 
     3720 000004cd 504a0304         ldiu      *+fp(4),ar2           ; |662| 
     3721 000004ce 50620003         ldiu      3,r2                  ; |662| 
     3722 000004cf 50200051-        ldiu      @CL64,r0              ; |662| 
     3723 000004d0 02630006         addi      6,r3                  ; |662| 
     3724 000004d1 70000000         callu     r0                    ; far call to _Read_ADC_DAC     ; |662| 
     3725                                                           ; |662| Far Call Occurs
     3726 000004d2 15400309         sti       r0,*+fp(9)            ; |662| 
TMS320C3x/4x COFF AssemblerVersion 5.12     Wed Jul 24 11:03:43 2019
Copyright (c) 1987-1999 Texas Instruments Incorporatedasm30.exe -@_30G.AAB 

G:\workspace\EEA\V615\APP\SOURCE\ASM\adc.asm                         PAGE   70

     3727                           .line   113
     3728                   ;----------------------------------------------------------------------
     3729                   ; 664 | if (!r)                                                                
     3730                   ;----------------------------------------------------------------------
     3731 000004d3 04e00000         cmpi      0,r0                  ; |664| 
     3732 000004d4 6a060012         bne       L126                  ; |664| 
     3733                   ;*      Branch Occurs to L126           ; |664| 
     3734                           .line   115
     3735                   ;----------------------------------------------------------------------
     3736                   ; 666 | VAR_NaN(&REG_ADC[n]);                                                  
     3737                   ;----------------------------------------------------------------------
     3738 000004d5 504a0301         ldiu      *+fp(1),ar2           ; |666| 
     3739 000004d6 08700000-        ldp       @CL3,DP
     3740 000004d7 0aea002c         mpyi      44,ar2                ; |666| 
     3741 000004d8 022a0014-        addi      @CL3,ar2              ; |666| Unsigned
     3742 000004d9 08700000-        ldp       @CL4,DP
     3743 000004da 50200015-        ldiu      @CL4,r0               ; |666| 
     3744 000004db 70000000         callu     r0                    ; far call to _VAR_NaN  ; |666| 
     3745                                                           ; |666| Far Call Occurs
     3746                           .line   117
     3747                   ;----------------------------------------------------------------------
     3748                   ; 668 | if (n==ADC_Ain1)                                                       
     3749                   ;----------------------------------------------------------------------
     3750 000004dc 50400301         ldiu      *+fp(1),r0            ; |668| 
     3751 000004dd 04e00005         cmpi      5,r0                  ; |668| 
     3752 000004de 6a060169         bne       L158                  ; |668| 
     3753                   ;*      Branch Occurs to L158           ; |668| 
     3754                           .line   118
     3755                   ;----------------------------------------------------------------------
     3756                   ; 669 | AI[n-ADC_Ain1].present = FALSE;                                        
     3757                   ; 671 | else                                                                   
     3758                   ;----------------------------------------------------------------------
     3759 000004df 50110000         ldiu      r0,ir0
     3760 000004e0 08700000-        ldp       @CL2,DP
     3761 000004e1 0af1013e         mpyi      318,ir0               ; |669| 
     3762 000004e2 50280013-        ldiu      @CL2,ar0              ; |669| 
     3763 000004e3 18710636         subi      1590,ir0              ; |669| 
     3764 000004e4 50600000         ldiu      0,r0                  ; |669| 
     3765 000004e5 15404000         sti       r0,*+ar0(ir0)         ; |669| 
     3766 000004e6 6a000161         bu        L158                  ; |551| 
     3767                   ;*      Branch Occurs to L158           ; |551| 
     3768 000004e7          L126:        
     3769                           .line   122
     3770                   ;----------------------------------------------------------------------
     3771                   ; 673 | if (n==ADC_Ain1)                                                       
     3772                   ;----------------------------------------------------------------------
     3773 000004e7 50400301         ldiu      *+fp(1),r0            ; |673| 
     3774 000004e8 04e00005         cmpi      5,r0                  ; |673| 
     3775 000004e9 6a060007         bne       L128                  ; |673| 
     3776                   ;*      Branch Occurs to L128           ; |673| 
     3777                           .line   123
     3778                   ;----------------------------------------------------------------------
     3779                   ; 674 | AI[n-ADC_Ain1].present = TRUE;                                         
     3780                   ;----------------------------------------------------------------------
TMS320C3x/4x COFF AssemblerVersion 5.12     Wed Jul 24 11:03:43 2019
Copyright (c) 1987-1999 Texas Instruments Incorporatedasm30.exe -@_30G.AAB 

G:\workspace\EEA\V615\APP\SOURCE\ASM\adc.asm                         PAGE   71

     3781 000004ea 50110000         ldiu      r0,ir0
     3782 000004eb 08700000-        ldp       @CL2,DP
     3783 000004ec 0af1013e         mpyi      318,ir0               ; |674| 
     3784 000004ed 50280013-        ldiu      @CL2,ar0              ; |674| 
     3785 000004ee 18710636         subi      1590,ir0              ; |674| 
     3786 000004ef 50600001         ldiu      1,r0                  ; |674| 
     3787 000004f0 15404000         sti       r0,*+ar0(ir0)         ; |674| 
     3788 000004f1          L128:        
     3789                           .line   125
     3790                   ;----------------------------------------------------------------------
     3791                   ; 676 | if ((p[2]&ch)==ch)                                                     
     3792                   ;----------------------------------------------------------------------
     3793 000004f1 5008000b         ldiu      fp,ar0                ; |676| 
     3794 000004f2 02680008         addi      8,ar0                 ; |676| 
     3795 000004f3 50400305         ldiu      *+fp(5),r0            ; |676| 
     3796 000004f4 21a0c000         and3      r0,*ar0,r0            ; |676| 
     3797 000004f5 04c00305         cmpi      *+fp(5),r0            ; |676| 
     3798 000004f6 6a060151         bne       L158                  ; |676| 
     3799                   ;*      Branch Occurs to L158           ; |676| 
     3800                           .line   127
     3801                   ;----------------------------------------------------------------------
     3802                   ; 678 | ADC_INT[n] = (((p[0]<<8) & 0xFF00) | (p[1] & 0x00FF));                 
     3803                   ;----------------------------------------------------------------------
     3804 000004f7 5008000b         ldiu      fp,ar0                ; |678| 
     3805 000004f8 5009000b         ldiu      fp,ar1                ; |678| 
     3806 000004f9 08700000-        ldp       @CL5,DP
     3807 000004fa 50600008         ldiu      8,r0                  ; |678| 
     3808 000004fb 506100ff         ldiu      255,r1                ; |678| 
     3809 000004fc 50510301         ldiu      *+fp(1),ir0           ; |678| 
     3810 000004fd 02680006         addi      6,ar0                 ; |678| 
     3811 000004fe 02690007         addi      7,ar1                 ; |678| 
     3812 000004ff 502a0016-        ldiu      @CL5,ar2              ; |678| 
     3813 00000500 22a0c000         ash3      r0,*ar0,r0            ; |678| 
     3814 00000501 21a1c101         and3      r1,*ar1,r1            ; |678| 
     3815 00000502 02e0ff00         and       65280,r0              ; |678| 
     3816 00000503 25800100         or3       r0,r1,r0              ; |678| 
     3817 00000504 15404200         sti       r0,*+ar2(ir0)         ; |678| 
     3818                           .line   129
     3819                   ;----------------------------------------------------------------------
     3820                   ; 680 | if (ADC_INT[n]&0x8000)                                                 
     3821                   ;----------------------------------------------------------------------
     3822 00000505 50280016-        ldiu      @CL5,ar0              ; |680| 
     3823 00000506 50510301         ldiu      *+fp(1),ir0           ; |680| 
     3824 00000507 50404000         ldiu      *+ar0(ir0),r0         ; |680| 
     3825 00000508 1a608000         tstb      32768,r0              ; |680| 
     3826 00000509 6a050007         beq       L131                  ; |680| 
     3827                   ;*      Branch Occurs to L131           ; |680| 
     3828                           .line   130
     3829                   ;----------------------------------------------------------------------
     3830                   ; 681 | ADC_INT[n] |= 0xFFFF0000;                                              
     3831                   ;----------------------------------------------------------------------
     3832 0000050a 08700000-        ldp       @CL5,DP
     3833 0000050b 50310016-        ldiu      @CL5,ir0              ; |681| 
     3834 0000050c 08700000-        ldp       @CL65,DP
TMS320C3x/4x COFF AssemblerVersion 5.12     Wed Jul 24 11:03:43 2019
Copyright (c) 1987-1999 Texas Instruments Incorporatedasm30.exe -@_30G.AAB 

G:\workspace\EEA\V615\APP\SOURCE\ASM\adc.asm                         PAGE   72

     3835 0000050d 50480301         ldiu      *+fp(1),ar0           ; |681| 
     3836 0000050e 50200052-        ldiu      @CL65,r0              ; |681| 
     3837 0000050f 25a04000         or3       r0,*+ar0(ir0),r0      ; |681| 
     3838 00000510 15404000         sti       r0,*+ar0(ir0)         ; |681| 
     3839 00000511          L131:        
     3840                           .line   132
     3841                   ;----------------------------------------------------------------------
     3842                   ; 683 | f = (float)ADC_INT[n] * ADC_TRIM_F_1[n] / ADC_TRIM_I_1[n];             
     3843                   ;----------------------------------------------------------------------
     3844 00000511 08700000-        ldp       @CL5,DP
     3845 00000512 50520301         ldiu      *+fp(1),ir1           ; |683| 
     3846 00000513 50280016-        ldiu      @CL5,ar0              ; |683| 
     3847 00000514 08700000-        ldp       @CL56,DP
     3848 00000515 50110012         ldiu      ir1,ir0               ; |683| 
     3849 00000516 502a0049-        ldiu      @CL56,ar2             ; |683| 
     3850 00000517 08700000-        ldp       @CL57,DP
     3851 00000518 05c08000         float     *+ar0(ir1),f0         ; |683| 
     3852 00000519 5029004a-        ldiu      @CL57,ar1             ; |683| 
     3853 0000051a 24c00042         mpyf3     *+ar2(ir0),f0,f0      ; |683| 
     3854 0000051b 05c14100         float     *+ar1(ir0),f1         ; |683| 
     3855 0000051c 62000000!        call      DIV_F30               ; |683| 
     3856                                                           ; |683| Call Occurs
     3857 0000051d 14400303         stf       f0,*+fp(3)            ; |683| 
     3858                           .line   134
     3859                   ;----------------------------------------------------------------------
     3860                   ; 685 | VAR_Update(&REG_ADC[n], f, 0, 0);                                      
     3861                   ;----------------------------------------------------------------------
     3862 0000051e 506300ff         ldiu      255,r3                ; |685| 
     3863 0000051f 504a0301         ldiu      *+fp(1),ar2           ; |685| 
     3864 00000520 0aea002c         mpyi      44,ar2                ; |685| 
     3865 00000521 08700000-        ldp       @CL3,DP
     3866 00000522 022a0014-        addi      @CL3,ar2              ; |685| Unsigned
     3867 00000523 08700000-        ldp       @CL41,DP
     3868 00000524 40020000         ldfu      f0,f2                 ; |685| Move F32 into F40 for CONV
     3869 00000525 507b0000         ldiu      0,rc                  ; |685| 
     3870 00000526 03020003         andn      r3,f2                 ; |685| Bit mask for F32/F40 conversion
     3871 00000527 5021003a-        ldiu      @CL41,r1              ; |685| 
     3872 00000528 50630000         ldiu      0,r3                  ; |685| 
     3873 00000529 70000001         callu     r1                    ; far call to _VAR_Update       ; |685| 
     3874                                                           ; |685| Far Call Occurs
     3875                           .line   139
     3876                   ;----------------------------------------------------------------------
     3877                   ; 690 | break;                                                                 
     3878                   ; 692 | case ADC_Ain4:                                                         
     3879                   ; 693 | case ADC_Ain3:                                                         
     3880                   ; 694 | case ADC_Ain2:                                                         
     3881                   ;----------------------------------------------------------------------
     3882 0000052a 6a00011d         bu        L158                  ; |690| 
     3883                   ;*      Branch Occurs to L158           ; |690| 
     3884 0000052b          L132:        
     3885                           .line   146
     3886                   ;----------------------------------------------------------------------
     3887                   ; 697 | addr = ADC_ADDRIO1;                                                    
     3888                   ;----------------------------------------------------------------------
TMS320C3x/4x COFF AssemblerVersion 5.12     Wed Jul 24 11:03:43 2019
Copyright (c) 1987-1999 Texas Instruments Incorporatedasm30.exe -@_30G.AAB 

G:\workspace\EEA\V615\APP\SOURCE\ASM\adc.asm                         PAGE   73

     3889 0000052b 50600096         ldiu      150,r0                ; |697| 
     3890 0000052c 15400304         sti       r0,*+fp(4)            ; |697| 
     3891                           .line   148
     3892                   ;----------------------------------------------------------------------
     3893                   ; 699 | if (n==ADC_Ain2)                                                       
     3894                   ;----------------------------------------------------------------------
     3895 0000052d 50400301         ldiu      *+fp(1),r0            ; |699| 
     3896 0000052e 04e00006         cmpi      6,r0                  ; |699| 
     3897 0000052f 6a060003         bne       L134                  ; |699| 
     3898                   ;*      Branch Occurs to L134           ; |699| 
     3899                           .line   149
     3900                   ;----------------------------------------------------------------------
     3901                   ; 700 | ch = ADC_CH0;                                                          
     3902                   ;----------------------------------------------------------------------
     3903 00000530 50600040         ldiu      64,r0                 ; |700| 
     3904 00000531 15400305         sti       r0,*+fp(5)            ; |700| 
     3905 00000532 6a00000b         bu        L138                  ; |551| 
     3906                   ;*      Branch Occurs to L138           ; |551| 
     3907 00000533          L134:        
     3908                           .line   150
     3909                   ;----------------------------------------------------------------------
     3910                   ; 701 | else if (n==ADC_Ain3)                                                  
     3911                   ;----------------------------------------------------------------------
     3912 00000533 50400301         ldiu      *+fp(1),r0            ; |701| 
     3913 00000534 04e00007         cmpi      7,r0                  ; |701| 
     3914 00000535 6a060003         bne       L136                  ; |701| 
     3915                   ;*      Branch Occurs to L136           ; |701| 
     3916                           .line   151
     3917                   ;----------------------------------------------------------------------
     3918                   ; 702 | ch = ADC_CH1;                                                          
     3919                   ;----------------------------------------------------------------------
     3920 00000536 50600060         ldiu      96,r0                 ; |702| 
     3921 00000537 15400305         sti       r0,*+fp(5)            ; |702| 
     3922 00000538 6a000005         bu        L138                  ; |551| 
     3923                   ;*      Branch Occurs to L138           ; |551| 
     3924 00000539          L136:        
     3925                           .line   152
     3926                   ;----------------------------------------------------------------------
     3927                   ; 703 | else if (n==ADC_Ain4)                                                  
     3928                   ;----------------------------------------------------------------------
     3929 00000539 50400301         ldiu      *+fp(1),r0            ; |703| 
     3930 0000053a 04e00008         cmpi      8,r0                  ; |703| 
     3931 0000053b 6a060002         bne       L138                  ; |703| 
     3932                   ;*      Branch Occurs to L138           ; |703| 
     3933                           .line   153
     3934                   ;----------------------------------------------------------------------
     3935                   ; 704 | ch = ADC_CH2;                                                          
     3936                   ;----------------------------------------------------------------------
     3937 0000053c 50600020         ldiu      32,r0                 ; |704| 
     3938 0000053d 15400305         sti       r0,*+fp(5)            ; |704| 
     3939 0000053e          L138:        
     3940                           .line   155
     3941                   ;----------------------------------------------------------------------
     3942                   ; 706 | if (START)                                                             
TMS320C3x/4x COFF AssemblerVersion 5.12     Wed Jul 24 11:03:43 2019
Copyright (c) 1987-1999 Texas Instruments Incorporatedasm30.exe -@_30G.AAB 

G:\workspace\EEA\V615\APP\SOURCE\ASM\adc.asm                         PAGE   74

     3943                   ;----------------------------------------------------------------------
     3944 0000053e 50400302         ldiu      *+fp(2),r0            ; |706| 
     3945 0000053f 04e00000         cmpi      0,r0                  ; |706| 
     3946 00000540 6a050022         beq       L141                  ; |706| 
     3947                   ;*      Branch Occurs to L141           ; |706| 
     3948                           .line   157
     3949                   ;----------------------------------------------------------------------
     3950                   ; 708 | p[0]     = 0x9C;        /* single conversion mode & start conversion */
     3951                   ;----------------------------------------------------------------------
     3952 00000541 5008000b         ldiu      fp,ar0                ; |708| 
     3953 00000542 02680006         addi      6,ar0                 ; |708| 
     3954 00000543 5060009c         ldiu      156,r0                ; |708| 
     3955 00000544 1540c000         sti       r0,*ar0               ; |708| 
     3956                           .line   158
     3957                   ;----------------------------------------------------------------------
     3958                   ; 709 | p[0]    |= ch;                                                         
     3959                   ;----------------------------------------------------------------------
     3960 00000545 5008000b         ldiu      fp,ar0                ; |709| 
     3961 00000546 02680006         addi      6,ar0                 ; |709| 
     3962 00000547 50400305         ldiu      *+fp(5),r0            ; |709| 
     3963 00000548 25a0c000         or3       r0,*ar0,r0            ; |709| 
     3964 00000549 1540c000         sti       r0,*ar0               ; |709| 
     3965                           .line   159
     3966                   ;----------------------------------------------------------------------
     3967                   ; 710 | r                = Write_ADC_DAC(addr, 1, (unsigned char*)p);   /* setu
     3968                   ;     | p cfg register */                                                      
     3969                   ;----------------------------------------------------------------------
     3970 0000054a 5003000b         ldiu      fp,r3                 ; |710| 
     3971 0000054b 08700000-        ldp       @CL63,DP
     3972 0000054c 50620001         ldiu      1,r2                  ; |710| 
     3973 0000054d 02630006         addi      6,r3                  ; |710| 
     3974 0000054e 504a0304         ldiu      *+fp(4),ar2           ; |710| 
     3975 0000054f 50200050-        ldiu      @CL63,r0              ; |710| 
     3976 00000550 70000000         callu     r0                    ; far call to _Write_ADC_DAC    ; |710| 
     3977                                                           ; |710| Far Call Occurs
     3978 00000551 15400309         sti       r0,*+fp(9)            ; |710| 
     3979                           .line   161
     3980                   ;----------------------------------------------------------------------
     3981                   ; 712 | if (!r)                                                                
     3982                   ;----------------------------------------------------------------------
     3983 00000552 04e00000         cmpi      0,r0                  ; |712| 
     3984 00000553 6a0600f4         bne       L158                  ; |712| 
     3985                   ;*      Branch Occurs to L158           ; |712| 
     3986                           .line   163
     3987                   ;----------------------------------------------------------------------
     3988                   ; 714 | VAR_NaN(&REG_ADC[n]);                                                  
     3989                   ;----------------------------------------------------------------------
     3990 00000554 504a0301         ldiu      *+fp(1),ar2           ; |714| 
     3991 00000555 08700000-        ldp       @CL3,DP
     3992 00000556 0aea002c         mpyi      44,ar2                ; |714| 
     3993 00000557 022a0014-        addi      @CL3,ar2              ; |714| Unsigned
     3994 00000558 08700000-        ldp       @CL4,DP
     3995 00000559 50200015-        ldiu      @CL4,r0               ; |714| 
     3996 0000055a 70000000         callu     r0                    ; far call to _VAR_NaN  ; |714| 
TMS320C3x/4x COFF AssemblerVersion 5.12     Wed Jul 24 11:03:43 2019
Copyright (c) 1987-1999 Texas Instruments Incorporatedasm30.exe -@_30G.AAB 

G:\workspace\EEA\V615\APP\SOURCE\ASM\adc.asm                         PAGE   75

     3997                                                           ; |714| Far Call Occurs
     3998                           .line   165
     3999                   ;----------------------------------------------------------------------
     4000                   ; 716 | AI[n-ADC_Ain1].present = FALSE;                                        
     4001                   ; 719 | else                                                                   
     4002                   ;----------------------------------------------------------------------
     4003 0000055b 08700000-        ldp       @CL2,DP
     4004 0000055c 50510301         ldiu      *+fp(1),ir0           ; |716| 
     4005 0000055d 0af1013e         mpyi      318,ir0               ; |716| 
     4006 0000055e 50280013-        ldiu      @CL2,ar0              ; |716| 
     4007 0000055f 18710636         subi      1590,ir0              ; |716| 
     4008 00000560 50600000         ldiu      0,r0                  ; |716| 
     4009 00000561 15404000         sti       r0,*+ar0(ir0)         ; |716| 
     4010 00000562 6a0000e5         bu        L158                  ; |551| 
     4011                   ;*      Branch Occurs to L158           ; |551| 
     4012 00000563          L141:        
     4013                           .line   170
     4014                   ;----------------------------------------------------------------------
     4015                   ; 721 | r = Read_ADC_DAC(addr, 3, (unsigned char*)p);                          
     4016                   ;----------------------------------------------------------------------
     4017 00000563 08700000-        ldp       @CL64,DP
     4018 00000564 5003000b         ldiu      fp,r3                 ; |721| 
     4019 00000565 504a0304         ldiu      *+fp(4),ar2           ; |721| 
     4020 00000566 50620003         ldiu      3,r2                  ; |721| 
     4021 00000567 50200051-        ldiu      @CL64,r0              ; |721| 
     4022 00000568 02630006         addi      6,r3                  ; |721| 
     4023 00000569 70000000         callu     r0                    ; far call to _Read_ADC_DAC     ; |721| 
     4024                                                           ; |721| Far Call Occurs
     4025 0000056a 15400309         sti       r0,*+fp(9)            ; |721| 
     4026                           .line   172
     4027                   ;----------------------------------------------------------------------
     4028                   ; 723 | if (!r)                                                                
     4029                   ;----------------------------------------------------------------------
     4030 0000056b 04e00000         cmpi      0,r0                  ; |723| 
     4031 0000056c 6a06000f         bne       L143                  ; |723| 
     4032                   ;*      Branch Occurs to L143           ; |723| 
     4033                           .line   174
     4034                   ;----------------------------------------------------------------------
     4035                   ; 725 | VAR_NaN(&REG_ADC[n]);                                                  
     4036                   ;----------------------------------------------------------------------
     4037 0000056d 504a0301         ldiu      *+fp(1),ar2           ; |725| 
     4038 0000056e 08700000-        ldp       @CL3,DP
     4039 0000056f 0aea002c         mpyi      44,ar2                ; |725| 
     4040 00000570 022a0014-        addi      @CL3,ar2              ; |725| Unsigned
     4041 00000571 08700000-        ldp       @CL4,DP
     4042 00000572 50200015-        ldiu      @CL4,r0               ; |725| 
     4043 00000573 70000000         callu     r0                    ; far call to _VAR_NaN  ; |725| 
     4044                                                           ; |725| Far Call Occurs
     4045                           .line   176
     4046                   ;----------------------------------------------------------------------
     4047                   ; 727 | AI[n-ADC_Ain1].present = FALSE;                                        
     4048                   ; 729 | else                                                                   
     4049                   ;----------------------------------------------------------------------
     4050 00000574 08700000-        ldp       @CL2,DP
TMS320C3x/4x COFF AssemblerVersion 5.12     Wed Jul 24 11:03:43 2019
Copyright (c) 1987-1999 Texas Instruments Incorporatedasm30.exe -@_30G.AAB 

G:\workspace\EEA\V615\APP\SOURCE\ASM\adc.asm                         PAGE   76

     4051 00000575 50510301         ldiu      *+fp(1),ir0           ; |727| 
     4052 00000576 0af1013e         mpyi      318,ir0               ; |727| 
     4053 00000577 50280013-        ldiu      @CL2,ar0              ; |727| 
     4054 00000578 18710636         subi      1590,ir0              ; |727| 
     4055 00000579 50600000         ldiu      0,r0                  ; |727| 
     4056 0000057a 15404000         sti       r0,*+ar0(ir0)         ; |727| 
     4057 0000057b 6a0000cc         bu        L158                  ; |551| 
     4058                   ;*      Branch Occurs to L158           ; |551| 
     4059 0000057c          L143:        
     4060                           .line   180
     4061                   ;----------------------------------------------------------------------
     4062                   ; 731 | AI[n-ADC_Ain1].present = TRUE;                                         
     4063                   ;----------------------------------------------------------------------
     4064 0000057c 50510301         ldiu      *+fp(1),ir0           ; |731| 
     4065 0000057d 08700000-        ldp       @CL2,DP
     4066 0000057e 0af1013e         mpyi      318,ir0               ; |731| 
     4067 0000057f 50280013-        ldiu      @CL2,ar0              ; |731| 
     4068 00000580 18710636         subi      1590,ir0              ; |731| 
     4069 00000581 50600001         ldiu      1,r0                  ; |731| 
     4070 00000582 15404000         sti       r0,*+ar0(ir0)         ; |731| 
     4071                           .line   182
     4072                   ;----------------------------------------------------------------------
     4073                   ; 733 | if ((p[2]&ch)==ch)                                                     
     4074                   ;----------------------------------------------------------------------
     4075 00000583 5008000b         ldiu      fp,ar0                ; |733| 
     4076 00000584 02680008         addi      8,ar0                 ; |733| 
     4077 00000585 50400305         ldiu      *+fp(5),r0            ; |733| 
     4078 00000586 21a0c000         and3      r0,*ar0,r0            ; |733| 
     4079 00000587 04c00305         cmpi      *+fp(5),r0            ; |733| 
     4080 00000588 6a0600bf         bne       L158                  ; |733| 
     4081                   ;*      Branch Occurs to L158           ; |733| 
     4082                           .line   184
     4083                   ;----------------------------------------------------------------------
     4084                   ; 735 | ADC_INT[n] = (((p[0]<<8) & 0xFF00) | (p[1] & 0x00FF));                 
     4085                   ;----------------------------------------------------------------------
     4086 00000589 5008000b         ldiu      fp,ar0                ; |735| 
     4087 0000058a 5009000b         ldiu      fp,ar1                ; |735| 
     4088 0000058b 08700000-        ldp       @CL5,DP
     4089 0000058c 50600008         ldiu      8,r0                  ; |735| 
     4090 0000058d 506100ff         ldiu      255,r1                ; |735| 
     4091 0000058e 50510301         ldiu      *+fp(1),ir0           ; |735| 
     4092 0000058f 02680006         addi      6,ar0                 ; |735| 
     4093 00000590 02690007         addi      7,ar1                 ; |735| 
     4094 00000591 502a0016-        ldiu      @CL5,ar2              ; |735| 
     4095 00000592 22a0c000         ash3      r0,*ar0,r0            ; |735| 
     4096 00000593 21a1c101         and3      r1,*ar1,r1            ; |735| 
     4097 00000594 02e0ff00         and       65280,r0              ; |735| 
     4098 00000595 25800100         or3       r0,r1,r0              ; |735| 
     4099 00000596 15404200         sti       r0,*+ar2(ir0)         ; |735| 
     4100                           .line   186
     4101                   ;----------------------------------------------------------------------
     4102                   ; 737 | if (ADC_INT[n] & 0x8000)                                               
     4103                   ;----------------------------------------------------------------------
     4104 00000597 50280016-        ldiu      @CL5,ar0              ; |737| 
TMS320C3x/4x COFF AssemblerVersion 5.12     Wed Jul 24 11:03:43 2019
Copyright (c) 1987-1999 Texas Instruments Incorporatedasm30.exe -@_30G.AAB 

G:\workspace\EEA\V615\APP\SOURCE\ASM\adc.asm                         PAGE   77

     4105 00000598 50510301         ldiu      *+fp(1),ir0           ; |737| 
     4106 00000599 50404000         ldiu      *+ar0(ir0),r0         ; |737| 
     4107 0000059a 1a608000         tstb      32768,r0              ; |737| 
     4108 0000059b 6a050007         beq       L146                  ; |737| 
     4109                   ;*      Branch Occurs to L146           ; |737| 
     4110                           .line   187
     4111                   ;----------------------------------------------------------------------
     4112                   ; 738 | ADC_INT[n] |= 0xFFFF0000;                                              
     4113                   ;----------------------------------------------------------------------
     4114 0000059c 08700000-        ldp       @CL5,DP
     4115 0000059d 50310016-        ldiu      @CL5,ir0              ; |738| 
     4116 0000059e 08700000-        ldp       @CL65,DP
     4117 0000059f 50480301         ldiu      *+fp(1),ar0           ; |738| 
     4118 000005a0 50200052-        ldiu      @CL65,r0              ; |738| 
     4119 000005a1 25a04000         or3       r0,*+ar0(ir0),r0      ; |738| 
     4120 000005a2 15404000         sti       r0,*+ar0(ir0)         ; |738| 
     4121 000005a3          L146:        
     4122                           .line   189
     4123                   ;----------------------------------------------------------------------
     4124                   ; 740 | f = (float)ADC_INT[n] * ADC_TRIM_F_1[n] / ADC_TRIM_I_1[n];             
     4125                   ;----------------------------------------------------------------------
     4126 000005a3 08700000-        ldp       @CL5,DP
     4127 000005a4 50520301         ldiu      *+fp(1),ir1           ; |740| 
     4128 000005a5 50280016-        ldiu      @CL5,ar0              ; |740| 
     4129 000005a6 08700000-        ldp       @CL56,DP
     4130 000005a7 50110012         ldiu      ir1,ir0               ; |740| 
     4131 000005a8 502a0049-        ldiu      @CL56,ar2             ; |740| 
     4132 000005a9 08700000-        ldp       @CL57,DP
     4133 000005aa 05c18000         float     *+ar0(ir1),f1         ; |740| 
     4134 000005ab 5029004a-        ldiu      @CL57,ar1             ; |740| 
     4135 000005ac 24c20142         mpyf3     *+ar2(ir0),f1,f2      ; |740| 
     4136 000005ad 40000002         ldfu      f2,f0                 ; |740| 
     4137 000005ae 05c14100         float     *+ar1(ir0),f1         ; |740| 
     4138 000005af 62000000!        call      DIV_F30               ; |740| 
     4139                                                           ; |740| Call Occurs
     4140 000005b0 14400303         stf       f0,*+fp(3)            ; |740| 
     4141                           .line   191
     4142                   ;----------------------------------------------------------------------
     4143                   ; 742 | VAR_Update(&REG_ADC[n], f, 0, 0);                                      
     4144                   ;----------------------------------------------------------------------
     4145 000005b1 506300ff         ldiu      255,r3                ; |742| 
     4146 000005b2 504a0301         ldiu      *+fp(1),ar2           ; |742| 
     4147 000005b3 0aea002c         mpyi      44,ar2                ; |742| 
     4148 000005b4 08700000-        ldp       @CL3,DP
     4149 000005b5 40020000         ldfu      f0,f2                 ; |742| Move F32 into F40 for CONV
     4150 000005b6 03020003         andn      r3,f2                 ; |742| Bit mask for F32/F40 conversion
     4151 000005b7 022a0014-        addi      @CL3,ar2              ; |742| Unsigned
     4152 000005b8 08700000-        ldp       @CL41,DP
     4153 000005b9 507b0000         ldiu      0,rc                  ; |742| 
     4154 000005ba 5021003a-        ldiu      @CL41,r1              ; |742| 
     4155 000005bb 50630000         ldiu      0,r3                  ; |742| 
     4156 000005bc 70000001         callu     r1                    ; far call to _VAR_Update       ; |742| 
     4157                                                           ; |742| Far Call Occurs
     4158                           .line   196
TMS320C3x/4x COFF AssemblerVersion 5.12     Wed Jul 24 11:03:43 2019
Copyright (c) 1987-1999 Texas Instruments Incorporatedasm30.exe -@_30G.AAB 

G:\workspace\EEA\V615\APP\SOURCE\ASM\adc.asm                         PAGE   78

     4159                   ;----------------------------------------------------------------------
     4160                   ; 747 | break;                                                                 
     4161                   ; 749 | case ADC_Ain5:                                                         
     4162                   ;----------------------------------------------------------------------
     4163 000005bd 6a00008a         bu        L158                  ; |747| 
     4164                   ;*      Branch Occurs to L158           ; |747| 
     4165 000005be          L147:        
     4166                           .line   201
     4167                   ;----------------------------------------------------------------------
     4168                   ; 752 | addr = ADC_ADDRIO2;                                                    
     4169                   ;----------------------------------------------------------------------
     4170 000005be 5060009c         ldiu      156,r0                ; |752| 
     4171 000005bf 15400304         sti       r0,*+fp(4)            ; |752| 
     4172                           .line   203
     4173                   ;----------------------------------------------------------------------
     4174                   ; 754 | if (START)                                                             
     4175                   ;----------------------------------------------------------------------
     4176 000005c0 50400302         ldiu      *+fp(2),r0            ; |754| 
     4177 000005c1 04e00000         cmpi      0,r0                  ; |754| 
     4178 000005c2 6a05001d         beq       L150                  ; |754| 
     4179                   ;*      Branch Occurs to L150           ; |754| 
     4180                           .line   205
     4181                   ;----------------------------------------------------------------------
     4182                   ; 756 | p[0]    = 0x8C; /* continuous conversion mode & start conversion */    
     4183                   ;----------------------------------------------------------------------
     4184 000005c3 5008000b         ldiu      fp,ar0                ; |756| 
     4185 000005c4 02680006         addi      6,ar0                 ; |756| 
     4186 000005c5 5060008c         ldiu      140,r0                ; |756| 
     4187 000005c6 1540c000         sti       r0,*ar0               ; |756| 
     4188                           .line   206
     4189                   ;----------------------------------------------------------------------
     4190                   ; 757 | r               = Write_ADC_DAC(addr, 1, (unsigned char*)p);    /* setu
     4191                   ;     | p cfg register */                                                      
     4192                   ;----------------------------------------------------------------------
     4193 000005c7 5003000b         ldiu      fp,r3                 ; |757| 
     4194 000005c8 08700000-        ldp       @CL63,DP
     4195 000005c9 50620001         ldiu      1,r2                  ; |757| 
     4196 000005ca 02630006         addi      6,r3                  ; |757| 
     4197 000005cb 504a0304         ldiu      *+fp(4),ar2           ; |757| 
     4198 000005cc 50200050-        ldiu      @CL63,r0              ; |757| 
     4199 000005cd 70000000         callu     r0                    ; far call to _Write_ADC_DAC    ; |757| 
     4200                                                           ; |757| Far Call Occurs
     4201 000005ce 15400309         sti       r0,*+fp(9)            ; |757| 
     4202                           .line   208
     4203                   ;----------------------------------------------------------------------
     4204                   ; 759 | if (!r)                                                                
     4205                   ;----------------------------------------------------------------------
     4206 000005cf 04e00000         cmpi      0,r0                  ; |759| 
     4207 000005d0 6a060077         bne       L158                  ; |759| 
     4208                   ;*      Branch Occurs to L158           ; |759| 
     4209                           .line   210
     4210                   ;----------------------------------------------------------------------
     4211                   ; 761 | VAR_NaN(&REG_ADC[n]);                                                  
     4212                   ;----------------------------------------------------------------------
TMS320C3x/4x COFF AssemblerVersion 5.12     Wed Jul 24 11:03:43 2019
Copyright (c) 1987-1999 Texas Instruments Incorporatedasm30.exe -@_30G.AAB 

G:\workspace\EEA\V615\APP\SOURCE\ASM\adc.asm                         PAGE   79

     4213 000005d1 504a0301         ldiu      *+fp(1),ar2           ; |761| 
     4214 000005d2 08700000-        ldp       @CL3,DP
     4215 000005d3 0aea002c         mpyi      44,ar2                ; |761| 
     4216 000005d4 022a0014-        addi      @CL3,ar2              ; |761| Unsigned
     4217 000005d5 08700000-        ldp       @CL4,DP
     4218 000005d6 50200015-        ldiu      @CL4,r0               ; |761| 
     4219 000005d7 70000000         callu     r0                    ; far call to _VAR_NaN  ; |761| 
     4220                                                           ; |761| Far Call Occurs
     4221                           .line   212
     4222                   ;----------------------------------------------------------------------
     4223                   ; 763 | AI[n-ADC_Ain1].present = FALSE;                                        
     4224                   ; 766 | else                                                                   
     4225                   ;----------------------------------------------------------------------
     4226 000005d8 08700000-        ldp       @CL2,DP
     4227 000005d9 50510301         ldiu      *+fp(1),ir0           ; |763| 
     4228 000005da 0af1013e         mpyi      318,ir0               ; |763| 
     4229 000005db 50280013-        ldiu      @CL2,ar0              ; |763| 
     4230 000005dc 18710636         subi      1590,ir0              ; |763| 
     4231 000005dd 50600000         ldiu      0,r0                  ; |763| 
     4232 000005de 15404000         sti       r0,*+ar0(ir0)         ; |763| 
     4233 000005df 6a000068         bu        L158                  ; |551| 
     4234                   ;*      Branch Occurs to L158           ; |551| 
     4235 000005e0          L150:        
     4236                           .line   217
     4237                   ;----------------------------------------------------------------------
     4238                   ; 768 | r = Read_ADC_DAC(addr, 2, (unsigned char*)p);                          
     4239                   ;----------------------------------------------------------------------
     4240 000005e0 08700000-        ldp       @CL64,DP
     4241 000005e1 5003000b         ldiu      fp,r3                 ; |768| 
     4242 000005e2 504a0304         ldiu      *+fp(4),ar2           ; |768| 
     4243 000005e3 50620002         ldiu      2,r2                  ; |768| 
     4244 000005e4 50200051-        ldiu      @CL64,r0              ; |768| 
     4245 000005e5 02630006         addi      6,r3                  ; |768| 
     4246 000005e6 70000000         callu     r0                    ; far call to _Read_ADC_DAC     ; |768| 
     4247                                                           ; |768| Far Call Occurs
     4248 000005e7 15400309         sti       r0,*+fp(9)            ; |768| 
     4249                           .line   219
     4250                   ;----------------------------------------------------------------------
     4251                   ; 770 | if (!r)                                                                
     4252                   ;----------------------------------------------------------------------
     4253 000005e8 04e00000         cmpi      0,r0                  ; |770| 
     4254 000005e9 6a06000f         bne       L152                  ; |770| 
     4255                   ;*      Branch Occurs to L152           ; |770| 
     4256                           .line   221
     4257                   ;----------------------------------------------------------------------
     4258                   ; 772 | VAR_NaN(&REG_ADC[n]);                                                  
     4259                   ;----------------------------------------------------------------------
     4260 000005ea 504a0301         ldiu      *+fp(1),ar2           ; |772| 
     4261 000005eb 08700000-        ldp       @CL3,DP
     4262 000005ec 0aea002c         mpyi      44,ar2                ; |772| 
     4263 000005ed 022a0014-        addi      @CL3,ar2              ; |772| Unsigned
     4264 000005ee 08700000-        ldp       @CL4,DP
     4265 000005ef 50200015-        ldiu      @CL4,r0               ; |772| 
     4266 000005f0 70000000         callu     r0                    ; far call to _VAR_NaN  ; |772| 
TMS320C3x/4x COFF AssemblerVersion 5.12     Wed Jul 24 11:03:43 2019
Copyright (c) 1987-1999 Texas Instruments Incorporatedasm30.exe -@_30G.AAB 

G:\workspace\EEA\V615\APP\SOURCE\ASM\adc.asm                         PAGE   80

     4267                                                           ; |772| Far Call Occurs
     4268                           .line   223
     4269                   ;----------------------------------------------------------------------
     4270                   ; 774 | AI[n-ADC_Ain1].present = FALSE;                                        
     4271                   ; 776 | else                                                                   
     4272                   ;----------------------------------------------------------------------
     4273 000005f1 08700000-        ldp       @CL2,DP
     4274 000005f2 50510301         ldiu      *+fp(1),ir0           ; |774| 
     4275 000005f3 0af1013e         mpyi      318,ir0               ; |774| 
     4276 000005f4 50280013-        ldiu      @CL2,ar0              ; |774| 
     4277 000005f5 18710636         subi      1590,ir0              ; |774| 
     4278 000005f6 50600000         ldiu      0,r0                  ; |774| 
     4279 000005f7 15404000         sti       r0,*+ar0(ir0)         ; |774| 
     4280 000005f8 6a00004f         bu        L158                  ; |551| 
     4281                   ;*      Branch Occurs to L158           ; |551| 
     4282 000005f9          L152:        
     4283                           .line   227
     4284                   ;----------------------------------------------------------------------
     4285                   ; 778 | AI[n-ADC_Ain1].present  = TRUE;                                        
     4286                   ;----------------------------------------------------------------------
     4287 000005f9 50510301         ldiu      *+fp(1),ir0           ; |778| 
     4288 000005fa 08700000-        ldp       @CL2,DP
     4289 000005fb 0af1013e         mpyi      318,ir0               ; |778| 
     4290 000005fc 50280013-        ldiu      @CL2,ar0              ; |778| 
     4291 000005fd 18710636         subi      1590,ir0              ; |778| 
     4292 000005fe 50600001         ldiu      1,r0                  ; |778| 
     4293 000005ff 15404000         sti       r0,*+ar0(ir0)         ; |778| 
     4294                           .line   228
     4295                   ;----------------------------------------------------------------------
     4296                   ; 779 | ADC_INT[n]                              = (((p[0]<<8) & 0xFF00) | (p[1]
     4297                   ;     |  & 0x00FF));                                                           
     4298                   ;----------------------------------------------------------------------
     4299 00000600 5009000b         ldiu      fp,ar1                ; |779| 
     4300 00000601 506100ff         ldiu      255,r1                ; |779| 
     4301 00000602 02690006         addi      6,ar1                 ; |779| 
     4302 00000603 08700000-        ldp       @CL5,DP
     4303 00000604 5008000b         ldiu      fp,ar0                ; |779| 
     4304 00000605 02680007         addi      7,ar0                 ; |779| 
     4305 00000606 502a0016-        ldiu      @CL5,ar2              ; |779| 
     4306 00000607 50600008         ldiu      8,r0                  ; |779| 
     4307 00000608 21a1c001         and3      r1,*ar0,r1            ; |779| 
     4308 00000609 22a0c100         ash3      r0,*ar1,r0            ; |779| 
     4309 0000060a 50510301         ldiu      *+fp(1),ir0           ; |779| 
     4310 0000060b 02e0ff00         and       65280,r0              ; |779| 
     4311 0000060c 25800100         or3       r0,r1,r0              ; |779| 
     4312 0000060d 15404200         sti       r0,*+ar2(ir0)         ; |779| 
     4313                           .line   230
     4314                   ;----------------------------------------------------------------------
     4315                   ; 781 | if (ADC_INT[n]&0x8000)                                                 
     4316                   ;----------------------------------------------------------------------
     4317 0000060e 50280016-        ldiu      @CL5,ar0              ; |781| 
     4318 0000060f 50510301         ldiu      *+fp(1),ir0           ; |781| 
     4319 00000610 50404000         ldiu      *+ar0(ir0),r0         ; |781| 
     4320 00000611 1a608000         tstb      32768,r0              ; |781| 
TMS320C3x/4x COFF AssemblerVersion 5.12     Wed Jul 24 11:03:43 2019
Copyright (c) 1987-1999 Texas Instruments Incorporatedasm30.exe -@_30G.AAB 

G:\workspace\EEA\V615\APP\SOURCE\ASM\adc.asm                         PAGE   81

     4321 00000612 6a050007         beq       L154                  ; |781| 
     4322                   ;*      Branch Occurs to L154           ; |781| 
     4323                           .line   231
     4324                   ;----------------------------------------------------------------------
     4325                   ; 782 | ADC_INT[n] |= 0xFFFF0000;                                              
     4326                   ;----------------------------------------------------------------------
     4327 00000613 08700000-        ldp       @CL5,DP
     4328 00000614 50310016-        ldiu      @CL5,ir0              ; |782| 
     4329 00000615 08700000-        ldp       @CL65,DP
     4330 00000616 50480301         ldiu      *+fp(1),ar0           ; |782| 
     4331 00000617 50200052-        ldiu      @CL65,r0              ; |782| 
     4332 00000618 25a04000         or3       r0,*+ar0(ir0),r0      ; |782| 
     4333 00000619 15404000         sti       r0,*+ar0(ir0)         ; |782| 
     4334 0000061a          L154:        
     4335                           .line   233
     4336                   ;----------------------------------------------------------------------
     4337                   ; 784 | f = (float)ADC_INT[n]*ADC_TRIM_F_1[n]/ADC_TRIM_I_1[n];                 
     4338                   ;----------------------------------------------------------------------
     4339 0000061a 08700000-        ldp       @CL5,DP
     4340 0000061b 50520301         ldiu      *+fp(1),ir1           ; |784| 
     4341 0000061c 50290016-        ldiu      @CL5,ar1              ; |784| 
     4342 0000061d 08700000-        ldp       @CL56,DP
     4343 0000061e 50110012         ldiu      ir1,ir0               ; |784| 
     4344 0000061f 502a0049-        ldiu      @CL56,ar2             ; |784| 
     4345 00000620 08700000-        ldp       @CL57,DP
     4346 00000621 05c18100         float     *+ar1(ir1),f1         ; |784| 
     4347 00000622 5028004a-        ldiu      @CL57,ar0             ; |784| 
     4348 00000623 24c20142         mpyf3     *+ar2(ir0),f1,f2      ; |784| 
     4349 00000624 40000002         ldfu      f2,f0                 ; |784| 
     4350 00000625 05c14000         float     *+ar0(ir0),f1         ; |784| 
     4351 00000626 62000000!        call      DIV_F30               ; |784| 
     4352                                                           ; |784| Call Occurs
     4353 00000627 14400303         stf       f0,*+fp(3)            ; |784| 
     4354                           .line   235
     4355                   ;----------------------------------------------------------------------
     4356                   ; 786 | VAR_Update(&REG_ADC[n], f, 0, 0);                                      
     4357                   ;----------------------------------------------------------------------
     4358 00000628 506300ff         ldiu      255,r3                ; |786| 
     4359 00000629 507b0000         ldiu      0,rc                  ; |786| 
     4360 0000062a 08700000-        ldp       @CL3,DP
     4361 0000062b 504a0301         ldiu      *+fp(1),ar2           ; |786| 
     4362 0000062c 0aea002c         mpyi      44,ar2                ; |786| 
     4363 0000062d 022a0014-        addi      @CL3,ar2              ; |786| Unsigned
     4364 0000062e 40010000         ldfu      f0,f1                 ; |786| 
     4365 0000062f 08700000-        ldp       @CL41,DP
     4366 00000630 40020001         ldfu      f1,f2                 ; |786| Move F32 into F40 for CONV
     4367 00000631 5020003a-        ldiu      @CL41,r0              ; |786| 
     4368 00000632 03020003         andn      r3,f2                 ; |786| Bit mask for F32/F40 conversion
     4369 00000633 50630000         ldiu      0,r3                  ; |786| 
     4370 00000634 70000000         callu     r0                    ; far call to _VAR_Update       ; |786| 
     4371                                                           ; |786| Far Call Occurs
     4372                           .line   238
     4373                   ;----------------------------------------------------------------------
     4374                   ; 789 | break;                                                                 
TMS320C3x/4x COFF AssemblerVersion 5.12     Wed Jul 24 11:03:43 2019
Copyright (c) 1987-1999 Texas Instruments Incorporatedasm30.exe -@_30G.AAB 

G:\workspace\EEA\V615\APP\SOURCE\ASM\adc.asm                         PAGE   82

     4375                   ; 791 | default:                                                               
     4376                   ;----------------------------------------------------------------------
     4377 00000635 6a000012         bu        L158                  ; |789| 
     4378                   ;*      Branch Occurs to L158           ; |789| 
     4379                           .line   242
     4380                   ;----------------------------------------------------------------------
     4381                   ; 793 | break;                                                                 
     4382                   ;----------------------------------------------------------------------
     4383 00000636          L156:        
     4384                           .line   9
     4385 00000636 50510301         ldiu      *+fp(1),ir0           ; |560| 
     4386 00000637 04f1000a         cmpi      10,ir0                ; |560| 
     4387 00000638 6a03000f         bhi       L158                  ; |560| 
     4388                   ;*      Branch Occurs to L158           ; |560| 
     4389 00000639 08700000-        ldp       @CL66,DP
     4390 0000063a 50280053-        ldiu      @CL66,ar0             ; |560| 
     4391 0000063b 50404000         ldiu      *+ar0(ir0),r0         ; |560| 
     4392 0000063c 68000000         bu        r0                    ; |560| 
     4393                   
     4394 0000063d                  .sect   ".text"
     4395 0000063d 000003d8'SW1:    .word   L96     ; 0
     4396 0000063e 000003d8'        .word   L96     ; 1
     4397 0000063f 000003d8'        .word   L96     ; 2
     4398 00000640 00000490'        .word   L113    ; 3
     4399 00000641 00000490'        .word   L113    ; 4
     4400 00000642 00000490'        .word   L113    ; 5
     4401 00000643 0000052b'        .word   L132    ; 6
     4402 00000644 0000052b'        .word   L132    ; 7
     4403 00000645 0000052b'        .word   L132    ; 8
     4404 00000646 000005be'        .word   L147    ; 9
     4405 00000647 0000039e'        .word   L93     ; 10
     4406 00000648                  .sect   ".text"
     4407                   ;*      Branch Occurs to r0             ; |560| 
     4408 00000648          L158:        
     4409                           .line   245
     4410                                                           ; Begin Epilog Code
     4411 00000648 50410b01         ldiu      *-fp(1),r1
     4412 00000649 504bc300         ldiu      *fp,fp
     4413                                                           ; Restore SOE Registers
     4414 0000064a 0e2e0000         pop       ar6
     4415 0000064b 0e2d0000         pop       ar5
     4416 0000064c 0e2c0000         pop       ar4
     4417                                                           ; Unallocate the Frame
     4418 0000064d 1874000b         subi      11,sp
     4419 0000064e 68000001         bu        r1
     4420                   ;*      Branch Occurs to r1 
     4421                           .endfunc        796,000007000h,9
     4422                   
     4423                   
     4424 0000064f                  .sect    ".text"
     4425                   
     4426                           .global _ADC_UPDATE
     4427                           .sym    _ADC_UPDATE,_ADC_UPDATE,32,2,0
     4428                           .func   811
TMS320C3x/4x COFF AssemblerVersion 5.12     Wed Jul 24 11:03:43 2019
Copyright (c) 1987-1999 Texas Instruments Incorporatedasm30.exe -@_30G.AAB 

G:\workspace\EEA\V615\APP\SOURCE\ASM\adc.asm                         PAGE   83

     4429                   ;******************************************************************************
     4430                   ;* FUNCTION NAME: _ADC_UPDATE                                                 *
     4431                   ;*                                                                            *
     4432                   ;*   Architecture       : TMS320C33                                           *
     4433                   ;*   Calling Convention : TI Standard Register Parameters                     *
     4434                   ;*   Function Uses Regs : f0,r0,f1,r1,f2,r2,f3,r3,f4,r5,ar0,ar1,ar2,fp,ar4,   *
     4435                   ;*                        ar5,ir0,ir1,st,rs,re,rc                             *
     4436                   ;*   Regs Saved         : r4,r5,ar4,ar5                                       *
     4437                   ;*   Stack Frame        : Full (w/ debug)                                     *
     4438                   ;*   Total Frame Size   : 2 Call + 0 Parm + 10 Auto + 4 SOE = 16 words        *
     4439                   ;******************************************************************************
     4440 0000064f          _ADC_UPDATE:
     4441                           .sym    _i,1,4,1,32
     4442                           .sym    _ui,2,14,1,32
     4443                           .sym    _t,3,6,1,32
     4444                           .sym    _mina,4,6,1,32
     4445                           .sym    _maxa,5,6,1,32
     4446                           .sym    _minc,6,6,1,32
     4447                           .sym    _maxc,7,6,1,32
     4448                           .sym    _m,8,6,1,32
     4449                           .sym    _current,9,6,1,32
     4450                           .sym    _v,10,24,1,32,.fake6
     4451                           .line   1
     4452                   ;----------------------------------------------------------------------
     4453                   ; 811 | void ADC_UPDATE(void)                                                  
     4454                   ; 813 | int i;                                                                 
     4455                   ; 814 | unsigned int ui;                                                       
     4456                   ; 815 | float t;                                                               
     4457                   ; 816 | float mina, maxa;                                                      
     4458                   ; 817 | float minc, maxc;                                                      
     4459                   ; 818 | float m;                                                               
     4460                   ; 819 | float current;                                                         
     4461                   ; 820 | VAR* v;                                                                
     4462                   ;----------------------------------------------------------------------
     4463 0000064f 0f2b0000         push      fp
     4464 00000650 500b0014         ldiu      sp,fp
     4465 00000651 0274000a         addi      10,sp
     4466 00000652 0f240000         push      r4
     4467 00000653 0f250000         push      r5
     4468 00000654 0f2c0000         push      ar4
     4469 00000655 0f2d0000         push      ar5
     4470                           .line   12
     4471                   ;----------------------------------------------------------------------
     4472                   ; 822 | if (SA && (HW_VER<0xB7))                                               
     4473                   ;----------------------------------------------------------------------
     4474 00000656 08700000-        ldp       @CL6,DP
     4475 00000657 50280017-        ldiu      @CL6,ar0              ; |822| 
     4476 00000658 5040c000         ldiu      *ar0,r0               ; |822| 
     4477 00000659 04e00000         cmpi      0,r0                  ; |822| 
     4478 0000065a 6a050005         beq       L163                  ; |822| 
     4479                   ;*      Branch Occurs to L163           ; |822| 
     4480 0000065b 08700000-        ldp       @CL14,DP
     4481 0000065c 5028001f-        ldiu      @CL14,ar0             ; |822| 
     4482 0000065d 5040c000         ldiu      *ar0,r0               ; |822| 
TMS320C3x/4x COFF AssemblerVersion 5.12     Wed Jul 24 11:03:43 2019
Copyright (c) 1987-1999 Texas Instruments Incorporatedasm30.exe -@_30G.AAB 

G:\workspace\EEA\V615\APP\SOURCE\ASM\adc.asm                         PAGE   84

     4483 0000065e 04e000b7         cmpi      183,r0                ; |822| 
     4484 0000065f 6a01019c         blo       L195                  ; |822| 
     4485                   ;*      Branch Occurs to L195           ; |822| 
     4486                           .line   13
     4487                   ;----------------------------------------------------------------------
     4488                   ; 823 | return;                                                                
     4489                   ;----------------------------------------------------------------------
     4490 00000660          L163:        
     4491                           .line   15
     4492                   ;----------------------------------------------------------------------
     4493                   ; 825 | _GIEP;                                                                 
     4494                   ;----------------------------------------------------------------------
     4495 00000660 0f350000         push    ST                      
     4496 00000661 03752000         andn    2000h, ST       
     4497                           .line   17
     4498                   ;----------------------------------------------------------------------
     4499                   ; 827 | Read_ADCn(ADC_Tint, 0);         /* read last conversion */             
     4500                   ;----------------------------------------------------------------------
     4501 00000662 08700000-        ldp       @CL16,DP
     4502 00000663 506a000a         ldiu      10,ar2                ; |827| 
     4503 00000664 50620000         ldiu      0,r2                  ; |827| 
     4504 00000665 50200021-        ldiu      @CL16,r0              ; |827| 
     4505 00000666 70000000         callu     r0                    ; far call to _Read_ADCn        ; |827| 
     4506                                                           ; |827| Far Call Occurs
     4507                           .line   19
     4508                   ;----------------------------------------------------------------------
     4509                   ; 829 | if (SA)                                                                
     4510                   ;----------------------------------------------------------------------
     4511 00000667 08700000-        ldp       @CL6,DP
     4512 00000668 50280017-        ldiu      @CL6,ar0              ; |829| 
     4513 00000669 5040c000         ldiu      *ar0,r0               ; |829| 
     4514 0000066a 04e00000         cmpi      0,r0                  ; |829| 
     4515 0000066b 6a050002         beq       L165                  ; |829| 
     4516                   ;*      Branch Occurs to L165           ; |829| 
     4517                           .line   21
     4518                   ;----------------------------------------------------------------------
     4519                   ; 831 | GIEP;                                                                  
     4520                   ;----------------------------------------------------------------------
     4521 0000066c 0e350000         pop             ST                      
     4522                           .line   22
     4523                   ;----------------------------------------------------------------------
     4524                   ; 832 | return;                                                                
     4525                   ;----------------------------------------------------------------------
     4526 0000066d 6a00018e         bu        L195                  ; |832| 
     4527                   ;*      Branch Occurs to L195           ; |832| 
     4528 0000066e          L165:        
     4529                           .line   25
     4530                   ;----------------------------------------------------------------------
     4531                   ; 835 | Read_ADCn(ADC_Ain5, 0);         /* read last conversion */             
     4532                   ;----------------------------------------------------------------------
     4533 0000066e 08700000-        ldp       @CL16,DP
     4534 0000066f 506a0009         ldiu      9,ar2                 ; |835| 
     4535 00000670 50620000         ldiu      0,r2                  ; |835| 
     4536 00000671 50200021-        ldiu      @CL16,r0              ; |835| 
TMS320C3x/4x COFF AssemblerVersion 5.12     Wed Jul 24 11:03:43 2019
Copyright (c) 1987-1999 Texas Instruments Incorporatedasm30.exe -@_30G.AAB 

G:\workspace\EEA\V615\APP\SOURCE\ASM\adc.asm                         PAGE   85

     4537 00000672 70000000         callu     r0                    ; far call to _Read_ADCn        ; |835| 
     4538                                                           ; |835| Far Call Occurs
     4539                           .line   27
     4540                   ;----------------------------------------------------------------------
     4541                   ; 837 | for (i=0;i<3;i++)                                                      
     4542                   ;----------------------------------------------------------------------
     4543 00000673 50600000         ldiu      0,r0                  ; |837| 
     4544 00000674 15400301         sti       r0,*+fp(1)            ; |837| 
     4545 00000675 04e00003         cmpi      3,r0                  ; |837| 
     4546 00000676 6a0a004a         bge       L179                  ; |837| 
     4547                   ;*      Branch Occurs to L179           ; |837| 
     4548 00000677          L166:        
     4549                           .line   29
     4550                   ;----------------------------------------------------------------------
     4551                   ; 839 | Read_ADCn(ADC_ACTIVE[i], 0);            /* read last conversion */     
     4552                   ;----------------------------------------------------------------------
     4553 00000677 08700000-        ldp       @CL17,DP
     4554 00000678 50510301         ldiu      *+fp(1),ir0           ; |839| 
     4555 00000679 50280022-        ldiu      @CL17,ar0             ; |839| 
     4556 0000067a 08700000-        ldp       @CL16,DP
     4557 0000067b 504a4000         ldiu      *+ar0(ir0),ar2        ; |839| 
     4558 0000067c 50200021-        ldiu      @CL16,r0              ; |839| 
     4559 0000067d 50620000         ldiu      0,r2                  ; |839| 
     4560 0000067e 70000000         callu     r0                    ; far call to _Read_ADCn        ; |839| 
     4561                                                           ; |839| Far Call Occurs
     4562                           .line   31
     4563                   ;----------------------------------------------------------------------
     4564                   ; 841 | READ_ADC_INPUTS++;                                                     
     4565                   ;----------------------------------------------------------------------
     4566 0000067f 08700000-        ldp       @CL1,DP
     4567 00000680 50280012-        ldiu      @CL1,ar0              ; |841| 
     4568 00000681 50600001         ldiu      1,r0                  ; |841| 
     4569 00000682 2120c000         addi3     r0,*ar0,r0            ; |841| 
     4570 00000683 1540c000         sti       r0,*ar0               ; |841| 
     4571                           .line   33
     4572                   ;----------------------------------------------------------------------
     4573                   ; 843 | ADC_ACTIVE[i]++;                                        /* select next
     4574                   ;     | ADC */                                                                 
     4575                   ; 845 | switch (i)                                                             
     4576                   ; 847 |         case 2:                                                        
     4577                   ;----------------------------------------------------------------------
     4578 00000684 08700000-        ldp       @CL17,DP
     4579 00000685 50310022-        ldiu      @CL17,ir0             ; |843| 
     4580 00000686 50480301         ldiu      *+fp(1),ar0           ; |843| 
     4581 00000687 50600001         ldiu      1,r0                  ; |843| 
     4582 00000688 21204000         addi3     r0,*+ar0(ir0),r0      ; |843| Unsigned
     4583 00000689 15404000         sti       r0,*+ar0(ir0)         ; |843| 
     4584 0000068a 6a000021         bu        L174                  ; |810| 
     4585                   ;*      Branch Occurs to L174           ; |810| 
     4586 0000068b          L167:        
     4587                           .line   39
     4588                   ;----------------------------------------------------------------------
     4589                   ; 849 | if (ADC_ACTIVE[i] > ADC_Ain4)                                          
     4590                   ;----------------------------------------------------------------------
TMS320C3x/4x COFF AssemblerVersion 5.12     Wed Jul 24 11:03:43 2019
Copyright (c) 1987-1999 Texas Instruments Incorporatedasm30.exe -@_30G.AAB 

G:\workspace\EEA\V615\APP\SOURCE\ASM\adc.asm                         PAGE   86

     4591 0000068b 08700000-        ldp       @CL17,DP
     4592 0000068c 50510301         ldiu      *+fp(1),ir0           ; |849| 
     4593 0000068d 50280022-        ldiu      @CL17,ar0             ; |849| 
     4594 0000068e 50404000         ldiu      *+ar0(ir0),r0         ; |849| 
     4595 0000068f 04e00008         cmpi      8,r0                  ; |849| 
     4596 00000690 6a020023         bls       L178                  ; |849| 
     4597                   ;*      Branch Occurs to L178           ; |849| 
     4598                           .line   40
     4599                   ;----------------------------------------------------------------------
     4600                   ; 850 | ADC_ACTIVE[i] = ADC_Ain2;                                              
     4601                   ;----------------------------------------------------------------------
     4602 00000691 08700000-        ldp       @CL17,DP
     4603 00000692 50280022-        ldiu      @CL17,ar0             ; |850| 
     4604 00000693 50600006         ldiu      6,r0                  ; |850| 
     4605 00000694 15404000         sti       r0,*+ar0(ir0)         ; |850| 
     4606                           .line   42
     4607                   ;----------------------------------------------------------------------
     4608                   ; 852 | break;                                                                 
     4609                   ; 854 | case 1:                                                                
     4610                   ;----------------------------------------------------------------------
     4611 00000695 6a00001e         bu        L178                  ; |852| 
     4612                   ;*      Branch Occurs to L178           ; |852| 
     4613 00000696          L169:        
     4614                           .line   46
     4615                   ;----------------------------------------------------------------------
     4616                   ; 856 | if (ADC_ACTIVE[i] > ADC_Ain1)                                          
     4617                   ;----------------------------------------------------------------------
     4618 00000696 08700000-        ldp       @CL17,DP
     4619 00000697 50510301         ldiu      *+fp(1),ir0           ; |856| 
     4620 00000698 50280022-        ldiu      @CL17,ar0             ; |856| 
     4621 00000699 50404000         ldiu      *+ar0(ir0),r0         ; |856| 
     4622 0000069a 04e00005         cmpi      5,r0                  ; |856| 
     4623 0000069b 6a020018         bls       L178                  ; |856| 
     4624                   ;*      Branch Occurs to L178           ; |856| 
     4625                           .line   47
     4626                   ;----------------------------------------------------------------------
     4627                   ; 857 | ADC_ACTIVE[i] = ADC_VTUNE;                                             
     4628                   ;----------------------------------------------------------------------
     4629 0000069c 08700000-        ldp       @CL17,DP
     4630 0000069d 50280022-        ldiu      @CL17,ar0             ; |857| 
     4631 0000069e 50600003         ldiu      3,r0                  ; |857| 
     4632 0000069f 15404000         sti       r0,*+ar0(ir0)         ; |857| 
     4633                           .line   49
     4634                   ;----------------------------------------------------------------------
     4635                   ; 859 | break;                                                                 
     4636                   ; 861 | case 0:                                                                
     4637                   ; 862 | default:                                                               
     4638                   ;----------------------------------------------------------------------
     4639 000006a0 6a000013         bu        L178                  ; |859| 
     4640                   ;*      Branch Occurs to L178           ; |859| 
     4641 000006a1          L171:        
     4642                           .line   54
     4643                   ;----------------------------------------------------------------------
     4644                   ; 864 | if (ADC_ACTIVE[i] > ADC_Text)                                          
TMS320C3x/4x COFF AssemblerVersion 5.12     Wed Jul 24 11:03:43 2019
Copyright (c) 1987-1999 Texas Instruments Incorporatedasm30.exe -@_30G.AAB 

G:\workspace\EEA\V615\APP\SOURCE\ASM\adc.asm                         PAGE   87

     4645                   ;----------------------------------------------------------------------
     4646 000006a1 08700000-        ldp       @CL17,DP
     4647 000006a2 50510301         ldiu      *+fp(1),ir0           ; |864| 
     4648 000006a3 50280022-        ldiu      @CL17,ar0             ; |864| 
     4649 000006a4 50404000         ldiu      *+ar0(ir0),r0         ; |864| 
     4650 000006a5 04e00002         cmpi      2,r0                  ; |864| 
     4651 000006a6 6a02000d         bls       L178                  ; |864| 
     4652                   ;*      Branch Occurs to L178           ; |864| 
     4653                           .line   55
     4654                   ;----------------------------------------------------------------------
     4655                   ; 865 | ADC_ACTIVE[i] = ADC_Vref;                                              
     4656                   ;----------------------------------------------------------------------
     4657 000006a7 08700000-        ldp       @CL17,DP
     4658 000006a8 50280022-        ldiu      @CL17,ar0             ; |865| 
     4659 000006a9 50600000         ldiu      0,r0                  ; |865| 
     4660 000006aa 15404000         sti       r0,*+ar0(ir0)         ; |865| 
     4661                           .line   57
     4662                   ;----------------------------------------------------------------------
     4663                   ; 867 | break;                                                                 
     4664                   ;----------------------------------------------------------------------
     4665 000006ab 6a000008         bu        L178                  ; |867| 
     4666                   ;*      Branch Occurs to L178           ; |867| 
     4667 000006ac          L174:        
     4668                           .line   35
     4669 000006ac 50400301         ldiu      *+fp(1),r0            ; |845| 
     4670 000006ad 04e00000         cmpi      0,r0                  ; |845| 
     4671 000006ae 6a05fff2         beq       L171                  ; |845| 
     4672                   ;*      Branch Occurs to L171           ; |845| 
     4673 000006af 04e00001         cmpi      1,r0                  ; |845| 
     4674 000006b0 6a05ffe5         beq       L169                  ; |845| 
     4675                   ;*      Branch Occurs to L169           ; |845| 
     4676 000006b1 04e00002         cmpi      2,r0                  ; |845| 
     4677 000006b2 6a05ffd8         beq       L167                  ; |845| 
     4678                   ;*      Branch Occurs to L167           ; |845| 
     4679 000006b3 6a00ffed         bu        L171                  ; |845| 
     4680                   ;*      Branch Occurs to L171           ; |845| 
     4681 000006b4          L178:        
     4682                           .line   61
     4683                   ;----------------------------------------------------------------------
     4684                   ; 871 | Read_ADCn(ADC_ACTIVE[i], 1);    /* start next conversion */            
     4685                   ;----------------------------------------------------------------------
     4686 000006b4 08700000-        ldp       @CL17,DP
     4687 000006b5 50510301         ldiu      *+fp(1),ir0           ; |871| 
     4688 000006b6 50280022-        ldiu      @CL17,ar0             ; |871| 
     4689 000006b7 08700000-        ldp       @CL16,DP
     4690 000006b8 504a4000         ldiu      *+ar0(ir0),ar2        ; |871| 
     4691 000006b9 50200021-        ldiu      @CL16,r0              ; |871| 
     4692 000006ba 50620001         ldiu      1,r2                  ; |871| 
     4693 000006bb 70000000         callu     r0                    ; far call to _Read_ADCn        ; |871| 
     4694                                                           ; |871| Far Call Occurs
     4695                           .line   27
     4696 000006bc 50600001         ldiu      1,r0                  ; |837| 
     4697 000006bd 02400301         addi      *+fp(1),r0            ; |837| 
     4698 000006be 15400301         sti       r0,*+fp(1)            ; |837| 
TMS320C3x/4x COFF AssemblerVersion 5.12     Wed Jul 24 11:03:43 2019
Copyright (c) 1987-1999 Texas Instruments Incorporatedasm30.exe -@_30G.AAB 

G:\workspace\EEA\V615\APP\SOURCE\ASM\adc.asm                         PAGE   88

     4699 000006bf 04e00003         cmpi      3,r0                  ; |837| 
     4700 000006c0 6a07ffb6         blt       L166                  ; |837| 
     4701                   ;*      Branch Occurs to L166           ; |837| 
     4702 000006c1          L179:        
     4703                           .line   64
     4704                   ;----------------------------------------------------------------------
     4705                   ; 874 | for (i=0;i<AI_NLOOPS;i++)                                              
     4706                   ;----------------------------------------------------------------------
     4707 000006c1 50600000         ldiu      0,r0                  ; |874| 
     4708 000006c2 15400301         sti       r0,*+fp(1)            ; |874| 
     4709 000006c3 04e00005         cmpi      5,r0                  ; |874| 
     4710 000006c4 6a0a0136         bge       L194                  ; |874| 
     4711                   ;*      Branch Occurs to L194           ; |874| 
     4712 000006c5          L180:        
     4713                           .line   66
     4714                   ;----------------------------------------------------------------------
     4715                   ; 876 | if (!AI[i].present)                                                    
     4716                   ;----------------------------------------------------------------------
     4717 000006c5 50510301         ldiu      *+fp(1),ir0           ; |876| 
     4718 000006c6 08700000-        ldp       @CL2,DP
     4719 000006c7 0af1013e         mpyi      318,ir0               ; |876| 
     4720 000006c8 50280013-        ldiu      @CL2,ar0              ; |876| 
     4721 000006c9 50404000         ldiu      *+ar0(ir0),r0         ; |876| 
     4722 000006ca 04e00000         cmpi      0,r0                  ; |876| 
     4723 000006cb 6a05012a         beq       L193                  ; |876| 
     4724                   ;*      Branch Occurs to L193           ; |876| 
     4725                           .line   67
     4726                   ;----------------------------------------------------------------------
     4727                   ; 877 | continue;                                                              
     4728                   ;----------------------------------------------------------------------
     4729                           .line   69
     4730                   ;----------------------------------------------------------------------
     4731                   ; 879 | minc    = VAR_Get_Unit_Param(&AI[i].CURRENT, reg_direct_bmin, 0, 0);   
     4732                   ;----------------------------------------------------------------------
     4733 000006cc 08700000-        ldp       @CL69,DP
     4734 000006cd 504a0301         ldiu      *+fp(1),ar2           ; |879| 
     4735 000006ce 50200056-        ldiu      @CL69,r0              ; |879| 
     4736 000006cf 08700000-        ldp       @CL67,DP
     4737 000006d0 0aea013e         mpyi      318,ar2               ; |879| 
     4738 000006d1 022a0054-        addi      @CL67,ar2             ; |879| Unsigned
     4739 000006d2 08700000-        ldp       @CL68,DP
     4740 000006d3 507b0000         ldiu      0,rc                  ; |879| 
     4741 000006d4 50220055-        ldiu      @CL68,r2              ; |879| 
     4742 000006d5 50630000         ldiu      0,r3                  ; |879| 
     4743 000006d6 70000000         callu     r0                    ; far call to _VAR_Get_Unit_Param       ; |879| 
     4744                                                           ; |879| Far Call Occurs
     4745 000006d7 14400306         stf       f0,*+fp(6)            ; |879| 
     4746                           .line   70
     4747                   ;----------------------------------------------------------------------
     4748                   ; 880 | maxc    = VAR_Get_Unit_Param(&AI[i].CURRENT, reg_direct_bmax, 0, 0);   
     4749                   ;----------------------------------------------------------------------
     4750 000006d8 08700000-        ldp       @CL69,DP
     4751 000006d9 504a0301         ldiu      *+fp(1),ar2           ; |880| 
     4752 000006da 50200056-        ldiu      @CL69,r0              ; |880| 
TMS320C3x/4x COFF AssemblerVersion 5.12     Wed Jul 24 11:03:43 2019
Copyright (c) 1987-1999 Texas Instruments Incorporatedasm30.exe -@_30G.AAB 

G:\workspace\EEA\V615\APP\SOURCE\ASM\adc.asm                         PAGE   89

     4753 000006db 08700000-        ldp       @CL67,DP
     4754 000006dc 0aea013e         mpyi      318,ar2               ; |880| 
     4755 000006dd 022a0054-        addi      @CL67,ar2             ; |880| Unsigned
     4756 000006de 08700000-        ldp       @CL70,DP
     4757 000006df 507b0000         ldiu      0,rc                  ; |880| 
     4758 000006e0 50220057-        ldiu      @CL70,r2              ; |880| 
     4759 000006e1 50630000         ldiu      0,r3                  ; |880| 
     4760 000006e2 70000000         callu     r0                    ; far call to _VAR_Get_Unit_Param       ; |880| 
     4761                                                           ; |880| Far Call Occurs
     4762 000006e3 14400307         stf       f0,*+fp(7)            ; |880| 
     4763                           .line   71
     4764                   ;----------------------------------------------------------------------
     4765                   ; 881 | t               = REG_ADC[i+ADC_Ain1].val * 10.0;                      
     4766                   ;----------------------------------------------------------------------
     4767 000006e4 50510301         ldiu      *+fp(1),ir0           ; |881| 
     4768 000006e5 0af1002c         mpyi      44,ir0                ; |881| 
     4769 000006e6 08700000-        ldp       @CL3,DP
     4770 000006e7 027100dc         addi      220,ir0               ; |881| 
     4771 000006e8 50280014-        ldiu      @CL3,ar0              ; |881| 
     4772 000006e9 40603200         ldfu      1.0000000000e+01,f0   ; |881| 
     4773 000006ea 24c00040         mpyf3     *+ar0(ir0),f0,f0      ; |881| 
     4774 000006eb 14400303         stf       f0,*+fp(3)            ; |881| 
     4775                           .line   72
     4776                   ;----------------------------------------------------------------------
     4777                   ; 882 | m               = (maxc-minc)/(AI[i].TRIM_MAX_C-AI[i].TRIM_MIN_C);     
     4778                   ;----------------------------------------------------------------------
     4779 000006ec 08700000-        ldp       @CL72,DP
     4780 000006ed 50280059-        ldiu      @CL72,ar0             ; |882| 
     4781 000006ee 08700000-        ldp       @CL71,DP
     4782 000006ef 50290058-        ldiu      @CL71,ar1             ; |882| 
     4783 000006f0 50510301         ldiu      *+fp(1),ir0           ; |882| 
     4784 000006f1 50120011         ldiu      ir0,ir1               ; |882| 
     4785 000006f2 40400306         ldfu      *+fp(6),f0            ; |882| 
     4786 000006f3 0af2013e         mpyi      318,ir1               ; |882| 
     4787 000006f4 0af1013e         mpyi      318,ir0               ; |882| 
     4788 000006f5 19400307         subrf     *+fp(7),f0            ; |882| 
     4789 000006f6 26e18140         subf3     *+ar0(ir0),*+ar1(ir1),f1 ; |882| 
     4790 000006f7 62000000!        call      DIV_F30               ; |882| 
     4791                                                           ; |882| Call Occurs
     4792 000006f8 14400308         stf       f0,*+fp(8)            ; |882| 
     4793                           .line   73
     4794                   ;----------------------------------------------------------------------
     4795                   ; 883 | current = m * (t-AI[i].TRIM_MIN_C) + minc;                             
     4796                   ;----------------------------------------------------------------------
     4797 000006f9 50510301         ldiu      *+fp(1),ir0           ; |883| 
     4798 000006fa 08700000-        ldp       @CL72,DP
     4799 000006fb 0af1013e         mpyi      318,ir0               ; |883| 
     4800 000006fc 50280059-        ldiu      @CL72,ar0             ; |883| 
     4801 000006fd 40404000         ldfu      *+ar0(ir0),f0         ; |883| 
     4802 000006fe 19400303         subrf     *+fp(3),f0            ; |883| 
     4803 000006ff 0a400308         mpyf      *+fp(8),f0            ; |883| 
     4804 00000700 01c00306         addf      *+fp(6),f0            ; |883| 
     4805 00000701 14400309         stf       f0,*+fp(9)            ; |883| 
     4806                           .line   75
TMS320C3x/4x COFF AssemblerVersion 5.12     Wed Jul 24 11:03:43 2019
Copyright (c) 1987-1999 Texas Instruments Incorporatedasm30.exe -@_30G.AAB 

G:\workspace\EEA\V615\APP\SOURCE\ASM\adc.asm                         PAGE   90

     4807                   ;----------------------------------------------------------------------
     4808                   ; 885 | VAR_Update(&AI[i].CURRENT, current, 0, 0);                             
     4809                   ;----------------------------------------------------------------------
     4810 00000702 506100ff         ldiu      255,r1                ; |885| 
     4811 00000703 08700000-        ldp       @CL41,DP
     4812 00000704 40020000         ldfu      f0,f2                 ; |885| Move F32 into F40 for CONV
     4813 00000705 03020001         andn      r1,f2                 ; |885| Bit mask for F32/F40 conversion
     4814 00000706 5020003a-        ldiu      @CL41,r0              ; |885| 
     4815 00000707 08700000-        ldp       @CL67,DP
     4816 00000708 504a0301         ldiu      *+fp(1),ar2           ; |885| 
     4817 00000709 507b0000         ldiu      0,rc                  ; |885| 
     4818 0000070a 0aea013e         mpyi      318,ar2               ; |885| 
     4819 0000070b 022a0054-        addi      @CL67,ar2             ; |885| Unsigned
     4820 0000070c 50630000         ldiu      0,r3                  ; |885| 
     4821 0000070d 70000000         callu     r0                    ; far call to _VAR_Update       ; |885| 
     4822                                                           ; |885| Far Call Occurs
     4823                           .line   77
     4824                   ;----------------------------------------------------------------------
     4825                   ; 887 | t = (AI[i].CURRENT.val-minc)/(maxc-minc);                              
     4826                   ;----------------------------------------------------------------------
     4827 0000070e 50510301         ldiu      *+fp(1),ir0           ; |887| 
     4828 0000070f 0af1013e         mpyi      318,ir0               ; |887| 
     4829 00000710 08700000-        ldp       @CL67,DP
     4830 00000711 40400306         ldfu      *+fp(6),f0            ; |887| 
     4831 00000712 50280054-        ldiu      @CL67,ar0             ; |887| 
     4832 00000713 40010000         ldfu      f0,f1                 ; |887| 
     4833 00000714 26a04000         subf3     f0,*+ar0(ir0),f0      ; |887| 
     4834 00000715 19410307         subrf     *+fp(7),f1            ; |887| 
     4835 00000716 62000000!        call      DIV_F30               ; |887| 
     4836                                                           ; |887| Call Occurs
     4837 00000717 14400303         stf       f0,*+fp(3)            ; |887| 
     4838                           .line   79
     4839                   ;----------------------------------------------------------------------
     4840                   ; 889 | VAR_Update(&AI[i].CURRENT_PERCENT_OF_RANGE, t*100.0, 0, 1);            
     4841                   ;----------------------------------------------------------------------
     4842 00000718 504a0301         ldiu      *+fp(1),ar2           ; |889| 
     4843 00000719 08700000-        ldp       @CL73,DP
     4844 0000071a 0aea013e         mpyi      318,ar2               ; |889| 
     4845 0000071b 022a005a-        addi      @CL73,ar2             ; |889| Unsigned
     4846 0000071c 08700000-        ldp       @CL41,DP
     4847 0000071d 40606480         ldfu      1.0000000000e+02,f0   ; |889| 
     4848 0000071e 5021003a-        ldiu      @CL41,r1              ; |889| 
     4849 0000071f 0a400303         mpyf      *+fp(3),f0            ; |889| 
     4850 00000720 506300ff         ldiu      255,r3                ; |889| 
     4851 00000721 40020000         ldfu      f0,f2                 ; |889| Move F32 into F40 for CONV
     4852 00000722 03020003         andn      r3,f2                 ; |889| Bit mask for F32/F40 conversion
     4853 00000723 507b0001         ldiu      1,rc                  ; |889| 
     4854 00000724 50630000         ldiu      0,r3                  ; |889| 
     4855 00000725 70000001         callu     r1                    ; far call to _VAR_Update       ; |889| 
     4856                                                           ; |889| Far Call Occurs
     4857                           .line   81
     4858                   ;----------------------------------------------------------------------
     4859                   ; 891 | v = HART_Lookup(AI[i].v.val, &ui, (int*)&HART_DVINPUT_Table);          
     4860                   ;----------------------------------------------------------------------
TMS320C3x/4x COFF AssemblerVersion 5.12     Wed Jul 24 11:03:43 2019
Copyright (c) 1987-1999 Texas Instruments Incorporatedasm30.exe -@_30G.AAB 

G:\workspace\EEA\V615\APP\SOURCE\ASM\adc.asm                         PAGE   91

     4861 00000726 08700000-        ldp       @CL74,DP
     4862 00000727 50510301         ldiu      *+fp(1),ir0           ; |891| 
     4863 00000728 5028005b-        ldiu      @CL74,ar0             ; |891| 
     4864 00000729 0af1013e         mpyi      318,ir0               ; |891| 
     4865 0000072a 5002000b         ldiu      fp,r2                 ; |891| 
     4866 0000072b 08700000-        ldp       @CL76,DP
     4867 0000072c 504a4000         ldiu      *+ar0(ir0),ar2        ; |891| 
     4868 0000072d 5020005d-        ldiu      @CL76,r0              ; |891| 
     4869 0000072e 08700000-        ldp       @CL75,DP
     4870 0000072f 5023005c-        ldiu      @CL75,r3              ; |891| 
     4871 00000730 02620002         addi      2,r2                  ; |891| 
     4872 00000731 70000000         callu     r0                    ; far call to _HART_Lookup      ; |891| 
     4873                                                           ; |891| Far Call Occurs
     4874 00000732 1540030a         sti       r0,*+fp(10)           ; |891| 
     4875                           .line   83
     4876                   ;----------------------------------------------------------------------
     4877                   ; 893 | if ((v!=(VAR*)0) && (v!=&REG_DUMMY))                                   
     4878                   ;----------------------------------------------------------------------
     4879 00000733 04e00000         cmpi      0,r0                  ; |893| 
     4880 00000734 6a0500c1         beq       L193                  ; |893| 
     4881                   ;*      Branch Occurs to L193           ; |893| 
     4882 00000735 08700000-        ldp       @CL77,DP
     4883 00000736 04a0005e-        cmpi      @CL77,r0              ; |893| 
     4884 00000737 6a0500be         beq       L193                  ; |893| 
     4885                   ;*      Branch Occurs to L193           ; |893| 
     4886                           .line   85
     4887                   ;----------------------------------------------------------------------
     4888                   ; 895 | if (AI[i].CURRENT.STAT & var_NaNum)                                    
     4889                   ;----------------------------------------------------------------------
     4890 00000738 50510301         ldiu      *+fp(1),ir0           ; |895| 
     4891 00000739 08700000-        ldp       @CL78,DP
     4892 0000073a 0af1013e         mpyi      318,ir0               ; |895| 
     4893 0000073b 5028005f-        ldiu      @CL78,ar0             ; |895| 
     4894 0000073c 50600008         ldiu      8,r0                  ; |895| 
     4895 0000073d 27c00040         tstb3     *+ar0(ir0),r0         ; |895| 
     4896 0000073e 6a050005         beq       L185                  ; |895| 
     4897                   ;*      Branch Occurs to L185           ; |895| 
     4898                           .line   86
     4899                   ;----------------------------------------------------------------------
     4900                   ; 896 | VAR_NaN(v);                                                            
     4901                   ; 897 | else                                                                   
     4902                   ;----------------------------------------------------------------------
     4903 0000073f 08700000-        ldp       @CL4,DP
     4904 00000740 504a030a         ldiu      *+fp(10),ar2          ; |896| 
     4905 00000741 50200015-        ldiu      @CL4,r0               ; |896| 
     4906 00000742 70000000         callu     r0                    ; far call to _VAR_NaN  ; |896| 
     4907                                                           ; |896| Far Call Occurs
     4908 00000743 6a0000b2         bu        L193                  ; |810| 
     4909                   ;*      Branch Occurs to L193           ; |810| 
     4910 00000744          L185:        
     4911                           .line   89
     4912                   ;----------------------------------------------------------------------
     4913                   ; 899 | mina            = Convert(AI[i].class.val, AI[i].LRV.unit, AI[i].unit.v
     4914                   ;     | al, AI[i].LRV.val, 0, AI[i].LRV.aux);                                  
TMS320C3x/4x COFF AssemblerVersion 5.12     Wed Jul 24 11:03:43 2019
Copyright (c) 1987-1999 Texas Instruments Incorporatedasm30.exe -@_30G.AAB 

G:\workspace\EEA\V615\APP\SOURCE\ASM\adc.asm                         PAGE   92

     4915                   ;----------------------------------------------------------------------
     4916 00000744 50510301         ldiu      *+fp(1),ir0           ; |899| 
     4917 00000745 50000011         ldiu      ir0,r0                ; |899| 
     4918 00000746 50120000         ldiu      r0,ir1                ; |899| 
     4919 00000747 50020000         ldiu      r0,r2                 ; |899| 
     4920 00000748 08700000-        ldp       @CL82,DP
     4921 00000749 0af1013e         mpyi      318,ir0               ; |899| 
     4922 0000074a 50010000         ldiu      r0,r1                 ; |899| 
     4923 0000074b 502a0063-        ldiu      @CL82,ar2             ; |899| 
     4924 0000074c 08700000-        ldp       @CL81,DP
     4925 0000074d 50290062-        ldiu      @CL81,ar1             ; |899| 
     4926 0000074e 08700000-        ldp       @CL83,DP
     4927 0000074f 502c0064-        ldiu      @CL83,ar4             ; |899| 
     4928 00000750 0ae2013e         mpyi      318,r2                ; |899| 
     4929 00000751 08700000-        ldp       @CL79,DP
     4930 00000752 502d0060-        ldiu      @CL79,ar5             ; |899| 
     4931 00000753 507900ff         ldiu      255,rs                ; |899| 
     4932 00000754 08700000-        ldp       @CL80,DP
     4933 00000755 0af2013e         mpyi      318,ir1               ; |899| 
     4934 00000756 50280061-        ldiu      @CL80,ar0             ; |899| 
     4935 00000757 0ae0013e         mpyi      318,r0                ; |899| 
     4936 00000758 40434200         ldfu      *+ar2(ir0),f3         ; |899| 
     4937 00000759 0ae1013e         mpyi      318,r1                ; |899| 
     4938 0000075a 50458400         ldiu      *+ar4(ir1),r5         ; |899| 
     4939 0000075b 50120000         ldiu      r0,ir1                ; |899| 
     4940 0000075c 50110002         ldiu      r2,ir0                ; |899| 
     4941                   
     4942 0000075d c6104185         ldiu      *+ar5(ir1),r0         ; |899| 
     4943                   ||      ldiu      *+ar1(ir0),r2         ; |899| 
     4944                   
     4945 0000075e 500a0000         ldiu      r0,ar2                ; |899| 
     4946 0000075f 50110001         ldiu      r1,ir0                ; |899| 
     4947 00000760 40040003         ldfu      f3,f4                 ; |899| Move F32 into F40 for CONV
     4948 00000761 50434000         ldiu      *+ar0(ir0),r3         ; |899| 
     4949 00000762 501b0002         ldiu      r2,rc                 ; |899| 
     4950 00000763 08700000-        ldp       @CL84,DP
     4951 00000764 03040019         andn      rs,f4                 ; |899| Bit mask for F32/F40 conversion
     4952 00000765 50210065-        ldiu      @CL84,r1              ; |899| 
     4953 00000766 501a0005         ldiu      r5,re                 ; |899| 
     4954 00000767 50790000         ldiu      0,rs                  ; |899| 
     4955 00000768 40020004         ldfu      f4,f2                 ; |899| High precision move
     4956 00000769 70000001         callu     r1                    ; far call to _Convert  ; |899| 
     4957                                                           ; |899| Far Call Occurs
     4958 0000076a 11000000         rnd       f0,f0                 ; |899| Demote to low precision
     4959 0000076b 14400304         stf       f0,*+fp(4)            ; |899| 
     4960                           .line   90
     4961                   ;----------------------------------------------------------------------
     4962                   ; 900 | maxa            = Convert(AI[i].class.val, AI[i].URV.unit, AI[i].unit.v
     4963                   ;     | al, AI[i].URV.val, 0, AI[i].URV.aux);                                  
     4964                   ;----------------------------------------------------------------------
     4965 0000076c 50510301         ldiu      *+fp(1),ir0           ; |900| 
     4966 0000076d 50120011         ldiu      ir0,ir1               ; |900| 
     4967 0000076e 50000011         ldiu      ir0,r0                ; |900| 
     4968 0000076f 50020000         ldiu      r0,r2                 ; |900| 
TMS320C3x/4x COFF AssemblerVersion 5.12     Wed Jul 24 11:03:43 2019
Copyright (c) 1987-1999 Texas Instruments Incorporatedasm30.exe -@_30G.AAB 

G:\workspace\EEA\V615\APP\SOURCE\ASM\adc.asm                         PAGE   93

     4969 00000770 08700000-        ldp       @CL86,DP
     4970 00000771 50010000         ldiu      r0,r1                 ; |900| 
     4971 00000772 502c0067-        ldiu      @CL86,ar4             ; |900| 
     4972 00000773 08700000-        ldp       @CL81,DP
     4973 00000774 502a0062-        ldiu      @CL81,ar2             ; |900| 
     4974 00000775 08700000-        ldp       @CL87,DP
     4975 00000776 502d0068-        ldiu      @CL87,ar5             ; |900| 
     4976 00000777 08700000-        ldp       @CL79,DP
     4977 00000778 50280060-        ldiu      @CL79,ar0             ; |900| 
     4978 00000779 08700000-        ldp       @CL85,DP
     4979 0000077a 50290066-        ldiu      @CL85,ar1             ; |900| 
     4980 0000077b 0af2013e         mpyi      318,ir1               ; |900| 
     4981 0000077c 0af1013e         mpyi      318,ir0               ; |900| 
     4982 0000077d 0ae2013e         mpyi      318,r2                ; |900| 
     4983 0000077e 507900ff         ldiu      255,rs                ; |900| 
     4984 0000077f 0ae0013e         mpyi      318,r0                ; |900| 
     4985 00000780 0ae1013e         mpyi      318,r1                ; |900| 
     4986 00000781 40434400         ldfu      *+ar4(ir0),f3         ; |900| 
     4987 00000782 50110002         ldiu      r2,ir0                ; |900| 
     4988 00000783 50454500         ldiu      *+ar5(ir0),r5         ; |900| 
     4989 00000784 50110001         ldiu      r1,ir0                ; |900| 
     4990 00000785 40040003         ldfu      f3,f4                 ; |900| Move F32 into F40 for CONV
     4991 00000786 08700000-        ldp       @CL84,DP
     4992 00000787 501a0005         ldiu      r5,re                 ; |900| 
     4993 00000788 50210065-        ldiu      @CL84,r1              ; |900| 
     4994 00000789 50428200         ldiu      *+ar2(ir1),r2         ; |900| 
     4995 0000078a 03040019         andn      rs,f4                 ; |900| Bit mask for F32/F40 conversion
     4996 0000078b 50120000         ldiu      r0,ir1                ; |900| 
     4997 0000078c 50790000         ldiu      0,rs                  ; |900| 
     4998                   
     4999 0000078d c6c08041         ldiu      *+ar1(ir0),r3         ; |900| 
     5000                   ||      ldiu      *+ar0(ir1),r0         ; |900| 
     5001                   
     5002 0000078e 501b0002         ldiu      r2,rc                 ; |900| 
     5003 0000078f 500a0000         ldiu      r0,ar2                ; |900| 
     5004 00000790 40020004         ldfu      f4,f2                 ; |900| High precision move
     5005 00000791 70000001         callu     r1                    ; far call to _Convert  ; |900| 
     5006                                                           ; |900| Far Call Occurs
     5007 00000792 11000000         rnd       f0,f0                 ; |900| Demote to low precision
     5008 00000793 14400305         stf       f0,*+fp(5)            ; |900| 
     5009                           .line   91
     5010                   ;----------------------------------------------------------------------
     5011                   ; 901 | m                       = (maxa-mina)/(maxc-minc);                     
     5012                   ;----------------------------------------------------------------------
     5013 00000794 40400304         ldfu      *+fp(4),f0            ; |901| 
     5014 00000795 19400305         subrf     *+fp(5),f0            ; |901| 
     5015 00000796 40410306         ldfu      *+fp(6),f1            ; |901| 
     5016 00000797 19410307         subrf     *+fp(7),f1            ; |901| 
     5017 00000798 62000000!        call      DIV_F30               ; |901| 
     5018                                                           ; |901| Call Occurs
     5019 00000799 14400308         stf       f0,*+fp(8)            ; |901| 
     5020                           .line   92
     5021                   ;----------------------------------------------------------------------
     5022                   ; 902 | t                       = m * (AI[i].CURRENT.val-minc) + mina;         
TMS320C3x/4x COFF AssemblerVersion 5.12     Wed Jul 24 11:03:43 2019
Copyright (c) 1987-1999 Texas Instruments Incorporatedasm30.exe -@_30G.AAB 

G:\workspace\EEA\V615\APP\SOURCE\ASM\adc.asm                         PAGE   94

     5023                   ;----------------------------------------------------------------------
     5024 0000079a 50510301         ldiu      *+fp(1),ir0           ; |902| 
     5025 0000079b 08700000-        ldp       @CL67,DP
     5026 0000079c 0af1013e         mpyi      318,ir0               ; |902| 
     5027 0000079d 50280054-        ldiu      @CL67,ar0             ; |902| 
     5028 0000079e 40400306         ldfu      *+fp(6),f0            ; |902| 
     5029 0000079f 26a04000         subf3     f0,*+ar0(ir0),f0      ; |902| 
     5030 000007a0 0a400308         mpyf      *+fp(8),f0            ; |902| 
     5031 000007a1 01c00304         addf      *+fp(4),f0            ; |902| 
     5032 000007a2 14400303         stf       f0,*+fp(3)            ; |902| 
     5033                           .line   93
     5034                   ;----------------------------------------------------------------------
     5035                   ; 903 | AI[i].val       = t;                                                   
     5036                   ;----------------------------------------------------------------------
     5037 000007a3 50510301         ldiu      *+fp(1),ir0           ; |903| 
     5038 000007a4 08700000-        ldp       @CL88,DP
     5039 000007a5 0af1013e         mpyi      318,ir0               ; |903| 
     5040 000007a6 50280069-        ldiu      @CL88,ar0             ; |903| 
     5041 000007a7 14404000         stf       f0,*+ar0(ir0)         ; |903| 
     5042                           .line   95
     5043                   ;----------------------------------------------------------------------
     5044                   ; 905 | VAR_Update(&AI[i].VALUE, t, 0, 0);                                     
     5045                   ;----------------------------------------------------------------------
     5046 000007a8 504a0301         ldiu      *+fp(1),ar2           ; |905| 
     5047 000007a9 08700000-        ldp       @CL89,DP
     5048 000007aa 0aea013e         mpyi      318,ar2               ; |905| 
     5049 000007ab 022a006a-        addi      @CL89,ar2             ; |905| Unsigned
     5050 000007ac 08700000-        ldp       @CL41,DP
     5051 000007ad 507b0000         ldiu      0,rc                  ; |905| 
     5052 000007ae 506300ff         ldiu      255,r3                ; |905| 
     5053 000007af 40400303         ldfu      *+fp(3),f0            ; |905| 
     5054 000007b0 40020000         ldfu      f0,f2                 ; |905| Move F32 into F40 for CONV
     5055 000007b1 5021003a-        ldiu      @CL41,r1              ; |905| 
     5056 000007b2 03020003         andn      r3,f2                 ; |905| Bit mask for F32/F40 conversion
     5057 000007b3 50630000         ldiu      0,r3                  ; |905| 
     5058 000007b4 70000001         callu     r1                    ; far call to _VAR_Update       ; |905| 
     5059                                                           ; |905| Far Call Occurs
     5060                           .line   97
     5061                   ;----------------------------------------------------------------------
     5062                   ; 907 | t = Convert(v->class, AI[i].unit.val, v->unit, t, 0, v->aux);          
     5063                   ;----------------------------------------------------------------------
     5064 000007b5 08700000-        ldp       @CL81,DP
     5065 000007b6 40400303         ldfu      *+fp(3),f0            ; |907| 
     5066 000007b7 502c0062-        ldiu      @CL81,ar4             ; |907| 
     5067 000007b8 5049030a         ldiu      *+fp(10),ar1          ; |907| 
     5068 000007b9 08700000-        ldp       @CL84,DP
     5069 000007ba 506100ff         ldiu      255,r1                ; |907| 
     5070 000007bb 40020000         ldfu      f0,f2                 ; |907| Move F32 into F40 for CONV
     5071 000007bc 50080009         ldiu      ar1,ar0               ; |907| 
     5072 000007bd 03020001         andn      r1,f2                 ; |907| Bit mask for F32/F40 conversion
     5073 000007be 50200065-        ldiu      @CL84,r0              ; |907| 
     5074 000007bf 50510301         ldiu      *+fp(1),ir0           ; |907| 
     5075 000007c0 500a0008         ldiu      ar0,ar2               ; |907| 
     5076 000007c1 505a0006         ldiu      *+ar0(6),re           ; |907| 
TMS320C3x/4x COFF AssemblerVersion 5.12     Wed Jul 24 11:03:43 2019
Copyright (c) 1987-1999 Texas Instruments Incorporatedasm30.exe -@_30G.AAB 

G:\workspace\EEA\V615\APP\SOURCE\ASM\adc.asm                         PAGE   95

     5077 000007c2 0af1013e         mpyi      318,ir0               ; |907| 
     5078 000007c3 505b010d         ldiu      *+ar1(13),rc          ; |907| 
     5079 000007c4 504a020f         ldiu      *+ar2(15),ar2         ; |907| 
     5080 000007c5 50434400         ldiu      *+ar4(ir0),r3         ; |907| 
     5081 000007c6 50790000         ldiu      0,rs                  ; |907| 
     5082 000007c7 70000000         callu     r0                    ; far call to _Convert  ; |907| 
     5083                                                           ; |907| Far Call Occurs
     5084 000007c8 11000000         rnd       f0,f0                 ; |907| Demote to low precision
     5085 000007c9 14400303         stf       f0,*+fp(3)            ; |907| 
     5086                           .line   99
     5087                   ;----------------------------------------------------------------------
     5088                   ; 909 | if ( v == &REG_STREAM_SELECT )                                         
     5089                   ; 910 | {// don't update stream if nothing changed (capture bug fix)           
     5090                   ;----------------------------------------------------------------------
     5091 000007ca 08700000-        ldp       @CL90,DP
     5092 000007cb 5040030a         ldiu      *+fp(10),r0           ; |909| 
     5093 000007cc 04a0006b-        cmpi      @CL90,r0              ; |909| 
     5094 000007cd 6a06001e         bne       L192                  ; |909| 
     5095                   ;*      Branch Occurs to L192           ; |909| 
     5096                           .line   101
     5097                   ;----------------------------------------------------------------------
     5098                   ; 911 | if (t < 1.0)                                                           
     5099                   ;----------------------------------------------------------------------
     5100 000007ce 40400303         ldfu      *+fp(3),f0            ; |911| 
     5101 000007cf 04600000         cmpf      1.0000000000e+00,f0   ; |911| 
     5102 000007d0 6a0a0002         bge       L188                  ; |911| 
     5103                   ;*      Branch Occurs to L188           ; |911| 
     5104                           .line   102
     5105                   ;----------------------------------------------------------------------
     5106                   ; 912 | t = 1.0;                                                               
     5107                   ;----------------------------------------------------------------------
     5108 000007d1 40600000         ldfu      1.0000000000e+00,f0   ; |912| 
     5109 000007d2 14400303         stf       f0,*+fp(3)            ; |912| 
     5110 000007d3          L188:        
     5111                           .line   103
     5112                   ;----------------------------------------------------------------------
     5113                   ; 913 | if (t > (SMAX))                                                        
     5114                   ;----------------------------------------------------------------------
     5115 000007d3 40400303         ldfu      *+fp(3),f0            ; |913| 
     5116 000007d4 04605700         cmpf      6.0000000000e+01,f0   ; |913| 
     5117 000007d5 6a080002         ble       L190                  ; |913| 
     5118                   ;*      Branch Occurs to L190           ; |913| 
     5119                           .line   104
     5120                   ;----------------------------------------------------------------------
     5121                   ; 914 | t = (SMAX);                                                            
     5122                   ; 915 | //if ( (int)floor(t) == (int)REG_STREAM_SELECT.val )                   
     5123                   ;----------------------------------------------------------------------
     5124 000007d6 40605700         ldfu      6.0000000000e+01,f0   ; |914| 
     5125 000007d7 14400303         stf       f0,*+fp(3)            ; |914| 
     5126 000007d8          L190:        
     5127                           .line   106
     5128                   ;----------------------------------------------------------------------
     5129                   ; 916 | if ( (int)round(t,0) == (int)REG_STREAM_SELECT.val ) // capture stream
     5130                   ;     | bug                                                                    
TMS320C3x/4x COFF AssemblerVersion 5.12     Wed Jul 24 11:03:43 2019
Copyright (c) 1987-1999 Texas Instruments Incorporatedasm30.exe -@_30G.AAB 

G:\workspace\EEA\V615\APP\SOURCE\ASM\adc.asm                         PAGE   96

     5131                   ;----------------------------------------------------------------------
     5132 000007d8 08700000-        ldp       @CL91,DP
     5133 000007d9 40420303         ldfu      *+fp(3),f2            ; |916| 
     5134 000007da 506a0000         ldiu      0,ar2                 ; |916| 
     5135 000007db 5020006c-        ldiu      @CL91,r0              ; |916| 
     5136 000007dc 70000000         callu     r0                    ; far call to _round    ; |916| 
     5137                                                           ; |916| Far Call Occurs
     5138 000007dd 08700000-        ldp       @CL90,DP
     5139 000007de 5028006b-        ldiu      @CL90,ar0             ; |916| 
     5140 000007df 0b830000         negf      f0,f3                 ; |916| 
     5141 000007e0 05020000         fix       f0,r2                 ; |916| 
     5142 000007e1 4041c000         ldfu      *ar0,f1               ; |916| 
     5143 000007e2 05000003         fix       f3,r0                 ; |916| 
     5144 000007e3 0c000000         negi      r0,r0                 ; |916| 
     5145 000007e4 54020000         ldile     r0,r2                 ; |916| 
     5146 000007e5 0b800001         negf      f1,f0                 ; |916| 
     5147 000007e6 05000000         fix       f0,r0                 ; |916| 
     5148 000007e7 05010001         fix       f1,r1                 ; |916| 
     5149 000007e8 0c000000         negi      r0,r0                 ; |916| 
     5150 000007e9 54010000         ldile     r0,r1                 ; |916| 
     5151 000007ea 23800201         cmpi3     r1,r2                 ; |916| 
     5152 000007eb 6a05000a         beq       L193                  ; |916| 
     5153                   ;*      Branch Occurs to L193           ; |916| 
     5154                           .line   107
     5155                   ;----------------------------------------------------------------------
     5156                   ; 917 | continue;                                                              
     5157                   ;----------------------------------------------------------------------
     5158 000007ec          L192:        
     5159                           .line   109
     5160                   ;----------------------------------------------------------------------
     5161                   ; 919 | VAR_Update(v, t, 0,1);                                                 
     5162                   ;----------------------------------------------------------------------
     5163 000007ec 40400303         ldfu      *+fp(3),f0            ; |919| 
     5164 000007ed 08700000-        ldp       @CL41,DP
     5165 000007ee 506100ff         ldiu      255,r1                ; |919| 
     5166 000007ef 50630000         ldiu      0,r3                  ; |919| 
     5167 000007f0 507b0001         ldiu      1,rc                  ; |919| 
     5168 000007f1 504a030a         ldiu      *+fp(10),ar2          ; |919| 
     5169 000007f2 40020000         ldfu      f0,f2                 ; |919| Move F32 into F40 for CONV
     5170 000007f3 5020003a-        ldiu      @CL41,r0              ; |919| 
     5171 000007f4 03020001         andn      r1,f2                 ; |919| Bit mask for F32/F40 conversion
     5172 000007f5 70000000         callu     r0                    ; far call to _VAR_Update       ; |919| 
     5173                                                           ; |919| Far Call Occurs
     5174 000007f6          L193:        
     5175                           .line   64
     5176 000007f6 50600001         ldiu      1,r0                  ; |874| 
     5177 000007f7 02400301         addi      *+fp(1),r0            ; |874| 
     5178 000007f8 15400301         sti       r0,*+fp(1)            ; |874| 
     5179 000007f9 04e00005         cmpi      5,r0                  ; |874| 
     5180 000007fa 6a07feca         blt       L180                  ; |874| 
     5181                   ;*      Branch Occurs to L180           ; |874| 
     5182 000007fb          L194:        
     5183                           .line   114
     5184                   ;----------------------------------------------------------------------
TMS320C3x/4x COFF AssemblerVersion 5.12     Wed Jul 24 11:03:43 2019
Copyright (c) 1987-1999 Texas Instruments Incorporatedasm30.exe -@_30G.AAB 

G:\workspace\EEA\V615\APP\SOURCE\ASM\adc.asm                         PAGE   97

     5185                   ; 924 | GIEP;                                                                  
     5186                   ;----------------------------------------------------------------------
     5187 000007fb 0e350000         pop             ST                      
     5188 000007fc          L195:        
     5189                           .line   115
     5190                                                           ; Begin Epilog Code
     5191 000007fc 50410b01         ldiu      *-fp(1),r1
     5192 000007fd 504bc300         ldiu      *fp,fp
     5193                                                           ; Restore SOE Registers
     5194 000007fe 0e2d0000         pop       ar5
     5195 000007ff 0e2c0000         pop       ar4
     5196 00000800 0e250000         pop       r5
     5197 00000801 0e240000         pop       r4
     5198                                                           ; Unallocate the Frame
     5199 00000802 1874000c         subi      12,sp
     5200 00000803 68000001         bu        r1
     5201                   ;*      Branch Occurs to r1 
     5202                           .endfunc        925,000003030h,10
     5203                   
     5204                   
     5205                   
     5206                           .global _ADC_INT
     5207 00000000                  .bss    _ADC_INT,12
     5208                           .sym    _ADC_INT,_ADC_INT,52,2,384,,12
     5209                   
     5210                           .global _ADC_ACTIVE
     5211 0000000c                  .bss    _ADC_ACTIVE,3
     5212                           .sym    _ADC_ACTIVE,_ADC_ACTIVE,62,2,96,,3
     5213                   
     5214                           .global _AI
     5215 00000000          _AI:    .usect  "CFG",1590,1
     5216                           .sym    _AI,_AI,56,2,50880,.fake15,5
     5217                   
     5218                           .global _TLV_REF
     5219 0000000f                  .bss    _TLV_REF,3
     5220                           .sym    _TLV_REF,_TLV_REF,52,2,96,,3
     5221                   ;******************************************************************************
     5222                   ;* CONSTANT TABLE                                                             *
     5223                   ;******************************************************************************
     5224 00000000                  .sect   ".const"
     5225 00000012                  .bss    CL1,1
     5226 00000013                  .bss    CL2,1
     5227 00000014                  .bss    CL3,1
     5228 00000015                  .bss    CL4,1
     5229 00000016                  .bss    CL5,1
     5230 00000017                  .bss    CL6,1
     5231 00000018                  .bss    CL7,1
     5232 00000019                  .bss    CL8,1
     5233 0000001a                  .bss    CL9,1
     5234 0000001b                  .bss    CL10,1
     5235 0000001c                  .bss    CL11,1
     5236 0000001d                  .bss    CL12,1
     5237 0000001e                  .bss    CL13,1
     5238 0000001f                  .bss    CL14,1
TMS320C3x/4x COFF AssemblerVersion 5.12     Wed Jul 24 11:03:43 2019
Copyright (c) 1987-1999 Texas Instruments Incorporatedasm30.exe -@_30G.AAB 

G:\workspace\EEA\V615\APP\SOURCE\ASM\adc.asm                         PAGE   98

     5239 00000020                  .bss    CL15,1
     5240 00000021                  .bss    CL16,1
     5241 00000022                  .bss    CL17,1
     5242 00000023                  .bss    CL18,1
     5243 00000024                  .bss    CL19,1
     5244 00000025                  .bss    CL20,1
     5245 00000026                  .bss    CL21,1
     5246 00000027                  .bss    CL22,1
     5247 00000028                  .bss    CL23,1
     5248 00000029                  .bss    CL24,1
     5249 0000002a                  .bss    CL25,1
     5250 0000002b                  .bss    CL26,1
     5251 0000002c                  .bss    CL27,1
     5252 0000002d                  .bss    CL28,1
     5253 0000002e                  .bss    CL29,1
     5254 0000002f                  .bss    CL30,1
     5255 00000030                  .bss    CL31,1
     5256 00000031                  .bss    CL32,1
     5257 00000032                  .bss    CL33,1
     5258 00000033                  .bss    CL34,1
     5259 00000034                  .bss    CL35,1
     5260 00000035                  .bss    CL36,1
     5261 00000036                  .bss    CL37,1
     5262 00000037                  .bss    CL38,1
     5263 00000038                  .bss    CL39,1
     5264 00000039                  .bss    CL40,1
     5265 0000003a                  .bss    CL41,1
     5266 0000003b                  .bss    CL42,1
     5267 0000003c                  .bss    CL43,1
     5268 0000003d                  .bss    CL44,1
     5269 0000003e                  .bss    CL45,1
     5270 0000003f                  .bss    CL46,1
     5271 00000040                  .bss    CL47,1
     5272 00000041                  .bss    CL48,1
     5273 00000042                  .bss    CL49,1
     5274 00000043                  .bss    CL50,1
     5275 00000044                  .bss    CL51,1
     5276 00000045                  .bss    CL52,1
     5277 00000046                  .bss    CL53,1
     5278 00000047                  .bss    CL54,1
     5279 00000048                  .bss    CL55,1
     5280 00000049                  .bss    CL56,1
     5281 0000004a                  .bss    CL57,1
     5282 0000004b                  .bss    CL58,1
     5283 0000004c                  .bss    CL59,1
     5284 0000004d                  .bss    CL60,1
     5285 0000004e                  .bss    CL61,1
     5286 0000004f                  .bss    CL62,1
     5287 00000050                  .bss    CL63,1
     5288 00000051                  .bss    CL64,1
     5289 00000052                  .bss    CL65,1
     5290 00000053                  .bss    CL66,1
     5291 00000054                  .bss    CL67,1
     5292 00000055                  .bss    CL68,1
TMS320C3x/4x COFF AssemblerVersion 5.12     Wed Jul 24 11:03:43 2019
Copyright (c) 1987-1999 Texas Instruments Incorporatedasm30.exe -@_30G.AAB 

G:\workspace\EEA\V615\APP\SOURCE\ASM\adc.asm                         PAGE   99

     5293 00000056                  .bss    CL69,1
     5294 00000057                  .bss    CL70,1
     5295 00000058                  .bss    CL71,1
     5296 00000059                  .bss    CL72,1
     5297 0000005a                  .bss    CL73,1
     5298 0000005b                  .bss    CL74,1
     5299 0000005c                  .bss    CL75,1
     5300 0000005d                  .bss    CL76,1
     5301 0000005e                  .bss    CL77,1
     5302 0000005f                  .bss    CL78,1
     5303 00000060                  .bss    CL79,1
     5304 00000061                  .bss    CL80,1
     5305 00000062                  .bss    CL81,1
     5306 00000063                  .bss    CL82,1
     5307 00000064                  .bss    CL83,1
     5308 00000065                  .bss    CL84,1
     5309 00000066                  .bss    CL85,1
     5310 00000067                  .bss    CL86,1
     5311 00000068                  .bss    CL87,1
     5312 00000069                  .bss    CL88,1
     5313 0000006a                  .bss    CL89,1
     5314 0000006b                  .bss    CL90,1
     5315 0000006c                  .bss    CL91,1
     5316                   
     5317 00000000                  .sect   ".cinit"
     5318 00000000 0000005b         .field          91,32
     5319 00000001 00000012-        .field          CL1+0,32
     5320 00000002 00000000!        .field          _READ_ADC_INPUTS,32
     5321 00000003 0000013c-        .field          _AI+316,32
     5322 00000004 00000000!        .field          _REG_ADC,32
     5323 00000005 00000000!        .field          _VAR_NaN,32
     5324 00000006 00000000-        .field          _ADC_INT,32
     5325 00000007 00000000!        .field          _SA,32
     5326 00000008 00000000!        .field          _RTD_R,32
     5327 00000009 00808048         .field          8421448,32
     5328 0000000a 0000a000         .field          40960,32
     5329 0000000b 00000000!        .field          _SP0_RX_DATA,32
     5330 0000000c 0080804c         .field          8421452,32
     5331 0000000d 0000a16a         .field          41322,32
     5332 0000000e 00900006         .field          9437190,32
     5333 0000000f 00000000!        .field          _HW_VER,32
     5334 00000010 00000299'        .field          _Write_TMP75,32
     5335 00000011 00000395'        .field          _Read_ADCn,32
     5336 00000012 0000000c-        .field          _ADC_ACTIVE,32
     5337 00000013 0000000d-        .field          _ADC_ACTIVE+1,32
     5338 00000014 0000000e-        .field          _ADC_ACTIVE+2,32
     5339 00000015 00000000'        .field          SW0,32
     5340 00000016 0000b000         .field          45056,32
     5341 00000017 0000000f-        .field          _TLV_REF,32
     5342 00000018 0000d000         .field          53248,32
     5343 00000019 00000010-        .field          _TLV_REF+1,32
     5344 0000001a 0000c000         .field          49152,32
     5345 0000001b 00000011-        .field          _TLV_REF+2,32
     5346 0000001c 0000e000         .field          57344,32
TMS320C3x/4x COFF AssemblerVersion 5.12     Wed Jul 24 11:03:43 2019
Copyright (c) 1987-1999 Texas Instruments Incorporatedasm30.exe -@_30G.AAB 

G:\workspace\EEA\V615\APP\SOURCE\ASM\adc.asm                         PAGE  100

     5347 0000001d 00000002-        .field          _ADC_INT+2,32
     5348 0000001e 00000002!        .field          _ADC_TRIM_F_1+2,32
     5349 0000001f 00000002!        .field          _ADC_TRIM_I_1+2,32
     5350 00000020 00000000!        .field          _RTD_CAL_HI_OHM,32
     5351 00000021 00000000!        .field          _RTD_CAL_LO_OHM,32
     5352 00000022 00000000!        .field          _RTD_CAL_HI_V,32
     5353 00000023 00000000!        .field          _RTD_CAL_LO_V,32
     5354 00000024 011551a8         .word           0011551A8H ; double  2.333109000000000e+00
     5355 00000025 f6108a26         .word           0F6108A26H ; double  1.102750000000000e-03
     5356 00000026 078bb000         .word           0078BB000H ; double  -2.443125000000000e+02
     5357 00000027 00000000!        .field          _TEMPERATURE_TRIM_T0,32
     5358 00000028 00000000!        .field          _TEMPERATURE_TRIM_T1,32
     5359 00000029 00000058!        .field          _REG_ADC+88,32
     5360 0000002a 00000000!        .field          _VAR_Update,32
     5361 0000002b 0000000a-        .field          _ADC_INT+10,32
     5362 0000002c 0000000a!        .field          _ADC_TRIM_F_1+10,32
     5363 0000002d 0000000a!        .field          _ADC_TRIM_I_1+10,32
     5364 0000002e 0736263d         .word           00736263DH ; double  1.821493625000000e+02
     5365 0000002f 08089333         .word           008089333H ; double  2.731500000000000e+02
     5366 00000030 000001b8!        .field          _REG_ADC+440,32
     5367 00000031 0000000b-        .field          _ADC_INT+11,32
     5368 00000032 0000000b!        .field          _ADC_TRIM_F_1+11,32
     5369 00000033 0000000b!        .field          _ADC_TRIM_I_1+11,32
     5370 00000034 000001e4!        .field          _REG_ADC+484,32
     5371 00000035 00000001-        .field          _ADC_INT+1,32
     5372 00000036 00000001!        .field          _ADC_TRIM_F_1+1,32
     5373 00000037 00000001!        .field          _ADC_TRIM_I_1+1,32
     5374 00000038 0000002c!        .field          _REG_ADC+44,32
     5375 00000039 00000000!        .field          _ADC_TRIM_F_1,32
     5376 0000003a 00000000!        .field          _ADC_TRIM_I_1,32
     5377 0000003b 00900002         .field          9437186,32
     5378 0000003c 00000000!        .field          _I2C_TX_BYTE,32
     5379 0000003d 00000000!        .field          _I2C_RX_BYTE,32
     5380 0000003e 00000315'        .field          _Read_TMP75,32
     5381 0000003f fc000000         .word           0FC000000H ; double  6.250000000000000e-02
     5382 00000040 000001b3'        .field          _Write_ADC_DAC,32
     5383 00000041 00000222'        .field          _Read_ADC_DAC,32
     5384 00000042 ffff0000         .field          -65536,32
     5385 00000043 0000063d'        .field          SW1,32
     5386 00000044 00000000-        .field          _AI,32
     5387 00000045 00060000         .field          393216,32
     5388 00000046 00000000!        .field          _VAR_Get_Unit_Param,32
     5389 00000047 00050000         .field          327680,32
     5390 00000048 00000135-        .field          _AI+309,32
     5391 00000049 00000134-        .field          _AI+308,32
     5392 0000004a 0000002c-        .field          _AI+44,32
     5393 0000004b 00000136-        .field          _AI+310,32
     5394 0000004c 00000000!        .field          _HART_DVINPUT_Table,32
     5395 0000004d 00000000!        .field          _HART_Lookup,32
     5396 0000004e 00000000!        .field          _REG_DUMMY,32
     5397 0000004f 00000003-        .field          _AI+3,32
     5398 00000050 00000138-        .field          _AI+312,32
     5399 00000051 00000065-        .field          _AI+101,32
     5400 00000052 0000013a-        .field          _AI+314,32
TMS320C3x/4x COFF AssemblerVersion 5.12     Wed Jul 24 11:03:43 2019
Copyright (c) 1987-1999 Texas Instruments Incorporatedasm30.exe -@_30G.AAB 

G:\workspace\EEA\V615\APP\SOURCE\ASM\adc.asm                         PAGE  101

     5401 00000053 00000058-        .field          _AI+88,32
     5402 00000054 0000005e-        .field          _AI+94,32
     5403 00000055 00000000!        .field          _Convert,32
     5404 00000056 00000091-        .field          _AI+145,32
     5405 00000057 00000084-        .field          _AI+132,32
     5406 00000058 0000008a-        .field          _AI+138,32
     5407 00000059 0000013d-        .field          _AI+317,32
     5408 0000005a 00000108-        .field          _AI+264,32
     5409 0000005b 00000000!        .field          _REG_STREAM_SELECT,32
     5410 0000005c 00000000!        .field          _round,32
     5411                   
     5412 00000804                  .sect   ".text"
     5413                   ;******************************************************************************
     5414                   ;* UNDEFINED EXTERNAL REFERENCES                                              *
     5415                   ;******************************************************************************
     5416                   
     5417                           .global _VAR_Get_Unit_Param
     5418                   
     5419                           .global _VAR_NaN
     5420                   
     5421                           .global _VAR_Update
     5422                   
     5423                           .global _Convert
     5424                   
     5425                           .global _I2C_RX_BYTE
     5426                   
     5427                           .global _I2C_TX_BYTE
     5428                   
     5429                           .global _SP0_RX_DATA
     5430                   
     5431                           .global _SA
     5432                   
     5433                           .global _READ_ADC_INPUTS
     5434                   
     5435                           .global _HW_VER
     5436                   
     5437                           .global _TEMPERATURE_TRIM_T0
     5438                   
     5439                           .global _TEMPERATURE_TRIM_T1
     5440                   
     5441                           .global _RTD_CAL_LO_OHM
     5442                   
     5443                           .global _RTD_CAL_HI_OHM
     5444                   
     5445                           .global _RTD_CAL_LO_V
     5446                   
     5447                           .global _RTD_CAL_HI_V
     5448                   
     5449                           .global _RTD_R
     5450                   
     5451                           .global _REG_DUMMY
     5452                   
     5453                           .global _REG_STREAM_SELECT
     5454                   
TMS320C3x/4x COFF AssemblerVersion 5.12     Wed Jul 24 11:03:43 2019
Copyright (c) 1987-1999 Texas Instruments Incorporatedasm30.exe -@_30G.AAB 

G:\workspace\EEA\V615\APP\SOURCE\ASM\adc.asm                         PAGE  102

     5455                           .global _REG_ADC
     5456                   
     5457                           .global _ADC_TRIM_F_1
     5458                   
     5459                           .global _ADC_TRIM_I_1
     5460                   
     5461                           .global _HART_Lookup
     5462                   
     5463                           .global _HART_DVINPUT_Table
     5464                   
     5465                           .global _round
     5466                           .global DIV_F30

 No Errors,  No Warnings
TMS320C3x/4x COFF AssemblerVersion 5.12     Wed Jul 24 11:03:43 2019
Copyright (c) 1987-1999 Texas Instruments Incorporatedasm30.exe -@_30G.AAB 

G:\workspace\EEA\V615\APP\SOURCE\ASM\adc.asm                         PAGE  103

LABEL                            VALUE       DEFN    REF

.BIGMODEL                        00000001       0 
.C30                             00000000       0 
.C30INTERRUPT                    00000000       0 
.C31                             00000000       0 
.C32                             00000000       0 
.C33                             00000001       0 
.C3X                             00000001       0 
.C3x                             00000001       0 
.C40                             00000000       0 
.C44                             00000000       0 
.C4X                             00000000       0 
.C4x                             00000000       0 
.REGPARM                         00000001       0 
.TMS320C30                       00000001       0 
.TMS320C31                       00000000       0 
.TMS320C32                       00000000       0 
.TMS320C40                       00000000       0 
.TMS320C44                       00000000       0 
.TMS320xx                        00000021       0 
.tms320C30                       00000001       0 
.tms320C31                       00000000       0 
.tms320C32                       00000000       0 
.tms320C40                       00000000       0 
.tms320C44                       00000000       0 
.tms320xx                        00000021       0 
.tmx320C40                       00000000       0 
CL1                              00000012-   5225    757    758   1894   1895 
                                                    4566   4567   5319 
CL10                             0000001b-   5234    854    855    865    866 
                                                     890    892    901    903 
                                                    1344   1346   1355   1356 
                                                    1364   1382   1384   1393 
                                                    1395   1402   1420   1422 
                                                    1431   1433   1440   1546 
                                                    1548   1557   1558   1567 
                                                    1999   2001   2010   2011 
CL11                             0000001c-   5235    852    853    863    864 
                                                     888    889    899    900 
                                                    1342   1343   1353   1354 
                                                    1380   1381   1391   1392 
                                                    1418   1419   1429   1430 
                                                    1544   1545   1555   1556 
                                                    1997   1998   2008   2009 
CL12                             0000001d-   5236    881    882 
CL13                             0000001e-   5237    912    913 
CL14                             0000001f-   5238    940    941   1704   1705 
                                                    4480   4481 
CL15                             00000020-   5239    960    964    988    992 
                                                    1017   1018   1069   1073 
                                                    1097   1101   1126   1127 
                                                    2871   2872 
TMS320C3x/4x COFF AssemblerVersion 5.12     Wed Jul 24 11:03:43 2019
Copyright (c) 1987-1999 Texas Instruments Incorporatedasm30.exe -@_30G.AAB 

G:\workspace\EEA\V615\APP\SOURCE\ASM\adc.asm                         PAGE  104

LABEL                            VALUE       DEFN    REF

CL16                             00000021-   5240   1158   1161   1186   1189 
                                                    1214   1217   1240   1243 
                                                    4501   4504   4533   4536 
                                                    4556   4558   4689   4691 
CL17                             00000022-   5241   1168   1169   4553   4555 
                                                    4578   4579   4591   4593 
                                                    4602   4603   4618   4620 
                                                    4629   4630   4646   4648 
                                                    4657   4658   4686   4688 
CL18                             00000023-   5242   1196   1197 
CL19                             00000024-   5243   1224   1225 
CL2                              00000013-   5226    777    779   3705   3707 
                                                    3760   3762   3782   3784 
                                                    4003   4006   4050   4053 
                                                    4065   4067   4226   4229 
                                                    4273   4276   4288   4290 
                                                    4718   4720 
CL20                             00000025-   5244   1263   1264 
CL21                             00000026-   5245   1339   1340 
CL22                             00000027-   5246   1365   1366 
CL23                             00000028-   5247   1377   1378 
CL24                             00000029-   5248   1403   1405 
CL25                             0000002a-   5249   1415   1416 
CL26                             0000002b-   5250   1441   1443 
CL27                             0000002c-   5251   1537   1538 
CL28                             0000002d-   5252   1587   1589   1597 
CL29                             0000002e-   5253   1598   1599 
CL3                              00000014-   5227    789    791   1879   1881 
                                                    3164   3166   3219   3221 
                                                    3347   3349   3383   3385 
                                                    3555   3560   3684   3686 
                                                    3739   3741   3865   3866 
                                                    3991   3993   4038   4040 
                                                    4148   4151   4214   4216 
                                                    4261   4263   4360   4363 
                                                    4769   4771 
CL30                             0000002f-   5254   1600   1602 
CL31                             00000030-   5255   1617   1618   1627   1628 
                                                    3483   3484   3493   3494 
CL32                             00000031-   5256   1615   1616   1631   1632 
                                                    3481   3482   3497   3498 
CL33                             00000032-   5257   1621   1622   1633   1634 
                                                    1640   1642   3487   3488 
                                                    3499   3500   3503   3505 
CL34                             00000033-   5258   1619   1620   1629   1630 
                                                    1635   1636   3485   3486 
                                                    3495   3496   3501   3502 
CL35                             00000034-   5259   1664   1666   3530   3532 
CL36                             00000035-   5260   1661   1663   3526   3528 
CL37                             00000036-   5261   1668   1670   3533   3535 
CL38                             00000037-   5262   1679   1681   3543   3544 
TMS320C3x/4x COFF AssemblerVersion 5.12     Wed Jul 24 11:03:43 2019
Copyright (c) 1987-1999 Texas Instruments Incorporatedasm30.exe -@_30G.AAB 

G:\workspace\EEA\V615\APP\SOURCE\ASM\adc.asm                         PAGE  105

LABEL                            VALUE       DEFN    REF

CL39                             00000038-   5263   1677   1678   3541   3542 
CL4                              00000015-   5228    792    793   3167   3168 
                                                    3350   3351   3386   3387 
                                                    3687   3688   3742   3743 
                                                    3994   3995   4041   4042 
                                                    4217   4218   4264   4265 
                                                    4903   4905 
CL40                             00000039-   5264   1689   1691 
CL41                             0000003a-   5265   1694   1696   1755   1758 
                                                    1798   1801   1841   1843 
                                                    1883   1885   3222   3224 
                                                    3562   3564   3867   3871 
                                                    4152   4154   4365   4367 
                                                    4811   4814   4846   4848 
                                                    5050   5055   5164   5170 
CL42                             0000003b-   5266   1715   1717   1726 
CL43                             0000003c-   5267   1727   1728 
CL44                             0000003d-   5268   1729   1731 
CL45                             0000003e-   5269   1741   1742 
CL46                             0000003f-   5270   1743   1744 
CL47                             00000040-   5271   1751   1753 
CL48                             00000041-   5272   1770   1772   1780 
CL49                             00000042-   5273   1781   1782 
CL5                              00000016-   5229    800    801   1854   1856 
                                                    1864   3180   3186   3196 
                                                    3197   3207   3412   3418 
                                                    3429   3439   3440   3452 
                                                    3454   3806   3812   3822 
                                                    3832   3833   3844   3846 
                                                    4088   4094   4104   4114 
                                                    4115   4126   4128   4302 
                                                    4305   4317   4327   4328 
                                                    4339   4341 
CL50                             00000043-   5274   1783   1785 
CL51                             00000044-   5275   1795   1797 
CL52                             00000045-   5276   1812   1814   1822 
CL53                             00000046-   5277   1823   1824 
CL54                             00000047-   5278   1825   1827 
CL55                             00000048-   5279   1838   1840 
CL56                             00000049-   5280   1865   1866   3455   3456 
                                                    3847   3849   4129   4131 
                                                    4342   4344 
CL57                             0000004a-   5281   1867   1869   3458   3460 
                                                    3850   3852   4132   4134 
                                                    4345   4347 
CL58                             0000004b-   5282   2119   2120   2249   2250 
                                                    2355   2356   2484   2485 
                                                    2595   2596   2755   2756 
                                                    2899   2900   3031   3032 
CL59                             0000004c-   5283   2162   2164   2202   2205 
                                                    2399   2401   2638   2640 
                                                    2668   2670   2708   2711 
                                                    2942   2944 
TMS320C3x/4x COFF AssemblerVersion 5.12     Wed Jul 24 11:03:43 2019
Copyright (c) 1987-1999 Texas Instruments Incorporatedasm30.exe -@_30G.AAB 

G:\workspace\EEA\V615\APP\SOURCE\ASM\adc.asm                         PAGE  106

LABEL                            VALUE       DEFN    REF

CL6                              00000017-   5230    809    810   1320   1321 
                                                    1500   1501   1949   1950 
                                                    4474   4475   4511   4512 
CL60                             0000004d-   5284   2443   2445   2465   2467 
                                                    3006   3009 
CL61                             0000004e-   5285   3142   3146 
CL62                             0000004f-   5286   3209   3211 
CL63                             00000050-   5287   3326   3330   3664   3668 
                                                    3971   3975   4194   4198 
CL64                             00000051-   5288   3361   3365   3718   3722 
                                                    4017   4021   4240   4244 
CL65                             00000052-   5289   3441   3443   3834   3836 
                                                    4116   4118   4329   4331 
CL66                             00000053-   5290   4389   4390 
CL67                             00000054-   5291   4736   4738   4753   4755 
                                                    4815   4819   4829   4831 
                                                    5025   5027 
CL68                             00000055-   5292   4739   4741 
CL69                             00000056-   5293   4733   4735   4750   4752 
CL7                              00000018-   5231    830    831   1149   1150 
                                                    1653   1654   3519   3520 
CL70                             00000057-   5294   4756   4758 
CL71                             00000058-   5295   4781   4782 
CL72                             00000059-   5296   4779   4780   4798   4800 
CL73                             0000005a-   5297   4843   4845 
CL74                             0000005b-   5298   4861   4863 
CL75                             0000005c-   5299   4869   4870 
CL76                             0000005d-   5300   4866   4868 
CL77                             0000005e-   5301   4882   4883 
CL78                             0000005f-   5302   4891   4893 
CL79                             00000060-   5303   4929   4930   4976   4977 
CL8                              00000019-   5232    843    844    879    880 
                                                    1337   1338   1375   1376 
                                                    1413   1414   1535   1536 
                                                    1989   1990 
CL80                             00000061-   5304   4932   4934 
CL81                             00000062-   5305   4924   4925   4972   4973 
                                                    5064   5066 
CL82                             00000063-   5306   4920   4923 
CL83                             00000064-   5307   4926   4927 
CL84                             00000065-   5308   4950   4952   4991   4993 
                                                    5068   5073 
CL85                             00000066-   5309   4978   4979 
CL86                             00000067-   5310   4969   4971 
CL87                             00000068-   5311   4974   4975 
CL88                             00000069-   5312   5038   5040 
CL89                             0000006a-   5313   5047   5049 
CL9                              0000001a-   5233    845    846 
CL90                             0000006b-   5314   5091   5093   5138   5139 
CL91                             0000006c-   5315   5132   5135 
TMS320C3x/4x COFF AssemblerVersion 5.12     Wed Jul 24 11:03:43 2019
Copyright (c) 1987-1999 Texas Instruments Incorporatedasm30.exe -@_30G.AAB 

G:\workspace\EEA\V615\APP\SOURCE\ASM\adc.asm                         PAGE  107

LABEL                            VALUE       DEFN    REF

DIV_F30                          REF                1605   1625   1645   1734 
                                                    1788   1830   1872   3463 
                                                    3491   3511   3855   4138 
                                                    4351   4790   4835   5017 
                                                    5466 
FP                               0000000b       7 
L10                              00000099+   1032    823 
L100                             000003e6'   3279   3269 
L102                             000003eb'   3294   3260   3277   3286 
L105                             00000409'   3356   3301 
L107                             0000041b'   3392   3375 
L110                             0000043b'   3446   3433 
L112                             00000482'   3549   3472 
L113                             00000490'   3577   4398   4399   4400 
L115                             00000498'   3600   3590 
L117                             0000049e'   3617   3607 
L119                             000004a3'   3632   3598   3615   3624 
L12                              0000009e+   1041    933    944   1030 
L123                             000004cb'   3713   3639 
L126                             000004e7'   3768   3732 
L128                             000004f1'   3788   3775 
L131                             00000511'   3839   3826 
L132                             0000052b'   3884   4401   4402   4403 
L134                             00000533'   3907   3897 
L136                             00000539'   3924   3914 
L138                             0000053e'   3939   3905   3922   3931 
L14                              000000a0+   1055   1279 
L141                             00000563'   4012   3946 
L143                             0000057c'   4059   4031 
L146                             000005a3'   4121   4108 
L147                             000005be'   4165   4404 
L15                              000000cd+   1142   1271 
L150                             000005e0'   4235   4178 
L152                             000005f9'   4282   4254 
L154                             0000061a'   4334   4321 
L156                             00000636'   4383   3135 
L158                             00000648'   4408   3171   3237   3339   3354 
                                                    3390   3403   3575   3677 
                                                    3697   3711   3752   3766 
                                                    3798   3882   3984   4010 
                                                    4057   4080   4163   4207 
                                                    4233   4280   4377   4387 
L16                              000000d1+   1153   1269   1270 
L163                             00000660'   4490   4478 
L165                             0000066e'   4528   4515 
L166                             00000677'   4548   4700 
L167                             0000068b'   4586   4677 
L169                             00000696'   4613   4674 
L17                              000000db+   1181   1272   1273   1274 
L171                             000006a1'   4641   4671   4679 
L174                             000006ac'   4667   4584 
TMS320C3x/4x COFF AssemblerVersion 5.12     Wed Jul 24 11:03:43 2019
Copyright (c) 1987-1999 Texas Instruments Incorporatedasm30.exe -@_30G.AAB 

G:\workspace\EEA\V615\APP\SOURCE\ASM\adc.asm                         PAGE  108

LABEL                            VALUE       DEFN    REF

L178                             000006b4'   4681   4596   4611   4623   4639 
                                                    4651   4665 
L179                             000006c1'   4702   4546 
L18                              000000e5+   1209   1275   1276   1277 
L180                             000006c5'   4712   5180 
L185                             00000744'   4910   4896 
L188                             000007d3'   5110   5102 
L19                              000000ef+   1235   1278 
L190                             000007d8'   5126   5117 
L192                             000007ec'   5158   5094 
L193                             000007f6'   5174   4723   4880   4884   4908 
                                                    5152 
L194                             000007fb'   5182   4710 
L195                             000007fc'   5188   4484   4526 
L21                              000000f5+   1257    813 
L23                              000000fc+   1282   1053   1140   1179   1207 
                                                    1233   1251   1261 
L27                              0000006f'   1451   1324 
L31                              00000084'   1525   1579 
L32                              000000a9'   1581   1523 
L34                              0000011e'   1764   1708 
L35                              00000138'   1806   1762 
L36                              00000172'   1903   1504 
L4                               00000014+    783    767    770 
L40                              00000188'   1979   2037 
L41                              000001a3'   2024   2029 
L42                              000001a8'   2031   2022 
L43                              000001ad'   2039   1977 
L44                              000001af'   2050   1953 
L48                              000001e7'   2187   2173 
L49                              000001eb'   2197   2235 
L51                              000001f7'   2229   2215 
L54                              000001fd'   2244   2185   2195   2227   2241 
L59                              00000257'   2424   2410 
L6                               00000028+    825   1036 
L60                              0000025e'   2437   2457 
L61                              0000026c'   2459   2435 
L63                              00000274'   2479   2422   2476 
L68                              000002cf'   2663   2649 
L7                               00000067+    935   1039 
L70                              000002d9'   2693   2679 
L71                              000002dd'   2703   2741 
L73                              000002e9'   2735   2721 
L76                              000002ef'   2750   2661   2691   2701   2733 
                                                    2747 
L81                              0000032a'   2893   2877 
L83                              00000356'   2967   2953 
L84                              0000035c'   2983   3017 
L86                              00000363'   3000   2992 
L89                              0000036f'   3026   2965   2981   3023 
L90                              00000391'   3073   2888 
TMS320C3x/4x COFF AssemblerVersion 5.12     Wed Jul 24 11:03:43 2019
Copyright (c) 1987-1999 Texas Instruments Incorporatedasm30.exe -@_30G.AAB 

G:\workspace\EEA\V615\APP\SOURCE\ASM\adc.asm                         PAGE  109

LABEL                            VALUE       DEFN    REF

L93                              0000039e'   3137   4405 
L95                              000003b0'   3173   3156 
L96                              000003d8'   3239   4395   4396   4397 
L98                              000003e0'   3262   3252 
SW0                              00000000'   1269   5339 
SW1                              0000063d'   4395   5385 
_ADC_ACTIVE                      0000000c-   5211   5210   5212   5212   5336 
                                                    5337   5338 
_ADC_INT                         00000000-   5207   5206   5208   5208   5324 
                                                    5347   5361   5367   5371 
_ADC_TRIM_F_1                    REF                5348   5362   5368   5372 
                                                    5375   5457 
_ADC_TRIM_I_1                    REF                5349   5363   5369   5373 
                                                    5376   5459 
_ADC_UPDATE                      0000064f'   4440   4426   4427   4427 
_AI                              00000000-   5215   5214   5216   5216   5321 
                                                    5386   5390   5391   5392 
                                                    5393   5397   5398   5399 
                                                    5400   5401   5402   5404 
                                                    5405   5406   5407   5408 
_Convert                         REF                5403   5423 
_Convert_ADC                     00000179'   1934   1921   1922   1922 
_HART_DVINPUT_Table              REF                5394   5463 
_HART_Lookup                     REF                5395   5461 
_HW_VER                          REF                5333   5435 
_I2C_RX_BYTE                     REF                5379   5425 
_I2C_TX_BYTE                     REF                5378   5427 
_READ_ADC_INPUTS                 REF                5320   5433 
_REG_ADC                         REF                5322   5359   5366   5370 
                                                    5374   5455 
_REG_DUMMY                       REF                5396   5451 
_REG_STREAM_SELECT               REF                5409   5453 
_RTD_CAL_HI_OHM                  REF                5350   5443 
_RTD_CAL_HI_V                    REF                5352   5447 
_RTD_CAL_LO_OHM                  REF                5351   5441 
_RTD_CAL_LO_V                    REF                5353   5445 
_RTD_R                           REF                5326   5449 
_Read_ADC_DAC                    00000222'   2312   2299   2300   2300   5383 
_Read_ADC_FIFO                   00000073'   1479   1465   1466   1466 
_Read_ADC_test                   0000000b'   1309   1296   1297   1297 
_Read_ADCn                       00000395'   3101   3087   3088   3088   5335 
_Read_TMP75                      00000315'   2823   2810   2811   2811   5380 
_SA                              REF                5325   5431 
_SP0_RX_DATA                     REF                5329   5429 
_Setup_ADC                       00000000+    734    721    722    722 
_TEMPERATURE_TRIM_T0             REF                5357   5437 
_TEMPERATURE_TRIM_T1             REF                5358   5439 
_TLV_REF                         0000000f-   5219   5218   5220   5220   5341 
                                                    5343   5345 
_VAR_Get_Unit_Param              REF                5388   5417 
_VAR_NaN                         REF                5323   5419 
TMS320C3x/4x COFF AssemblerVersion 5.12     Wed Jul 24 11:03:43 2019
Copyright (c) 1987-1999 Texas Instruments Incorporatedasm30.exe -@_30G.AAB 

G:\workspace\EEA\V615\APP\SOURCE\ASM\adc.asm                         PAGE  110

LABEL                            VALUE       DEFN    REF

_VAR_Update                      REF                5360   5421 
_Write_ADC_DAC                   000001b3'   2077   2064   2065   2065   5382 
_Write_TMP75                     00000299'   2547   2534   2535   2535   5334 
_round                           REF                5410   5465 
fp                               0000000b       6   3944   3952   3960   3962 
                                                    3970   3974   3978   3990 
                                                    4004   4018   4019   4025 
                                                    4037   4051   4064   4075 
                                                    4077   4079   4086   4087 
                                                    4091   4105   4117   4127 
                                                    4140   4146   4171   4176 
                                                    4184   4193   4197   4201 
                                                    4213   4227   4241   4242 
                                                    4248   4260   4274   4287 
                                                    4299   4303   4309   4318 
                                                    4330   4340   4353   4361 
                                                    4385   4411   4412   4412 
                                                    4463   4464   4544   4554 
                                                    4580   4592   4619   4647 
                                                    4669   4687   4697   4698 
                                                    4708   4717   4734   4745 
                                                    4751   4762   4767   4774 
                                                    4783   4785   4788   4792 
                                                    4797   4802   4803   4804 
                                                    4805   4816   4827   4830 
                                                    4834   4837   4842   4849 
                                                    4862   4865   4874   4890 
                                                    4904   4916   4959   4965 
                                                    5008   5013   5014   5015 
                                                    5016   5019   5024   5028 
                                                    5030   5031   5032   5037 
                                                    5046   5053   5065   5067 
                                                    5074   5085   5092   5100 
                                                    5109   5115   5125   5133 
                                                    5163   5168   5177   5178 
                                                    5191   5192   5192 
