TMS320C3x/4x COFF AssemblerVersion 5.12     Mon Jan 31 16:14:26 2022
Copyright (c) 1987-1999 Texas Instruments Incorporatedasm30.exe -@_BR8.AAB 

Y:\workspace_eea\V615\APP\SOURCE\ASM\api.asm                         PAGE    1

        1                   ;******************************************************************************
        2                   ;* TMS320C3x/4x ANSI C Code Generator                            Version 5.11 *
        3                   ;* Date/Time created: Mon Jan 31 16:14:26 2022                                *
        4                   ;******************************************************************************
        5                           .regalias       ; enable floating point register aliases
        6          0000000b fp      .set    ar3
        7          0000000b FP      .set    ar3
        8                   ;******************************************************************************
        9                   ;* GLOBAL FILE PARAMETERS                                                     *
       10                   ;*                                                                            *
       11                   ;*   Optimization       : Always Choose Smaller Code Size                     *
       12                   ;*   Memory             : Big Memory Model                                    *
       13                   ;*   Float-to-Int       : Normal Conversions (round toward zero)              *
       14                   ;*   Multiply           : in Software (32 bits)                               *
       15                   ;*   Memory Info        : Unmapped Memory Exists                              *
       16                   ;*   Repeat Loops       : Use RPTS and/or RPTB                                *
       17                   ;*   Calls              : Normal Library ASM calls                            *
       18                   ;*   Debug Info         : Standard TI Debug Information                       *
       19                   ;******************************************************************************
       20                   ;       C:\tic3x4x\c3x4x\cgtools\bin\ac30.exe -@_BR8.AAA 
       21                           .file   "api.c"
       22                           .file   "Y:\workspace_eea\V615\APP\SOURCE\INCLUDE\GLBLS.H"
       23                           .file   "Y:\workspace_eea\V615\INCLUDE\stdarg.h"
       24                           .sym    _va_list,0,18,13,32
       25                           .file   "Y:\workspace_eea\V615\INCLUDE\format.h"
       26                           .stag   .fake0,128
       27                           .member _flags,0,14,8,32
       28                           .member _fwidth,32,4,8,32
       29                           .member _precision,64,4,8,32
       30                           .member _conv,96,2,8,32
       31                           .eos
       32                           .sym    __PFIELD,0,8,13,128,.fake0
       33                           .stag   .fake1,3200
       34                           .member _flags,0,14,8,32
       35                           .member _fwidth,32,4,8,32
       36                           .member _precision,64,4,8,32
       37                           .member _scanset,96,50,8,3072,,96
       38                           .member _conv,3168,2,8,32
       39                           .eos
       40                           .sym    __SFIELD,0,8,13,3200,.fake1
       41                           .file   "Y:\workspace_eea\V615\INCLUDE\string.h"
       42                           .sym    _size_t,0,14,13,32
       43                           .file   "Y:\workspace_eea\V615\INCLUDE\stdio.h"
       44                           .stag   .fake2,224
       45                           .member _fd,0,4,8,32
       46                           .member _buf,32,28,8,32
       47                           .member _pos,64,28,8,32
       48                           .member _bufend,96,28,8,32
       49                           .member _buff_stop,128,28,8,32
       50                           .member _flags,160,14,8,32
       51                           .member _index,192,4,8,32
       52                           .eos
       53                           .sym    _FILE,0,8,13,224,.fake2
       54                           .sym    _fpos_t,0,5,13,32
TMS320C3x/4x COFF AssemblerVersion 5.12     Mon Jan 31 16:14:26 2022
Copyright (c) 1987-1999 Texas Instruments Incorporatedasm30.exe -@_BR8.AAB 

Y:\workspace_eea\V615\APP\SOURCE\ASM\api.asm                         PAGE    2

       55                           .stag   .fake3,544
       56                           .member _name,0,50,8,288,,9
       57                           .member _flags,288,13,8,32
       58                           .member _OPEN,320,148,8,32
       59                           .member _CLOSE,352,148,8,32
       60                           .member _READ,384,148,8,32
       61                           .member _WRITE,416,148,8,32
       62                           .member _LSEEK,448,149,8,32
       63                           .member _UNLINK,480,148,8,32
       64                           .member _RENAME,512,148,8,32
       65                           .eos
       66                           .sym    __DEVICE,0,8,13,544,.fake3
       67                           .file   "Y:\workspace_eea\V615\INCLUDE\stdlib.h"
       68                           .sym    _wchar_t,0,2,13,32
       69                           .stag   __div_t,64
       70                           .member _quot,0,4,8,32
       71                           .member _rem,32,4,8,32
       72                           .eos
       73                           .sym    _div_t,0,8,13,64,__div_t
       74                           .sym    _ldiv_t,0,8,13,64,__div_t
       75                           .file   "Y:\workspace_eea\V615\INCLUDE\math.h"
       76                           .file   "Y:\workspace_eea\V615\INCLUDE\time.h"
       77                           .sym    _clock_t,0,15,13,32
       78                           .sym    _time_t,0,15,13,32
       79                           .stag   _tm,288
       80                           .member _tm_sec,0,4,8,32
       81                           .member _tm_min,32,4,8,32
       82                           .member _tm_hour,64,4,8,32
       83                           .member _tm_mday,96,4,8,32
       84                           .member _tm_mon,128,4,8,32
       85                           .member _tm_year,160,4,8,32
       86                           .member _tm_wday,192,4,8,32
       87                           .member _tm_yday,224,4,8,32
       88                           .member _tm_isdst,256,4,8,32
       89                           .eos
       90                           .stag   _tmzone,320
       91                           .member _daylight,0,3,8,32
       92                           .member _timezone,32,5,8,32
       93                           .member _tzname,64,50,8,128,,4
       94                           .member _dstname,192,50,8,128,,4
       95                           .eos
       96                           .file   "Y:\workspace_eea\V615\INCLUDE\ETC.H"
       97                           .sym    _BOOL,0,14,13,32
       98                           .file   "Y:\workspace_eea\V615\INCLUDE\LIST.H"
       99                           .stag   .fake4,96
      100                           .member _head,0,20,8,32
      101                           .member _tail,32,20,8,32
      102                           .member _n,64,4,8,32
      103                           .eos
      104                           .sym    _LIST,0,8,13,96,.fake4
      105                           .stag   .fake5,64
      106                           .member _prev,0,20,8,32
      107                           .member _next,32,20,8,32
      108                           .eos
TMS320C3x/4x COFF AssemblerVersion 5.12     Mon Jan 31 16:14:26 2022
Copyright (c) 1987-1999 Texas Instruments Incorporatedasm30.exe -@_BR8.AAB 

Y:\workspace_eea\V615\APP\SOURCE\ASM\api.asm                         PAGE    3

      109                           .sym    _GENERIC,0,8,13,64,.fake5
      110                           .file   "Y:\workspace_eea\V615\APP\SOURCE\INCLUDE\VARIABLE.H"
      111                           .stag   .fake6,1408
      112                           .member _val,0,6,8,32
      113                           .member _vect1,32,20,8,32
      114                           .member _vect2,64,20,8,32
      115                           .member _STAT,96,4,8,32
      116                           .member _dampening,128,6,8,32
      117                           .member _damp_count,160,4,8,32
      118                           .member _aux,192,4,8,32
      119                           .member _val1,224,6,8,32
      120                           .member _val2,256,6,8,32
      121                           .member _calc_val,288,11,8,64
      122                           .member _base_val,352,11,8,64
      123                           .member _unit,416,4,8,32
      124                           .member _calc_unit,448,4,8,32
      125                           .member _class,480,4,8,32
      126                           .member _scale,512,6,8,32
      127                           .member _scale_long,544,6,8,32
      128                           .member _bound_hi_set,576,6,8,32
      129                           .member _bound_lo_set,608,6,8,32
      130                           .member _alarm_hi_set,640,6,8,32
      131                           .member _alarm_lo_set,672,6,8,32
      132                           .member _name,704,50,8,672,,21
      133                           .member _name_r,1376,4,8,32
      134                           .eos
      135                           .sym    _VAR,0,8,13,1408,.fake6
      136                           .stag   .fake7,96
      137                           .member _val,0,14,8,32
      138                           .member _vect,32,20,8,32
      139                           .member _vect2,64,20,8,32
      140                           .eos
      141                           .sym    _COIL,0,8,13,96,.fake7
      142                           .stag   .fake8,64
      143                           .member _val,0,4,8,32
      144                           .member _vect,32,20,8,32
      145                           .eos
      146                           .sym    _REGVECT,0,8,13,64,.fake8
      147                           .stag   .fake9,96
      148                           .member _prev,0,20,8,32
      149                           .member _next,32,20,8,32
      150                           .member _v,64,24,8,32,.fake6
      151                           .eos
      152                           .sym    _DPKT,0,8,13,96,.fake9
      153                           .file   "Y:\workspace_eea\V615\APP\SOURCE\INCLUDE\BUFFER.H"
      154                           .stag   .fake10,9824
      155                           .member _head,0,4,8,32
      156                           .member _tail,32,4,8,32
      157                           .member _n,64,4,8,32
      158                           .member _GSEED,96,14,8,32
      159                           .member _CRC16,128,14,8,32
      160                           .member _buff,160,62,8,9600,,300
      161                           .member _sum,9760,4,8,32
      162                           .member _locked,9792,14,8,32
TMS320C3x/4x COFF AssemblerVersion 5.12     Mon Jan 31 16:14:26 2022
Copyright (c) 1987-1999 Texas Instruments Incorporatedasm30.exe -@_BR8.AAB 

Y:\workspace_eea\V615\APP\SOURCE\ASM\api.asm                         PAGE    4

      163                           .eos
      164                           .sym    _BFR,0,8,13,9824,.fake10
      165                           .file   "Y:\workspace_eea\V615\INCLUDE\UNITS.H"
      166                           .file   "Y:\workspace_eea\V615\APP\SOURCE\INCLUDE\TIMER.H"
      167                           .stag   .fake11,320
      168                           .member _prev,0,20,8,32
      169                           .member _next,32,20,8,32
      170                           .member _vect,64,20,8,32
      171                           .member _priority,96,4,8,32
      172                           .member _parent,128,20,8,32
      173                           .member _n,160,4,8,32
      174                           .member _prev_n,192,4,8,32
      175                           .member _countdown,224,4,8,32
      176                           .member _preset_time,256,4,8,32
      177                           .member _t,288,6,8,32
      178                           .eos
      179                           .sym    _TPKT,0,8,13,320,.fake11
      180                           .file   "Y:\workspace_eea\V615\INCLUDE\I2C.H"
      181                           .file   "Y:\workspace_eea\V615\APP\SOURCE\INCLUDE\ERRORS.H"
      182                           .file   "Y:\workspace_eea\V615\APP\SOURCE\INCLUDE\SERIAL.H"
      183                           .stag   .fake12,2272
      184                           .member _Slave,0,4,8,32
      185                           .member _SNUM,32,4,8,32
      186                           .member _PRESENT,64,14,8,32
      187                           .member _TX_complete,96,14,8,32
      188                           .member _RX_pending,128,14,8,32
      189                           .member _BUSY,160,14,8,32
      190                           .member _IGNORE_RX,192,14,8,32
      191                           .member _STAT,224,12,8,32
      192                           .member _DAT,256,12,8,32
      193                           .member _broadcast,288,14,8,32
      194                           .member _TMR_Network_WDOG,320,4,8,32
      195                           .member _TMR_EOT_Delay,352,4,8,32
      196                           .member _TMR_Prefix_Delay,384,4,8,32
      197                           .member _TMR_Suffix_Delay,416,4,8,32
      198                           .member _TMR_Char,448,4,8,32
      199                           .member _TMR_Poll,480,8,8,320,.fake11
      200                           .member _TMR_Retry,800,8,8,320,.fake11
      201                           .member _nr,1120,4,8,32
      202                           .member _Received_PKT,1152,14,8,32
      203                           .member _TMR_enabled,1184,14,8,32
      204                           .member _tvector,1216,20,8,32
      205                           .member _pvector,1248,20,8,32
      206                           .member _pvector_main,1280,20,8,32
      207                           .member _tvector_main,1312,20,8,32
      208                           .member _fvector,1344,20,8,32
      209                           .member _actual_baud_rate,1376,6,8,32
      210                           .member _c,1408,14,8,32
      211                           .member _r,1440,14,8,32
      212                           .member _n,1472,4,8,32
      213                           .member _n_exp,1504,4,8,32
      214                           .member _ai,1536,4,8,32
      215                           .member _start,1568,4,8,32
      216                           .member _i,1600,4,8,32
TMS320C3x/4x COFF AssemblerVersion 5.12     Mon Jan 31 16:14:26 2022
Copyright (c) 1987-1999 Texas Instruments Incorporatedasm30.exe -@_BR8.AAB 

Y:\workspace_eea\V615\APP\SOURCE\ASM\api.asm                         PAGE    5

      217                           .member _i_main,1632,4,8,32
      218                           .member _func,1664,14,8,32
      219                           .member _ERROR_COUNT,1696,14,8,32
      220                           .member _WDOG_COUNT,1728,14,8,32
      221                           .member _INV_CMD_COUNT,1760,14,8,32
      222                           .member _INV_PKT_COUNT,1792,14,8,32
      223                           .member _SUCCESS,1824,14,8,32
      224                           .member _NUM_RETRIES,1856,14,8,32
      225                           .member _FLAG1,1888,14,8,32
      226                           .member _FLAG2,1920,14,8,32
      227                           .member _FLAG3,1952,14,8,32
      228                           .member _LONG_ADDRESS,1984,14,8,32
      229                           .member _MASTER,2016,8,8,96,.fake4
      230                           .member _p,2112,20,8,32
      231                           .member _data,2144,14,8,32
      232                           .member _f,2176,22,8,32
      233                           .member _l,2208,30,8,32
      234                           .member _failed,2240,14,8,32
      235                           .eos
      236                           .sym    _PORTV,0,8,13,2272,.fake12
      237                           .stag   .fake13,11488
      238                           .member _PREFIX,0,8,8,1408,.fake6
      239                           .member _SUFFIX,1408,8,8,1408,.fake6
      240                           .member _NETWDOG,2816,8,8,1408,.fake6
      241                           .member _Slave_ID,4224,8,8,1408,.fake6
      242                           .member _Baud_Rate,5632,8,8,1408,.fake6
      243                           .member _Parity,7040,4,8,32
      244                           .member _n_bits,7072,4,8,32
      245                           .member _STP,7104,4,8,32
      246                           .member _N,7136,4,8,32
      247                           .member _N_retry,7168,4,8,32
      248                           .member _EOT_Delay,7200,8,8,1408,.fake6
      249                           .member _Retry_Time,8608,8,8,1408,.fake6
      250                           .member _Num_Retry,10016,8,8,1408,.fake6
      251                           .member _poll_time,11424,4,8,32
      252                           .member _timeout,11456,4,8,32
      253                           .eos
      254                           .sym    _PORTC,0,8,13,11488,.fake13
      255                           .stag   .fake14,672
      256                           .member _prev,0,20,8,32
      257                           .member _next,32,20,8,32
      258                           .member _rxvect,64,20,8,32
      259                           .member _txvect,96,20,8,32
      260                           .member _n,128,4,8,32
      261                           .member _slave,160,4,8,32
      262                           .member _func,192,4,8,32
      263                           .member _addr,224,4,8,32
      264                           .member _num,256,4,8,32
      265                           .member _v,288,54,8,320,,10
      266                           .member _flt_ptr,608,22,8,32
      267                           .member _int_ptr,640,20,8,32
      268                           .eos
      269                           .sym    _MPKT,0,8,13,672,.fake14
      270                           .file   "Y:\workspace_eea\V615\APP\SOURCE\INCLUDE\ADC.H"
TMS320C3x/4x COFF AssemblerVersion 5.12     Mon Jan 31 16:14:26 2022
Copyright (c) 1987-1999 Texas Instruments Incorporatedasm30.exe -@_BR8.AAB 

Y:\workspace_eea\V615\APP\SOURCE\ASM\api.asm                         PAGE    6

      271                           .stag   .fake15,10176
      272                           .member _CURRENT,0,8,8,1408,.fake6
      273                           .member _CURRENT_PERCENT_OF_RANGE,1408,8,8,1408,.fake6
      274                           .member _LRV,2816,8,8,1408,.fake6
      275                           .member _URV,4224,8,8,1408,.fake6
      276                           .member _TRIM_MIN,5632,8,8,1408,.fake6
      277                           .member _TRIM_MAX,7040,8,8,1408,.fake6
      278                           .member _VALUE,8448,8,8,1408,.fake6
      279                           .member _TRIM_MIN_C,9856,6,8,32
      280                           .member _TRIM_MAX_C,9888,6,8,32
      281                           .member _v,9920,8,8,64,.fake8
      282                           .member _class,9984,8,8,64,.fake8
      283                           .member _unit,10048,8,8,64,.fake8
      284                           .member _present,10112,14,8,32
      285                           .member _val,10144,6,8,32
      286                           .eos
      287                           .sym    _LOOPDATA_I,0,8,13,10176,.fake15
      288                           .file   "Y:\workspace_eea\V615\APP\SOURCE\INCLUDE\DAC.H"
      289                           .stag   .fake16,13408
      290                           .member _CURRENT,0,8,8,1408,.fake6
      291                           .member _CURRENT_PERCENT_OF_RANGE,1408,8,8,1408,.fake6
      292                           .member _LRV,2816,8,8,1408,.fake6
      293                           .member _URV,4224,8,8,1408,.fake6
      294                           .member _TRIM_MIN,5632,8,8,1408,.fake6
      295                           .member _TRIM_MAX,7040,8,8,1408,.fake6
      296                           .member _TRIM_MIN_C,8448,6,8,32
      297                           .member _TRIM_MAX_C,8480,6,8,32
      298                           .member _ALARM_SELECT,8512,4,8,32
      299                           .member _MINSPAN,8544,6,8,32
      300                           .member _v,8576,8,8,64,.fake8
      301                           .member _class,8640,8,8,64,.fake8
      302                           .member _unit,8704,8,8,64,.fake8
      303                           .member _MANUAL,8768,4,8,32
      304                           .member _MANUAL_PERCENT,8800,6,8,32
      305                           .member _REVERSE,8832,4,8,32
      306                           .member _PID_input,8864,6,8,32
      307                           .member _PID_setpoint,8896,6,8,32
      308                           .member _P,8928,8,8,1408,.fake6
      309                           .member _I,10336,8,8,1408,.fake6
      310                           .member _D,11744,8,8,1408,.fake6
      311                           .member _pid_lastcycle,13152,4,8,32
      312                           .member _pid_output,13184,6,8,32
      313                           .member _pid_propband,13216,6,8,32
      314                           .member _pid_error,13248,6,8,32
      315                           .member _pid_bias,13280,6,8,32
      316                           .member _present,13312,14,8,32
      317                           .member _PID_fail,13344,14,8,32
      318                           .member _PID_enable_failsafe,13376,14,8,32
      319                           .eos
      320                           .sym    _LOOPDATA_O,0,8,13,13408,.fake16
      321                           .file   "Y:\workspace_eea\V615\APP\SOURCE\INCLUDE\EXECUTE.H"
      322                           .stag   .fake17,128
      323                           .member _prev,0,20,8,32
      324                           .member _next,32,20,8,32
TMS320C3x/4x COFF AssemblerVersion 5.12     Mon Jan 31 16:14:26 2022
Copyright (c) 1987-1999 Texas Instruments Incorporatedasm30.exe -@_BR8.AAB 

Y:\workspace_eea\V615\APP\SOURCE\ASM\api.asm                         PAGE    7

      325                           .member _vect,64,20,8,32
      326                           .member _priority,96,4,8,32
      327                           .eos
      328                           .sym    _EPKT,0,8,13,128,.fake17
      329                           .file   "Y:\workspace_eea\V615\INCLUDE\FLASH.H"
      330                           .file   "Y:\workspace_eea\V615\APP\SOURCE\INCLUDE\LOG.H"
      331                           .stag   .fake18,384
      332                           .member _log_len,0,14,8,32
      333                           .member _log_n_sectors,32,14,8,32
      334                           .member _log_n_max_per_sector,64,14,8,32
      335                           .member _log_n,96,14,8,32
      336                           .member _log_current_sector,128,14,8,32
      337                           .member _log_absolute_index,160,14,8,32
      338                           .member _log_start,192,30,8,32
      339                           .member _log_sector_size,224,14,8,32
      340                           .member _log_record_size,256,14,8,32
      341                           .member _log_end,288,14,8,32
      342                           .member _LOG_ERASE,320,14,8,32
      343                           .member _erased_sector,352,14,8,32
      344                           .eos
      345                           .sym    _LOG,0,8,13,384,.fake18
      346                           .file   "Y:\workspace_eea\V615\APP\SOURCE\INCLUDE\DEMO.H"
      347                           .file   "Y:\workspace_eea\V615\APP\SOURCE\INCLUDE\SELFTEST.H"
      348                           .file   "Y:\workspace_eea\V615\APP\SOURCE\INCLUDE\MENU.H"
      349                           .stag   .fake19,16288
      350                           .member _INIT,0,14,8,32
      351                           .member _FRESH,32,14,8,32
      352                           .member _MENU,64,14,8,32
      353                           .member _SELECT,96,14,8,32
      354                           .member _VALUE,128,14,8,32
      355                           .member _ENTER,160,14,8,32
      356                           .member _DIR,192,4,8,32
      357                           .member _DIR_CHANGE,224,14,8,32
      358                           .member _M,256,14,8,32
      359                           .member _S,288,14,8,32
      360                           .member _V,320,14,8,32
      361                           .member _E,352,14,8,32
      362                           .member _CURSOR_ENABLED,384,14,8,32
      363                           .member _CURSOR_ROW,416,4,8,32
      364                           .member _CURSOR_COL,448,4,8,32
      365                           .member _CNT,480,14,8,32
      366                           .member _MENU_CNT,512,14,8,32
      367                           .member _SELECT_CNT,544,14,8,32
      368                           .member _VALUE_CNT,576,14,8,32
      369                           .member _k,608,14,8,32
      370                           .member _MODE_LOCKDOWN,640,14,8,32
      371                           .member _MODE_WPROT,672,14,8,32
      372                           .member _MODE_DEFINE,704,14,8,32
      373                           .member _MODE_USER,736,14,8,32
      374                           .member _MODE_TECH,768,14,8,32
      375                           .member _MODE_NORMAL,800,14,8,32
      376                           .member _menu_list_top,832,14,8,32
      377                           .member _menu_list_operations,864,14,8,32
      378                           .member _menu_list_configurations,896,14,8,32
TMS320C3x/4x COFF AssemblerVersion 5.12     Mon Jan 31 16:14:26 2022
Copyright (c) 1987-1999 Texas Instruments Incorporatedasm30.exe -@_BR8.AAB 

Y:\workspace_eea\V615\APP\SOURCE\ASM\api.asm                         PAGE    8

      379                           .member _menu_list_security_info,928,14,8,32
      380                           .member _menu_list_measurements,960,14,8,32
      381                           .member _menu_list_changed,992,14,8,32
      382                           .member _PAGE,1024,14,8,32
      383                           .member _SUBPAGE,1056,14,8,32
      384                           .member _MENU_TRAP,1088,14,8,32
      385                           .member _DIP,1120,62,8,128,,4
      386                           .member _tmpf,1248,54,8,320,,10
      387                           .member _tmpi,1568,52,8,320,,10
      388                           .member _str,1888,242,8,12928,,4,101
      389                           .member _tmpv,14816,8,8,1408,.fake6
      390                           .member _ptmpv,16224,24,8,32,.fake6
      391                           .member _tbl,16256,20,8,32
      392                           .eos
      393                           .sym    _MENU_STRUCT,0,8,13,16288,.fake19
      394                           .file   "Y:\workspace_eea\V615\APP\SOURCE\INCLUDE\FLOAT1.H"
      395                           .file   "Y:\workspace_eea\V615\APP\SOURCE\INCLUDE\GLBLS.H"
      396                           .stag   .fake20,480
      397                           .member _i,0,4,8,32
      398                           .member _Watercut,32,6,8,32
      399                           .member _Temperature,64,6,8,32
      400                           .member _Salinity,96,6,8,32
      401                           .member _Frequency_Oil,128,6,8,32
      402                           .member _Frequency_Water,160,6,8,32
      403                           .member _RefPower_Oil,192,6,8,32
      404                           .member _RefPower_Water,224,6,8,32
      405                           .member _Dadj,256,6,8,32
      406                           .member _Time_HH,288,4,8,32
      407                           .member _Time_MM,320,4,8,32
      408                           .member _Time_MONTH,352,4,8,32
      409                           .member _Time_DAY,384,4,8,32
      410                           .member _Time_DAY_OF_WEEK,416,4,8,32
      411                           .member _Time_YEAR,448,4,8,32
      412                           .eos
      413                           .sym    _CAPDATA,0,8,13,480,.fake20
      414                           .stag   .fake21,640
      415                           .member _Watercut,0,54,8,64,,2
      416                           .member _Temperature,64,54,8,64,,2
      417                           .member _Salinity,128,54,8,64,,2
      418                           .member _Frequency_Oil,192,54,8,64,,2
      419                           .member _Frequency_Water,256,54,8,64,,2
      420                           .member _RefPower_Oil,320,54,8,64,,2
      421                           .member _RefPower_Water,384,54,8,64,,2
      422                           .member _Dadj,448,54,8,64,,2
      423                           .member _Time_MONTH_DAY_HH_MM,512,52,8,64,,2
      424                           .member _CLRSTAT_Time_YEAR,576,52,8,64,,2
      425                           .eos
      426                           .sym    _CAPRECORD,0,8,13,640,.fake21
      427                           .stag   .fake22,800
      428                           .member _Start_HH,0,4,8,32
      429                           .member _Start_MM,32,4,8,32
      430                           .member _Start_SS,64,4,8,32
      431                           .member _Start_MONTH,96,4,8,32
      432                           .member _Start_DAY,128,4,8,32
TMS320C3x/4x COFF AssemblerVersion 5.12     Mon Jan 31 16:14:26 2022
Copyright (c) 1987-1999 Texas Instruments Incorporatedasm30.exe -@_BR8.AAB 

Y:\workspace_eea\V615\APP\SOURCE\ASM\api.asm                         PAGE    9

      433                           .member _Start_YEAR,160,4,8,32
      434                           .member _Stop_HH,192,4,8,32
      435                           .member _Stop_MM,224,4,8,32
      436                           .member _Stop_SS,256,4,8,32
      437                           .member _Stop_MONTH,288,4,8,32
      438                           .member _Stop_DAY,320,4,8,32
      439                           .member _Stop_YEAR,352,4,8,32
      440                           .member _stream,384,6,8,32
      441                           .member _elapsed_s,416,6,8,32
      442                           .member _duration,448,6,8,32
      443                           .member _purge,480,6,8,32
      444                           .member _gross_gas,512,6,8,32
      445                           .member _gross_oil,544,6,8,32
      446                           .member _gross_water,576,6,8,32
      447                           .member _gross_total,608,6,8,32
      448                           .member _gas24,640,6,8,32
      449                           .member _oil24,672,6,8,32
      450                           .member _water24,704,6,8,32
      451                           .member _total24,736,6,8,32
      452                           .member _watercut,768,6,8,32
      453                           .eos
      454                           .sym    _CCMRECORD,0,8,13,800,.fake22
      455                           .stag   .fake23,224
      456                           .member _SNUM,0,4,8,32
      457                           .member _ADDR,32,4,8,32
      458                           .member _BNUM,64,4,8,32
      459                           .member _REV,96,4,8,32
      460                           .member _MONTH,128,4,8,32
      461                           .member _DAY,160,4,8,32
      462                           .member _YEAR,192,4,8,32
      463                           .eos
      464                           .sym    _BOARD,0,8,13,224,.fake23
      465                           .etag   _Pulse_Input_Type,32
      466                           .member _PULSE_GAS_TEMP,1,4,16,32
      467                           .member _PULSE_SALINITY,2,4,16,32
      468                           .member _PULSE_STREAM_SELECT,3,4,16,32
      469                           .member _PULSE_USER_TEMP,4,4,16,32
      470                           .member _PULSE_FC_WC,5,4,16,32
      471                           .member _PULSE_FC_TEMP,6,4,16,32
      472                           .member _PULSE_FC_TOTAL_FLOW,7,4,16,32
      473                           .member _PULSE_FC_PRESSURE,8,4,16,32
      474                           .member _PULSE_FC_DENSITY,9,4,16,32
      475                           .member _PULSE_FC_SALINITY,10,4,16,32
      476                           .member _PULSE_FC_OIL_DENSITY,11,4,16,32
      477                           .member _PULSE_FC_OIL_DENSITY_ST,12,4,16,32
      478                           .member _PULSE_FC_WATER_DENSITY,13,4,16,32
      479                           .member _PULSE_FC_WATER_DENSITY_ST,14,4,16,32
      480                           .member _PULSE_NONE,15,4,16,32
      481                           .eos
      482                           .stag   .fake24,64
      483                           .member _freq,0,6,8,32
      484                           .member _counter,32,4,8,32
      485                           .eos
      486                           .sym    _Boxcar_Var,0,8,13,64,.fake24
TMS320C3x/4x COFF AssemblerVersion 5.12     Mon Jan 31 16:14:26 2022
Copyright (c) 1987-1999 Texas Instruments Incorporatedasm30.exe -@_BR8.AAB 

Y:\workspace_eea\V615\APP\SOURCE\ASM\api.asm                         PAGE   10

      487                           .stag   .fake25,1088
      488                           .member _data,0,54,8,960,,30
      489                           .member _head,960,4,8,32
      490                           .member _tail,992,4,8,32
      491                           .member _length,1024,4,8,32
      492                           .member _average,1056,6,8,32
      493                           .eos
      494                           .sym    _bubble_struct,0,8,13,1088,.fake25
      495                           .stag   .fake26,3008
      496                           .member _data,0,54,8,2880,,90
      497                           .member _head,2880,4,8,32
      498                           .member _tail,2912,4,8,32
      499                           .member _length,2944,4,8,32
      500                           .member _average,2976,6,8,32
      501                           .eos
      502                           .sym    _pattern_struct,0,8,13,3008,.fake26
      503                           .stag   .fake27,320
      504                           .member _MODE,0,4,8,32
      505                           .member _STATUS_MASK,32,4,8,32
      506                           .member _v,64,8,8,64,.fake8
      507                           .member _setpoint,128,6,8,32
      508                           .member _ON,160,8,8,96,.fake7
      509                           .member _class,256,4,8,32
      510                           .member _unit,288,4,8,32
      511                           .eos
      512                           .sym    _RELAYDATA,0,8,13,320,.fake27
      513                           .stag   .fake28,12224
      514                           .member _diag,0,6,8,32
      515                           .member _mfr,32,6,8,32
      516                           .member _u_mfr,64,4,8,32
      517                           .member _density,96,6,8,32
      518                           .member _u_density,128,4,8,32
      519                           .member _density_PDI_corrected,160,6,8,32
      520                           .member _density_corrected,192,6,8,32
      521                           .member _u_density_corrected,224,4,8,32
      522                           .member _T,256,6,8,32
      523                           .member _u_T,288,4,8,32
      524                           .member _vfr,320,6,8,32
      525                           .member _u_vfr,352,4,8,32
      526                           .member _visc,384,6,8,32
      527                           .member _u_visc,416,4,8,32
      528                           .member _press,448,6,8,32
      529                           .member _mass_total,480,6,8,32
      530                           .member _u_m,512,4,8,32
      531                           .member _volume_total,544,6,8,32
      532                           .member _u_v,576,4,8,32
      533                           .member _u_P,608,4,8,32
      534                           .member _P,640,6,8,32
      535                           .member _mass_inv,672,6,8,32
      536                           .member _volume_inv,704,6,8,32
      537                           .member _raw_tube_freq,736,6,8,32
      538                           .member _left_pickup_value,768,6,8,32
      539                           .member _right_pickup_value,800,6,8,32
      540                           .member _drive_gain,832,6,8,32
TMS320C3x/4x COFF AssemblerVersion 5.12     Mon Jan 31 16:14:26 2022
Copyright (c) 1987-1999 Texas Instruments Incorporatedasm30.exe -@_BR8.AAB 

Y:\workspace_eea\V615\APP\SOURCE\ASM\api.asm                         PAGE   11

      541                           .member _damp_flow_rate,864,8,8,1408,.fake6
      542                           .member _damp_density,2272,8,8,1408,.fake6
      543                           .member _mfr_cutoff,3680,8,8,1408,.fake6
      544                           .member _vfr_cutoff,5088,8,8,1408,.fake6
      545                           .member _mcf,6496,8,8,1408,.fake6
      546                           .member _address,7904,8,8,1408,.fake6
      547                           .member _mass_unit,9312,8,8,1408,.fake6
      548                           .member _density_cutoff,10720,8,8,1408,.fake6
      549                           .member _Z,12128,8,8,96,.fake7
      550                           .eos
      551                           .sym    _CORIOLIS,0,8,13,12224,.fake28
      552                           .stag   .fake29,288
      553                           .member _p_delta,0,6,8,32
      554                           .member _p_static,32,6,8,32
      555                           .member _T,64,6,8,32
      556                           .member _diag0,96,6,8,32
      557                           .member _diag1,128,6,8,32
      558                           .member _diag2,160,6,8,32
      559                           .member _u_DP,192,4,8,32
      560                           .member _u_SP,224,4,8,32
      561                           .member _u_PT,256,4,8,32
      562                           .eos
      563                           .sym    _PRESSURE,0,8,13,288,.fake29
      564                           .stag   .fake30,192
      565                           .member _T,0,6,8,32
      566                           .member _etc0,32,6,8,32
      567                           .member _etc1,64,6,8,32
      568                           .member _etc2,96,6,8,32
      569                           .member _etc3,128,6,8,32
      570                           .member _etc4,160,6,8,32
      571                           .eos
      572                           .sym    _TMPT,0,8,13,192,.fake30
      573                           .stag   .fake31,42752
      574                           .member _watercut,0,8,8,1408,.fake6
      575                           .member _T,1408,8,8,1408,.fake6
      576                           .member _pressure,2816,8,8,1408,.fake6
      577                           .member _density,4224,8,8,1408,.fake6
      578                           .member _density_PDI_corrected,5632,6,8,32
      579                           .member _density_adj,5664,6,8,32
      580                           .member _density_oilST,5696,8,8,1408,.fake6
      581                           .member _density_oil,7104,8,8,1408,.fake6
      582                           .member _density_waterST,8512,8,8,1408,.fake6
      583                           .member _density_water,9920,8,8,1408,.fake6
      584                           .member _salinity,11328,8,8,1408,.fake6
      585                           .member _API_TABLE,12736,4,8,32
      586                           .member _a,12768,6,8,32
      587                           .member _Meter_Factor,12800,8,8,1408,.fake6
      588                           .member _Shrinkage,14208,8,8,1408,.fake6
      589                           .member _VCFo,15616,6,8,32
      590                           .member _VCFw,15648,6,8,32
      591                           .member _net_watercut,15680,6,8,32
      592                           .member _net_watercut_mass,15712,6,8,32
      593                           .member _Dadj,15744,6,8,32
      594                           .member _NET_FLOW_OIL,15776,8,8,1408,.fake6
TMS320C3x/4x COFF AssemblerVersion 5.12     Mon Jan 31 16:14:26 2022
Copyright (c) 1987-1999 Texas Instruments Incorporatedasm30.exe -@_BR8.AAB 

Y:\workspace_eea\V615\APP\SOURCE\ASM\api.asm                         PAGE   12

      595                           .member _NET_FLOW_WATER,17184,8,8,1408,.fake6
      596                           .member _NET_FLOW_TOTAL,18592,8,8,1408,.fake6
      597                           .member _NET_OIL,20000,8,8,1408,.fake6
      598                           .member _NET_WATER,21408,8,8,1408,.fake6
      599                           .member _NET_TOTAL,22816,8,8,1408,.fake6
      600                           .member _AVG_NET_TOTAL,24224,8,8,1408,.fake6
      601                           .member _GROSS_OIL,25632,8,8,1408,.fake6
      602                           .member _gross_oil_whole_part,27040,11,8,64
      603                           .member _gross_oil_fract_part,27104,11,8,64
      604                           .member _GROSS_WATER,27168,8,8,1408,.fake6
      605                           .member _gross_water_whole_part,28576,11,8,64
      606                           .member _gross_water_fract_part,28640,11,8,64
      607                           .member _GROSS_TOTAL,28704,8,8,1408,.fake6
      608                           .member _AVG_GROSS_TOTAL,30112,8,8,1408,.fake6
      609                           .member _FLOW_OIL,31520,8,8,1408,.fake6
      610                           .member _FLOW_WATER,32928,8,8,1408,.fake6
      611                           .member _FLOW_TOTAL,34336,8,8,1408,.fake6
      612                           .member _PULSES_PER_ACCUM_UNIT,35744,14,8,32
      613                           .member _PULSE_TOTAL,35776,8,8,1408,.fake6
      614                           .member _PULSE_FLOW,37184,8,8,1408,.fake6
      615                           .member _PULSE_FREQ,38592,8,8,1408,.fake6
      616                           .member _PULSE_COUNTER,40000,14,8,32
      617                           .member _PULSE,40032,4,8,32
      618                           .member _CNT,40064,4,8,32
      619                           .member _PULSE_DELTA,40096,4,8,32
      620                           .member _PULSE_FACTOR,40128,6,8,32
      621                           .member _PULSE_STAT,40160,4,8,32
      622                           .member _enable_NET,40192,14,8,32
      623                           .member _enable_GROSS,40224,14,8,32
      624                           .member _enable_FLOW,40256,14,8,32
      625                           .member _enable_DENSITY,40288,14,8,32
      626                           .member _enable_PULSE,40320,14,8,32
      627                           .member _flow_class,40352,8,8,64,.fake8
      628                           .member _flow_unit,40416,8,8,64,.fake8
      629                           .member _accum_unit,40480,8,8,64,.fake8
      630                           .member _Z,40544,8,8,96,.fake7
      631                           .member _use_totalizer,40640,8,8,96,.fake7
      632                           .member _pulse_v,40736,8,8,64,.fake8
      633                           .member _pulse_class,40800,8,8,64,.fake8
      634                           .member _pulse_unit,40864,8,8,64,.fake8
      635                           .member _pulse_VALUE,40928,8,8,1408,.fake6
      636                           .member _USE_PDI_TEMP,42336,14,8,32
      637                           .member _USE_PDI_SALINITY,42368,14,8,32
      638                           .member _CALC_WC_DENSITY,42400,14,8,32
      639                           .member _MAN_TEMP,42432,14,8,32
      640                           .member _MAN_SALINITY,42464,14,8,32
      641                           .member _MAN_WATERCUT,42496,14,8,32
      642                           .member _MAN_DENSITY,42528,14,8,32
      643                           .member _MAN_PRESSURE,42560,14,8,32
      644                           .member _MAN_FLOW,42592,14,8,32
      645                           .member _AUTHORIZATION_CODE1,42624,14,8,32
      646                           .member _AUTHORIZATION_CODE2,42656,14,8,32
      647                           .member _AUTHORIZATION_CODE3,42688,14,8,32
      648                           .member _AUTHORIZATION_CODE4,42720,14,8,32
TMS320C3x/4x COFF AssemblerVersion 5.12     Mon Jan 31 16:14:26 2022
Copyright (c) 1987-1999 Texas Instruments Incorporatedasm30.exe -@_BR8.AAB 

Y:\workspace_eea\V615\APP\SOURCE\ASM\api.asm                         PAGE   13

      649                           .eos
      650                           .sym    _FLOW_COMP,0,8,13,42752,.fake31
      651                           .stag   .fake32,2176
      652                           .member _WATERCUT,0,6,8,32
      653                           .member _FLOW_RATE,32,6,8,32
      654                           .member _TEMPERATURE,64,6,8,32
      655                           .member _DENSITY,96,6,8,32
      656                           .member _VISCOSITY,128,6,8,32
      657                           .member _iWATERCUTz,160,4,8,32
      658                           .member _iWATERCUT,192,4,8,32
      659                           .member _iFLOW_RATE,224,4,8,32
      660                           .member _iTEMPERATURE,256,4,8,32
      661                           .member _iDENSITY,288,4,8,32
      662                           .member _iVISCOSITY,320,4,8,32
      663                           .member _maxWATERCUTz,352,6,8,32
      664                           .member _maxWATERCUT,384,6,8,32
      665                           .member _maxFLOW_RATE,416,6,8,32
      666                           .member _maxTEMPERATURE,448,6,8,32
      667                           .member _maxDENSITY,480,6,8,32
      668                           .member _maxVISCOSITY,512,6,8,32
      669                           .member _minWATERCUTz,544,6,8,32
      670                           .member _minWATERCUT,576,6,8,32
      671                           .member _minFLOW_RATE,608,6,8,32
      672                           .member _minTEMPERATURE,640,6,8,32
      673                           .member _minDENSITY,672,6,8,32
      674                           .member _minVISCOSITY,704,6,8,32
      675                           .member _ENABLED,736,14,8,32
      676                           .member _DESTINATION_ADDRESS,768,8,8,1408,.fake6
      677                           .eos
      678                           .sym    _ALYESKA_STRUCT,0,8,13,2176,.fake32
      679                           .stag   .fake33,2464
      680                           .member _ENABLED,0,8,8,96,.fake7
      681                           .member _flow_threshold,96,8,8,1408,.fake6
      682                           .member _S3,1504,6,8,32
      683                           .member _S2,1536,6,8,32
      684                           .member _S1,1568,6,8,32
      685                           .member _S0,1600,6,8,32
      686                           .member _Fmin,1632,6,8,32
      687                           .member _Dmin,1664,6,8,32
      688                           .member _Dmax,1696,6,8,32
      689                           .member _CHANGED,1728,14,8,32
      690                           .member _PURGING,1760,14,8,32
      691                           .member _TEST_IN_PROGRESS,1792,14,8,32
      692                           .member _SP3A,1824,6,8,32
      693                           .member _SP2A,1856,6,8,32
      694                           .member _SP1A,1888,6,8,32
      695                           .member _SP0A,1920,6,8,32
      696                           .member _SPLOA,1952,6,8,32
      697                           .member _SPHIA,1984,6,8,32
      698                           .member _SP3B,2016,6,8,32
      699                           .member _SP2B,2048,6,8,32
      700                           .member _SP1B,2080,6,8,32
      701                           .member _SP0B,2112,6,8,32
      702                           .member _SPLOB,2144,6,8,32
TMS320C3x/4x COFF AssemblerVersion 5.12     Mon Jan 31 16:14:26 2022
Copyright (c) 1987-1999 Texas Instruments Incorporatedasm30.exe -@_BR8.AAB 

Y:\workspace_eea\V615\APP\SOURCE\ASM\api.asm                         PAGE   14

      703                           .member _SPHIB,2176,6,8,32
      704                           .member _FBHI3,2208,6,8,32
      705                           .member _FBHI2,2240,6,8,32
      706                           .member _FBHI1,2272,6,8,32
      707                           .member _FBHI0,2304,6,8,32
      708                           .member _FBLO3,2336,6,8,32
      709                           .member _FBLO2,2368,6,8,32
      710                           .member _FBLO1,2400,6,8,32
      711                           .member _FBLO0,2432,6,8,32
      712                           .eos
      713                           .sym    _HS_STRUCT,0,8,13,2464,.fake33
      714                           .file   "Y:\workspace_eea\V615\APP\SOURCE\INCLUDE\HART.H"
      715                           .file   "Y:\workspace_eea\V615\APP\SOURCE\INCLUDE\MODBUSRTU.H"
      716                           .file   "Y:\workspace_eea\V615\APP\SOURCE\INCLUDE\MISC.H"
      717                           .file   "Y:\workspace_eea\V615\APP\SOURCE\INCLUDE\API.H"
      718                           .file   "api.c"
      719 00000000                  .sect    ".text"
      720                   
      721                           .global _API_VCF
      722                           .sym    _API_VCF,_API_VCF,32,2,0
      723                           .func   42
      724                   ;******************************************************************************
      725                   ;* FUNCTION NAME: _API_VCF                                                    *
      726                   ;*                                                                            *
      727                   ;*   Architecture       : TMS320C33                                           *
      728                   ;*   Calling Convention : TI Standard Register Parameters                     *
      729                   ;*   Function Uses Regs : f0,r0,f1,r1,f2,r2,r3,f6,ar0,ar1,ar2,ar4,ir0,ir1,st, *
      730                   ;*                        rs,re,rc                                            *
      731                   ;*   Regs Saved         : f6,ar4                                              *
      732                   ;*   Stack Frame        : Full (w/ debug)                                     *
      733                   ;*   Total Frame Size   : 2 Call + 0 Parm + 8 Auto + 2 SOE = 12 words         *
      734                   ;******************************************************************************
      735 00000000          _API_VCF:
      736                   ;* ar2   assigned to _f
      737                           .sym    _f,10,24,17,32,.fake31
      738                   ;* r2    assigned to _VCFw
      739                           .sym    _VCFw,2,22,17,32
      740                   ;* r3    assigned to _VCFo
      741                           .sym    _VCFo,3,22,17,32
      742                           .sym    _f,1,24,1,32,.fake31
      743                           .sym    _VCFw,2,22,1,32
      744                           .sym    _VCFo,3,22,1,32
      745                           .sym    _t,4,6,1,32
      746                           .sym    _p,5,6,1,32
      747                           .sym    _B,6,6,1,32
      748                           .sym    _pST,7,7,1,32
      749                           .sym    _vcf,8,7,1,32
      750                           .line   1
      751                   ;----------------------------------------------------------------------
      752                   ;  42 | void API_VCF(FLOW_COMP* f, float* VCFw, float* VCFo)                   
      753                   ;----------------------------------------------------------------------
      754 00000000 0f2b0000         push      fp
      755 00000001 500b0014         ldiu      sp,fp
      756 00000002 02740008         addi      8,sp
TMS320C3x/4x COFF AssemblerVersion 5.12     Mon Jan 31 16:14:26 2022
Copyright (c) 1987-1999 Texas Instruments Incorporatedasm30.exe -@_BR8.AAB 

Y:\workspace_eea\V615\APP\SOURCE\ASM\api.asm                         PAGE   15

      757 00000003 0fa60000         pushf     f6
      758 00000004 0f2c0000         push      ar4
      759                           .line   2
      760                   ;----------------------------------------------------------------------
      761                   ;  44 | float t;                                                               
      762                   ;  45 | float p;                                                               
      763                   ;  46 | float B;                                                               
      764                   ;  47 | double pST, vcf;                                                       
      765                   ;----------------------------------------------------------------------
      766 00000005 15430303         sti       r3,*+fp(3)            ; |43| 
      767 00000006 15420302         sti       r2,*+fp(2)            ; |43| 
      768 00000007 154a0301         sti       ar2,*+fp(1)           ; |43| 
      769                           .line   8
      770                   ;----------------------------------------------------------------------
      771                   ;  49 | VCFw[0]  = f->Meter_Factor.calc_val;                                   
      772                   ;----------------------------------------------------------------------
      773 00000008 50680199         ldiu      409,ar0               ; |49| 
      774 00000009 02480301         addi      *+fp(1),ar0           ; |49| Unsigned
      775 0000000a 4040c000         ldfu      *ar0,f0               ; |49| 40b float hi half
      776 0000000b 50090002         ldiu      r2,ar1                ; |49| 
      777 0000000c 50400001         ldiu      *+ar0,r0              ; |49| 40b float lo half
      778 0000000d 11000000         rnd       f0,f0                 ; |49| Demote to low precision
      779 0000000e 1440c100         stf       f0,*ar1               ; |49| 
      780                           .line   9
      781                   ;----------------------------------------------------------------------
      782                   ;  50 | VCFo[0]  = f->Meter_Factor.calc_val;                                   
      783                   ;----------------------------------------------------------------------
      784 0000000f 50680199         ldiu      409,ar0               ; |50| 
      785 00000010 02480301         addi      *+fp(1),ar0           ; |50| Unsigned
      786 00000011 4040c000         ldfu      *ar0,f0               ; |50| 40b float hi half
      787 00000012 50400001         ldiu      *+ar0,r0              ; |50| 40b float lo half
      788 00000013 50490303         ldiu      *+fp(3),ar1           ; |50| 
      789 00000014 11000000         rnd       f0,f0                 ; |50| Demote to low precision
      790 00000015 1440c100         stf       f0,*ar1               ; |50| 
      791                           .line   10
      792                   ;----------------------------------------------------------------------
      793                   ;  51 | VCFo[0] *= f->Shrinkage.calc_val;                                      
      794                   ;----------------------------------------------------------------------
      795 00000016 506801c5         ldiu      453,ar0               ; |51| 
      796 00000017 02480301         addi      *+fp(1),ar0           ; |51| Unsigned
      797 00000018 50490303         ldiu      *+fp(3),ar1           ; |51| 
      798 00000019 506200ff         ldiu      255,r2                ; |51| 
      799                   
      800 0000001a c440c1c0         ldfu      *ar0,f1               ; |51| 
      801                   ||      ldfu      *ar1,f0               ; |51| 
      802                   
      803 0000001b 03000002         andn      r2,f0                 ; |51| Bit mask for F32/F40 conversion
      804 0000001c 50410001         ldiu      *+ar0,r1              ; |51| 40b float lo half
      805 0000001d 62000000!        call      MPY_LD                ; |51| 
      806                                                           ; |51| Call Occurs
      807 0000001e 11000000         rnd       f0,f0                 ; |51| Demote to low precision
      808 0000001f 1440c100         stf       f0,*ar1               ; |51| 
      809                           .line   12
      810                   ;----------------------------------------------------------------------
TMS320C3x/4x COFF AssemblerVersion 5.12     Mon Jan 31 16:14:26 2022
Copyright (c) 1987-1999 Texas Instruments Incorporatedasm30.exe -@_BR8.AAB 

Y:\workspace_eea\V615\APP\SOURCE\ASM\api.asm                         PAGE   16

      811                   ;  53 | if((f->T.unit == u_temp_F) || (f->T.unit == u_temp_R))                 
      812                   ;----------------------------------------------------------------------
      813 00000020 50480301         ldiu      *+fp(1),ar0           ; |53| 
      814 00000021 50400039         ldiu      *+ar0(57),r0          ; |53| 
      815 00000022 04e00021         cmpi      33,r0                 ; |53| 
      816 00000023 6a050003         beq       L3                    ; |53| 
      817                   ;*      Branch Occurs to L3             ; |53| 
      818 00000024 50400039         ldiu      *+ar0(57),r0          ; |53| 
      819 00000025 04e00022         cmpi      34,r0                 ; |53| 
      820 00000026 6a06008c         bne       L19                   ; |53| 
      821                   ;*      Branch Occurs to L19            ; |53| 
      822 00000027          L3:        
      823                           .line   14
      824                   ;----------------------------------------------------------------------
      825                   ;  55 | t = Convert(f->T.class, f->T.calc_unit, u_temp_F, f->T.calc_val, 0, f->
      826                   ;     | T.aux);                                                                
      827                   ;----------------------------------------------------------------------
      828 00000027 50490301         ldiu      *+fp(1),ar1           ; |55| 
      829 00000028 08700000-        ldp       @CL1,DP
      830 00000029 50080009         ldiu      ar1,ar0               ; |55| 
      831 0000002a 507b0021         ldiu      33,rc                 ; |55| 
      832 0000002b 500c0009         ldiu      ar1,ar4               ; |55| 
      833 0000002c 500a0009         ldiu      ar1,ar2               ; |55| 
      834 0000002d 40420035         ldfu      *+ar0(53),f2          ; |55| 40b float hi half
      835 0000002e 50200000-        ldiu      @CL1,r0               ; |55| 
      836 0000002f 505a0132         ldiu      *+ar1(50),re          ; |55| 
      837 00000030 5043043a         ldiu      *+ar4(58),r3          ; |55| 
      838 00000031 504a023b         ldiu      *+ar2(59),ar2         ; |55| 
      839 00000032 50420036         ldiu      *+ar0(54),r2          ; |55| 40b float lo half
      840 00000033 50790000         ldiu      0,rs                  ; |55| 
      841 00000034 70000000         callu     r0                    ; far call to _Convert  ; |55| 
      842                                                           ; |55| Far Call Occurs
      843 00000035 11000000         rnd       f0,f0                 ; |55| Demote to low precision
      844 00000036 14400304         stf       f0,*+fp(4)            ; |55| 
      845                           .line   16
      846                   ;----------------------------------------------------------------------
      847                   ;  57 | if ((f->density_oil.val>0.0) && (f->density_oilST.val>0.0))            
      848                   ;----------------------------------------------------------------------
      849 00000037 50480301         ldiu      *+fp(1),ar0           ; |57| 
      850 00000038 404000de         ldfu      *+ar0(222),f0         ; |57| 
      851 00000039 04608000         cmpf      0.0000000000e+00,f0   ; |57| 
      852 0000003a 6a080014         ble       L6                    ; |57| 
      853                   ;*      Branch Occurs to L6             ; |57| 
      854 0000003b 404000b2         ldfu      *+ar0(178),f0         ; |57| 
      855 0000003c 04608000         cmpf      0.0000000000e+00,f0   ; |57| 
      856 0000003d 6a080011         ble       L6                    ; |57| 
      857                   ;*      Branch Occurs to L6             ; |57| 
      858                           .line   17
      859                   ;----------------------------------------------------------------------
      860                   ;  58 | VCFo[0] *= (API_to_kgm3(f->density_oil.val)/API_to_kgm3(f->density_oilS
      861                   ;     | T.val));                                                               
      862                   ;  59 | else                                                                   
      863                   ;----------------------------------------------------------------------
      864 0000003e 08700000-        ldp       @CL2,DP
TMS320C3x/4x COFF AssemblerVersion 5.12     Mon Jan 31 16:14:26 2022
Copyright (c) 1987-1999 Texas Instruments Incorporatedasm30.exe -@_BR8.AAB 

Y:\workspace_eea\V615\APP\SOURCE\ASM\api.asm                         PAGE   17

      865 0000003f 504c0303         ldiu      *+fp(3),ar4           ; |58| 
      866 00000040 404200de         ldfu      *+ar0(222),f2         ; |58| 
      867 00000041 50200001-        ldiu      @CL2,r0               ; |58| 
      868 00000042 70000000         callu     r0                    ; far call to _API_to_kgm3      ; |58| 
      869                                                           ; |58| Far Call Occurs
      870 00000043 08700000-        ldp       @CL2,DP
      871 00000044 50480301         ldiu      *+fp(1),ar0           ; |58| 
      872 00000045 50210001-        ldiu      @CL2,r1               ; |58| 
      873 00000046 40060000         ldfu      f0,f6                 ; |58| 
      874 00000047 404200b2         ldfu      *+ar0(178),f2         ; |58| 
      875 00000048 70000001         callu     r1                    ; far call to _API_to_kgm3      ; |58| 
      876                                                           ; |58| Far Call Occurs
      877 00000049 40010000         ldfu      f0,f1                 ; |58| 
      878 0000004a 40000006         ldfu      f6,f0                 ; |58| 
      879 0000004b 62000000!        call      DIV_F30               ; |58| 
      880                                                           ; |58| Call Occurs
      881 0000004c 24c000c4         mpyf3     *ar4,f0,f0            ; |58| 
      882 0000004d 1440c400         stf       f0,*ar4               ; |58| 
      883 0000004e 6a000014         bu        L8                    ; |41| 
      884                   ;*      Branch Occurs to L8             ; |41| 
      885 0000004f          L6:        
      886                           .line   20
      887                   ;----------------------------------------------------------------------
      888                   ;  61 | pST = API_to_kgm3(f->density_oilST.val);                               
      889                   ;----------------------------------------------------------------------
      890 0000004f 08700000-        ldp       @CL2,DP
      891 00000050 50480301         ldiu      *+fp(1),ar0           ; |61| 
      892 00000051 50200001-        ldiu      @CL2,r0               ; |61| 
      893 00000052 404200b2         ldfu      *+ar0(178),f2         ; |61| 
      894 00000053 70000000         callu     r0                    ; far call to _API_to_kgm3      ; |61| 
      895                                                           ; |61| Far Call Occurs
      896 00000054 14400307         stf       f0,*+fp(7)            ; |61| 
      897                           .line   21
      898                   ;----------------------------------------------------------------------
      899                   ;  62 | vcf = API_PT_ST(f->density_oilST.aux, pST, 1, 1);                      
      900                   ;----------------------------------------------------------------------
      901 00000055 08700000-        ldp       @CL3,DP
      902 00000056 50480301         ldiu      *+fp(1),ar0           ; |62| 
      903 00000057 507b0001         ldiu      1,rc                  ; |62| 
      904 00000058 504a00b8         ldiu      *+ar0(184),ar2        ; |62| 
      905 00000059 50200002-        ldiu      @CL3,r0               ; |62| 
      906 0000005a 40420307         ldfu      *+fp(7),f2            ; |62| 
      907 0000005b 50630001         ldiu      1,r3                  ; |62| 
      908 0000005c 70000000         callu     r0                    ; far call to _API_PT_ST        ; |62| 
      909                                                           ; |62| Far Call Occurs
      910 0000005d 14400308         stf       f0,*+fp(8)            ; |62| 
      911                           .line   23
      912                   ;----------------------------------------------------------------------
      913                   ;  64 | if (vcf>0.0)                                                           
      914                   ;----------------------------------------------------------------------
      915 0000005e 04608000         cmpf      0.0000000000e+00,f0   ; |64| 
      916 0000005f 6a080003         ble       L8                    ; |64| 
      917                   ;*      Branch Occurs to L8             ; |64| 
      918                           .line   24
TMS320C3x/4x COFF AssemblerVersion 5.12     Mon Jan 31 16:14:26 2022
Copyright (c) 1987-1999 Texas Instruments Incorporatedasm30.exe -@_BR8.AAB 

Y:\workspace_eea\V615\APP\SOURCE\ASM\api.asm                         PAGE   18

      919                   ;----------------------------------------------------------------------
      920                   ;  65 | VCFo[0] *= vcf;                                                        
      921                   ;----------------------------------------------------------------------
      922 00000060 50480303         ldiu      *+fp(3),ar0           ; |65| 
      923 00000061 24c000c0         mpyf3     *ar0,f0,f0            ; |65| 
      924 00000062 1440c000         stf       f0,*ar0               ; |65| 
      925 00000063          L8:        
      926                           .line   27
      927                   ;----------------------------------------------------------------------
      928                   ;  68 | if ((f->density_water.val>0.0) && (f->density_waterST.val>0.0))        
      929                   ;----------------------------------------------------------------------
      930 00000063 50510301         ldiu      *+fp(1),ir0           ; |68| 
      931 00000064 50680136         ldiu      310,ar0               ; |68| 
      932 00000065 40608000         ldfu      0.0000000000e+00,f0   ; |68| 
      933 00000066 23204000         cmpf3     f0,*+ar0(ir0)         ; |68| 
      934 00000067 6a08000d         ble       L11                   ; |68| 
      935                   ;*      Branch Occurs to L11            ; |68| 
      936 00000068 5068010a         ldiu      266,ar0               ; |68| 
      937 00000069 40608000         ldfu      0.0000000000e+00,f0   ; |68| 
      938 0000006a 23204000         cmpf3     f0,*+ar0(ir0)         ; |68| 
      939 0000006b 6a080009         ble       L11                   ; |68| 
      940                   ;*      Branch Occurs to L11            ; |68| 
      941                           .line   28
      942                   ;----------------------------------------------------------------------
      943                   ;  69 | VCFw[0] *= (f->density_water.val/f->density_waterST.val);              
      944                   ;  70 | else                                                                   
      945                   ;----------------------------------------------------------------------
      946 0000006c 50680136         ldiu      310,ar0               ; |69| 
      947 0000006d 5069010a         ldiu      266,ar1               ; |69| 
      948 0000006e 50120011         ldiu      ir0,ir1               ; |69| 
      949 0000006f 504a0302         ldiu      *+fp(2),ar2           ; |69| 
      950                   
      951 00000070 c4404081         ldfu      *+ar1(ir1),f1         ; |69| 
      952                   ||      ldfu      *+ar0(ir0),f0         ; |69| 
      953                   
      954 00000071 62000000!        call      DIV_F30               ; |69| 
      955                                                           ; |69| Call Occurs
      956 00000072 24c000c2         mpyf3     *ar2,f0,f0            ; |69| 
      957 00000073 1440c200         stf       f0,*ar2               ; |69| 
      958 00000074 6a0000be         bu        L35                   ; |41| 
      959                   ;*      Branch Occurs to L35            ; |41| 
      960 00000075          L11:        
      961                           .line   31
      962                   ;----------------------------------------------------------------------
      963                   ;  72 | if (t < 60.0)                                                          
      964                   ;----------------------------------------------------------------------
      965 00000075 40400304         ldfu      *+fp(4),f0            ; |72| 
      966 00000076 04605700         cmpf      6.0000000000e+01,f0   ; |72| 
      967 00000077 6a0a0003         bge       L13                   ; |72| 
      968                   ;*      Branch Occurs to L13            ; |72| 
      969                           .line   32
      970                   ;----------------------------------------------------------------------
      971                   ;  73 | t = 60.0;               /* todo: how to handle this? */                
      972                   ;----------------------------------------------------------------------
TMS320C3x/4x COFF AssemblerVersion 5.12     Mon Jan 31 16:14:26 2022
Copyright (c) 1987-1999 Texas Instruments Incorporatedasm30.exe -@_BR8.AAB 

Y:\workspace_eea\V615\APP\SOURCE\ASM\api.asm                         PAGE   19

      973 00000078 40605700         ldfu      6.0000000000e+01,f0   ; |73| 
      974 00000079 14400304         stf       f0,*+fp(4)            ; |73| 
      975 0000007a 6a000007         bu        L15                   ; |41| 
      976                   ;*      Branch Occurs to L15            ; |41| 
      977 0000007b          L13:        
      978                           .line   33
      979                   ;----------------------------------------------------------------------
      980                   ;  74 | else if (t > 280.0)                                                    
      981                   ;----------------------------------------------------------------------
      982 0000007b 08700000-        ldp       @CL4,DP
      983 0000007c 40400304         ldfu      *+fp(4),f0            ; |74| 
      984 0000007d 04200003-        cmpf      @CL4,f0               ; |74| 
      985 0000007e 6a080003         ble       L15                   ; |74| 
      986                   ;*      Branch Occurs to L15            ; |74| 
      987                           .line   34
      988                   ;----------------------------------------------------------------------
      989                   ;  75 | t = 280.0;              /* todo: how to handle this? */                
      990                   ;----------------------------------------------------------------------
      991 0000007f 08700000-        ldp       @CL4,DP
      992 00000080 40200003-        ldfu      @CL4,f0               ; |75| 
      993 00000081 14400304         stf       f0,*+fp(4)            ; |75| 
      994 00000082          L15:        
      995                           .line   37
      996                   ;----------------------------------------------------------------------
      997                   ;  78 | t -= 60.0;                                                             
      998                   ;----------------------------------------------------------------------
      999 00000082 40605700         ldfu      6.0000000000e+01,f0   ; |78| 
     1000 00000083 19400304         subrf     *+fp(4),f0            ; |78| 
     1001 00000084 14400304         stf       f0,*+fp(4)            ; |78| 
     1002                           .line   39
     1003                   ;----------------------------------------------------------------------
     1004                   ;  80 | if (f->density_waterST.val>0.0)                                        
     1005                   ;----------------------------------------------------------------------
     1006 00000085 50510301         ldiu      *+fp(1),ir0           ; |80| 
     1007 00000086 5068010a         ldiu      266,ar0               ; |80| 
     1008 00000087 40608000         ldfu      0.0000000000e+00,f0   ; |80| 
     1009 00000088 23204000         cmpf3     f0,*+ar0(ir0)         ; |80| 
     1010 00000089 6a080007         ble       L17                   ; |80| 
     1011                   ;*      Branch Occurs to L17            ; |80| 
     1012                           .line   40
     1013                   ;----------------------------------------------------------------------
     1014                   ;  81 | B = (f->density_waterST.val - 999.0) / 7.2;                            
     1015                   ;  82 | else                                                                   
     1016                   ;----------------------------------------------------------------------
     1017 0000008a 08700000-        ldp       @CL5,DP
     1018 0000008b 40200004-        ldfu      @CL5,f0               ; |81| 
     1019 0000008c 08700000-        ldp       @CL6,DP
     1020 0000008d 26a04000         subf3     f0,*+ar0(ir0),f0      ; |81| 
     1021 0000008e 0a200005-        mpyf      @CL6,f0               ; |81| 
     1022 0000008f 14400306         stf       f0,*+fp(6)            ; |81| 
     1023 00000090 6a000006         bu        L18                   ; |41| 
     1024                   ;*      Branch Occurs to L18            ; |41| 
     1025 00000091          L17:        
     1026                           .line   42
TMS320C3x/4x COFF AssemblerVersion 5.12     Mon Jan 31 16:14:26 2022
Copyright (c) 1987-1999 Texas Instruments Incorporatedasm30.exe -@_BR8.AAB 

Y:\workspace_eea\V615\APP\SOURCE\ASM\api.asm                         PAGE   20

     1027                   ;----------------------------------------------------------------------
     1028                   ;  83 | B = f->salinity.calc_val;                                              
     1029                   ;----------------------------------------------------------------------
     1030 00000091 5068016b         ldiu      363,ar0               ; |83| 
     1031 00000092 02480301         addi      *+fp(1),ar0           ; |83| Unsigned
     1032 00000093 4040c000         ldfu      *ar0,f0               ; |83| 40b float hi half
     1033 00000094 50400001         ldiu      *+ar0,r0              ; |83| 40b float lo half
     1034 00000095 11000000         rnd       f0,f0                 ; |83| Demote to low precision
     1035 00000096 14400306         stf       f0,*+fp(6)            ; |83| 
     1036 00000097          L18:        
     1037                           .line   44
     1038                   ;----------------------------------------------------------------------
     1039                   ;  85 | if (B>14.0);    /* todo: how to handle this? */                        
     1040                   ;----------------------------------------------------------------------
     1041 00000097 40400306         ldfu      *+fp(6),f0            ; |85| 
     1042                           .line   46
     1043                   ;----------------------------------------------------------------------
     1044                   ;  87 | VCFw[0] *= 1.0 - (1.0312e-4 + 7.1568e-6*B)*t - (1.2701e-6 - 4.4641e-8*B
     1045                   ;     | )*t*t + (1.2333e-9 - 2.2436e-11*B)*t*t*t;                              
     1046                   ;  91 | else                                                                   
     1047                   ;----------------------------------------------------------------------
     1048 00000098 40010000         ldfu      f0,f1
     1049 00000099 08700000-        ldp       @CL8,DP
     1050 0000009a 0a210007-        mpyf      @CL8,f1               ; |87| 
     1051 0000009b 08700000-        ldp       @CL12,DP
     1052 0000009c 40020000         ldfu      f0,f2
     1053 0000009d 0a20000b-        mpyf      @CL12,f0              ; |87| 
     1054 0000009e 08700000-        ldp       @CL9,DP
     1055 0000009f 0a220008-        mpyf      @CL9,f2               ; |87| 
     1056 000000a0 08700000-        ldp       @CL7,DP
     1057 000000a1 19210006-        subrf     @CL7,f1               ; |87| 
     1058 000000a2 08700000-        ldp       @CL11,DP
     1059 000000a3 50480302         ldiu      *+fp(2),ar0           ; |87| 
     1060 000000a4 1920000a-        subrf     @CL11,f0              ; |87| 
     1061 000000a5 08700000-        ldp       @CL10,DP
     1062 000000a6 0a410304         mpyf      *+fp(4),f1            ; |87| 
     1063 000000a7 01a20009-        addf      @CL10,f2              ; |87| 
     1064 000000a8 0a400304         mpyf      *+fp(4),f0            ; |87| 
     1065 000000a9 0a410304         mpyf      *+fp(4),f1            ; |87| 
     1066 000000aa 0a420304         mpyf      *+fp(4),f2            ; |87| 
     1067 000000ab 0a400304         mpyf      *+fp(4),f0            ; |87| 
     1068 000000ac 0a410304         mpyf      *+fp(4),f1            ; |87| 
     1069 000000ad 19620000         subrf     1.0000000000e+00,f2   ; |87| 
     1070 000000ae 19000002         subrf     f2,f0                 ; |87| 
     1071 000000af 20800100         addf3     f0,f1,f0              ; |87| 
     1072 000000b0 24c000c0         mpyf3     *ar0,f0,f0            ; |87| 
     1073 000000b1 1440c000         stf       f0,*ar0               ; |87| 
     1074 000000b2 6a000080         bu        L35                   ; |41| 
     1075                   ;*      Branch Occurs to L35            ; |41| 
     1076 000000b3          L19:        
     1077                           .line   52
     1078                   ;----------------------------------------------------------------------
     1079                   ;  93 | t = Convert(f->T.class, f->T.calc_unit, u_temp_C, f->T.calc_val, 0, f->
     1080                   ;     | T.aux);                                                                
TMS320C3x/4x COFF AssemblerVersion 5.12     Mon Jan 31 16:14:26 2022
Copyright (c) 1987-1999 Texas Instruments Incorporatedasm30.exe -@_BR8.AAB 

Y:\workspace_eea\V615\APP\SOURCE\ASM\api.asm                         PAGE   21

     1081                   ;----------------------------------------------------------------------
     1082 000000b3 50480301         ldiu      *+fp(1),ar0           ; |93| 
     1083 000000b4 08700000-        ldp       @CL1,DP
     1084 000000b5 500c0008         ldiu      ar0,ar4               ; |93| 
     1085 000000b6 507b0020         ldiu      32,rc                 ; |93| 
     1086 000000b7 50090008         ldiu      ar0,ar1               ; |93| 
     1087 000000b8 500a0008         ldiu      ar0,ar2               ; |93| 
     1088 000000b9 40420435         ldfu      *+ar4(53),f2          ; |93| 40b float hi half
     1089 000000ba 50200000-        ldiu      @CL1,r0               ; |93| 
     1090 000000bb 505a0032         ldiu      *+ar0(50),re          ; |93| 
     1091 000000bc 5043013a         ldiu      *+ar1(58),r3          ; |93| 
     1092 000000bd 504a023b         ldiu      *+ar2(59),ar2         ; |93| 
     1093 000000be 50420436         ldiu      *+ar4(54),r2          ; |93| 40b float lo half
     1094 000000bf 50790000         ldiu      0,rs                  ; |93| 
     1095 000000c0 70000000         callu     r0                    ; far call to _Convert  ; |93| 
     1096                                                           ; |93| Far Call Occurs
     1097 000000c1 11000000         rnd       f0,f0                 ; |93| Demote to low precision
     1098 000000c2 14400304         stf       f0,*+fp(4)            ; |93| 
     1099                           .line   54
     1100                   ;----------------------------------------------------------------------
     1101                   ;  95 | if ((f->density_oil.val>0.0) && (f->density_oilST.val>0.0))            
     1102                   ;----------------------------------------------------------------------
     1103 000000c3 50480301         ldiu      *+fp(1),ar0           ; |95| 
     1104 000000c4 404000de         ldfu      *+ar0(222),f0         ; |95| 
     1105 000000c5 04608000         cmpf      0.0000000000e+00,f0   ; |95| 
     1106 000000c6 6a08000b         ble       L22                   ; |95| 
     1107                   ;*      Branch Occurs to L22            ; |95| 
     1108 000000c7 404000b2         ldfu      *+ar0(178),f0         ; |95| 
     1109 000000c8 04608000         cmpf      0.0000000000e+00,f0   ; |95| 
     1110 000000c9 6a080008         ble       L22                   ; |95| 
     1111                   ;*      Branch Occurs to L22            ; |95| 
     1112                           .line   55
     1113                   ;----------------------------------------------------------------------
     1114                   ;  96 | VCFo[0] *= (f->density_oil.val/f->density_oilST.val);                  
     1115                   ;  97 | else                                                                   
     1116                   ;----------------------------------------------------------------------
     1117 000000ca 404000de         ldfu      *+ar0(222),f0         ; |96| 
     1118 000000cb 50090008         ldiu      ar0,ar1
     1119 000000cc 504a0303         ldiu      *+fp(3),ar2           ; |96| 
     1120 000000cd 404101b2         ldfu      *+ar1(178),f1         ; |96| 
     1121 000000ce 62000000!        call      DIV_F30               ; |96| 
     1122                                                           ; |96| Call Occurs
     1123 000000cf 24c000c2         mpyf3     *ar2,f0,f0            ; |96| 
     1124 000000d0 1440c200         stf       f0,*ar2               ; |96| 
     1125 000000d1 6a000014         bu        L24                   ; |41| 
     1126                   ;*      Branch Occurs to L24            ; |41| 
     1127 000000d2          L22:        
     1128                           .line   58
     1129                   ;----------------------------------------------------------------------
     1130                   ;  99 | pST = API_to_kgm3(f->density_oilST.val);                               
     1131                   ;----------------------------------------------------------------------
     1132 000000d2 08700000-        ldp       @CL2,DP
     1133 000000d3 50480301         ldiu      *+fp(1),ar0           ; |99| 
     1134 000000d4 50200001-        ldiu      @CL2,r0               ; |99| 
TMS320C3x/4x COFF AssemblerVersion 5.12     Mon Jan 31 16:14:26 2022
Copyright (c) 1987-1999 Texas Instruments Incorporatedasm30.exe -@_BR8.AAB 

Y:\workspace_eea\V615\APP\SOURCE\ASM\api.asm                         PAGE   22

     1135 000000d5 404200b2         ldfu      *+ar0(178),f2         ; |99| 
     1136 000000d6 70000000         callu     r0                    ; far call to _API_to_kgm3      ; |99| 
     1137                                                           ; |99| Far Call Occurs
     1138 000000d7 14400307         stf       f0,*+fp(7)            ; |99| 
     1139                           .line   59
     1140                   ;----------------------------------------------------------------------
     1141                   ; 100 | vcf = API_PT_ST(f->density_oilST.aux, pST, 1, 1);                      
     1142                   ;----------------------------------------------------------------------
     1143 000000d8 08700000-        ldp       @CL3,DP
     1144 000000d9 50480301         ldiu      *+fp(1),ar0           ; |100| 
     1145 000000da 507b0001         ldiu      1,rc                  ; |100| 
     1146 000000db 504a00b8         ldiu      *+ar0(184),ar2        ; |100| 
     1147 000000dc 50200002-        ldiu      @CL3,r0               ; |100| 
     1148 000000dd 40420307         ldfu      *+fp(7),f2            ; |100| 
     1149 000000de 50630001         ldiu      1,r3                  ; |100| 
     1150 000000df 70000000         callu     r0                    ; far call to _API_PT_ST        ; |100| 
     1151                                                           ; |100| Far Call Occurs
     1152 000000e0 14400308         stf       f0,*+fp(8)            ; |100| 
     1153                           .line   61
     1154                   ;----------------------------------------------------------------------
     1155                   ; 102 | if (vcf>0.0)                                                           
     1156                   ;----------------------------------------------------------------------
     1157 000000e1 04608000         cmpf      0.0000000000e+00,f0   ; |102| 
     1158 000000e2 6a080003         ble       L24                   ; |102| 
     1159                   ;*      Branch Occurs to L24            ; |102| 
     1160                           .line   62
     1161                   ;----------------------------------------------------------------------
     1162                   ; 103 | VCFo[0] *= vcf;                                                        
     1163                   ;----------------------------------------------------------------------
     1164 000000e3 50480303         ldiu      *+fp(3),ar0           ; |103| 
     1165 000000e4 24c000c0         mpyf3     *ar0,f0,f0            ; |103| 
     1166 000000e5 1440c000         stf       f0,*ar0               ; |103| 
     1167 000000e6          L24:        
     1168                           .line   65
     1169                   ;----------------------------------------------------------------------
     1170                   ; 106 | if ((f->density_water.val>0.0) && (f->density_waterST.val>0.0))        
     1171                   ;----------------------------------------------------------------------
     1172 000000e6 50510301         ldiu      *+fp(1),ir0           ; |106| 
     1173 000000e7 50680136         ldiu      310,ar0               ; |106| 
     1174 000000e8 40608000         ldfu      0.0000000000e+00,f0   ; |106| 
     1175 000000e9 23204000         cmpf3     f0,*+ar0(ir0)         ; |106| 
     1176 000000ea 6a08000d         ble       L27                   ; |106| 
     1177                   ;*      Branch Occurs to L27            ; |106| 
     1178 000000eb 5068010a         ldiu      266,ar0               ; |106| 
     1179 000000ec 40608000         ldfu      0.0000000000e+00,f0   ; |106| 
     1180 000000ed 23204000         cmpf3     f0,*+ar0(ir0)         ; |106| 
     1181 000000ee 6a080009         ble       L27                   ; |106| 
     1182                   ;*      Branch Occurs to L27            ; |106| 
     1183                           .line   66
     1184                   ;----------------------------------------------------------------------
     1185                   ; 107 | VCFw[0] *= (f->density_water.val/f->density_waterST.val);              
     1186                   ; 108 | else                                                                   
     1187                   ;----------------------------------------------------------------------
     1188 000000ef 50680136         ldiu      310,ar0               ; |107| 
TMS320C3x/4x COFF AssemblerVersion 5.12     Mon Jan 31 16:14:26 2022
Copyright (c) 1987-1999 Texas Instruments Incorporatedasm30.exe -@_BR8.AAB 

Y:\workspace_eea\V615\APP\SOURCE\ASM\api.asm                         PAGE   23

     1189 000000f0 5069010a         ldiu      266,ar1               ; |107| 
     1190 000000f1 50120011         ldiu      ir0,ir1               ; |107| 
     1191 000000f2 504a0302         ldiu      *+fp(2),ar2           ; |107| 
     1192                   
     1193 000000f3 c4404081         ldfu      *+ar1(ir1),f1         ; |107| 
     1194                   ||      ldfu      *+ar0(ir0),f0         ; |107| 
     1195                   
     1196 000000f4 62000000!        call      DIV_F30               ; |107| 
     1197                                                           ; |107| Call Occurs
     1198 000000f5 24c000c2         mpyf3     *ar2,f0,f0            ; |107| 
     1199 000000f6 1440c200         stf       f0,*ar2               ; |107| 
     1200 000000f7 6a00003b         bu        L35                   ; |41| 
     1201                   ;*      Branch Occurs to L35            ; |41| 
     1202 000000f8          L27:        
     1203                           .line   69
     1204                   ;----------------------------------------------------------------------
     1205                   ; 110 | if (t < 15.0)                                                          
     1206                   ;----------------------------------------------------------------------
     1207 000000f8 40400304         ldfu      *+fp(4),f0            ; |110| 
     1208 000000f9 04603700         cmpf      1.5000000000e+01,f0   ; |110| 
     1209 000000fa 6a0a0003         bge       L29                   ; |110| 
     1210                   ;*      Branch Occurs to L29            ; |110| 
     1211                           .line   70
     1212                   ;----------------------------------------------------------------------
     1213                   ; 111 | t = 15.0;               /* todo: how to handle this? */                
     1214                   ;----------------------------------------------------------------------
     1215 000000fb 40603700         ldfu      1.5000000000e+01,f0   ; |111| 
     1216 000000fc 14400304         stf       f0,*+fp(4)            ; |111| 
     1217 000000fd 6a000005         bu        L31                   ; |41| 
     1218                   ;*      Branch Occurs to L31            ; |41| 
     1219 000000fe          L29:        
     1220                           .line   71
     1221                   ;----------------------------------------------------------------------
     1222                   ; 112 | else if (t > 138.0)                                                    
     1223                   ;----------------------------------------------------------------------
     1224 000000fe 40400304         ldfu      *+fp(4),f0            ; |112| 
     1225 000000ff 046070a0         cmpf      1.3800000000e+02,f0   ; |112| 
     1226 00000100 6a080002         ble       L31                   ; |112| 
     1227                   ;*      Branch Occurs to L31            ; |112| 
     1228                           .line   72
     1229                   ;----------------------------------------------------------------------
     1230                   ; 113 | t = 138.0;              /* todo: how to handle this? */                
     1231                   ;----------------------------------------------------------------------
     1232 00000101 406070a0         ldfu      1.3800000000e+02,f0   ; |113| 
     1233 00000102 14400304         stf       f0,*+fp(4)            ; |113| 
     1234 00000103          L31:        
     1235                           .line   75
     1236                   ;----------------------------------------------------------------------
     1237                   ; 116 | t -= 15.0;                                                             
     1238                   ;----------------------------------------------------------------------
     1239 00000103 40603700         ldfu      1.5000000000e+01,f0   ; |116| 
     1240 00000104 19400304         subrf     *+fp(4),f0            ; |116| 
     1241 00000105 14400304         stf       f0,*+fp(4)            ; |116| 
     1242                           .line   77
TMS320C3x/4x COFF AssemblerVersion 5.12     Mon Jan 31 16:14:26 2022
Copyright (c) 1987-1999 Texas Instruments Incorporatedasm30.exe -@_BR8.AAB 

Y:\workspace_eea\V615\APP\SOURCE\ASM\api.asm                         PAGE   24

     1243                   ;----------------------------------------------------------------------
     1244                   ; 118 | if (f->density_waterST.val>0.0)                                        
     1245                   ;----------------------------------------------------------------------
     1246 00000106 50510301         ldiu      *+fp(1),ir0           ; |118| 
     1247 00000107 5068010a         ldiu      266,ar0               ; |118| 
     1248 00000108 40608000         ldfu      0.0000000000e+00,f0   ; |118| 
     1249 00000109 23204000         cmpf3     f0,*+ar0(ir0)         ; |118| 
     1250 0000010a 6a080007         ble       L33                   ; |118| 
     1251                   ;*      Branch Occurs to L33            ; |118| 
     1252                           .line   78
     1253                   ;----------------------------------------------------------------------
     1254                   ; 119 | B = (f->density_waterST.val - 999.0) / 7.2;                            
     1255                   ; 120 | else                                                                   
     1256                   ;----------------------------------------------------------------------
     1257 0000010b 08700000-        ldp       @CL5,DP
     1258 0000010c 40200004-        ldfu      @CL5,f0               ; |119| 
     1259 0000010d 08700000-        ldp       @CL6,DP
     1260 0000010e 26a04000         subf3     f0,*+ar0(ir0),f0      ; |119| 
     1261 0000010f 0a200005-        mpyf      @CL6,f0               ; |119| 
     1262 00000110 14400306         stf       f0,*+fp(6)            ; |119| 
     1263 00000111 6a000006         bu        L34                   ; |41| 
     1264                   ;*      Branch Occurs to L34            ; |41| 
     1265 00000112          L33:        
     1266                           .line   80
     1267                   ;----------------------------------------------------------------------
     1268                   ; 121 | B = f->salinity.calc_val;                                              
     1269                   ;----------------------------------------------------------------------
     1270 00000112 5068016b         ldiu      363,ar0               ; |121| 
     1271 00000113 02480301         addi      *+fp(1),ar0           ; |121| Unsigned
     1272 00000114 4040c000         ldfu      *ar0,f0               ; |121| 40b float hi half
     1273 00000115 50400001         ldiu      *+ar0,r0              ; |121| 40b float lo half
     1274 00000116 11000000         rnd       f0,f0                 ; |121| Demote to low precision
     1275 00000117 14400306         stf       f0,*+fp(6)            ; |121| 
     1276 00000118          L34:        
     1277                           .line   82
     1278                   ;----------------------------------------------------------------------
     1279                   ; 123 | if (B>14.0);    /* todo: how to handle this? */                        
     1280                   ;----------------------------------------------------------------------
     1281 00000118 40400306         ldfu      *+fp(6),f0            ; |123| 
     1282                           .line   84
     1283                   ;----------------------------------------------------------------------
     1284                   ; 125 | VCFw[0] *= 1.0 - (1.8562e-4 + 1.2882e-5*B)*t - (4.1151e-6 - 1.4464e-7*B
     1285                   ;     | )*t*t + (7.1926e-9 - 1.3085e-10*B)*t*t*t;                              
     1286                   ;----------------------------------------------------------------------
     1287 00000119 40010000         ldfu      f0,f1
     1288 0000011a 08700000-        ldp       @CL14,DP
     1289 0000011b 0a21000d-        mpyf      @CL14,f1              ; |125| 
     1290 0000011c 08700000-        ldp       @CL18,DP
     1291 0000011d 40020000         ldfu      f0,f2
     1292 0000011e 0a200011-        mpyf      @CL18,f0              ; |125| 
     1293 0000011f 08700000-        ldp       @CL15,DP
     1294 00000120 0a22000e-        mpyf      @CL15,f2              ; |125| 
     1295 00000121 08700000-        ldp       @CL13,DP
     1296 00000122 1921000c-        subrf     @CL13,f1              ; |125| 
TMS320C3x/4x COFF AssemblerVersion 5.12     Mon Jan 31 16:14:26 2022
Copyright (c) 1987-1999 Texas Instruments Incorporatedasm30.exe -@_BR8.AAB 

Y:\workspace_eea\V615\APP\SOURCE\ASM\api.asm                         PAGE   25

     1297 00000123 08700000-        ldp       @CL17,DP
     1298 00000124 50480302         ldiu      *+fp(2),ar0           ; |125| 
     1299 00000125 19200010-        subrf     @CL17,f0              ; |125| 
     1300 00000126 08700000-        ldp       @CL16,DP
     1301 00000127 0a410304         mpyf      *+fp(4),f1            ; |125| 
     1302 00000128 01a2000f-        addf      @CL16,f2              ; |125| 
     1303 00000129 0a400304         mpyf      *+fp(4),f0            ; |125| 
     1304 0000012a 0a410304         mpyf      *+fp(4),f1            ; |125| 
     1305 0000012b 0a420304         mpyf      *+fp(4),f2            ; |125| 
     1306 0000012c 0a400304         mpyf      *+fp(4),f0            ; |125| 
     1307 0000012d 0a410304         mpyf      *+fp(4),f1            ; |125| 
     1308 0000012e 19620000         subrf     1.0000000000e+00,f2   ; |125| 
     1309 0000012f 19000002         subrf     f2,f0                 ; |125| 
     1310 00000130 20800100         addf3     f0,f1,f0              ; |125| 
     1311 00000131 24c000c0         mpyf3     *ar0,f0,f0            ; |125| 
     1312 00000132 1440c000         stf       f0,*ar0               ; |125| 
     1313 00000133          L35:        
     1314                           .line   88
     1315                                                           ; Begin Epilog Code
     1316 00000133 50410b01         ldiu      *-fp(1),r1
     1317 00000134 504bc300         ldiu      *fp,fp
     1318                                                           ; Restore SOE Registers
     1319 00000135 0e2c0000         pop       ar4
     1320 00000136 0ea60000         popf      f6
     1321                                                           ; Unallocate the Frame
     1322 00000137 1874000a         subi      10,sp
     1323 00000138 68000001         bu        r1
     1324                   ;*      Branch Occurs to r1 
     1325                           .endfunc        129,000001040h,8
     1326                   
     1327                   
     1328 00000139                  .sect    ".text"
     1329                   
     1330                           .global _API_STATUS
     1331                           .sym    _API_STATUS,_API_STATUS,32,2,0
     1332                           .func   144
     1333                   ;******************************************************************************
     1334                   ;* FUNCTION NAME: _API_STATUS                                                 *
     1335                   ;*                                                                            *
     1336                   ;*   Architecture       : TMS320C33                                           *
     1337                   ;*   Calling Convention : TI Standard Register Parameters                     *
     1338                   ;*   Function Uses Regs : r0,r2,ar0,ar2,st                                    *
     1339                   ;*   Regs Saved         :                                                     *
     1340                   ;*   Stack Frame        : Full (w/ debug)                                     *
     1341                   ;*   Total Frame Size   : 2 Call + 0 Parm + 5 Auto + 0 SOE = 7 words          *
     1342                   ;******************************************************************************
     1343 00000139          _API_STATUS:
     1344                   ;* ar2   assigned to _fcidx
     1345                           .sym    _fcidx,10,4,17,32
     1346                   ;* r2    assigned to _type
     1347                           .sym    _type,2,14,17,32
     1348                           .sym    _fcidx,1,4,1,32
     1349                           .sym    _type,2,14,1,32
     1350                           .sym    _r,3,14,1,32
TMS320C3x/4x COFF AssemblerVersion 5.12     Mon Jan 31 16:14:26 2022
Copyright (c) 1987-1999 Texas Instruments Incorporatedasm30.exe -@_BR8.AAB 

Y:\workspace_eea\V615\APP\SOURCE\ASM\api.asm                         PAGE   26

     1351                           .sym    _f,4,14,1,32
     1352                           .sym    _e,5,14,1,32
     1353                           .line   1
     1354                   ;----------------------------------------------------------------------
     1355                   ; 144 | void API_STATUS(const int fcidx, const BOOL type)                      
     1356                   ;----------------------------------------------------------------------
     1357 00000139 0f2b0000         push      fp
     1358 0000013a 500b0014         ldiu      sp,fp
     1359 0000013b 02740005         addi      5,sp
     1360                           .line   2
     1361                   ;----------------------------------------------------------------------
     1362                   ; 146 | unsigned int r;                                                        
     1363                   ; 147 | unsigned int f; /* fail code */                                        
     1364                   ; 148 | unsigned int e; /* extrapolate code */                                 
     1365                   ; 150 | switch (fcidx)                                                         
     1366                   ; 152 |         case 2:                                                        
     1367                   ;----------------------------------------------------------------------
     1368 0000013c 15420302         sti       r2,*+fp(2)            ; |145| 
     1369 0000013d 154a0301         sti       ar2,*+fp(1)           ; |145| 
     1370 0000013e 6a00000f         bu        L42                   ; |143| 
     1371                   ;*      Branch Occurs to L42            ; |143| 
     1372 0000013f          L38:        
     1373                           .line   11
     1374                   ;----------------------------------------------------------------------
     1375                   ; 154 | f = ERROR2_FC3_FAIL;                                                   
     1376                   ;----------------------------------------------------------------------
     1377 0000013f 50600008         ldiu      8,r0                  ; |154| 
     1378 00000140 15400304         sti       r0,*+fp(4)            ; |154| 
     1379                           .line   12
     1380                   ;----------------------------------------------------------------------
     1381                   ; 155 | e = ERROR2_FC3_EXTRAPOLATE;                                            
     1382                   ;----------------------------------------------------------------------
     1383 00000141 50600080         ldiu      128,r0                ; |155| 
     1384 00000142 15400305         sti       r0,*+fp(5)            ; |155| 
     1385                           .line   13
     1386                   ;----------------------------------------------------------------------
     1387                   ; 156 | break;                                                                 
     1388                   ; 158 | case 1:                                                                
     1389                   ;----------------------------------------------------------------------
     1390 00000143 6a000012         bu        L46                   ; |156| 
     1391                   ;*      Branch Occurs to L46            ; |156| 
     1392 00000144          L39:        
     1393                           .line   17
     1394                   ;----------------------------------------------------------------------
     1395                   ; 160 | f = ERROR2_FC2_FAIL;                                                   
     1396                   ;----------------------------------------------------------------------
     1397 00000144 50600004         ldiu      4,r0                  ; |160| 
     1398 00000145 15400304         sti       r0,*+fp(4)            ; |160| 
     1399                           .line   18
     1400                   ;----------------------------------------------------------------------
     1401                   ; 161 | e = ERROR2_FC2_EXTRAPOLATE;                                            
     1402                   ;----------------------------------------------------------------------
     1403 00000146 50600040         ldiu      64,r0                 ; |161| 
     1404 00000147 15400305         sti       r0,*+fp(5)            ; |161| 
TMS320C3x/4x COFF AssemblerVersion 5.12     Mon Jan 31 16:14:26 2022
Copyright (c) 1987-1999 Texas Instruments Incorporatedasm30.exe -@_BR8.AAB 

Y:\workspace_eea\V615\APP\SOURCE\ASM\api.asm                         PAGE   27

     1405                           .line   19
     1406                   ;----------------------------------------------------------------------
     1407                   ; 162 | break;                                                                 
     1408                   ; 164 | case 0:                                                                
     1409                   ;----------------------------------------------------------------------
     1410 00000148 6a00000d         bu        L46                   ; |162| 
     1411                   ;*      Branch Occurs to L46            ; |162| 
     1412 00000149          L40:        
     1413                           .line   23
     1414                   ;----------------------------------------------------------------------
     1415                   ; 166 | f = ERROR2_FC1_FAIL;                                                   
     1416                   ;----------------------------------------------------------------------
     1417 00000149 50600002         ldiu      2,r0                  ; |166| 
     1418 0000014a 15400304         sti       r0,*+fp(4)            ; |166| 
     1419                           .line   24
     1420                   ;----------------------------------------------------------------------
     1421                   ; 167 | e = ERROR2_FC1_EXTRAPOLATE;                                            
     1422                   ;----------------------------------------------------------------------
     1423 0000014b 50600020         ldiu      32,r0                 ; |167| 
     1424 0000014c 15400305         sti       r0,*+fp(5)            ; |167| 
     1425                           .line   25
     1426                   ;----------------------------------------------------------------------
     1427                   ; 168 | break;                                                                 
     1428                   ; 170 | default:                                                               
     1429                   ;----------------------------------------------------------------------
     1430 0000014d 6a000008         bu        L46                   ; |168| 
     1431                   ;*      Branch Occurs to L46            ; |168| 
     1432                           .line   29
     1433                   ;----------------------------------------------------------------------
     1434                   ; 172 | return;                                                                
     1435                   ;----------------------------------------------------------------------
     1436 0000014e          L42:        
     1437                           .line   7
     1438 0000014e 50400301         ldiu      *+fp(1),r0            ; |150| 
     1439 0000014f 04e00000         cmpi      0,r0                  ; |150| 
     1440 00000150 6a05fff8         beq       L40                   ; |150| 
     1441                   ;*      Branch Occurs to L40            ; |150| 
     1442 00000151 04e00001         cmpi      1,r0                  ; |150| 
     1443 00000152 6a05fff1         beq       L39                   ; |150| 
     1444                   ;*      Branch Occurs to L39            ; |150| 
     1445 00000153 04e00002         cmpi      2,r0                  ; |150| 
     1446 00000154 6a05ffea         beq       L38                   ; |150| 
     1447                   ;*      Branch Occurs to L38            ; |150| 
     1448 00000155 6a00001a         bu        L53                   ; |150| 
     1449                   ;*      Branch Occurs to L53            ; |150| 
     1450 00000156          L46:        
     1451                           .line   33
     1452                   ;----------------------------------------------------------------------
     1453                   ; 176 | r                               = e|f;                                 
     1454                   ;----------------------------------------------------------------------
     1455 00000156 50400304         ldiu      *+fp(4),r0            ; |176| 
     1456 00000157 10400305         or        *+fp(5),r0            ; |176| 
     1457 00000158 15400303         sti       r0,*+fp(3)            ; |176| 
     1458                           .line   34
TMS320C3x/4x COFF AssemblerVersion 5.12     Mon Jan 31 16:14:26 2022
Copyright (c) 1987-1999 Texas Instruments Incorporatedasm30.exe -@_BR8.AAB 

Y:\workspace_eea\V615\APP\SOURCE\ASM\api.asm                         PAGE   28

     1459                   ;----------------------------------------------------------------------
     1460                   ; 177 | DIAGNOSTICS[1] &= (0xFFFFFFFF & r);                                    
     1461                   ;----------------------------------------------------------------------
     1462 00000159 08700000-        ldp       @CL19,DP
     1463 0000015a 50280012-        ldiu      @CL19,ar0             ; |177| 
     1464 0000015b 02c00001         and       *+ar0(1),r0           ; |177| 
     1465 0000015c 15400001         sti       r0,*+ar0(1)           ; |177| 
     1466                           .line   35
     1467                   ;----------------------------------------------------------------------
     1468                   ; 178 | r                               = 0;                                   
     1469                   ; 180 | switch (type)                                                          
     1470                   ; 182 |         case 1:                                                        
     1471                   ;----------------------------------------------------------------------
     1472 0000015d 50600000         ldiu      0,r0                  ; |178| 
     1473 0000015e 15400303         sti       r0,*+fp(3)            ; |178| 
     1474 0000015f 6a000006         bu        L50                   ; |143| 
     1475                   ;*      Branch Occurs to L50            ; |143| 
     1476 00000160          L47:        
     1477                           .line   41
     1478                   ;----------------------------------------------------------------------
     1479                   ; 184 | r = e;                                                                 
     1480                   ;----------------------------------------------------------------------
     1481 00000160 50400305         ldiu      *+fp(5),r0            ; |184| 
     1482 00000161 15400303         sti       r0,*+fp(3)            ; |184| 
     1483                           .line   42
     1484                   ;----------------------------------------------------------------------
     1485                   ; 185 | break;                                                                 
     1486                   ; 187 | case 2:                                                                
     1487                   ;----------------------------------------------------------------------
     1488 00000162 6a000008         bu        L52                   ; |185| 
     1489                   ;*      Branch Occurs to L52            ; |185| 
     1490 00000163          L48:        
     1491                           .line   46
     1492                   ;----------------------------------------------------------------------
     1493                   ; 189 | r = f;                                                                 
     1494                   ;----------------------------------------------------------------------
     1495 00000163 50400304         ldiu      *+fp(4),r0            ; |189| 
     1496 00000164 15400303         sti       r0,*+fp(3)            ; |189| 
     1497                           .line   47
     1498                   ;----------------------------------------------------------------------
     1499                   ; 190 | break;                                                                 
     1500                   ; 192 | default:                                                               
     1501                   ;----------------------------------------------------------------------
     1502 00000165 6a000005         bu        L52                   ; |190| 
     1503                   ;*      Branch Occurs to L52            ; |190| 
     1504                           .line   51
     1505                   ;----------------------------------------------------------------------
     1506                   ; 194 | break;                                                                 
     1507                   ;----------------------------------------------------------------------
     1508 00000166          L50:        
     1509                           .line   37
     1510 00000166 50400302         ldiu      *+fp(2),r0            ; |180| 
     1511 00000167 04e00001         cmpi      1,r0                  ; |180| 
     1512 00000168 6a05fff7         beq       L47                   ; |180| 
TMS320C3x/4x COFF AssemblerVersion 5.12     Mon Jan 31 16:14:26 2022
Copyright (c) 1987-1999 Texas Instruments Incorporatedasm30.exe -@_BR8.AAB 

Y:\workspace_eea\V615\APP\SOURCE\ASM\api.asm                         PAGE   29

     1513                   ;*      Branch Occurs to L47            ; |180| 
     1514 00000169 04e00002         cmpi      2,r0                  ; |180| 
     1515 0000016a 6a05fff8         beq       L48                   ; |180| 
     1516                   ;*      Branch Occurs to L48            ; |180| 
     1517 0000016b          L52:        
     1518                           .line   55
     1519                   ;----------------------------------------------------------------------
     1520                   ; 198 | DIAGNOSTICS[1] |= r;                                                   
     1521                   ;----------------------------------------------------------------------
     1522 0000016b 08700000-        ldp       @CL19,DP
     1523 0000016c 50280012-        ldiu      @CL19,ar0             ; |198| 
     1524 0000016d 50400303         ldiu      *+fp(3),r0            ; |198| 
     1525 0000016e 10400001         or        *+ar0(1),r0           ; |198| 
     1526 0000016f 15400001         sti       r0,*+ar0(1)           ; |198| 
     1527 00000170          L53:        
     1528                           .line   56
     1529                                                           ; Begin Epilog Code
     1530 00000170 50410b01         ldiu      *-fp(1),r1
     1531 00000171 504bc300         ldiu      *fp,fp
     1532                                                           ; Unallocate the Frame
     1533 00000172 18740007         subi      7,sp
     1534 00000173 68000001         bu        r1
     1535                   ;*      Branch Occurs to r1 
     1536                           .endfunc        199,000000000h,5
     1537                   
     1538                   
     1539 00000174                  .sect    ".text"
     1540                   
     1541                           .global _API_60F_PT
     1542                           .sym    _API_60F_PT,_API_60F_PT,39,2,0
     1543                           .func   216
     1544                   ;******************************************************************************
     1545                   ;* FUNCTION NAME: _API_60F_PT                                                 *
     1546                   ;*                                                                            *
     1547                   ;*   Architecture       : TMS320C33                                           *
     1548                   ;*   Calling Convention : TI Standard Register Parameters                     *
     1549                   ;*   Function Uses Regs : f0,r0,f1,r1,f2,r2,r3,ar0,ar1,ar2,ar4,ir0,st,rs,re,  *
     1550                   ;*                        rc                                                  *
     1551                   ;*   Regs Saved         : ar4                                                 *
     1552                   ;*   Stack Frame        : Full (w/ debug)                                     *
     1553                   ;*   Total Frame Size   : 2 Call + 0 Parm + 13 Auto + 1 SOE = 16 words        *
     1554                   ;******************************************************************************
     1555 00000174          _API_60F_PT:
     1556                   ;* ar2   assigned to _fcidx
     1557                           .sym    _fcidx,10,4,17,32
     1558                   ;* f2    assigned to _r
     1559                           .sym    _r,2,7,17,32
     1560                   ;* r3    assigned to _k_set
     1561                           .sym    _k_set,3,20,17,32
     1562                           .sym    _fcidx,1,4,1,32
     1563                           .sym    _r,2,7,1,32
     1564                           .sym    _k_set,3,20,1,32
     1565                           .sym    _t,4,7,1,32
     1566                           .sym    _p,5,7,1,32
TMS320C3x/4x COFF AssemblerVersion 5.12     Mon Jan 31 16:14:26 2022
Copyright (c) 1987-1999 Texas Instruments Incorporatedasm30.exe -@_BR8.AAB 

Y:\workspace_eea\V615\APP\SOURCE\ASM\api.asm                         PAGE   30

     1567                           .sym    _a,6,7,1,32
     1568                           .sym    _k0,7,7,1,32
     1569                           .sym    _k1,8,7,1,32
     1570                           .sym    _k2,9,7,1,32
     1571                           .sym    _t1,10,7,1,32
     1572                           .sym    _t2,11,7,1,32
     1573                           .sym    _t3,12,7,1,32
     1574                           .sym    _f,13,24,1,32,.fake31
     1575                           .line   1
     1576                   ;----------------------------------------------------------------------
     1577                   ; 216 | double API_60F_PT(const int fcidx, const double r, int* k_set)         
     1578                   ;----------------------------------------------------------------------
     1579 00000174 0f2b0000         push      fp
     1580 00000175 500b0014         ldiu      sp,fp
     1581 00000176 0274000d         addi      13,sp
     1582 00000177 0f2c0000         push      ar4
     1583                           .line   2
     1584                   ;----------------------------------------------------------------------
     1585                   ; 218 | double t;       /* temperature */                                      
     1586                   ; 220 | double p;       /* pressure (NOT! -DHA)*/                              
     1587                   ; 226 | double a;                                                              
     1588                   ; 227 | double k0;      /* constant */                                         
     1589                   ; 228 | double k1;      /* constant */                                         
     1590                   ; 229 | double k2;      /* constant */                                         
     1591                   ; 230 | double t1;                                                             
     1592                   ; 231 | double t2;                                                             
     1593                   ; 232 | double t3;                                                             
     1594                   ; 233 | FLOW_COMP* f;                                                          
     1595                   ;----------------------------------------------------------------------
     1596 00000178 15430303         sti       r3,*+fp(3)            ; |217| 
     1597 00000179 14420302         stf       f2,*+fp(2)            ; |217| 
     1598 0000017a 154a0301         sti       ar2,*+fp(1)           ; |217| 
     1599                           .line   20
     1600                   ;----------------------------------------------------------------------
     1601                   ; 235 | _GIEP;                                                                 
     1602                   ;----------------------------------------------------------------------
     1603 0000017b 0f350000         push    ST                      
     1604 0000017c 03752000         andn    2000h, ST       
     1605                           .line   21
     1606                   ;----------------------------------------------------------------------
     1607                   ; 236 | f = &FC[fcidx];                                                        
     1608                   ;----------------------------------------------------------------------
     1609 0000017d 5000000a         ldiu      ar2,r0
     1610 0000017e 08700000-        ldp       @CL20,DP
     1611 0000017f 0ae00538         mpyi      1336,r0               ; |236| 
     1612 00000180 02200013-        addi      @CL20,r0              ; |236| Unsigned
     1613 00000181 1540030d         sti       r0,*+fp(13)           ; |236| 
     1614                           .line   22
     1615                   ;----------------------------------------------------------------------
     1616                   ; 237 | t = Convert(f->T.class, f->T.calc_unit, u_temp_F, f->T.calc_val, 0, f->
     1617                   ;     | T.aux);                                                                
     1618                   ;----------------------------------------------------------------------
     1619 00000182 507b0021         ldiu      33,rc                 ; |237| 
     1620 00000183 50090000         ldiu      r0,ar1
TMS320C3x/4x COFF AssemblerVersion 5.12     Mon Jan 31 16:14:26 2022
Copyright (c) 1987-1999 Texas Instruments Incorporatedasm30.exe -@_BR8.AAB 

Y:\workspace_eea\V615\APP\SOURCE\ASM\api.asm                         PAGE   31

     1621 00000184 08700000-        ldp       @CL1,DP
     1622 00000185 50080000         ldiu      r0,ar0
     1623 00000186 500a0000         ldiu      r0,ar2
     1624 00000187 40420135         ldfu      *+ar1(53),f2          ; |237| 40b float hi half
     1625 00000188 500c0000         ldiu      r0,ar4
     1626 00000189 505a0232         ldiu      *+ar2(50),re          ; |237| 
     1627 0000018a 5043003a         ldiu      *+ar0(58),r3          ; |237| 
     1628 0000018b 504a043b         ldiu      *+ar4(59),ar2         ; |237| 
     1629 0000018c 50200000-        ldiu      @CL1,r0               ; |237| 
     1630 0000018d 50420136         ldiu      *+ar1(54),r2          ; |237| 40b float lo half
     1631 0000018e 50790000         ldiu      0,rs                  ; |237| 
     1632 0000018f 70000000         callu     r0                    ; far call to _Convert  ; |237| 
     1633                                                           ; |237| Far Call Occurs
     1634 00000190 11000000         rnd       f0,f0                 ; |237| Demote to low precision
     1635 00000191 14400304         stf       f0,*+fp(4)            ; |237| 
     1636                           .line   23
     1637                   ;----------------------------------------------------------------------
     1638                   ; 238 | p = kgm3_to_API(r);                                                    
     1639                   ;----------------------------------------------------------------------
     1640 00000192 08700000-        ldp       @CL21,DP
     1641 00000193 50200014-        ldiu      @CL21,r0              ; |238| 
     1642 00000194 40420302         ldfu      *+fp(2),f2            ; |238| 
     1643 00000195 70000000         callu     r0                    ; far call to _kgm3_to_API      ; |238| 
     1644                                                           ; |238| Far Call Occurs
     1645 00000196 14400305         stf       f0,*+fp(5)            ; |238| 
     1646                           .line   25
     1647                   ;----------------------------------------------------------------------
     1648                   ; 240 | API_STATUS(fcidx, 0);                   /* clear API status bits */    
     1649                   ; 242 | switch (f->API_TABLE>>8)                                               
     1650                   ; 244 |         case 'A':                                                      
     1651                   ; 246 |                 //if((t<0.0) || (p<0.0) || (p>100.0))                  
     1652                   ;----------------------------------------------------------------------
     1653 00000197 08700000-        ldp       @CL22,DP
     1654 00000198 50620000         ldiu      0,r2                  ; |240| 
     1655 00000199 50200015-        ldiu      @CL22,r0              ; |240| 
     1656 0000019a 504a0301         ldiu      *+fp(1),ar2           ; |240| 
     1657 0000019b 70000000         callu     r0                    ; far call to _API_STATUS       ; |240| 
     1658                                                           ; |240| Far Call Occurs
     1659 0000019c 6a0001d6         bu        L165                  ; |215| 
     1660                   ;*      Branch Occurs to L165           ; |215| 
     1661 0000019d          L56:        
     1662                           .line   32
     1663                   ;----------------------------------------------------------------------
     1664                   ; 247 | if((t<0.0) || (p<0.0) || (p>183.0))                                    
     1665                   ;----------------------------------------------------------------------
     1666 0000019d 40400304         ldfu      *+fp(4),f0            ; |247| 
     1667 0000019e 04608000         cmpf      0.0000000000e+00,f0   ; |247| 
     1668 0000019f 6a070005         blt       L59                   ; |247| 
     1669                   ;*      Branch Occurs to L59            ; |247| 
     1670 000001a0 40400305         ldfu      *+fp(5),f0            ; |247| 
     1671 000001a1 04608000         cmpf      0.0000000000e+00,f0   ; |247| 
     1672 000001a2 6a070002         blt       L59                   ; |247| 
     1673                   ;*      Branch Occurs to L59            ; |247| 
     1674 000001a3 04607370         cmpf      1.8300000000e+02,f0   ; |247| 
TMS320C3x/4x COFF AssemblerVersion 5.12     Mon Jan 31 16:14:26 2022
Copyright (c) 1987-1999 Texas Instruments Incorporatedasm30.exe -@_BR8.AAB 

Y:\workspace_eea\V615\APP\SOURCE\ASM\api.asm                         PAGE   32

     1675 000001a4 6a08000a         ble       L61                   ; |247| 
     1676                   ;*      Branch Occurs to L61            ; |247| 
     1677 000001a5          L59:        
     1678                           .line   34
     1679                   ;----------------------------------------------------------------------
     1680                   ; 249 | API_STATUS(fcidx, API_fail);                                           
     1681                   ;----------------------------------------------------------------------
     1682 000001a5 08700000-        ldp       @CL22,DP
     1683 000001a6 504a0301         ldiu      *+fp(1),ar2           ; |249| 
     1684 000001a7 50620002         ldiu      2,r2                  ; |249| 
     1685 000001a8 50200015-        ldiu      @CL22,r0              ; |249| 
     1686 000001a9 70000000         callu     r0                    ; far call to _API_STATUS       ; |249| 
     1687                                                           ; |249| Far Call Occurs
     1688                           .line   35
     1689                   ;----------------------------------------------------------------------
     1690                   ; 250 | GIEP;                                                                  
     1691                   ;----------------------------------------------------------------------
     1692 000001aa 0e350000         pop             ST                      
     1693                           .line   37
     1694                   ;----------------------------------------------------------------------
     1695                   ; 252 | return API_error_num;                                                  
     1696                   ;----------------------------------------------------------------------
     1697 000001ab 6a20020d         bud       L173                  ; |252| 
     1698 000001ac 0c800000         nop
     1699 000001ad 08700000-        ldp       @CL23,DP
     1700 000001ae 40200016-        ldfu      @CL23,f0              ; |252| 
     1701                   ;*      Branch Occurs to L173           ; |252| 
     1702 000001af          L61:        
     1703                           .line   39
     1704                   ;----------------------------------------------------------------------
     1705                   ; 254 | else if(p<40.0)                                                        
     1706                   ;----------------------------------------------------------------------
     1707 000001af 40400305         ldfu      *+fp(5),f0            ; |254| 
     1708 000001b0 04605200         cmpf      4.0000000000e+01,f0   ; |254| 
     1709 000001b1 6a0a0017         bge       L67                   ; |254| 
     1710                   ;*      Branch Occurs to L67            ; |254| 
     1711                           .line   41
     1712                   ;----------------------------------------------------------------------
     1713                   ; 256 | if(t>300.0)                                                            
     1714                   ;----------------------------------------------------------------------
     1715 000001b2 08700000-        ldp       @CL24,DP
     1716 000001b3 40400304         ldfu      *+fp(4),f0            ; |256| 
     1717 000001b4 04200017-        cmpf      @CL24,f0              ; |256| 
     1718 000001b5 6a08000a         ble       L65                   ; |256| 
     1719                   ;*      Branch Occurs to L65            ; |256| 
     1720                           .line   43
     1721                   ;----------------------------------------------------------------------
     1722                   ; 258 | API_STATUS(fcidx, API_fail);                                           
     1723                   ;----------------------------------------------------------------------
     1724 000001b6 08700000-        ldp       @CL22,DP
     1725 000001b7 504a0301         ldiu      *+fp(1),ar2           ; |258| 
     1726 000001b8 50620002         ldiu      2,r2                  ; |258| 
     1727 000001b9 50200015-        ldiu      @CL22,r0              ; |258| 
     1728 000001ba 70000000         callu     r0                    ; far call to _API_STATUS       ; |258| 
TMS320C3x/4x COFF AssemblerVersion 5.12     Mon Jan 31 16:14:26 2022
Copyright (c) 1987-1999 Texas Instruments Incorporatedasm30.exe -@_BR8.AAB 

Y:\workspace_eea\V615\APP\SOURCE\ASM\api.asm                         PAGE   33

     1729                                                           ; |258| Far Call Occurs
     1730                           .line   44
     1731                   ;----------------------------------------------------------------------
     1732                   ; 259 | GIEP;                                                                  
     1733                   ;----------------------------------------------------------------------
     1734 000001bb 0e350000         pop             ST                      
     1735                           .line   46
     1736                   ;----------------------------------------------------------------------
     1737                   ; 261 | return API_error_num;                                                  
     1738                   ;----------------------------------------------------------------------
     1739 000001bc 6a2001fc         bud       L173                  ; |261| 
     1740 000001bd 0c800000         nop
     1741 000001be 08700000-        ldp       @CL23,DP
     1742 000001bf 40200016-        ldfu      @CL23,f0              ; |261| 
     1743                   ;*      Branch Occurs to L173           ; |261| 
     1744 000001c0          L65:        
     1745                           .line   48
     1746                   ;----------------------------------------------------------------------
     1747                   ; 263 | else if(t>250.0)                                                       
     1748                   ;----------------------------------------------------------------------
     1749 000001c0 40400304         ldfu      *+fp(4),f0            ; |263| 
     1750 000001c1 046077a0         cmpf      2.5000000000e+02,f0   ; |263| 
     1751 000001c2 6a08006a         ble       L90                   ; |263| 
     1752                   ;*      Branch Occurs to L90            ; |263| 
     1753                           .line   49
     1754                   ;----------------------------------------------------------------------
     1755                   ; 264 | API_STATUS(fcidx, API_extrapolate);                                    
     1756                   ;----------------------------------------------------------------------
     1757 000001c3 08700000-        ldp       @CL22,DP
     1758 000001c4 504a0301         ldiu      *+fp(1),ar2           ; |264| 
     1759 000001c5 50620001         ldiu      1,r2                  ; |264| 
     1760 000001c6 50200015-        ldiu      @CL22,r0              ; |264| 
     1761 000001c7 70000000         callu     r0                    ; far call to _API_STATUS       ; |264| 
     1762                                                           ; |264| Far Call Occurs
     1763 000001c8 6a000064         bu        L90                   ; |215| 
     1764                   ;*      Branch Occurs to L90            ; |215| 
     1765 000001c9          L67:        
     1766                           .line   51
     1767                   ;----------------------------------------------------------------------
     1768                   ; 266 | else if(p<50.0)                                                        
     1769                   ; 268 |         //if(t>250.0) // JAN 12, 2022 : DKOH : bug#112                 
     1770                   ;----------------------------------------------------------------------
     1771 000001c9 40400305         ldfu      *+fp(5),f0            ; |266| 
     1772 000001ca 04605480         cmpf      5.0000000000e+01,f0   ; |266| 
     1773 000001cb 6a0a0017         bge       L73                   ; |266| 
     1774                   ;*      Branch Occurs to L73            ; |266| 
     1775                           .line   54
     1776                   ;----------------------------------------------------------------------
     1777                   ; 269 | if(t>300.0)                                                            
     1778                   ;----------------------------------------------------------------------
     1779 000001cc 08700000-        ldp       @CL24,DP
     1780 000001cd 40400304         ldfu      *+fp(4),f0            ; |269| 
     1781 000001ce 04200017-        cmpf      @CL24,f0              ; |269| 
     1782 000001cf 6a08000a         ble       L71                   ; |269| 
TMS320C3x/4x COFF AssemblerVersion 5.12     Mon Jan 31 16:14:26 2022
Copyright (c) 1987-1999 Texas Instruments Incorporatedasm30.exe -@_BR8.AAB 

Y:\workspace_eea\V615\APP\SOURCE\ASM\api.asm                         PAGE   34

     1783                   ;*      Branch Occurs to L71            ; |269| 
     1784                           .line   56
     1785                   ;----------------------------------------------------------------------
     1786                   ; 271 | API_STATUS(fcidx, API_fail);                                           
     1787                   ;----------------------------------------------------------------------
     1788 000001d0 08700000-        ldp       @CL22,DP
     1789 000001d1 504a0301         ldiu      *+fp(1),ar2           ; |271| 
     1790 000001d2 50620002         ldiu      2,r2                  ; |271| 
     1791 000001d3 50200015-        ldiu      @CL22,r0              ; |271| 
     1792 000001d4 70000000         callu     r0                    ; far call to _API_STATUS       ; |271| 
     1793                                                           ; |271| Far Call Occurs
     1794                           .line   57
     1795                   ;----------------------------------------------------------------------
     1796                   ; 272 | GIEP;                                                                  
     1797                   ;----------------------------------------------------------------------
     1798 000001d5 0e350000         pop             ST                      
     1799                           .line   59
     1800                   ;----------------------------------------------------------------------
     1801                   ; 274 | return API_error_num;                                                  
     1802                   ;----------------------------------------------------------------------
     1803 000001d6 6a2001e2         bud       L173                  ; |274| 
     1804 000001d7 0c800000         nop
     1805 000001d8 08700000-        ldp       @CL23,DP
     1806 000001d9 40200016-        ldfu      @CL23,f0              ; |274| 
     1807                   ;*      Branch Occurs to L173           ; |274| 
     1808 000001da          L71:        
     1809                           .line   61
     1810                   ;----------------------------------------------------------------------
     1811                   ; 276 | else if(t>200.0)                                                       
     1812                   ;----------------------------------------------------------------------
     1813 000001da 40400304         ldfu      *+fp(4),f0            ; |276| 
     1814 000001db 04607480         cmpf      2.0000000000e+02,f0   ; |276| 
     1815 000001dc 6a080050         ble       L90                   ; |276| 
     1816                   ;*      Branch Occurs to L90            ; |276| 
     1817                           .line   62
     1818                   ;----------------------------------------------------------------------
     1819                   ; 277 | API_STATUS(fcidx, API_extrapolate);                                    
     1820                   ;----------------------------------------------------------------------
     1821 000001dd 08700000-        ldp       @CL22,DP
     1822 000001de 504a0301         ldiu      *+fp(1),ar2           ; |277| 
     1823 000001df 50620001         ldiu      1,r2                  ; |277| 
     1824 000001e0 50200015-        ldiu      @CL22,r0              ; |277| 
     1825 000001e1 70000000         callu     r0                    ; far call to _API_STATUS       ; |277| 
     1826                                                           ; |277| Far Call Occurs
     1827 000001e2 6a00004a         bu        L90                   ; |215| 
     1828                   ;*      Branch Occurs to L90            ; |215| 
     1829 000001e3          L73:        
     1830                           .line   64
     1831                   ;----------------------------------------------------------------------
     1832                   ; 279 | else if(p<55.0)                                                        
     1833                   ; 281 |         //if(t>200.0) // JAN 12, 2022 : DKOH : bug#112                 
     1834                   ;----------------------------------------------------------------------
     1835 000001e3 40400305         ldfu      *+fp(5),f0            ; |279| 
     1836 000001e4 046055c0         cmpf      5.5000000000e+01,f0   ; |279| 
TMS320C3x/4x COFF AssemblerVersion 5.12     Mon Jan 31 16:14:26 2022
Copyright (c) 1987-1999 Texas Instruments Incorporatedasm30.exe -@_BR8.AAB 

Y:\workspace_eea\V615\APP\SOURCE\ASM\api.asm                         PAGE   35

     1837 000001e5 6a0a0017         bge       L79                   ; |279| 
     1838                   ;*      Branch Occurs to L79            ; |279| 
     1839                           .line   67
     1840                   ;----------------------------------------------------------------------
     1841                   ; 282 | if(t>300.0)                                                            
     1842                   ;----------------------------------------------------------------------
     1843 000001e6 08700000-        ldp       @CL24,DP
     1844 000001e7 40400304         ldfu      *+fp(4),f0            ; |282| 
     1845 000001e8 04200017-        cmpf      @CL24,f0              ; |282| 
     1846 000001e9 6a08000a         ble       L77                   ; |282| 
     1847                   ;*      Branch Occurs to L77            ; |282| 
     1848                           .line   69
     1849                   ;----------------------------------------------------------------------
     1850                   ; 284 | API_STATUS(fcidx, API_fail);                                           
     1851                   ;----------------------------------------------------------------------
     1852 000001ea 08700000-        ldp       @CL22,DP
     1853 000001eb 504a0301         ldiu      *+fp(1),ar2           ; |284| 
     1854 000001ec 50620002         ldiu      2,r2                  ; |284| 
     1855 000001ed 50200015-        ldiu      @CL22,r0              ; |284| 
     1856 000001ee 70000000         callu     r0                    ; far call to _API_STATUS       ; |284| 
     1857                                                           ; |284| Far Call Occurs
     1858                           .line   70
     1859                   ;----------------------------------------------------------------------
     1860                   ; 285 | GIEP;                                                                  
     1861                   ;----------------------------------------------------------------------
     1862 000001ef 0e350000         pop             ST                      
     1863                           .line   72
     1864                   ;----------------------------------------------------------------------
     1865                   ; 287 | return API_error_num;                                                  
     1866                   ;----------------------------------------------------------------------
     1867 000001f0 6a2001c8         bud       L173                  ; |287| 
     1868 000001f1 0c800000         nop
     1869 000001f2 08700000-        ldp       @CL23,DP
     1870 000001f3 40200016-        ldfu      @CL23,f0              ; |287| 
     1871                   ;*      Branch Occurs to L173           ; |287| 
     1872 000001f4          L77:        
     1873                           .line   74
     1874                   ;----------------------------------------------------------------------
     1875                   ; 289 | else if(t>150.0)                                                       
     1876                   ;----------------------------------------------------------------------
     1877 000001f4 40400304         ldfu      *+fp(4),f0            ; |289| 
     1878 000001f5 04607160         cmpf      1.5000000000e+02,f0   ; |289| 
     1879 000001f6 6a080036         ble       L90                   ; |289| 
     1880                   ;*      Branch Occurs to L90            ; |289| 
     1881                           .line   75
     1882                   ;----------------------------------------------------------------------
     1883                   ; 290 | API_STATUS(fcidx, API_extrapolate);                                    
     1884                   ;----------------------------------------------------------------------
     1885 000001f7 08700000-        ldp       @CL22,DP
     1886 000001f8 504a0301         ldiu      *+fp(1),ar2           ; |290| 
     1887 000001f9 50620001         ldiu      1,r2                  ; |290| 
     1888 000001fa 50200015-        ldiu      @CL22,r0              ; |290| 
     1889 000001fb 70000000         callu     r0                    ; far call to _API_STATUS       ; |290| 
     1890                                                           ; |290| Far Call Occurs
TMS320C3x/4x COFF AssemblerVersion 5.12     Mon Jan 31 16:14:26 2022
Copyright (c) 1987-1999 Texas Instruments Incorporatedasm30.exe -@_BR8.AAB 

Y:\workspace_eea\V615\APP\SOURCE\ASM\api.asm                         PAGE   36

     1891 000001fc 6a000030         bu        L90                   ; |215| 
     1892                   ;*      Branch Occurs to L90            ; |215| 
     1893 000001fd          L79:        
     1894                           .line   77
     1895                   ;----------------------------------------------------------------------
     1896                   ; 292 | else if(p<=100.0)                                                      
     1897                   ; 294 |         //if(t>200.0) // JAN 12, 2022 : DKOH : bug#112                 
     1898                   ;----------------------------------------------------------------------
     1899 000001fd 40400305         ldfu      *+fp(5),f0            ; |292| 
     1900 000001fe 04606480         cmpf      1.0000000000e+02,f0   ; |292| 
     1901 000001ff 6a090014         bgt       L84                   ; |292| 
     1902                   ;*      Branch Occurs to L84            ; |292| 
     1903                           .line   80
     1904                   ;----------------------------------------------------------------------
     1905                   ; 295 | if(t>300.0)                                                            
     1906                   ;----------------------------------------------------------------------
     1907 00000200 08700000-        ldp       @CL24,DP
     1908 00000201 40400304         ldfu      *+fp(4),f0            ; |295| 
     1909 00000202 04200017-        cmpf      @CL24,f0              ; |295| 
     1910 00000203 6a08000a         ble       L83                   ; |295| 
     1911                   ;*      Branch Occurs to L83            ; |295| 
     1912                           .line   82
     1913                   ;----------------------------------------------------------------------
     1914                   ; 297 | API_STATUS(fcidx, API_fail);                                           
     1915                   ;----------------------------------------------------------------------
     1916 00000204 08700000-        ldp       @CL22,DP
     1917 00000205 504a0301         ldiu      *+fp(1),ar2           ; |297| 
     1918 00000206 50620002         ldiu      2,r2                  ; |297| 
     1919 00000207 50200015-        ldiu      @CL22,r0              ; |297| 
     1920 00000208 70000000         callu     r0                    ; far call to _API_STATUS       ; |297| 
     1921                                                           ; |297| Far Call Occurs
     1922                           .line   83
     1923                   ;----------------------------------------------------------------------
     1924                   ; 298 | GIEP;                                                                  
     1925                   ;----------------------------------------------------------------------
     1926 00000209 0e350000         pop             ST                      
     1927                           .line   85
     1928                   ;----------------------------------------------------------------------
     1929                   ; 300 | return API_error_num;                                                  
     1930                   ; 302 | else                                                                   
     1931                   ;----------------------------------------------------------------------
     1932 0000020a 6a2001ae         bud       L173                  ; |300| 
     1933 0000020b 0c800000         nop
     1934 0000020c 08700000-        ldp       @CL23,DP
     1935 0000020d 40200016-        ldfu      @CL23,f0              ; |300| 
     1936                   ;*      Branch Occurs to L173           ; |300| 
     1937 0000020e          L83:        
     1938                           .line   88
     1939                   ;----------------------------------------------------------------------
     1940                   ; 303 | API_STATUS(fcidx, API_extrapolate);                                    
     1941                   ; 305 | ////////// ADDED BY DKOH JAN 12, 2022 BUG#112 /////////////            
     1942                   ;----------------------------------------------------------------------
     1943 0000020e 08700000-        ldp       @CL22,DP
     1944 0000020f 504a0301         ldiu      *+fp(1),ar2           ; |303| 
TMS320C3x/4x COFF AssemblerVersion 5.12     Mon Jan 31 16:14:26 2022
Copyright (c) 1987-1999 Texas Instruments Incorporatedasm30.exe -@_BR8.AAB 

Y:\workspace_eea\V615\APP\SOURCE\ASM\api.asm                         PAGE   37

     1945 00000210 50620001         ldiu      1,r2                  ; |303| 
     1946 00000211 50200015-        ldiu      @CL22,r0              ; |303| 
     1947 00000212 70000000         callu     r0                    ; far call to _API_STATUS       ; |303| 
     1948                                                           ; |303| Far Call Occurs
     1949 00000213 6a000019         bu        L90                   ; |215| 
     1950                   ;*      Branch Occurs to L90            ; |215| 
     1951 00000214          L84:        
     1952                           .line   91
     1953                   ;----------------------------------------------------------------------
     1954                   ; 306 | else if(p<=183.0)                                                      
     1955                   ;----------------------------------------------------------------------
     1956 00000214 40400305         ldfu      *+fp(5),f0            ; |306| 
     1957 00000215 04607370         cmpf      1.8300000000e+02,f0   ; |306| 
     1958 00000216 6a090016         bgt       L90                   ; |306| 
     1959                   ;*      Branch Occurs to L90            ; |306| 
     1960                           .line   93
     1961                   ;----------------------------------------------------------------------
     1962                   ; 308 | if(t>300.0)                                                            
     1963                   ;----------------------------------------------------------------------
     1964 00000217 08700000-        ldp       @CL24,DP
     1965 00000218 40400304         ldfu      *+fp(4),f0            ; |308| 
     1966 00000219 04200017-        cmpf      @CL24,f0              ; |308| 
     1967 0000021a 6a08000a         ble       L88                   ; |308| 
     1968                   ;*      Branch Occurs to L88            ; |308| 
     1969                           .line   95
     1970                   ;----------------------------------------------------------------------
     1971                   ; 310 | API_STATUS(fcidx, API_fail);                                           
     1972                   ;----------------------------------------------------------------------
     1973 0000021b 08700000-        ldp       @CL22,DP
     1974 0000021c 504a0301         ldiu      *+fp(1),ar2           ; |310| 
     1975 0000021d 50620002         ldiu      2,r2                  ; |310| 
     1976 0000021e 50200015-        ldiu      @CL22,r0              ; |310| 
     1977 0000021f 70000000         callu     r0                    ; far call to _API_STATUS       ; |310| 
     1978                                                           ; |310| Far Call Occurs
     1979                           .line   96
     1980                   ;----------------------------------------------------------------------
     1981                   ; 311 | GIEP;                                                                  
     1982                   ;----------------------------------------------------------------------
     1983 00000220 0e350000         pop             ST                      
     1984                           .line   98
     1985                   ;----------------------------------------------------------------------
     1986                   ; 313 | return API_error_num;                                                  
     1987                   ;----------------------------------------------------------------------
     1988 00000221 6a200197         bud       L173                  ; |313| 
     1989 00000222 0c800000         nop
     1990 00000223 08700000-        ldp       @CL23,DP
     1991 00000224 40200016-        ldfu      @CL23,f0              ; |313| 
     1992                   ;*      Branch Occurs to L173           ; |313| 
     1993 00000225          L88:        
     1994                           .line   100
     1995                   ;----------------------------------------------------------------------
     1996                   ; 315 | else if(t>200.0)                                                       
     1997                   ;----------------------------------------------------------------------
     1998 00000225 40400304         ldfu      *+fp(4),f0            ; |315| 
TMS320C3x/4x COFF AssemblerVersion 5.12     Mon Jan 31 16:14:26 2022
Copyright (c) 1987-1999 Texas Instruments Incorporatedasm30.exe -@_BR8.AAB 

Y:\workspace_eea\V615\APP\SOURCE\ASM\api.asm                         PAGE   38

     1999 00000226 04607480         cmpf      2.0000000000e+02,f0   ; |315| 
     2000 00000227 6a080005         ble       L90                   ; |315| 
     2001                   ;*      Branch Occurs to L90            ; |315| 
     2002                           .line   101
     2003                   ;----------------------------------------------------------------------
     2004                   ; 316 | API_STATUS(fcidx, API_extrapolate);                                    
     2005                   ; 318 | ////////// ADDED BY DKOH JAN 12, 2022 BUG#112 /////////////            
     2006                   ;----------------------------------------------------------------------
     2007 00000228 08700000-        ldp       @CL22,DP
     2008 00000229 504a0301         ldiu      *+fp(1),ar2           ; |316| 
     2009 0000022a 50620001         ldiu      1,r2                  ; |316| 
     2010 0000022b 50200015-        ldiu      @CL22,r0              ; |316| 
     2011 0000022c 70000000         callu     r0                    ; far call to _API_STATUS       ; |316| 
     2012                                                           ; |316| Far Call Occurs
     2013 0000022d          L90:        
     2014                           .line   105
     2015                   ;----------------------------------------------------------------------
     2016                   ; 320 | k_set[0] = 0;                                                          
     2017                   ;----------------------------------------------------------------------
     2018 0000022d 50480303         ldiu      *+fp(3),ar0           ; |320| 
     2019 0000022e 50600000         ldiu      0,r0                  ; |320| 
     2020 0000022f 1540c000         sti       r0,*ar0               ; |320| 
     2021                           .line   106
     2022                   ;----------------------------------------------------------------------
     2023                   ; 321 | k0               = 341.0957;                                           
     2024                   ;----------------------------------------------------------------------
     2025 00000230 08700000-        ldp       @CL25,DP
     2026 00000231 40200018-        ldfu      @CL25,f0              ; |321| 
     2027 00000232 14400307         stf       f0,*+fp(7)            ; |321| 
     2028                           .line   107
     2029                   ;----------------------------------------------------------------------
     2030                   ; 322 | k1               = 0.0;                                                
     2031                   ;----------------------------------------------------------------------
     2032 00000233 40608000         ldfu      0.0000000000e+00,f0   ; |322| 
     2033 00000234 14400308         stf       f0,*+fp(8)            ; |322| 
     2034                           .line   108
     2035                   ;----------------------------------------------------------------------
     2036                   ; 323 | k2               = 0.0;                                                
     2037                   ;----------------------------------------------------------------------
     2038 00000235 40608000         ldfu      0.0000000000e+00,f0   ; |323| 
     2039 00000236 14400309         stf       f0,*+fp(9)            ; |323| 
     2040                           .line   110
     2041                   ;----------------------------------------------------------------------
     2042                   ; 325 | break;                                                                 
     2043                   ; 327 | case 'B':                                                              
     2044                   ;----------------------------------------------------------------------
     2045 00000237 6a000148         bu        L170                  ; |325| 
     2046                   ;*      Branch Occurs to L170           ; |325| 
     2047 00000238          L91:        
     2048                           .line   114
     2049                   ;----------------------------------------------------------------------
     2050                   ; 329 | if ((t<0.0) || (p<0.0) || (p>85.0))                                    
     2051                   ;----------------------------------------------------------------------
     2052 00000238 40400304         ldfu      *+fp(4),f0            ; |329| 
TMS320C3x/4x COFF AssemblerVersion 5.12     Mon Jan 31 16:14:26 2022
Copyright (c) 1987-1999 Texas Instruments Incorporatedasm30.exe -@_BR8.AAB 

Y:\workspace_eea\V615\APP\SOURCE\ASM\api.asm                         PAGE   39

     2053 00000239 04608000         cmpf      0.0000000000e+00,f0   ; |329| 
     2054 0000023a 6a070005         blt       L94                   ; |329| 
     2055                   ;*      Branch Occurs to L94            ; |329| 
     2056 0000023b 40400305         ldfu      *+fp(5),f0            ; |329| 
     2057 0000023c 04608000         cmpf      0.0000000000e+00,f0   ; |329| 
     2058 0000023d 6a070002         blt       L94                   ; |329| 
     2059                   ;*      Branch Occurs to L94            ; |329| 
     2060 0000023e 046062a0         cmpf      8.5000000000e+01,f0   ; |329| 
     2061 0000023f 6a08000a         ble       L96                   ; |329| 
     2062                   ;*      Branch Occurs to L96            ; |329| 
     2063 00000240          L94:        
     2064                           .line   116
     2065                   ;----------------------------------------------------------------------
     2066                   ; 331 | API_STATUS(fcidx, API_fail);                                           
     2067                   ;----------------------------------------------------------------------
     2068 00000240 08700000-        ldp       @CL22,DP
     2069 00000241 504a0301         ldiu      *+fp(1),ar2           ; |331| 
     2070 00000242 50620002         ldiu      2,r2                  ; |331| 
     2071 00000243 50200015-        ldiu      @CL22,r0              ; |331| 
     2072 00000244 70000000         callu     r0                    ; far call to _API_STATUS       ; |331| 
     2073                                                           ; |331| Far Call Occurs
     2074                           .line   117
     2075                   ;----------------------------------------------------------------------
     2076                   ; 332 | GIEP;                                                                  
     2077                   ;----------------------------------------------------------------------
     2078 00000245 0e350000         pop             ST                      
     2079                           .line   119
     2080                   ;----------------------------------------------------------------------
     2081                   ; 334 | return API_error_num;                                                  
     2082                   ;----------------------------------------------------------------------
     2083 00000246 6a200172         bud       L173                  ; |334| 
     2084 00000247 0c800000         nop
     2085 00000248 08700000-        ldp       @CL23,DP
     2086 00000249 40200016-        ldfu      @CL23,f0              ; |334| 
     2087                   ;*      Branch Occurs to L173           ; |334| 
     2088 0000024a          L96:        
     2089                           .line   121
     2090                   ;----------------------------------------------------------------------
     2091                   ; 336 | else if (p<40.0)                                                       
     2092                   ;----------------------------------------------------------------------
     2093 0000024a 40400305         ldfu      *+fp(5),f0            ; |336| 
     2094 0000024b 04605200         cmpf      4.0000000000e+01,f0   ; |336| 
     2095 0000024c 6a0a0017         bge       L102                  ; |336| 
     2096                   ;*      Branch Occurs to L102           ; |336| 
     2097                           .line   123
     2098                   ;----------------------------------------------------------------------
     2099                   ; 338 | if (t>300.0)                                                           
     2100                   ;----------------------------------------------------------------------
     2101 0000024d 08700000-        ldp       @CL24,DP
     2102 0000024e 40400304         ldfu      *+fp(4),f0            ; |338| 
     2103 0000024f 04200017-        cmpf      @CL24,f0              ; |338| 
     2104 00000250 6a08000a         ble       L100                  ; |338| 
     2105                   ;*      Branch Occurs to L100           ; |338| 
     2106                           .line   125
TMS320C3x/4x COFF AssemblerVersion 5.12     Mon Jan 31 16:14:26 2022
Copyright (c) 1987-1999 Texas Instruments Incorporatedasm30.exe -@_BR8.AAB 

Y:\workspace_eea\V615\APP\SOURCE\ASM\api.asm                         PAGE   40

     2107                   ;----------------------------------------------------------------------
     2108                   ; 340 | API_STATUS(fcidx, API_fail);                                           
     2109                   ;----------------------------------------------------------------------
     2110 00000251 08700000-        ldp       @CL22,DP
     2111 00000252 504a0301         ldiu      *+fp(1),ar2           ; |340| 
     2112 00000253 50620002         ldiu      2,r2                  ; |340| 
     2113 00000254 50200015-        ldiu      @CL22,r0              ; |340| 
     2114 00000255 70000000         callu     r0                    ; far call to _API_STATUS       ; |340| 
     2115                                                           ; |340| Far Call Occurs
     2116                           .line   126
     2117                   ;----------------------------------------------------------------------
     2118                   ; 341 | GIEP;                                                                  
     2119                   ;----------------------------------------------------------------------
     2120 00000256 0e350000         pop             ST                      
     2121                           .line   128
     2122                   ;----------------------------------------------------------------------
     2123                   ; 343 | return API_error_num;                                                  
     2124                   ;----------------------------------------------------------------------
     2125 00000257 6a200161         bud       L173                  ; |343| 
     2126 00000258 0c800000         nop
     2127 00000259 08700000-        ldp       @CL23,DP
     2128 0000025a 40200016-        ldfu      @CL23,f0              ; |343| 
     2129                   ;*      Branch Occurs to L173           ; |343| 
     2130 0000025b          L100:        
     2131                           .line   130
     2132                   ;----------------------------------------------------------------------
     2133                   ; 345 | else if (t>250.0)                                                      
     2134                   ;----------------------------------------------------------------------
     2135 0000025b 40400304         ldfu      *+fp(4),f0            ; |345| 
     2136 0000025c 046077a0         cmpf      2.5000000000e+02,f0   ; |345| 
     2137 0000025d 6a080037         ble       L114                  ; |345| 
     2138                   ;*      Branch Occurs to L114           ; |345| 
     2139                           .line   131
     2140                   ;----------------------------------------------------------------------
     2141                   ; 346 | API_STATUS(fcidx, API_extrapolate);                                    
     2142                   ;----------------------------------------------------------------------
     2143 0000025e 08700000-        ldp       @CL22,DP
     2144 0000025f 504a0301         ldiu      *+fp(1),ar2           ; |346| 
     2145 00000260 50620001         ldiu      1,r2                  ; |346| 
     2146 00000261 50200015-        ldiu      @CL22,r0              ; |346| 
     2147 00000262 70000000         callu     r0                    ; far call to _API_STATUS       ; |346| 
     2148                                                           ; |346| Far Call Occurs
     2149 00000263 6a000031         bu        L114                  ; |215| 
     2150                   ;*      Branch Occurs to L114           ; |215| 
     2151 00000264          L102:        
     2152                           .line   133
     2153                   ;----------------------------------------------------------------------
     2154                   ; 348 | else if (p<50.0)                                                       
     2155                   ;----------------------------------------------------------------------
     2156 00000264 40400305         ldfu      *+fp(5),f0            ; |348| 
     2157 00000265 04605480         cmpf      5.0000000000e+01,f0   ; |348| 
     2158 00000266 6a0a0016         bge       L108                  ; |348| 
     2159                   ;*      Branch Occurs to L108           ; |348| 
     2160                           .line   135
TMS320C3x/4x COFF AssemblerVersion 5.12     Mon Jan 31 16:14:26 2022
Copyright (c) 1987-1999 Texas Instruments Incorporatedasm30.exe -@_BR8.AAB 

Y:\workspace_eea\V615\APP\SOURCE\ASM\api.asm                         PAGE   41

     2161                   ;----------------------------------------------------------------------
     2162                   ; 350 | if (t>250.0)                                                           
     2163                   ;----------------------------------------------------------------------
     2164 00000267 40400304         ldfu      *+fp(4),f0            ; |350| 
     2165 00000268 046077a0         cmpf      2.5000000000e+02,f0   ; |350| 
     2166 00000269 6a08000a         ble       L106                  ; |350| 
     2167                   ;*      Branch Occurs to L106           ; |350| 
     2168                           .line   137
     2169                   ;----------------------------------------------------------------------
     2170                   ; 352 | API_STATUS(fcidx, API_fail);                                           
     2171                   ;----------------------------------------------------------------------
     2172 0000026a 08700000-        ldp       @CL22,DP
     2173 0000026b 504a0301         ldiu      *+fp(1),ar2           ; |352| 
     2174 0000026c 50620002         ldiu      2,r2                  ; |352| 
     2175 0000026d 50200015-        ldiu      @CL22,r0              ; |352| 
     2176 0000026e 70000000         callu     r0                    ; far call to _API_STATUS       ; |352| 
     2177                                                           ; |352| Far Call Occurs
     2178                           .line   138
     2179                   ;----------------------------------------------------------------------
     2180                   ; 353 | GIEP;                                                                  
     2181                   ;----------------------------------------------------------------------
     2182 0000026f 0e350000         pop             ST                      
     2183                           .line   139
     2184                   ;----------------------------------------------------------------------
     2185                   ; 354 | return API_error_num;                                                  
     2186                   ;----------------------------------------------------------------------
     2187 00000270 6a200148         bud       L173                  ; |354| 
     2188 00000271 0c800000         nop
     2189 00000272 08700000-        ldp       @CL23,DP
     2190 00000273 40200016-        ldfu      @CL23,f0              ; |354| 
     2191                   ;*      Branch Occurs to L173           ; |354| 
     2192 00000274          L106:        
     2193                           .line   141
     2194                   ;----------------------------------------------------------------------
     2195                   ; 356 | else if (t>200.0)                                                      
     2196                   ;----------------------------------------------------------------------
     2197 00000274 40400304         ldfu      *+fp(4),f0            ; |356| 
     2198 00000275 04607480         cmpf      2.0000000000e+02,f0   ; |356| 
     2199 00000276 6a08001e         ble       L114                  ; |356| 
     2200                   ;*      Branch Occurs to L114           ; |356| 
     2201                           .line   142
     2202                   ;----------------------------------------------------------------------
     2203                   ; 357 | API_STATUS(fcidx, API_extrapolate);                                    
     2204                   ;----------------------------------------------------------------------
     2205 00000277 08700000-        ldp       @CL22,DP
     2206 00000278 504a0301         ldiu      *+fp(1),ar2           ; |357| 
     2207 00000279 50620001         ldiu      1,r2                  ; |357| 
     2208 0000027a 50200015-        ldiu      @CL22,r0              ; |357| 
     2209 0000027b 70000000         callu     r0                    ; far call to _API_STATUS       ; |357| 
     2210                                                           ; |357| Far Call Occurs
     2211 0000027c 6a000018         bu        L114                  ; |215| 
     2212                   ;*      Branch Occurs to L114           ; |215| 
     2213 0000027d          L108:        
     2214                           .line   144
TMS320C3x/4x COFF AssemblerVersion 5.12     Mon Jan 31 16:14:26 2022
Copyright (c) 1987-1999 Texas Instruments Incorporatedasm30.exe -@_BR8.AAB 

Y:\workspace_eea\V615\APP\SOURCE\ASM\api.asm                         PAGE   42

     2215                   ;----------------------------------------------------------------------
     2216                   ; 359 | else if (p<=85.0)                                                      
     2217                   ;----------------------------------------------------------------------
     2218 0000027d 40400305         ldfu      *+fp(5),f0            ; |359| 
     2219 0000027e 046062a0         cmpf      8.5000000000e+01,f0   ; |359| 
     2220 0000027f 6a090015         bgt       L114                  ; |359| 
     2221                   ;*      Branch Occurs to L114           ; |359| 
     2222                           .line   146
     2223                   ;----------------------------------------------------------------------
     2224                   ; 361 | if (t>200.0)                                                           
     2225                   ;----------------------------------------------------------------------
     2226 00000280 40400304         ldfu      *+fp(4),f0            ; |361| 
     2227 00000281 04607480         cmpf      2.0000000000e+02,f0   ; |361| 
     2228 00000282 6a08000a         ble       L112                  ; |361| 
     2229                   ;*      Branch Occurs to L112           ; |361| 
     2230                           .line   148
     2231                   ;----------------------------------------------------------------------
     2232                   ; 363 | API_STATUS(fcidx, API_fail);                                           
     2233                   ;----------------------------------------------------------------------
     2234 00000283 08700000-        ldp       @CL22,DP
     2235 00000284 504a0301         ldiu      *+fp(1),ar2           ; |363| 
     2236 00000285 50620002         ldiu      2,r2                  ; |363| 
     2237 00000286 50200015-        ldiu      @CL22,r0              ; |363| 
     2238 00000287 70000000         callu     r0                    ; far call to _API_STATUS       ; |363| 
     2239                                                           ; |363| Far Call Occurs
     2240                           .line   149
     2241                   ;----------------------------------------------------------------------
     2242                   ; 364 | GIEP;                                                                  
     2243                   ;----------------------------------------------------------------------
     2244 00000288 0e350000         pop             ST                      
     2245                           .line   151
     2246                   ;----------------------------------------------------------------------
     2247                   ; 366 | return API_error_num;                                                  
     2248                   ;----------------------------------------------------------------------
     2249 00000289 6a20012f         bud       L173                  ; |366| 
     2250 0000028a 0c800000         nop
     2251 0000028b 08700000-        ldp       @CL23,DP
     2252 0000028c 40200016-        ldfu      @CL23,f0              ; |366| 
     2253                   ;*      Branch Occurs to L173           ; |366| 
     2254 0000028d          L112:        
     2255                           .line   153
     2256                   ;----------------------------------------------------------------------
     2257                   ; 368 | else if (t>150.0)                                                      
     2258                   ;----------------------------------------------------------------------
     2259 0000028d 40400304         ldfu      *+fp(4),f0            ; |368| 
     2260 0000028e 04607160         cmpf      1.5000000000e+02,f0   ; |368| 
     2261 0000028f 6a080005         ble       L114                  ; |368| 
     2262                   ;*      Branch Occurs to L114           ; |368| 
     2263                           .line   154
     2264                   ;----------------------------------------------------------------------
     2265                   ; 369 | API_STATUS(fcidx, API_extrapolate);                                    
     2266                   ;----------------------------------------------------------------------
     2267 00000290 08700000-        ldp       @CL22,DP
     2268 00000291 504a0301         ldiu      *+fp(1),ar2           ; |369| 
TMS320C3x/4x COFF AssemblerVersion 5.12     Mon Jan 31 16:14:26 2022
Copyright (c) 1987-1999 Texas Instruments Incorporatedasm30.exe -@_BR8.AAB 

Y:\workspace_eea\V615\APP\SOURCE\ASM\api.asm                         PAGE   43

     2269 00000292 50620001         ldiu      1,r2                  ; |369| 
     2270 00000293 50200015-        ldiu      @CL22,r0              ; |369| 
     2271 00000294 70000000         callu     r0                    ; far call to _API_STATUS       ; |369| 
     2272                                                           ; |369| Far Call Occurs
     2273 00000295          L114:        
     2274                           .line   157
     2275                   ;----------------------------------------------------------------------
     2276                   ; 372 | if (k_set[0]==-1)                                                      
     2277                   ;----------------------------------------------------------------------
     2278 00000295 50480303         ldiu      *+fp(3),ar0           ; |372| 
     2279 00000296 5040c000         ldiu      *ar0,r0               ; |372| 
     2280 00000297 04e0ffff         cmpi      -1,r0                 ; |372| 
     2281 00000298 6a060052         bne       L134                  ; |372| 
     2282                   ;*      Branch Occurs to L134           ; |372| 
     2283                           .line   159
     2284                   ;----------------------------------------------------------------------
     2285                   ; 374 | if ((p>=0.0) && (p<37.0))                                              
     2286                   ;----------------------------------------------------------------------
     2287 00000299 40400305         ldfu      *+fp(5),f0            ; |374| 
     2288 0000029a 04608000         cmpf      0.0000000000e+00,f0   ; |374| 
     2289 0000029b 6a070005         blt       L118                  ; |374| 
     2290                   ;*      Branch Occurs to L118           ; |374| 
     2291 0000029c 04605140         cmpf      3.7000000000e+01,f0   ; |374| 
     2292 0000029d 6a0a0003         bge       L118                  ; |374| 
     2293                   ;*      Branch Occurs to L118           ; |374| 
     2294                           .line   160
     2295                   ;----------------------------------------------------------------------
     2296                   ; 375 | k_set[0] = 1;                                                          
     2297                   ;----------------------------------------------------------------------
     2298 0000029e 50600001         ldiu      1,r0                  ; |375| 
     2299 0000029f 1540c000         sti       r0,*ar0               ; |375| 
     2300 000002a0 6a00004a         bu        L134                  ; |215| 
     2301                   ;*      Branch Occurs to L134           ; |215| 
     2302 000002a1          L118:        
     2303                           .line   161
     2304                   ;----------------------------------------------------------------------
     2305                   ; 376 | else if ((p>=37.0) && (p<48.0))                                        
     2306                   ;----------------------------------------------------------------------
     2307 000002a1 40400305         ldfu      *+fp(5),f0            ; |376| 
     2308 000002a2 04605140         cmpf      3.7000000000e+01,f0   ; |376| 
     2309 000002a3 6a070006         blt       L121                  ; |376| 
     2310                   ;*      Branch Occurs to L121           ; |376| 
     2311 000002a4 04605400         cmpf      4.8000000000e+01,f0   ; |376| 
     2312 000002a5 6a0a0004         bge       L121                  ; |376| 
     2313                   ;*      Branch Occurs to L121           ; |376| 
     2314                           .line   162
     2315                   ;----------------------------------------------------------------------
     2316                   ; 377 | k_set[0] = 2;                                                          
     2317                   ;----------------------------------------------------------------------
     2318 000002a6 50480303         ldiu      *+fp(3),ar0           ; |377| 
     2319 000002a7 50600002         ldiu      2,r0                  ; |377| 
     2320 000002a8 1540c000         sti       r0,*ar0               ; |377| 
     2321 000002a9 6a000041         bu        L134                  ; |215| 
     2322                   ;*      Branch Occurs to L134           ; |215| 
TMS320C3x/4x COFF AssemblerVersion 5.12     Mon Jan 31 16:14:26 2022
Copyright (c) 1987-1999 Texas Instruments Incorporatedasm30.exe -@_BR8.AAB 

Y:\workspace_eea\V615\APP\SOURCE\ASM\api.asm                         PAGE   44

     2323 000002aa          L121:        
     2324                           .line   163
     2325                   ;----------------------------------------------------------------------
     2326                   ; 378 | else if ((p>=48.0) && (p<52.0))                                        
     2327                   ;----------------------------------------------------------------------
     2328 000002aa 40400305         ldfu      *+fp(5),f0            ; |378| 
     2329 000002ab 04605400         cmpf      4.8000000000e+01,f0   ; |378| 
     2330 000002ac 6a070006         blt       L124                  ; |378| 
     2331                   ;*      Branch Occurs to L124           ; |378| 
     2332 000002ad 04605500         cmpf      5.2000000000e+01,f0   ; |378| 
     2333 000002ae 6a0a0004         bge       L124                  ; |378| 
     2334                   ;*      Branch Occurs to L124           ; |378| 
     2335                           .line   164
     2336                   ;----------------------------------------------------------------------
     2337                   ; 379 | k_set[0] = 3;                                                          
     2338                   ;----------------------------------------------------------------------
     2339 000002af 50480303         ldiu      *+fp(3),ar0           ; |379| 
     2340 000002b0 50600003         ldiu      3,r0                  ; |379| 
     2341 000002b1 1540c000         sti       r0,*ar0               ; |379| 
     2342 000002b2 6a000038         bu        L134                  ; |215| 
     2343                   ;*      Branch Occurs to L134           ; |215| 
     2344 000002b3          L124:        
     2345                           .line   165
     2346                   ;----------------------------------------------------------------------
     2347                   ; 380 | else if ((p>=52.0) && (p<=85.0))                                       
     2348                   ;----------------------------------------------------------------------
     2349 000002b3 40400305         ldfu      *+fp(5),f0            ; |380| 
     2350 000002b4 04605500         cmpf      5.2000000000e+01,f0   ; |380| 
     2351 000002b5 6a070006         blt       L127                  ; |380| 
     2352                   ;*      Branch Occurs to L127           ; |380| 
     2353 000002b6 046062a0         cmpf      8.5000000000e+01,f0   ; |380| 
     2354 000002b7 6a090004         bgt       L127                  ; |380| 
     2355                   ;*      Branch Occurs to L127           ; |380| 
     2356                           .line   166
     2357                   ;----------------------------------------------------------------------
     2358                   ; 381 | k_set[0] = 4;                                                          
     2359                   ; 382 | else                                                                   
     2360                   ;----------------------------------------------------------------------
     2361 000002b8 50480303         ldiu      *+fp(3),ar0           ; |381| 
     2362 000002b9 50600004         ldiu      4,r0                  ; |381| 
     2363 000002ba 1540c000         sti       r0,*ar0               ; |381| 
     2364 000002bb 6a00002f         bu        L134                  ; |215| 
     2365                   ;*      Branch Occurs to L134           ; |215| 
     2366 000002bc          L127:        
     2367                           .line   168
     2368                   ;----------------------------------------------------------------------
     2369                   ; 383 | k_set[0] = -1;                                                         
     2370                   ; 386 | switch (k_set[0])                                                      
     2371                   ; 388 | case 1:                                                                
     2372                   ;----------------------------------------------------------------------
     2373 000002bc 50480303         ldiu      *+fp(3),ar0           ; |383| 
     2374 000002bd 5060ffff         ldiu      -1,r0                 ; |383| 
     2375 000002be 1540c000         sti       r0,*ar0               ; |383| 
     2376 000002bf 6a00002b         bu        L134                  ; |215| 
TMS320C3x/4x COFF AssemblerVersion 5.12     Mon Jan 31 16:14:26 2022
Copyright (c) 1987-1999 Texas Instruments Incorporatedasm30.exe -@_BR8.AAB 

Y:\workspace_eea\V615\APP\SOURCE\ASM\api.asm                         PAGE   45

     2377                   ;*      Branch Occurs to L134           ; |215| 
     2378 000002c0          L128:        
     2379                           .line   175
     2380                   ;----------------------------------------------------------------------
     2381                   ; 390 | k0 = 103.8720;                                                         
     2382                   ;----------------------------------------------------------------------
     2383 000002c0 08700000-        ldp       @CL26,DP
     2384 000002c1 40200019-        ldfu      @CL26,f0              ; |390| 
     2385 000002c2 14400307         stf       f0,*+fp(7)            ; |390| 
     2386                           .line   176
     2387                   ;----------------------------------------------------------------------
     2388                   ; 391 | k1 = 0.2701;                                                           
     2389                   ;----------------------------------------------------------------------
     2390 000002c3 08700000-        ldp       @CL27,DP
     2391 000002c4 4020001a-        ldfu      @CL27,f0              ; |391| 
     2392 000002c5 14400308         stf       f0,*+fp(8)            ; |391| 
     2393                           .line   177
     2394                   ;----------------------------------------------------------------------
     2395                   ; 392 | k2 = 0.0;                                                              
     2396                   ;----------------------------------------------------------------------
     2397 000002c6 40608000         ldfu      0.0000000000e+00,f0   ; |392| 
     2398 000002c7 14400309         stf       f0,*+fp(9)            ; |392| 
     2399                           .line   179
     2400                   ;----------------------------------------------------------------------
     2401                   ; 394 | break;                                                                 
     2402                   ; 396 | case 2:                                                                
     2403                   ;----------------------------------------------------------------------
     2404 000002c8 6a0000b7         bu        L170                  ; |394| 
     2405                   ;*      Branch Occurs to L170           ; |394| 
     2406 000002c9          L129:        
     2407                           .line   183
     2408                   ;----------------------------------------------------------------------
     2409                   ; 398 | k0 = 330.3010;                                                         
     2410                   ;----------------------------------------------------------------------
     2411 000002c9 08700000-        ldp       @CL28,DP
     2412 000002ca 4020001b-        ldfu      @CL28,f0              ; |398| 
     2413 000002cb 14400307         stf       f0,*+fp(7)            ; |398| 
     2414                           .line   184
     2415                   ;----------------------------------------------------------------------
     2416                   ; 399 | k1 = 0.0;                                                              
     2417                   ;----------------------------------------------------------------------
     2418 000002cc 40608000         ldfu      0.0000000000e+00,f0   ; |399| 
     2419 000002cd 14400308         stf       f0,*+fp(8)            ; |399| 
     2420                           .line   185
     2421                   ;----------------------------------------------------------------------
     2422                   ; 400 | k2 = 0.0;                                                              
     2423                   ;----------------------------------------------------------------------
     2424 000002ce 40608000         ldfu      0.0000000000e+00,f0   ; |400| 
     2425 000002cf 14400309         stf       f0,*+fp(9)            ; |400| 
     2426                           .line   187
     2427                   ;----------------------------------------------------------------------
     2428                   ; 402 | break;                                                                 
     2429                   ; 404 | case 3:                                                                
     2430                   ;----------------------------------------------------------------------
TMS320C3x/4x COFF AssemblerVersion 5.12     Mon Jan 31 16:14:26 2022
Copyright (c) 1987-1999 Texas Instruments Incorporatedasm30.exe -@_BR8.AAB 

Y:\workspace_eea\V615\APP\SOURCE\ASM\api.asm                         PAGE   46

     2431 000002d0 6a0000af         bu        L170                  ; |402| 
     2432                   ;*      Branch Occurs to L170           ; |402| 
     2433 000002d1          L130:        
     2434                           .line   191
     2435                   ;----------------------------------------------------------------------
     2436                   ; 406 | k0 = 1489.0670;                                                        
     2437                   ;----------------------------------------------------------------------
     2438 000002d1 08700000-        ldp       @CL29,DP
     2439 000002d2 4020001c-        ldfu      @CL29,f0              ; |406| 
     2440 000002d3 14400307         stf       f0,*+fp(7)            ; |406| 
     2441                           .line   192
     2442                   ;----------------------------------------------------------------------
     2443                   ; 407 | k1 = 0.0;                                                              
     2444                   ;----------------------------------------------------------------------
     2445 000002d4 40608000         ldfu      0.0000000000e+00,f0   ; |407| 
     2446 000002d5 14400308         stf       f0,*+fp(8)            ; |407| 
     2447                           .line   193
     2448                   ;----------------------------------------------------------------------
     2449                   ; 408 | k2 = -0.00186840;                                                      
     2450                   ;----------------------------------------------------------------------
     2451 000002d6 08700000-        ldp       @CL30,DP
     2452 000002d7 4020001d-        ldfu      @CL30,f0              ; |408| 
     2453 000002d8 14400309         stf       f0,*+fp(9)            ; |408| 
     2454                           .line   195
     2455                   ;----------------------------------------------------------------------
     2456                   ; 410 | break;                                                                 
     2457                   ; 412 | case 4:                                                                
     2458                   ;----------------------------------------------------------------------
     2459 000002d9 6a0000a6         bu        L170                  ; |410| 
     2460                   ;*      Branch Occurs to L170           ; |410| 
     2461 000002da          L131:        
     2462                           .line   199
     2463                   ;----------------------------------------------------------------------
     2464                   ; 414 | k0 = 192.4571;                                                         
     2465                   ;----------------------------------------------------------------------
     2466 000002da 08700000-        ldp       @CL31,DP
     2467 000002db 4020001e-        ldfu      @CL31,f0              ; |414| 
     2468 000002dc 14400307         stf       f0,*+fp(7)            ; |414| 
     2469                           .line   200
     2470                   ;----------------------------------------------------------------------
     2471                   ; 415 | k1 = 0.2438;                                                           
     2472                   ;----------------------------------------------------------------------
     2473 000002dd 08700000-        ldp       @CL32,DP
     2474 000002de 4020001f-        ldfu      @CL32,f0              ; |415| 
     2475 000002df 14400308         stf       f0,*+fp(8)            ; |415| 
     2476                           .line   201
     2477                   ;----------------------------------------------------------------------
     2478                   ; 416 | k2 = 0.0;                                                              
     2479                   ;----------------------------------------------------------------------
     2480 000002e0 40608000         ldfu      0.0000000000e+00,f0   ; |416| 
     2481 000002e1 14400309         stf       f0,*+fp(9)            ; |416| 
     2482                           .line   203
     2483                   ;----------------------------------------------------------------------
     2484                   ; 418 | break;                                                                 
TMS320C3x/4x COFF AssemblerVersion 5.12     Mon Jan 31 16:14:26 2022
Copyright (c) 1987-1999 Texas Instruments Incorporatedasm30.exe -@_BR8.AAB 

Y:\workspace_eea\V615\APP\SOURCE\ASM\api.asm                         PAGE   47

     2485                   ; 420 | case 0:                                                                
     2486                   ; 421 | default:                                                               
     2487                   ;----------------------------------------------------------------------
     2488 000002e2 6a00009d         bu        L170                  ; |418| 
     2489                   ;*      Branch Occurs to L170           ; |418| 
     2490 000002e3          L132:        
     2491                           .line   208
     2492                   ;----------------------------------------------------------------------
     2493                   ; 423 | k_set[0] = -1;                                                         
     2494                   ;----------------------------------------------------------------------
     2495 000002e3 50480303         ldiu      *+fp(3),ar0           ; |423| 
     2496 000002e4 5060ffff         ldiu      -1,r0                 ; |423| 
     2497 000002e5 1540c000         sti       r0,*ar0               ; |423| 
     2498                           .line   209
     2499                   ;----------------------------------------------------------------------
     2500                   ; 424 | GIEP;                                                                  
     2501                   ;----------------------------------------------------------------------
     2502 000002e6 0e350000         pop             ST                      
     2503                           .line   211
     2504                   ;----------------------------------------------------------------------
     2505                   ; 426 | return API_error_num;                                                  
     2506                   ;----------------------------------------------------------------------
     2507 000002e7 6a2000d1         bud       L173                  ; |426| 
     2508 000002e8 0c800000         nop
     2509 000002e9 08700000-        ldp       @CL23,DP
     2510 000002ea 40200016-        ldfu      @CL23,f0              ; |426| 
     2511                   ;*      Branch Occurs to L173           ; |426| 
     2512 000002eb          L134:        
     2513                           .line   171
     2514 000002eb 50480303         ldiu      *+fp(3),ar0           ; |386| 
     2515 000002ec 5040c000         ldiu      *ar0,r0               ; |386| 
     2516 000002ed 04e00000         cmpi      0,r0                  ; |386| 
     2517 000002ee 6a05fff4         beq       L132                  ; |386| 
     2518                   ;*      Branch Occurs to L132           ; |386| 
     2519 000002ef 04e00001         cmpi      1,r0                  ; |386| 
     2520 000002f0 6a05ffcf         beq       L128                  ; |386| 
     2521                   ;*      Branch Occurs to L128           ; |386| 
     2522 000002f1 04e00002         cmpi      2,r0                  ; |386| 
     2523 000002f2 6a05ffd6         beq       L129                  ; |386| 
     2524                   ;*      Branch Occurs to L129           ; |386| 
     2525 000002f3 04e00003         cmpi      3,r0                  ; |386| 
     2526 000002f4 6a05ffdc         beq       L130                  ; |386| 
     2527                   ;*      Branch Occurs to L130           ; |386| 
     2528 000002f5 04e00004         cmpi      4,r0                  ; |386| 
     2529 000002f6 6a05ffe3         beq       L131                  ; |386| 
     2530                   ;*      Branch Occurs to L131           ; |386| 
     2531 000002f7 6a00ffeb         bu        L132                  ; |386| 
     2532                   ;*      Branch Occurs to L132           ; |386| 
     2533                           .line   215
     2534                   ;----------------------------------------------------------------------
     2535                   ; 430 | break;                                                                 
     2536                   ; 432 | case 'C':                                                              
     2537                   ;----------------------------------------------------------------------
     2538 000002f8          L141:        
TMS320C3x/4x COFF AssemblerVersion 5.12     Mon Jan 31 16:14:26 2022
Copyright (c) 1987-1999 Texas Instruments Incorporatedasm30.exe -@_BR8.AAB 

Y:\workspace_eea\V615\APP\SOURCE\ASM\api.asm                         PAGE   48

     2539                           .line   219
     2540                   ;----------------------------------------------------------------------
     2541                   ; 434 | k_set[0] = 0;                                                          
     2542                   ;----------------------------------------------------------------------
     2543 000002f8 50480303         ldiu      *+fp(3),ar0           ; |434| 
     2544 000002f9 50600000         ldiu      0,r0                  ; |434| 
     2545 000002fa 1540c000         sti       r0,*ar0               ; |434| 
     2546                           .line   220
     2547                   ;----------------------------------------------------------------------
     2548                   ; 435 | a = f->a * 10e6;                                                       
     2549                   ;----------------------------------------------------------------------
     2550 000002fb 08700000-        ldp       @CL33,DP
     2551 000002fc 5051030d         ldiu      *+fp(13),ir0          ; |435| 
     2552 000002fd 5068018f         ldiu      399,ar0               ; |435| 
     2553 000002fe 40200020-        ldfu      @CL33,f0              ; |435| 
     2554 000002ff 24c00040         mpyf3     *+ar0(ir0),f0,f0      ; |435| 
     2555 00000300 14400306         stf       f0,*+fp(6)            ; |435| 
     2556                           .line   222
     2557                   ;----------------------------------------------------------------------
     2558                   ; 437 | if ((t<0.0) || (a<270.0) || (a>930.0))                                 
     2559                   ;----------------------------------------------------------------------
     2560 00000301 40400304         ldfu      *+fp(4),f0            ; |437| 
     2561 00000302 04608000         cmpf      0.0000000000e+00,f0   ; |437| 
     2562 00000303 6a070007         blt       L144                  ; |437| 
     2563                   ;*      Branch Occurs to L144           ; |437| 
     2564 00000304 08700000-        ldp       @CL34,DP
     2565 00000305 40400306         ldfu      *+fp(6),f0            ; |437| 
     2566 00000306 04200021-        cmpf      @CL34,f0              ; |437| 
     2567 00000307 6a070003         blt       L144                  ; |437| 
     2568                   ;*      Branch Occurs to L144           ; |437| 
     2569 00000308 08700000-        ldp       @CL35,DP
     2570 00000309 04200022-        cmpf      @CL35,f0              ; |437| 
     2571 0000030a 6a08000a         ble       L146                  ; |437| 
     2572                   ;*      Branch Occurs to L146           ; |437| 
     2573 0000030b          L144:        
     2574                           .line   224
     2575                   ;----------------------------------------------------------------------
     2576                   ; 439 | API_STATUS(fcidx, API_fail);                                           
     2577                   ;----------------------------------------------------------------------
     2578 0000030b 08700000-        ldp       @CL22,DP
     2579 0000030c 504a0301         ldiu      *+fp(1),ar2           ; |439| 
     2580 0000030d 50620002         ldiu      2,r2                  ; |439| 
     2581 0000030e 50200015-        ldiu      @CL22,r0              ; |439| 
     2582 0000030f 70000000         callu     r0                    ; far call to _API_STATUS       ; |439| 
     2583                                                           ; |439| Far Call Occurs
     2584                           .line   225
     2585                   ;----------------------------------------------------------------------
     2586                   ; 440 | GIEP;                                                                  
     2587                   ;----------------------------------------------------------------------
     2588 00000310 0e350000         pop             ST                      
     2589                           .line   227
     2590                   ;----------------------------------------------------------------------
     2591                   ; 442 | return API_error_num;                                                  
     2592                   ;----------------------------------------------------------------------
TMS320C3x/4x COFF AssemblerVersion 5.12     Mon Jan 31 16:14:26 2022
Copyright (c) 1987-1999 Texas Instruments Incorporatedasm30.exe -@_BR8.AAB 

Y:\workspace_eea\V615\APP\SOURCE\ASM\api.asm                         PAGE   49

     2593 00000311 6a2000a7         bud       L173                  ; |442| 
     2594 00000312 0c800000         nop
     2595 00000313 08700000-        ldp       @CL23,DP
     2596 00000314 40200016-        ldfu      @CL23,f0              ; |442| 
     2597                   ;*      Branch Occurs to L173           ; |442| 
     2598 00000315          L146:        
     2599                           .line   229
     2600                   ;----------------------------------------------------------------------
     2601                   ; 444 | else if ((a<510.0) && (t>300.0))                                       
     2602                   ;----------------------------------------------------------------------
     2603 00000315 08700000-        ldp       @CL36,DP
     2604 00000316 40400306         ldfu      *+fp(6),f0            ; |444| 
     2605 00000317 04200023-        cmpf      @CL36,f0              ; |444| 
     2606 00000318 6a0a000e         bge       L150                  ; |444| 
     2607                   ;*      Branch Occurs to L150           ; |444| 
     2608 00000319 08700000-        ldp       @CL24,DP
     2609 0000031a 40400304         ldfu      *+fp(4),f0            ; |444| 
     2610 0000031b 04200017-        cmpf      @CL24,f0              ; |444| 
     2611 0000031c 6a08000a         ble       L150                  ; |444| 
     2612                   ;*      Branch Occurs to L150           ; |444| 
     2613                           .line   231
     2614                   ;----------------------------------------------------------------------
     2615                   ; 446 | API_STATUS(fcidx, API_fail);                                           
     2616                   ;----------------------------------------------------------------------
     2617 0000031d 08700000-        ldp       @CL22,DP
     2618 0000031e 504a0301         ldiu      *+fp(1),ar2           ; |446| 
     2619 0000031f 50620002         ldiu      2,r2                  ; |446| 
     2620 00000320 50200015-        ldiu      @CL22,r0              ; |446| 
     2621 00000321 70000000         callu     r0                    ; far call to _API_STATUS       ; |446| 
     2622                                                           ; |446| Far Call Occurs
     2623                           .line   232
     2624                   ;----------------------------------------------------------------------
     2625                   ; 447 | GIEP;                                                                  
     2626                   ;----------------------------------------------------------------------
     2627 00000322 0e350000         pop             ST                      
     2628                           .line   234
     2629                   ;----------------------------------------------------------------------
     2630                   ; 449 | return API_error_num;                                                  
     2631                   ;----------------------------------------------------------------------
     2632 00000323 6a200095         bud       L173                  ; |449| 
     2633 00000324 0c800000         nop
     2634 00000325 08700000-        ldp       @CL23,DP
     2635 00000326 40200016-        ldfu      @CL23,f0              ; |449| 
     2636                   ;*      Branch Occurs to L173           ; |449| 
     2637 00000327          L150:        
     2638                           .line   236
     2639                   ;----------------------------------------------------------------------
     2640                   ; 451 | else if ((a<530.0) && (t>250.0))                                       
     2641                   ;----------------------------------------------------------------------
     2642 00000327 08700000-        ldp       @CL37,DP
     2643 00000328 40400306         ldfu      *+fp(6),f0            ; |451| 
     2644 00000329 04200024-        cmpf      @CL37,f0              ; |451| 
     2645 0000032a 6a0a000d         bge       L154                  ; |451| 
     2646                   ;*      Branch Occurs to L154           ; |451| 
TMS320C3x/4x COFF AssemblerVersion 5.12     Mon Jan 31 16:14:26 2022
Copyright (c) 1987-1999 Texas Instruments Incorporatedasm30.exe -@_BR8.AAB 

Y:\workspace_eea\V615\APP\SOURCE\ASM\api.asm                         PAGE   50

     2647 0000032b 40400304         ldfu      *+fp(4),f0            ; |451| 
     2648 0000032c 046077a0         cmpf      2.5000000000e+02,f0   ; |451| 
     2649 0000032d 6a08000a         ble       L154                  ; |451| 
     2650                   ;*      Branch Occurs to L154           ; |451| 
     2651                           .line   238
     2652                   ;----------------------------------------------------------------------
     2653                   ; 453 | API_STATUS(fcidx, API_fail);                                           
     2654                   ;----------------------------------------------------------------------
     2655 0000032e 08700000-        ldp       @CL22,DP
     2656 0000032f 504a0301         ldiu      *+fp(1),ar2           ; |453| 
     2657 00000330 50620002         ldiu      2,r2                  ; |453| 
     2658 00000331 50200015-        ldiu      @CL22,r0              ; |453| 
     2659 00000332 70000000         callu     r0                    ; far call to _API_STATUS       ; |453| 
     2660                                                           ; |453| Far Call Occurs
     2661                           .line   239
     2662                   ;----------------------------------------------------------------------
     2663                   ; 454 | GIEP;                                                                  
     2664                   ;----------------------------------------------------------------------
     2665 00000333 0e350000         pop             ST                      
     2666                           .line   241
     2667                   ;----------------------------------------------------------------------
     2668                   ; 456 | return API_error_num;                                                  
     2669                   ;----------------------------------------------------------------------
     2670 00000334 6a200084         bud       L173                  ; |456| 
     2671 00000335 0c800000         nop
     2672 00000336 08700000-        ldp       @CL23,DP
     2673 00000337 40200016-        ldfu      @CL23,f0              ; |456| 
     2674                   ;*      Branch Occurs to L173           ; |456| 
     2675 00000338          L154:        
     2676                           .line   243
     2677                   ;----------------------------------------------------------------------
     2678                   ; 458 | else if ((a<=930.0) && (t>200.0))                                      
     2679                   ;----------------------------------------------------------------------
     2680 00000338 08700000-        ldp       @CL35,DP
     2681 00000339 40400306         ldfu      *+fp(6),f0            ; |458| 
     2682 0000033a 04200022-        cmpf      @CL35,f0              ; |458| 
     2683 0000033b 6a09000d         bgt       L157                  ; |458| 
     2684                   ;*      Branch Occurs to L157           ; |458| 
     2685 0000033c 40400304         ldfu      *+fp(4),f0            ; |458| 
     2686 0000033d 04607480         cmpf      2.0000000000e+02,f0   ; |458| 
     2687 0000033e 6a08000a         ble       L157                  ; |458| 
     2688                   ;*      Branch Occurs to L157           ; |458| 
     2689                           .line   245
     2690                   ;----------------------------------------------------------------------
     2691                   ; 460 | API_STATUS(fcidx, API_fail);                                           
     2692                   ;----------------------------------------------------------------------
     2693 0000033f 08700000-        ldp       @CL22,DP
     2694 00000340 504a0301         ldiu      *+fp(1),ar2           ; |460| 
     2695 00000341 50620002         ldiu      2,r2                  ; |460| 
     2696 00000342 50200015-        ldiu      @CL22,r0              ; |460| 
     2697 00000343 70000000         callu     r0                    ; far call to _API_STATUS       ; |460| 
     2698                                                           ; |460| Far Call Occurs
     2699                           .line   246
     2700                   ;----------------------------------------------------------------------
TMS320C3x/4x COFF AssemblerVersion 5.12     Mon Jan 31 16:14:26 2022
Copyright (c) 1987-1999 Texas Instruments Incorporatedasm30.exe -@_BR8.AAB 

Y:\workspace_eea\V615\APP\SOURCE\ASM\api.asm                         PAGE   51

     2701                   ; 461 | GIEP;                                                                  
     2702                   ;----------------------------------------------------------------------
     2703 00000344 0e350000         pop             ST                      
     2704                           .line   248
     2705                   ;----------------------------------------------------------------------
     2706                   ; 463 | return API_error_num;                                                  
     2707                   ;----------------------------------------------------------------------
     2708 00000345 6a200073         bud       L173                  ; |463| 
     2709 00000346 0c800000         nop
     2710 00000347 08700000-        ldp       @CL23,DP
     2711 00000348 40200016-        ldfu      @CL23,f0              ; |463| 
     2712                   ;*      Branch Occurs to L173           ; |463| 
     2713 00000349          L157:        
     2714                           .line   251
     2715                   ;----------------------------------------------------------------------
     2716                   ; 466 | a = f->a;                                                              
     2717                   ;----------------------------------------------------------------------
     2718 00000349 5051030d         ldiu      *+fp(13),ir0          ; |466| 
     2719 0000034a 5068018f         ldiu      399,ar0               ; |466| 
     2720 0000034b 40404000         ldfu      *+ar0(ir0),f0         ; |466| 
     2721 0000034c 14400306         stf       f0,*+fp(6)            ; |466| 
     2722                           .line   253
     2723                   ;----------------------------------------------------------------------
     2724                   ; 468 | break;                                                                 
     2725                   ; 470 | case 'D':                                                              
     2726                   ; 471 | default:                                                               
     2727                   ;----------------------------------------------------------------------
     2728 0000034d 6a000032         bu        L170                  ; |468| 
     2729                   ;*      Branch Occurs to L170           ; |468| 
     2730 0000034e          L158:        
     2731                           .line   258
     2732                   ;----------------------------------------------------------------------
     2733                   ; 473 | f->API_TABLE = 'D'<<8;                                                 
     2734                   ;----------------------------------------------------------------------
     2735 0000034e 5051030d         ldiu      *+fp(13),ir0          ; |473| 
     2736 0000034f 5068018e         ldiu      398,ar0               ; |473| 
     2737 00000350 50604400         ldiu      17408,r0              ; |473| 
     2738 00000351 15404000         sti       r0,*+ar0(ir0)         ; |473| 
     2739                           .line   260
     2740                   ;----------------------------------------------------------------------
     2741                   ; 475 | if ((p<-10.0) || (p>45.0) || (t<0.0) || (t>300.0))                     
     2742                   ;----------------------------------------------------------------------
     2743 00000352 08700000-        ldp       @CL38,DP
     2744 00000353 40400305         ldfu      *+fp(5),f0            ; |475| 
     2745 00000354 04200025-        cmpf      @CL38,f0              ; |475| 
     2746 00000355 6a070008         blt       L162                  ; |475| 
     2747                   ;*      Branch Occurs to L162           ; |475| 
     2748 00000356 04605340         cmpf      4.5000000000e+01,f0   ; |475| 
     2749 00000357 6a090006         bgt       L162                  ; |475| 
     2750                   ;*      Branch Occurs to L162           ; |475| 
     2751 00000358 40400304         ldfu      *+fp(4),f0            ; |475| 
     2752 00000359 04608000         cmpf      0.0000000000e+00,f0   ; |475| 
     2753 0000035a 6a070003         blt       L162                  ; |475| 
     2754                   ;*      Branch Occurs to L162           ; |475| 
TMS320C3x/4x COFF AssemblerVersion 5.12     Mon Jan 31 16:14:26 2022
Copyright (c) 1987-1999 Texas Instruments Incorporatedasm30.exe -@_BR8.AAB 

Y:\workspace_eea\V615\APP\SOURCE\ASM\api.asm                         PAGE   52

     2755 0000035b 08700000-        ldp       @CL24,DP
     2756 0000035c 04200017-        cmpf      @CL24,f0              ; |475| 
     2757 0000035d 6a08000a         ble       L163                  ; |475| 
     2758                   ;*      Branch Occurs to L163           ; |475| 
     2759 0000035e          L162:        
     2760                           .line   262
     2761                   ;----------------------------------------------------------------------
     2762                   ; 477 | API_STATUS(fcidx, API_fail);                                           
     2763                   ;----------------------------------------------------------------------
     2764 0000035e 08700000-        ldp       @CL22,DP
     2765 0000035f 504a0301         ldiu      *+fp(1),ar2           ; |477| 
     2766 00000360 50620002         ldiu      2,r2                  ; |477| 
     2767 00000361 50200015-        ldiu      @CL22,r0              ; |477| 
     2768 00000362 70000000         callu     r0                    ; far call to _API_STATUS       ; |477| 
     2769                                                           ; |477| Far Call Occurs
     2770                           .line   263
     2771                   ;----------------------------------------------------------------------
     2772                   ; 478 | GIEP;                                                                  
     2773                   ;----------------------------------------------------------------------
     2774 00000363 0e350000         pop             ST                      
     2775                           .line   265
     2776                   ;----------------------------------------------------------------------
     2777                   ; 480 | return API_error_num;                                                  
     2778                   ;----------------------------------------------------------------------
     2779 00000364 6a200054         bud       L173                  ; |480| 
     2780 00000365 0c800000         nop
     2781 00000366 08700000-        ldp       @CL23,DP
     2782 00000367 40200016-        ldfu      @CL23,f0              ; |480| 
     2783                   ;*      Branch Occurs to L173           ; |480| 
     2784 00000368          L163:        
     2785                           .line   268
     2786                   ;----------------------------------------------------------------------
     2787                   ; 483 | k_set[0] = 0;                                                          
     2788                   ;----------------------------------------------------------------------
     2789 00000368 50480303         ldiu      *+fp(3),ar0           ; |483| 
     2790 00000369 50600000         ldiu      0,r0                  ; |483| 
     2791 0000036a 1540c000         sti       r0,*ar0               ; |483| 
     2792                           .line   269
     2793                   ;----------------------------------------------------------------------
     2794                   ; 484 | k0               = 0.0;                                                
     2795                   ;----------------------------------------------------------------------
     2796 0000036b 40608000         ldfu      0.0000000000e+00,f0   ; |484| 
     2797 0000036c 14400307         stf       f0,*+fp(7)            ; |484| 
     2798                           .line   270
     2799                   ;----------------------------------------------------------------------
     2800                   ; 485 | k1               = 0.34878;                                            
     2801                   ;----------------------------------------------------------------------
     2802 0000036d 08700000-        ldp       @CL39,DP
     2803 0000036e 40200026-        ldfu      @CL39,f0              ; |485| 
     2804 0000036f 14400308         stf       f0,*+fp(8)            ; |485| 
     2805                           .line   271
     2806                   ;----------------------------------------------------------------------
     2807                   ; 486 | k2               = 0.0;                                                
     2808                   ;----------------------------------------------------------------------
TMS320C3x/4x COFF AssemblerVersion 5.12     Mon Jan 31 16:14:26 2022
Copyright (c) 1987-1999 Texas Instruments Incorporatedasm30.exe -@_BR8.AAB 

Y:\workspace_eea\V615\APP\SOURCE\ASM\api.asm                         PAGE   53

     2809 00000370 40608000         ldfu      0.0000000000e+00,f0   ; |486| 
     2810 00000371 14400309         stf       f0,*+fp(9)            ; |486| 
     2811                           .line   273
     2812                   ;----------------------------------------------------------------------
     2813                   ; 488 | break;                                                                 
     2814                   ;----------------------------------------------------------------------
     2815 00000372 6a00000d         bu        L170                  ; |488| 
     2816                   ;*      Branch Occurs to L170           ; |488| 
     2817 00000373          L165:        
     2818                           .line   27
     2819 00000373 5051030d         ldiu      *+fp(13),ir0          ; |242| 
     2820 00000374 5068018e         ldiu      398,ar0               ; |242| 
     2821 00000375 5060fff8         ldiu      -8,r0                 ; |242| 
     2822 00000376 22a04000         ash3      r0,*+ar0(ir0),r0      ; |242| 
     2823 00000377 04e00041         cmpi      65,r0                 ; |242| 
     2824 00000378 6a05fe24         beq       L56                   ; |242| 
     2825                   ;*      Branch Occurs to L56            ; |242| 
     2826 00000379 04e00042         cmpi      66,r0                 ; |242| 
     2827 0000037a 6a05febd         beq       L91                   ; |242| 
     2828                   ;*      Branch Occurs to L91            ; |242| 
     2829 0000037b 04e00043         cmpi      67,r0                 ; |242| 
     2830 0000037c 6a05ff7b         beq       L141                  ; |242| 
     2831                   ;*      Branch Occurs to L141           ; |242| 
     2832 0000037d 04e00044         cmpi      68,r0                 ; |242| 
     2833 0000037e 6a05ffcf         beq       L158                  ; |242| 
     2834                   ;*      Branch Occurs to L158           ; |242| 
     2835 0000037f 6a00ffce         bu        L158                  ; |242| 
     2836                   ;*      Branch Occurs to L158           ; |242| 
     2837 00000380          L170:        
     2838                           .line   277
     2839                   ;----------------------------------------------------------------------
     2840                   ; 492 | t -= 60.0;                                                             
     2841                   ;----------------------------------------------------------------------
     2842 00000380 40605700         ldfu      6.0000000000e+01,f0   ; |492| 
     2843 00000381 19400304         subrf     *+fp(4),f0            ; |492| 
     2844 00000382 14400304         stf       f0,*+fp(4)            ; |492| 
     2845                           .line   278
     2846                   ;----------------------------------------------------------------------
     2847                   ; 493 | p  = r;                                                                
     2848                   ;----------------------------------------------------------------------
     2849 00000383 40400302         ldfu      *+fp(2),f0            ; |493| 
     2850 00000384 14400305         stf       f0,*+fp(5)            ; |493| 
     2851                           .line   280
     2852                   ;----------------------------------------------------------------------
     2853                   ; 495 | if ((f->API_TABLE>>8) != 'C')                                          
     2854                   ; 496 | {//a = (k0/(p*p)) + (k1/p) + k2;                                       
     2855                   ;----------------------------------------------------------------------
     2856 00000385 5051030d         ldiu      *+fp(13),ir0          ; |495| 
     2857 00000386 5068018e         ldiu      398,ar0               ; |495| 
     2858 00000387 5060fff8         ldiu      -8,r0                 ; |495| 
     2859 00000388 22a04000         ash3      r0,*+ar0(ir0),r0      ; |495| 
     2860 00000389 04e00043         cmpi      67,r0                 ; |495| 
     2861 0000038a 6a050022         beq       L172                  ; |495| 
     2862                   ;*      Branch Occurs to L172           ; |495| 
TMS320C3x/4x COFF AssemblerVersion 5.12     Mon Jan 31 16:14:26 2022
Copyright (c) 1987-1999 Texas Instruments Incorporatedasm30.exe -@_BR8.AAB 

Y:\workspace_eea\V615\APP\SOURCE\ASM\api.asm                         PAGE   54

     2863                           .line   282
     2864                   ;----------------------------------------------------------------------
     2865                   ; 497 | t1 = truncate((k0/p),8);                                               
     2866                   ;----------------------------------------------------------------------
     2867 0000038b 40400307         ldfu      *+fp(7),f0            ; |497| 
     2868 0000038c 40410305         ldfu      *+fp(5),f1            ; |497| 
     2869 0000038d 62000000!        call      DIV_F30               ; |497| 
     2870                                                           ; |497| Call Occurs
     2871 0000038e 08700000-        ldp       @CL40,DP
     2872 0000038f 40020000         ldfu      f0,f2                 ; |497| 
     2873 00000390 50210027-        ldiu      @CL40,r1              ; |497| 
     2874 00000391 506a0008         ldiu      8,ar2                 ; |497| 
     2875 00000392 70000001         callu     r1                    ; far call to _truncate ; |497| 
     2876                                                           ; |497| Far Call Occurs
     2877 00000393 1440030a         stf       f0,*+fp(10)           ; |497| 
     2878                           .line   283
     2879                   ;----------------------------------------------------------------------
     2880                   ; 498 | t2 = truncate((t1/p),8);                                               
     2881                   ;----------------------------------------------------------------------
     2882 00000394 40410305         ldfu      *+fp(5),f1            ; |498| 
     2883 00000395 62000000!        call      DIV_F30               ; |498| 
     2884                                                           ; |498| Call Occurs
     2885 00000396 08700000-        ldp       @CL40,DP
     2886 00000397 50210027-        ldiu      @CL40,r1              ; |498| 
     2887 00000398 506a0008         ldiu      8,ar2                 ; |498| 
     2888 00000399 40020000         ldfu      f0,f2                 ; |498| 
     2889 0000039a 70000001         callu     r1                    ; far call to _truncate ; |498| 
     2890                                                           ; |498| Far Call Occurs
     2891 0000039b 1440030b         stf       f0,*+fp(11)           ; |498| 
     2892                           .line   284
     2893                   ;----------------------------------------------------------------------
     2894                   ; 499 | t3 = truncate((k1/p),8);                                               
     2895                   ;----------------------------------------------------------------------
     2896 0000039c 40410305         ldfu      *+fp(5),f1            ; |499| 
     2897 0000039d 40400308         ldfu      *+fp(8),f0            ; |499| 
     2898 0000039e 62000000!        call      DIV_F30               ; |499| 
     2899                                                           ; |499| Call Occurs
     2900 0000039f 08700000-        ldp       @CL40,DP
     2901 000003a0 50210027-        ldiu      @CL40,r1              ; |499| 
     2902 000003a1 40020000         ldfu      f0,f2                 ; |499| 
     2903 000003a2 506a0008         ldiu      8,ar2                 ; |499| 
     2904 000003a3 70000001         callu     r1                    ; far call to _truncate ; |499| 
     2905                                                           ; |499| Far Call Occurs
     2906 000003a4 1440030c         stf       f0,*+fp(12)           ; |499| 
     2907                           .line   285
     2908                   ;----------------------------------------------------------------------
     2909                   ; 500 | a  = sigfig((t2+t3+k2), 4);                                            
     2910                   ;----------------------------------------------------------------------
     2911 000003a5 40020000         ldfu      f0,f2
     2912 000003a6 01c2030b         addf      *+fp(11),f2           ; |500| 
     2913 000003a7 506a0004         ldiu      4,ar2                 ; |500| 
     2914 000003a8 08700000-        ldp       @CL41,DP
     2915 000003a9 01c20309         addf      *+fp(9),f2            ; |500| 
     2916 000003aa 50200028-        ldiu      @CL41,r0              ; |500| 
TMS320C3x/4x COFF AssemblerVersion 5.12     Mon Jan 31 16:14:26 2022
Copyright (c) 1987-1999 Texas Instruments Incorporatedasm30.exe -@_BR8.AAB 

Y:\workspace_eea\V615\APP\SOURCE\ASM\api.asm                         PAGE   55

     2917 000003ab 70000000         callu     r0                    ; far call to _sigfig   ; |500| 
     2918                                                           ; |500| Far Call Occurs
     2919 000003ac 14400306         stf       f0,*+fp(6)            ; |500| 
     2920 000003ad          L172:        
     2921                           .line   288
     2922                   ;----------------------------------------------------------------------
     2923                   ; 503 | t = p * exp(-a*t*(1.0+0.8*a*t));                                       
     2924                   ;----------------------------------------------------------------------
     2925 000003ad 40410306         ldfu      *+fp(6),f1            ; |503| 
     2926 000003ae 08700000-        ldp       @CL42,DP
     2927 000003af 0bc00306         negf      *+fp(6),f0            ; |503| 
     2928 000003b0 0a210029-        mpyf      @CL42,f1              ; |503| 
     2929 000003b1 0a400304         mpyf      *+fp(4),f0            ; |503| 
     2930 000003b2 08700000-        ldp       @CL43,DP
     2931 000003b3 0a410304         mpyf      *+fp(4),f1            ; |503| 
     2932 000003b4 5023002a-        ldiu      @CL43,r3              ; |503| 
     2933 000003b5 01e10000         addf      1.0000000000e+00,f1   ; |503| 
     2934 000003b6 24820001         mpyf3     f1,f0,f2              ; |503| 
     2935 000003b7 70000003         callu     r3                    ; far call to _exp      ; |503| 
     2936                                                           ; |503| Far Call Occurs
     2937 000003b8 0a400305         mpyf      *+fp(5),f0            ; |503| 
     2938 000003b9 14400304         stf       f0,*+fp(4)            ; |503| 
     2939                           .line   289
     2940                   ;----------------------------------------------------------------------
     2941                   ; 504 | GIEP;                                                                  
     2942                   ;----------------------------------------------------------------------
     2943 000003ba 0e350000         pop             ST                      
     2944                           .line   291
     2945                   ;----------------------------------------------------------------------
     2946                   ; 506 | return t;                                                              
     2947                   ;----------------------------------------------------------------------
     2948 000003bb          L173:        
     2949                           .line   292
     2950                                                           ; Begin Epilog Code
     2951 000003bb 50410b01         ldiu      *-fp(1),r1            ; |507| 
     2952 000003bc 504bc300         ldiu      *fp,fp                ; |507| 
     2953                                                           ; Restore SOE Registers
     2954 000003bd 0e2c0000         pop       ar4                   ; |507| 
     2955                                                           ; Unallocate the Frame
     2956 000003be 1874000f         subi      15,sp                 ; |507| 
     2957 000003bf 68000001         bu        r1
     2958                   ;*      Branch Occurs to r1 
     2959                           .endfunc        507,000001000h,13
     2960                   
     2961                   
     2962 000003c0                  .sect    ".text"
     2963                   
     2964                           .global _API_15C_PT
     2965                           .sym    _API_15C_PT,_API_15C_PT,39,2,0
     2966                           .func   523
     2967                   ;******************************************************************************
     2968                   ;* FUNCTION NAME: _API_15C_PT                                                 *
     2969                   ;*                                                                            *
     2970                   ;*   Architecture       : TMS320C33                                           *
TMS320C3x/4x COFF AssemblerVersion 5.12     Mon Jan 31 16:14:26 2022
Copyright (c) 1987-1999 Texas Instruments Incorporatedasm30.exe -@_BR8.AAB 

Y:\workspace_eea\V615\APP\SOURCE\ASM\api.asm                         PAGE   56

     2971                   ;*   Calling Convention : TI Standard Register Parameters                     *
     2972                   ;*   Function Uses Regs : f0,r0,f1,r1,f2,r2,r3,ar0,ar1,ar2,ar4,ir0,st,rs,re,  *
     2973                   ;*                        rc                                                  *
     2974                   ;*   Regs Saved         : ar4                                                 *
     2975                   ;*   Stack Frame        : Full (w/ debug)                                     *
     2976                   ;*   Total Frame Size   : 2 Call + 0 Parm + 13 Auto + 1 SOE = 16 words        *
     2977                   ;******************************************************************************
     2978 000003c0          _API_15C_PT:
     2979                   ;* ar2   assigned to _fcidx
     2980                           .sym    _fcidx,10,4,17,32
     2981                   ;* f2    assigned to _r
     2982                           .sym    _r,2,7,17,32
     2983                   ;* r3    assigned to _k_set
     2984                           .sym    _k_set,3,20,17,32
     2985                           .sym    _fcidx,1,4,1,32
     2986                           .sym    _r,2,7,1,32
     2987                           .sym    _k_set,3,20,1,32
     2988                           .sym    _t,4,7,1,32
     2989                           .sym    _p,5,7,1,32
     2990                           .sym    _a,6,7,1,32
     2991                           .sym    _k0,7,7,1,32
     2992                           .sym    _k1,8,7,1,32
     2993                           .sym    _k2,9,7,1,32
     2994                           .sym    _t1,10,7,1,32
     2995                           .sym    _t2,11,7,1,32
     2996                           .sym    _t3,12,7,1,32
     2997                           .sym    _f,13,24,1,32,.fake31
     2998                           .line   1
     2999                   ;----------------------------------------------------------------------
     3000                   ; 523 | double API_15C_PT(const int fcidx, const double r, int* k_set)         
     3001                   ;----------------------------------------------------------------------
     3002 000003c0 0f2b0000         push      fp
     3003 000003c1 500b0014         ldiu      sp,fp
     3004 000003c2 0274000d         addi      13,sp
     3005 000003c3 0f2c0000         push      ar4
     3006                           .line   2
     3007                   ;----------------------------------------------------------------------
     3008                   ; 525 | double t;       /* temperature */                                      
     3009                   ; 527 | double p;       /* pressure (NOT! -DHA)*/                              
     3010                   ; 533 | double a;       /* case C variable */                                  
     3011                   ; 534 | double k0;      /* constant */                                         
     3012                   ; 535 | double k1;      /* constant */                                         
     3013                   ; 536 | double k2;      /* constant */                                         
     3014                   ; 537 | double t1;                                                             
     3015                   ; 538 | double t2;                                                             
     3016                   ; 539 | double t3;                                                             
     3017                   ; 540 | FLOW_COMP* f; /* flow computer */                                      
     3018                   ;----------------------------------------------------------------------
     3019 000003c4 15430303         sti       r3,*+fp(3)            ; |524| 
     3020 000003c5 14420302         stf       f2,*+fp(2)            ; |524| 
     3021 000003c6 154a0301         sti       ar2,*+fp(1)           ; |524| 
     3022                           .line   20
     3023                   ;----------------------------------------------------------------------
     3024                   ; 542 | _GIEP;                                                                 
TMS320C3x/4x COFF AssemblerVersion 5.12     Mon Jan 31 16:14:26 2022
Copyright (c) 1987-1999 Texas Instruments Incorporatedasm30.exe -@_BR8.AAB 

Y:\workspace_eea\V615\APP\SOURCE\ASM\api.asm                         PAGE   57

     3025                   ;----------------------------------------------------------------------
     3026 000003c7 0f350000         push    ST                      
     3027 000003c8 03752000         andn    2000h, ST       
     3028                           .line   22
     3029                   ;----------------------------------------------------------------------
     3030                   ; 544 | f = &FC[fcidx];                                                        
     3031                   ;----------------------------------------------------------------------
     3032 000003c9 5000000a         ldiu      ar2,r0
     3033 000003ca 08700000-        ldp       @CL20,DP
     3034 000003cb 0ae00538         mpyi      1336,r0               ; |544| 
     3035 000003cc 02200013-        addi      @CL20,r0              ; |544| Unsigned
     3036 000003cd 1540030d         sti       r0,*+fp(13)           ; |544| 
     3037                           .line   23
     3038                   ;----------------------------------------------------------------------
     3039                   ; 545 | t = Convert(f->T.class, f->T.calc_unit, u_temp_C, f->T.calc_val, 0, f->
     3040                   ;     | T.aux);                                                                
     3041                   ;----------------------------------------------------------------------
     3042 000003ce 507b0020         ldiu      32,rc                 ; |545| 
     3043 000003cf 50090000         ldiu      r0,ar1
     3044 000003d0 08700000-        ldp       @CL1,DP
     3045 000003d1 50080000         ldiu      r0,ar0
     3046 000003d2 500a0000         ldiu      r0,ar2
     3047 000003d3 40420135         ldfu      *+ar1(53),f2          ; |545| 40b float hi half
     3048 000003d4 500c0000         ldiu      r0,ar4
     3049 000003d5 505a0232         ldiu      *+ar2(50),re          ; |545| 
     3050 000003d6 5043003a         ldiu      *+ar0(58),r3          ; |545| 
     3051 000003d7 504a043b         ldiu      *+ar4(59),ar2         ; |545| 
     3052 000003d8 50200000-        ldiu      @CL1,r0               ; |545| 
     3053 000003d9 50420136         ldiu      *+ar1(54),r2          ; |545| 40b float lo half
     3054 000003da 50790000         ldiu      0,rs                  ; |545| 
     3055 000003db 70000000         callu     r0                    ; far call to _Convert  ; |545| 
     3056                                                           ; |545| Far Call Occurs
     3057 000003dc 11000000         rnd       f0,f0                 ; |545| Demote to low precision
     3058 000003dd 14400304         stf       f0,*+fp(4)            ; |545| 
     3059                           .line   24
     3060                   ;----------------------------------------------------------------------
     3061                   ; 546 | p = r;                                                                 
     3062                   ;----------------------------------------------------------------------
     3063 000003de 40400302         ldfu      *+fp(2),f0            ; |546| 
     3064 000003df 14400305         stf       f0,*+fp(5)            ; |546| 
     3065                           .line   26
     3066                   ;----------------------------------------------------------------------
     3067                   ; 548 | API_STATUS(fcidx, 0);                   /* clear API status bits */    
     3068                   ; 550 | switch (f->API_TABLE>>8)                                               
     3069                   ; 552 |         case 'A':                                                      
     3070                   ; 554 |                 //if ((t<-18.0) || (p<610.5) || (p>1075.0))            
     3071                   ;----------------------------------------------------------------------
     3072 000003e0 08700000-        ldp       @CL22,DP
     3073 000003e1 50200015-        ldiu      @CL22,r0              ; |548| 
     3074 000003e2 50620000         ldiu      0,r2                  ; |548| 
     3075 000003e3 504a0301         ldiu      *+fp(1),ar2           ; |548| 
     3076 000003e4 70000000         callu     r0                    ; far call to _API_STATUS       ; |548| 
     3077                                                           ; |548| Far Call Occurs
     3078 000003e5 6a0001da         bu        L279                  ; |522| 
TMS320C3x/4x COFF AssemblerVersion 5.12     Mon Jan 31 16:14:26 2022
Copyright (c) 1987-1999 Texas Instruments Incorporatedasm30.exe -@_BR8.AAB 

Y:\workspace_eea\V615\APP\SOURCE\ASM\api.asm                         PAGE   58

     3079                   ;*      Branch Occurs to L279           ; |522| 
     3080 000003e6          L176:        
     3081                           .line   33
     3082                   ;----------------------------------------------------------------------
     3083                   ; 555 | if ((t<-18.0) || (p<450.0) || (p>1075.0))                              
     3084                   ;----------------------------------------------------------------------
     3085 000003e6 08700000-        ldp       @CL44,DP
     3086 000003e7 40400304         ldfu      *+fp(4),f0            ; |555| 
     3087 000003e8 0420002b-        cmpf      @CL44,f0              ; |555| 
     3088 000003e9 6a070007         blt       L179                  ; |555| 
     3089                   ;*      Branch Occurs to L179           ; |555| 
     3090 000003ea 08700000-        ldp       @CL45,DP
     3091 000003eb 40400305         ldfu      *+fp(5),f0            ; |555| 
     3092 000003ec 0420002c-        cmpf      @CL45,f0              ; |555| 
     3093 000003ed 6a070003         blt       L179                  ; |555| 
     3094                   ;*      Branch Occurs to L179           ; |555| 
     3095 000003ee 08700000-        ldp       @CL46,DP
     3096 000003ef 0420002d-        cmpf      @CL46,f0              ; |555| 
     3097 000003f0 6a08000a         ble       L181                  ; |555| 
     3098                   ;*      Branch Occurs to L181           ; |555| 
     3099 000003f1          L179:        
     3100                           .line   35
     3101                   ;----------------------------------------------------------------------
     3102                   ; 557 | API_STATUS(fcidx, API_fail);                                           
     3103                   ;----------------------------------------------------------------------
     3104 000003f1 08700000-        ldp       @CL22,DP
     3105 000003f2 504a0301         ldiu      *+fp(1),ar2           ; |557| 
     3106 000003f3 50620002         ldiu      2,r2                  ; |557| 
     3107 000003f4 50200015-        ldiu      @CL22,r0              ; |557| 
     3108 000003f5 70000000         callu     r0                    ; far call to _API_STATUS       ; |557| 
     3109                                                           ; |557| Far Call Occurs
     3110                           .line   36
     3111                   ;----------------------------------------------------------------------
     3112                   ; 558 | GIEP;                                                                  
     3113                   ;----------------------------------------------------------------------
     3114 000003f6 0e350000         pop             ST                      
     3115                           .line   38
     3116                   ;----------------------------------------------------------------------
     3117                   ; 560 | return API_error_num;                                                  
     3118                   ;----------------------------------------------------------------------
     3119 000003f7 6a20020e         bud       L287                  ; |560| 
     3120 000003f8 0c800000         nop
     3121 000003f9 08700000-        ldp       @CL23,DP
     3122 000003fa 40200016-        ldfu      @CL23,f0              ; |560| 
     3123                   ;*      Branch Occurs to L287           ; |560| 
     3124 000003fb          L181:        
     3125                           .line   40
     3126                   ;----------------------------------------------------------------------
     3127                   ; 562 | else if (p<758.0)                                                      
     3128                   ; 564 |         //if (t>90.0) // JAN 12, 2022 : DKOH : bug#112                 
     3129                   ;----------------------------------------------------------------------
     3130 000003fb 08700000-        ldp       @CL47,DP
     3131 000003fc 40400305         ldfu      *+fp(5),f0            ; |562| 
     3132 000003fd 0420002e-        cmpf      @CL47,f0              ; |562| 
TMS320C3x/4x COFF AssemblerVersion 5.12     Mon Jan 31 16:14:26 2022
Copyright (c) 1987-1999 Texas Instruments Incorporatedasm30.exe -@_BR8.AAB 

Y:\workspace_eea\V615\APP\SOURCE\ASM\api.asm                         PAGE   59

     3133 000003fe 6a0a0013         bge       L186                  ; |562| 
     3134                   ;*      Branch Occurs to L186           ; |562| 
     3135                           .line   43
     3136                   ;----------------------------------------------------------------------
     3137                   ; 565 | if (t>150.0)                                                           
     3138                   ;----------------------------------------------------------------------
     3139 000003ff 40400304         ldfu      *+fp(4),f0            ; |565| 
     3140 00000400 04607160         cmpf      1.5000000000e+02,f0   ; |565| 
     3141 00000401 6a08000a         ble       L185                  ; |565| 
     3142                   ;*      Branch Occurs to L185           ; |565| 
     3143                           .line   45
     3144                   ;----------------------------------------------------------------------
     3145                   ; 567 | API_STATUS(fcidx, API_fail);                                           
     3146                   ;----------------------------------------------------------------------
     3147 00000402 08700000-        ldp       @CL22,DP
     3148 00000403 504a0301         ldiu      *+fp(1),ar2           ; |567| 
     3149 00000404 50620002         ldiu      2,r2                  ; |567| 
     3150 00000405 50200015-        ldiu      @CL22,r0              ; |567| 
     3151 00000406 70000000         callu     r0                    ; far call to _API_STATUS       ; |567| 
     3152                                                           ; |567| Far Call Occurs
     3153                           .line   46
     3154                   ;----------------------------------------------------------------------
     3155                   ; 568 | GIEP;                                                                  
     3156                   ;----------------------------------------------------------------------
     3157 00000407 0e350000         pop             ST                      
     3158                           .line   48
     3159                   ;----------------------------------------------------------------------
     3160                   ; 570 | return API_error_num;                                                  
     3161                   ; 572 | else                                                                   
     3162                   ;----------------------------------------------------------------------
     3163 00000408 6a2001fd         bud       L287                  ; |570| 
     3164 00000409 0c800000         nop
     3165 0000040a 08700000-        ldp       @CL23,DP
     3166 0000040b 40200016-        ldfu      @CL23,f0              ; |570| 
     3167                   ;*      Branch Occurs to L287           ; |570| 
     3168 0000040c          L185:        
     3169                           .line   51
     3170                   ;----------------------------------------------------------------------
     3171                   ; 573 | API_STATUS(fcidx, API_extrapolate);                                    
     3172                   ;----------------------------------------------------------------------
     3173 0000040c 08700000-        ldp       @CL22,DP
     3174 0000040d 504a0301         ldiu      *+fp(1),ar2           ; |573| 
     3175 0000040e 50620001         ldiu      1,r2                  ; |573| 
     3176 0000040f 50200015-        ldiu      @CL22,r0              ; |573| 
     3177 00000410 70000000         callu     r0                    ; far call to _API_STATUS       ; |573| 
     3178                                                           ; |573| Far Call Occurs
     3179 00000411 6a00004d         bu        L204                  ; |522| 
     3180                   ;*      Branch Occurs to L204           ; |522| 
     3181 00000412          L186:        
     3182                           .line   53
     3183                   ;----------------------------------------------------------------------
     3184                   ; 575 | else if (p<778.5)                                                      
     3185                   ; 577 |         //if (t>90.0)// JAN 12, 2022 : DKOH : bug#112                  
     3186                   ;----------------------------------------------------------------------
TMS320C3x/4x COFF AssemblerVersion 5.12     Mon Jan 31 16:14:26 2022
Copyright (c) 1987-1999 Texas Instruments Incorporatedasm30.exe -@_BR8.AAB 

Y:\workspace_eea\V615\APP\SOURCE\ASM\api.asm                         PAGE   60

     3187 00000412 08700000-        ldp       @CL48,DP
     3188 00000413 40400305         ldfu      *+fp(5),f0            ; |575| 
     3189 00000414 0420002f-        cmpf      @CL48,f0              ; |575| 
     3190 00000415 6a0a0016         bge       L192                  ; |575| 
     3191                   ;*      Branch Occurs to L192           ; |575| 
     3192                           .line   56
     3193                   ;----------------------------------------------------------------------
     3194                   ; 578 | if (t>150.0)                                                           
     3195                   ;----------------------------------------------------------------------
     3196 00000416 40400304         ldfu      *+fp(4),f0            ; |578| 
     3197 00000417 04607160         cmpf      1.5000000000e+02,f0   ; |578| 
     3198 00000418 6a08000a         ble       L190                  ; |578| 
     3199                   ;*      Branch Occurs to L190           ; |578| 
     3200                           .line   58
     3201                   ;----------------------------------------------------------------------
     3202                   ; 580 | API_STATUS(fcidx, API_fail);                                           
     3203                   ;----------------------------------------------------------------------
     3204 00000419 08700000-        ldp       @CL22,DP
     3205 0000041a 504a0301         ldiu      *+fp(1),ar2           ; |580| 
     3206 0000041b 50620002         ldiu      2,r2                  ; |580| 
     3207 0000041c 50200015-        ldiu      @CL22,r0              ; |580| 
     3208 0000041d 70000000         callu     r0                    ; far call to _API_STATUS       ; |580| 
     3209                                                           ; |580| Far Call Occurs
     3210                           .line   59
     3211                   ;----------------------------------------------------------------------
     3212                   ; 581 | GIEP;                                                                  
     3213                   ;----------------------------------------------------------------------
     3214 0000041e 0e350000         pop             ST                      
     3215                           .line   61
     3216                   ;----------------------------------------------------------------------
     3217                   ; 583 | return API_error_num;                                                  
     3218                   ;----------------------------------------------------------------------
     3219 0000041f 6a2001e6         bud       L287                  ; |583| 
     3220 00000420 0c800000         nop
     3221 00000421 08700000-        ldp       @CL23,DP
     3222 00000422 40200016-        ldfu      @CL23,f0              ; |583| 
     3223                   ;*      Branch Occurs to L287           ; |583| 
     3224 00000423          L190:        
     3225                           .line   63
     3226                   ;----------------------------------------------------------------------
     3227                   ; 585 | else if (t>60.0)                                                       
     3228                   ;----------------------------------------------------------------------
     3229 00000423 40400304         ldfu      *+fp(4),f0            ; |585| 
     3230 00000424 04605700         cmpf      6.0000000000e+01,f0   ; |585| 
     3231 00000425 6a080039         ble       L204                  ; |585| 
     3232                   ;*      Branch Occurs to L204           ; |585| 
     3233                           .line   64
     3234                   ;----------------------------------------------------------------------
     3235                   ; 586 | API_STATUS(fcidx, API_extrapolate);                                    
     3236                   ;----------------------------------------------------------------------
     3237 00000426 08700000-        ldp       @CL22,DP
     3238 00000427 504a0301         ldiu      *+fp(1),ar2           ; |586| 
     3239 00000428 50620001         ldiu      1,r2                  ; |586| 
     3240 00000429 50200015-        ldiu      @CL22,r0              ; |586| 
TMS320C3x/4x COFF AssemblerVersion 5.12     Mon Jan 31 16:14:26 2022
Copyright (c) 1987-1999 Texas Instruments Incorporatedasm30.exe -@_BR8.AAB 

Y:\workspace_eea\V615\APP\SOURCE\ASM\api.asm                         PAGE   61

     3241 0000042a 70000000         callu     r0                    ; far call to _API_STATUS       ; |586| 
     3242                                                           ; |586| Far Call Occurs
     3243 0000042b 6a000033         bu        L204                  ; |522| 
     3244                   ;*      Branch Occurs to L204           ; |522| 
     3245 0000042c          L192:        
     3246                           .line   66
     3247                   ;----------------------------------------------------------------------
     3248                   ; 588 | else if (p<824.0)                                                      
     3249                   ; 590 |         //if (t>120.0)// JAN 12, 2022 : DKOH : bug#112                 
     3250                   ;----------------------------------------------------------------------
     3251 0000042c 08700000-        ldp       @CL49,DP
     3252 0000042d 40400305         ldfu      *+fp(5),f0            ; |588| 
     3253 0000042e 04200030-        cmpf      @CL49,f0              ; |588| 
     3254 0000042f 6a0a0016         bge       L198                  ; |588| 
     3255                   ;*      Branch Occurs to L198           ; |588| 
     3256                           .line   69
     3257                   ;----------------------------------------------------------------------
     3258                   ; 591 | if (t>150.0)                                                           
     3259                   ;----------------------------------------------------------------------
     3260 00000430 40400304         ldfu      *+fp(4),f0            ; |591| 
     3261 00000431 04607160         cmpf      1.5000000000e+02,f0   ; |591| 
     3262 00000432 6a08000a         ble       L196                  ; |591| 
     3263                   ;*      Branch Occurs to L196           ; |591| 
     3264                           .line   71
     3265                   ;----------------------------------------------------------------------
     3266                   ; 593 | API_STATUS(fcidx, API_fail);                                           
     3267                   ;----------------------------------------------------------------------
     3268 00000433 08700000-        ldp       @CL22,DP
     3269 00000434 504a0301         ldiu      *+fp(1),ar2           ; |593| 
     3270 00000435 50620002         ldiu      2,r2                  ; |593| 
     3271 00000436 50200015-        ldiu      @CL22,r0              ; |593| 
     3272 00000437 70000000         callu     r0                    ; far call to _API_STATUS       ; |593| 
     3273                                                           ; |593| Far Call Occurs
     3274                           .line   72
     3275                   ;----------------------------------------------------------------------
     3276                   ; 594 | GIEP; return API_error_num;                                            
     3277                   ;----------------------------------------------------------------------
     3278 00000438 0e350000         pop             ST                      
     3279 00000439 6a2001cc         bud       L287                  ; |594| 
     3280 0000043a 0c800000         nop
     3281 0000043b 08700000-        ldp       @CL23,DP
     3282 0000043c 40200016-        ldfu      @CL23,f0              ; |594| 
     3283                   ;*      Branch Occurs to L287           ; |594| 
     3284 0000043d          L196:        
     3285                           .line   74
     3286                   ;----------------------------------------------------------------------
     3287                   ; 596 | else if (t>90.0)                                                       
     3288                   ;----------------------------------------------------------------------
     3289 0000043d 40400304         ldfu      *+fp(4),f0            ; |596| 
     3290 0000043e 04606340         cmpf      9.0000000000e+01,f0   ; |596| 
     3291 0000043f 6a08001f         ble       L204                  ; |596| 
     3292                   ;*      Branch Occurs to L204           ; |596| 
     3293                           .line   75
     3294                   ;----------------------------------------------------------------------
TMS320C3x/4x COFF AssemblerVersion 5.12     Mon Jan 31 16:14:26 2022
Copyright (c) 1987-1999 Texas Instruments Incorporatedasm30.exe -@_BR8.AAB 

Y:\workspace_eea\V615\APP\SOURCE\ASM\api.asm                         PAGE   62

     3295                   ; 597 | API_STATUS(fcidx, API_extrapolate);                                    
     3296                   ;----------------------------------------------------------------------
     3297 00000440 08700000-        ldp       @CL22,DP
     3298 00000441 504a0301         ldiu      *+fp(1),ar2           ; |597| 
     3299 00000442 50620001         ldiu      1,r2                  ; |597| 
     3300 00000443 50200015-        ldiu      @CL22,r0              ; |597| 
     3301 00000444 70000000         callu     r0                    ; far call to _API_STATUS       ; |597| 
     3302                                                           ; |597| Far Call Occurs
     3303 00000445 6a000019         bu        L204                  ; |522| 
     3304                   ;*      Branch Occurs to L204           ; |522| 
     3305 00000446          L198:        
     3306                           .line   77
     3307                   ;----------------------------------------------------------------------
     3308                   ; 599 | else if (p<=1075.0)                                                    
     3309                   ;----------------------------------------------------------------------
     3310 00000446 08700000-        ldp       @CL46,DP
     3311 00000447 40400305         ldfu      *+fp(5),f0            ; |599| 
     3312 00000448 0420002d-        cmpf      @CL46,f0              ; |599| 
     3313 00000449 6a090015         bgt       L204                  ; |599| 
     3314                   ;*      Branch Occurs to L204           ; |599| 
     3315                           .line   79
     3316                   ;----------------------------------------------------------------------
     3317                   ; 601 | if (t>150.0)                                                           
     3318                   ;----------------------------------------------------------------------
     3319 0000044a 40400304         ldfu      *+fp(4),f0            ; |601| 
     3320 0000044b 04607160         cmpf      1.5000000000e+02,f0   ; |601| 
     3321 0000044c 6a08000a         ble       L202                  ; |601| 
     3322                   ;*      Branch Occurs to L202           ; |601| 
     3323                           .line   81
     3324                   ;----------------------------------------------------------------------
     3325                   ; 603 | API_STATUS(fcidx, API_fail);                                           
     3326                   ;----------------------------------------------------------------------
     3327 0000044d 08700000-        ldp       @CL22,DP
     3328 0000044e 504a0301         ldiu      *+fp(1),ar2           ; |603| 
     3329 0000044f 50620002         ldiu      2,r2                  ; |603| 
     3330 00000450 50200015-        ldiu      @CL22,r0              ; |603| 
     3331 00000451 70000000         callu     r0                    ; far call to _API_STATUS       ; |603| 
     3332                                                           ; |603| Far Call Occurs
     3333                           .line   82
     3334                   ;----------------------------------------------------------------------
     3335                   ; 604 | GIEP; return API_error_num;                                            
     3336                   ;----------------------------------------------------------------------
     3337 00000452 0e350000         pop             ST                      
     3338 00000453 6a2001b2         bud       L287                  ; |604| 
     3339 00000454 0c800000         nop
     3340 00000455 08700000-        ldp       @CL23,DP
     3341 00000456 40200016-        ldfu      @CL23,f0              ; |604| 
     3342                   ;*      Branch Occurs to L287           ; |604| 
     3343 00000457          L202:        
     3344                           .line   84
     3345                   ;----------------------------------------------------------------------
     3346                   ; 606 | else if (t>120.0)                                                      
     3347                   ;----------------------------------------------------------------------
     3348 00000457 40400304         ldfu      *+fp(4),f0            ; |606| 
TMS320C3x/4x COFF AssemblerVersion 5.12     Mon Jan 31 16:14:26 2022
Copyright (c) 1987-1999 Texas Instruments Incorporatedasm30.exe -@_BR8.AAB 

Y:\workspace_eea\V615\APP\SOURCE\ASM\api.asm                         PAGE   63

     3349 00000458 04606700         cmpf      1.2000000000e+02,f0   ; |606| 
     3350 00000459 6a080005         ble       L204                  ; |606| 
     3351                   ;*      Branch Occurs to L204           ; |606| 
     3352                           .line   85
     3353                   ;----------------------------------------------------------------------
     3354                   ; 607 | API_STATUS(fcidx, API_extrapolate);                                    
     3355                   ;----------------------------------------------------------------------
     3356 0000045a 08700000-        ldp       @CL22,DP
     3357 0000045b 504a0301         ldiu      *+fp(1),ar2           ; |607| 
     3358 0000045c 50620001         ldiu      1,r2                  ; |607| 
     3359 0000045d 50200015-        ldiu      @CL22,r0              ; |607| 
     3360 0000045e 70000000         callu     r0                    ; far call to _API_STATUS       ; |607| 
     3361                                                           ; |607| Far Call Occurs
     3362 0000045f          L204:        
     3363                           .line   88
     3364                   ;----------------------------------------------------------------------
     3365                   ; 610 | k_set[0] = 0;                                                          
     3366                   ;----------------------------------------------------------------------
     3367 0000045f 50480303         ldiu      *+fp(3),ar0           ; |610| 
     3368 00000460 50600000         ldiu      0,r0                  ; |610| 
     3369 00000461 1540c000         sti       r0,*ar0               ; |610| 
     3370                           .line   89
     3371                   ;----------------------------------------------------------------------
     3372                   ; 611 | k0 = 613.9723;                                                         
     3373                   ;----------------------------------------------------------------------
     3374 00000462 08700000-        ldp       @CL50,DP
     3375 00000463 40200031-        ldfu      @CL50,f0              ; |611| 
     3376 00000464 14400307         stf       f0,*+fp(7)            ; |611| 
     3377                           .line   90
     3378                   ;----------------------------------------------------------------------
     3379                   ; 612 | k1 = 0.0;                                                              
     3380                   ;----------------------------------------------------------------------
     3381 00000465 40608000         ldfu      0.0000000000e+00,f0   ; |612| 
     3382 00000466 14400308         stf       f0,*+fp(8)            ; |612| 
     3383                           .line   91
     3384                   ;----------------------------------------------------------------------
     3385                   ; 613 | k2 = 0.0;                                                              
     3386                   ;----------------------------------------------------------------------
     3387 00000467 40608000         ldfu      0.0000000000e+00,f0   ; |613| 
     3388 00000468 14400309         stf       f0,*+fp(9)            ; |613| 
     3389                           .line   93
     3390                   ;----------------------------------------------------------------------
     3391                   ; 615 | break;                                                                 
     3392                   ; 617 | case 'B':                                                              
     3393                   ;----------------------------------------------------------------------
     3394 00000469 6a000163         bu        L284                  ; |615| 
     3395                   ;*      Branch Occurs to L284           ; |615| 
     3396 0000046a          L205:        
     3397                           .line   97
     3398                   ;----------------------------------------------------------------------
     3399                   ; 619 | if ((t<-18.0) || (p<653.0) || (p>1075.0))                              
     3400                   ;----------------------------------------------------------------------
     3401 0000046a 08700000-        ldp       @CL44,DP
     3402 0000046b 40400304         ldfu      *+fp(4),f0            ; |619| 
TMS320C3x/4x COFF AssemblerVersion 5.12     Mon Jan 31 16:14:26 2022
Copyright (c) 1987-1999 Texas Instruments Incorporatedasm30.exe -@_BR8.AAB 

Y:\workspace_eea\V615\APP\SOURCE\ASM\api.asm                         PAGE   64

     3403 0000046c 0420002b-        cmpf      @CL44,f0              ; |619| 
     3404 0000046d 6a070007         blt       L208                  ; |619| 
     3405                   ;*      Branch Occurs to L208           ; |619| 
     3406 0000046e 08700000-        ldp       @CL51,DP
     3407 0000046f 40400305         ldfu      *+fp(5),f0            ; |619| 
     3408 00000470 04200032-        cmpf      @CL51,f0              ; |619| 
     3409 00000471 6a070003         blt       L208                  ; |619| 
     3410                   ;*      Branch Occurs to L208           ; |619| 
     3411 00000472 08700000-        ldp       @CL46,DP
     3412 00000473 0420002d-        cmpf      @CL46,f0              ; |619| 
     3413 00000474 6a08000a         ble       L210                  ; |619| 
     3414                   ;*      Branch Occurs to L210           ; |619| 
     3415 00000475          L208:        
     3416                           .line   99
     3417                   ;----------------------------------------------------------------------
     3418                   ; 621 | API_STATUS(fcidx, API_fail);                                           
     3419                   ;----------------------------------------------------------------------
     3420 00000475 08700000-        ldp       @CL22,DP
     3421 00000476 504a0301         ldiu      *+fp(1),ar2           ; |621| 
     3422 00000477 50620002         ldiu      2,r2                  ; |621| 
     3423 00000478 50200015-        ldiu      @CL22,r0              ; |621| 
     3424 00000479 70000000         callu     r0                    ; far call to _API_STATUS       ; |621| 
     3425                                                           ; |621| Far Call Occurs
     3426                           .line   100
     3427                   ;----------------------------------------------------------------------
     3428                   ; 622 | GIEP;                                                                  
     3429                   ;----------------------------------------------------------------------
     3430 0000047a 0e350000         pop             ST                      
     3431                           .line   102
     3432                   ;----------------------------------------------------------------------
     3433                   ; 624 | return API_error_num;                                                  
     3434                   ;----------------------------------------------------------------------
     3435 0000047b 6a20018a         bud       L287                  ; |624| 
     3436 0000047c 0c800000         nop
     3437 0000047d 08700000-        ldp       @CL23,DP
     3438 0000047e 40200016-        ldfu      @CL23,f0              ; |624| 
     3439                   ;*      Branch Occurs to L287           ; |624| 
     3440 0000047f          L210:        
     3441                           .line   104
     3442                   ;----------------------------------------------------------------------
     3443                   ; 626 | else if (p<778.5)                                                      
     3444                   ;----------------------------------------------------------------------
     3445 0000047f 08700000-        ldp       @CL48,DP
     3446 00000480 40400305         ldfu      *+fp(5),f0            ; |626| 
     3447 00000481 0420002f-        cmpf      @CL48,f0              ; |626| 
     3448 00000482 6a0a0016         bge       L216                  ; |626| 
     3449                   ;*      Branch Occurs to L216           ; |626| 
     3450                           .line   106
     3451                   ;----------------------------------------------------------------------
     3452                   ; 628 | if (t>90.0)                                                            
     3453                   ;----------------------------------------------------------------------
     3454 00000483 40400304         ldfu      *+fp(4),f0            ; |628| 
     3455 00000484 04606340         cmpf      9.0000000000e+01,f0   ; |628| 
     3456 00000485 6a08000a         ble       L214                  ; |628| 
TMS320C3x/4x COFF AssemblerVersion 5.12     Mon Jan 31 16:14:26 2022
Copyright (c) 1987-1999 Texas Instruments Incorporatedasm30.exe -@_BR8.AAB 

Y:\workspace_eea\V615\APP\SOURCE\ASM\api.asm                         PAGE   65

     3457                   ;*      Branch Occurs to L214           ; |628| 
     3458                           .line   108
     3459                   ;----------------------------------------------------------------------
     3460                   ; 630 | API_STATUS(fcidx, API_fail);                                           
     3461                   ;----------------------------------------------------------------------
     3462 00000486 08700000-        ldp       @CL22,DP
     3463 00000487 504a0301         ldiu      *+fp(1),ar2           ; |630| 
     3464 00000488 50620002         ldiu      2,r2                  ; |630| 
     3465 00000489 50200015-        ldiu      @CL22,r0              ; |630| 
     3466 0000048a 70000000         callu     r0                    ; far call to _API_STATUS       ; |630| 
     3467                                                           ; |630| Far Call Occurs
     3468                           .line   109
     3469                   ;----------------------------------------------------------------------
     3470                   ; 631 | GIEP;                                                                  
     3471                   ;----------------------------------------------------------------------
     3472 0000048b 0e350000         pop             ST                      
     3473                           .line   111
     3474                   ;----------------------------------------------------------------------
     3475                   ; 633 | return API_error_num;                                                  
     3476                   ;----------------------------------------------------------------------
     3477 0000048c 6a200179         bud       L287                  ; |633| 
     3478 0000048d 0c800000         nop
     3479 0000048e 08700000-        ldp       @CL23,DP
     3480 0000048f 40200016-        ldfu      @CL23,f0              ; |633| 
     3481                   ;*      Branch Occurs to L287           ; |633| 
     3482 00000490          L214:        
     3483                           .line   113
     3484                   ;----------------------------------------------------------------------
     3485                   ; 635 | else if (t>60.0)                                                       
     3486                   ;----------------------------------------------------------------------
     3487 00000490 40400304         ldfu      *+fp(4),f0            ; |635| 
     3488 00000491 04605700         cmpf      6.0000000000e+01,f0   ; |635| 
     3489 00000492 6a080039         ble       L228                  ; |635| 
     3490                   ;*      Branch Occurs to L228           ; |635| 
     3491                           .line   114
     3492                   ;----------------------------------------------------------------------
     3493                   ; 636 | API_STATUS(fcidx, API_extrapolate);                                    
     3494                   ;----------------------------------------------------------------------
     3495 00000493 08700000-        ldp       @CL22,DP
     3496 00000494 504a0301         ldiu      *+fp(1),ar2           ; |636| 
     3497 00000495 50620001         ldiu      1,r2                  ; |636| 
     3498 00000496 50200015-        ldiu      @CL22,r0              ; |636| 
     3499 00000497 70000000         callu     r0                    ; far call to _API_STATUS       ; |636| 
     3500                                                           ; |636| Far Call Occurs
     3501 00000498 6a000033         bu        L228                  ; |522| 
     3502                   ;*      Branch Occurs to L228           ; |522| 
     3503 00000499          L216:        
     3504                           .line   116
     3505                   ;----------------------------------------------------------------------
     3506                   ; 638 | else if (p<824.0)                                                      
     3507                   ;----------------------------------------------------------------------
     3508 00000499 08700000-        ldp       @CL49,DP
     3509 0000049a 40400305         ldfu      *+fp(5),f0            ; |638| 
     3510 0000049b 04200030-        cmpf      @CL49,f0              ; |638| 
TMS320C3x/4x COFF AssemblerVersion 5.12     Mon Jan 31 16:14:26 2022
Copyright (c) 1987-1999 Texas Instruments Incorporatedasm30.exe -@_BR8.AAB 

Y:\workspace_eea\V615\APP\SOURCE\ASM\api.asm                         PAGE   66

     3511 0000049c 6a0a0016         bge       L222                  ; |638| 
     3512                   ;*      Branch Occurs to L222           ; |638| 
     3513                           .line   118
     3514                   ;----------------------------------------------------------------------
     3515                   ; 640 | if (t>120.0)                                                           
     3516                   ;----------------------------------------------------------------------
     3517 0000049d 40400304         ldfu      *+fp(4),f0            ; |640| 
     3518 0000049e 04606700         cmpf      1.2000000000e+02,f0   ; |640| 
     3519 0000049f 6a08000a         ble       L220                  ; |640| 
     3520                   ;*      Branch Occurs to L220           ; |640| 
     3521                           .line   120
     3522                   ;----------------------------------------------------------------------
     3523                   ; 642 | API_STATUS(fcidx, API_fail);                                           
     3524                   ;----------------------------------------------------------------------
     3525 000004a0 08700000-        ldp       @CL22,DP
     3526 000004a1 504a0301         ldiu      *+fp(1),ar2           ; |642| 
     3527 000004a2 50620002         ldiu      2,r2                  ; |642| 
     3528 000004a3 50200015-        ldiu      @CL22,r0              ; |642| 
     3529 000004a4 70000000         callu     r0                    ; far call to _API_STATUS       ; |642| 
     3530                                                           ; |642| Far Call Occurs
     3531                           .line   121
     3532                   ;----------------------------------------------------------------------
     3533                   ; 643 | GIEP;                                                                  
     3534                   ;----------------------------------------------------------------------
     3535 000004a5 0e350000         pop             ST                      
     3536                           .line   123
     3537                   ;----------------------------------------------------------------------
     3538                   ; 645 | return API_error_num;                                                  
     3539                   ;----------------------------------------------------------------------
     3540 000004a6 6a20015f         bud       L287                  ; |645| 
     3541 000004a7 0c800000         nop
     3542 000004a8 08700000-        ldp       @CL23,DP
     3543 000004a9 40200016-        ldfu      @CL23,f0              ; |645| 
     3544                   ;*      Branch Occurs to L287           ; |645| 
     3545 000004aa          L220:        
     3546                           .line   125
     3547                   ;----------------------------------------------------------------------
     3548                   ; 647 | else if (t>90.0)                                                       
     3549                   ;----------------------------------------------------------------------
     3550 000004aa 40400304         ldfu      *+fp(4),f0            ; |647| 
     3551 000004ab 04606340         cmpf      9.0000000000e+01,f0   ; |647| 
     3552 000004ac 6a08001f         ble       L228                  ; |647| 
     3553                   ;*      Branch Occurs to L228           ; |647| 
     3554                           .line   126
     3555                   ;----------------------------------------------------------------------
     3556                   ; 648 | API_STATUS(fcidx, API_extrapolate);                                    
     3557                   ;----------------------------------------------------------------------
     3558 000004ad 08700000-        ldp       @CL22,DP
     3559 000004ae 504a0301         ldiu      *+fp(1),ar2           ; |648| 
     3560 000004af 50620001         ldiu      1,r2                  ; |648| 
     3561 000004b0 50200015-        ldiu      @CL22,r0              ; |648| 
     3562 000004b1 70000000         callu     r0                    ; far call to _API_STATUS       ; |648| 
     3563                                                           ; |648| Far Call Occurs
     3564 000004b2 6a000019         bu        L228                  ; |522| 
TMS320C3x/4x COFF AssemblerVersion 5.12     Mon Jan 31 16:14:26 2022
Copyright (c) 1987-1999 Texas Instruments Incorporatedasm30.exe -@_BR8.AAB 

Y:\workspace_eea\V615\APP\SOURCE\ASM\api.asm                         PAGE   67

     3565                   ;*      Branch Occurs to L228           ; |522| 
     3566 000004b3          L222:        
     3567                           .line   128
     3568                   ;----------------------------------------------------------------------
     3569                   ; 650 | else if (p<=1075.0)                                                    
     3570                   ;----------------------------------------------------------------------
     3571 000004b3 08700000-        ldp       @CL46,DP
     3572 000004b4 40400305         ldfu      *+fp(5),f0            ; |650| 
     3573 000004b5 0420002d-        cmpf      @CL46,f0              ; |650| 
     3574 000004b6 6a090015         bgt       L228                  ; |650| 
     3575                   ;*      Branch Occurs to L228           ; |650| 
     3576                           .line   130
     3577                   ;----------------------------------------------------------------------
     3578                   ; 652 | if (t>150.0)                                                           
     3579                   ;----------------------------------------------------------------------
     3580 000004b7 40400304         ldfu      *+fp(4),f0            ; |652| 
     3581 000004b8 04607160         cmpf      1.5000000000e+02,f0   ; |652| 
     3582 000004b9 6a08000a         ble       L226                  ; |652| 
     3583                   ;*      Branch Occurs to L226           ; |652| 
     3584                           .line   132
     3585                   ;----------------------------------------------------------------------
     3586                   ; 654 | API_STATUS(fcidx, API_fail);                                           
     3587                   ;----------------------------------------------------------------------
     3588 000004ba 08700000-        ldp       @CL22,DP
     3589 000004bb 504a0301         ldiu      *+fp(1),ar2           ; |654| 
     3590 000004bc 50620002         ldiu      2,r2                  ; |654| 
     3591 000004bd 50200015-        ldiu      @CL22,r0              ; |654| 
     3592 000004be 70000000         callu     r0                    ; far call to _API_STATUS       ; |654| 
     3593                                                           ; |654| Far Call Occurs
     3594                           .line   133
     3595                   ;----------------------------------------------------------------------
     3596                   ; 655 | GIEP;                                                                  
     3597                   ;----------------------------------------------------------------------
     3598 000004bf 0e350000         pop             ST                      
     3599                           .line   135
     3600                   ;----------------------------------------------------------------------
     3601                   ; 657 | return API_error_num;                                                  
     3602                   ;----------------------------------------------------------------------
     3603 000004c0 6a200145         bud       L287                  ; |657| 
     3604 000004c1 0c800000         nop
     3605 000004c2 08700000-        ldp       @CL23,DP
     3606 000004c3 40200016-        ldfu      @CL23,f0              ; |657| 
     3607                   ;*      Branch Occurs to L287           ; |657| 
     3608 000004c4          L226:        
     3609                           .line   137
     3610                   ;----------------------------------------------------------------------
     3611                   ; 659 | else if (t>120.0)                                                      
     3612                   ;----------------------------------------------------------------------
     3613 000004c4 40400304         ldfu      *+fp(4),f0            ; |659| 
     3614 000004c5 04606700         cmpf      1.2000000000e+02,f0   ; |659| 
     3615 000004c6 6a080005         ble       L228                  ; |659| 
     3616                   ;*      Branch Occurs to L228           ; |659| 
     3617                           .line   138
     3618                   ;----------------------------------------------------------------------
TMS320C3x/4x COFF AssemblerVersion 5.12     Mon Jan 31 16:14:26 2022
Copyright (c) 1987-1999 Texas Instruments Incorporatedasm30.exe -@_BR8.AAB 

Y:\workspace_eea\V615\APP\SOURCE\ASM\api.asm                         PAGE   68

     3619                   ; 660 | API_STATUS(fcidx, API_extrapolate);                                    
     3620                   ;----------------------------------------------------------------------
     3621 000004c7 08700000-        ldp       @CL22,DP
     3622 000004c8 504a0301         ldiu      *+fp(1),ar2           ; |660| 
     3623 000004c9 50620001         ldiu      1,r2                  ; |660| 
     3624 000004ca 50200015-        ldiu      @CL22,r0              ; |660| 
     3625 000004cb 70000000         callu     r0                    ; far call to _API_STATUS       ; |660| 
     3626                                                           ; |660| Far Call Occurs
     3627 000004cc          L228:        
     3628                           .line   141
     3629                   ;----------------------------------------------------------------------
     3630                   ; 663 | if (k_set[0]==-1)                                                      
     3631                   ;----------------------------------------------------------------------
     3632 000004cc 50480303         ldiu      *+fp(3),ar0           ; |663| 
     3633 000004cd 5040c000         ldiu      *ar0,r0               ; |663| 
     3634 000004ce 04e0ffff         cmpi      -1,r0                 ; |663| 
     3635 000004cf 6a06005a         bne       L248                  ; |663| 
     3636                   ;*      Branch Occurs to L248           ; |663| 
     3637                           .line   143
     3638                   ;----------------------------------------------------------------------
     3639                   ; 665 | if ((p>=653.0) && (p<770.0))                                           
     3640                   ;----------------------------------------------------------------------
     3641 000004d0 08700000-        ldp       @CL51,DP
     3642 000004d1 40400305         ldfu      *+fp(5),f0            ; |665| 
     3643 000004d2 04200032-        cmpf      @CL51,f0              ; |665| 
     3644 000004d3 6a070006         blt       L232                  ; |665| 
     3645                   ;*      Branch Occurs to L232           ; |665| 
     3646 000004d4 08700000-        ldp       @CL52,DP
     3647 000004d5 04200033-        cmpf      @CL52,f0              ; |665| 
     3648 000004d6 6a0a0003         bge       L232                  ; |665| 
     3649                   ;*      Branch Occurs to L232           ; |665| 
     3650                           .line   144
     3651                   ;----------------------------------------------------------------------
     3652                   ; 666 | k_set[0] = 1;                                                          
     3653                   ;----------------------------------------------------------------------
     3654 000004d7 50600001         ldiu      1,r0                  ; |666| 
     3655 000004d8 1540c000         sti       r0,*ar0               ; |666| 
     3656 000004d9 6a000050         bu        L248                  ; |522| 
     3657                   ;*      Branch Occurs to L248           ; |522| 
     3658 000004da          L232:        
     3659                           .line   145
     3660                   ;----------------------------------------------------------------------
     3661                   ; 667 | else if ((p>=770.0) && (p<788.0))                                      
     3662                   ;----------------------------------------------------------------------
     3663 000004da 08700000-        ldp       @CL52,DP
     3664 000004db 40400305         ldfu      *+fp(5),f0            ; |667| 
     3665 000004dc 04200033-        cmpf      @CL52,f0              ; |667| 
     3666 000004dd 6a070007         blt       L235                  ; |667| 
     3667                   ;*      Branch Occurs to L235           ; |667| 
     3668 000004de 08700000-        ldp       @CL53,DP
     3669 000004df 04200034-        cmpf      @CL53,f0              ; |667| 
     3670 000004e0 6a0a0004         bge       L235                  ; |667| 
     3671                   ;*      Branch Occurs to L235           ; |667| 
     3672                           .line   146
TMS320C3x/4x COFF AssemblerVersion 5.12     Mon Jan 31 16:14:26 2022
Copyright (c) 1987-1999 Texas Instruments Incorporatedasm30.exe -@_BR8.AAB 

Y:\workspace_eea\V615\APP\SOURCE\ASM\api.asm                         PAGE   69

     3673                   ;----------------------------------------------------------------------
     3674                   ; 668 | k_set[0] = 2;                                                          
     3675                   ;----------------------------------------------------------------------
     3676 000004e1 50480303         ldiu      *+fp(3),ar0           ; |668| 
     3677 000004e2 50600002         ldiu      2,r0                  ; |668| 
     3678 000004e3 1540c000         sti       r0,*ar0               ; |668| 
     3679 000004e4 6a000045         bu        L248                  ; |522| 
     3680                   ;*      Branch Occurs to L248           ; |522| 
     3681 000004e5          L235:        
     3682                           .line   147
     3683                   ;----------------------------------------------------------------------
     3684                   ; 669 | else if ((p>=788.0) && (p<839.0))                                      
     3685                   ;----------------------------------------------------------------------
     3686 000004e5 08700000-        ldp       @CL53,DP
     3687 000004e6 40400305         ldfu      *+fp(5),f0            ; |669| 
     3688 000004e7 04200034-        cmpf      @CL53,f0              ; |669| 
     3689 000004e8 6a070007         blt       L238                  ; |669| 
     3690                   ;*      Branch Occurs to L238           ; |669| 
     3691 000004e9 08700000-        ldp       @CL54,DP
     3692 000004ea 04200035-        cmpf      @CL54,f0              ; |669| 
     3693 000004eb 6a0a0004         bge       L238                  ; |669| 
     3694                   ;*      Branch Occurs to L238           ; |669| 
     3695                           .line   148
     3696                   ;----------------------------------------------------------------------
     3697                   ; 670 | k_set[0] = 3;                                                          
     3698                   ;----------------------------------------------------------------------
     3699 000004ec 50480303         ldiu      *+fp(3),ar0           ; |670| 
     3700 000004ed 50600003         ldiu      3,r0                  ; |670| 
     3701 000004ee 1540c000         sti       r0,*ar0               ; |670| 
     3702 000004ef 6a00003a         bu        L248                  ; |522| 
     3703                   ;*      Branch Occurs to L248           ; |522| 
     3704 000004f0          L238:        
     3705                           .line   149
     3706                   ;----------------------------------------------------------------------
     3707                   ; 671 | else if ((p>=839.0) && (p<=1075.0))                                    
     3708                   ;----------------------------------------------------------------------
     3709 000004f0 08700000-        ldp       @CL54,DP
     3710 000004f1 40400305         ldfu      *+fp(5),f0            ; |671| 
     3711 000004f2 04200035-        cmpf      @CL54,f0              ; |671| 
     3712 000004f3 6a070007         blt       L241                  ; |671| 
     3713                   ;*      Branch Occurs to L241           ; |671| 
     3714 000004f4 08700000-        ldp       @CL46,DP
     3715 000004f5 0420002d-        cmpf      @CL46,f0              ; |671| 
     3716 000004f6 6a090004         bgt       L241                  ; |671| 
     3717                   ;*      Branch Occurs to L241           ; |671| 
     3718                           .line   150
     3719                   ;----------------------------------------------------------------------
     3720                   ; 672 | k_set[0] = 4;                                                          
     3721                   ; 673 | else                                                                   
     3722                   ;----------------------------------------------------------------------
     3723 000004f7 50480303         ldiu      *+fp(3),ar0           ; |672| 
     3724 000004f8 50600004         ldiu      4,r0                  ; |672| 
     3725 000004f9 1540c000         sti       r0,*ar0               ; |672| 
     3726 000004fa 6a00002f         bu        L248                  ; |522| 
TMS320C3x/4x COFF AssemblerVersion 5.12     Mon Jan 31 16:14:26 2022
Copyright (c) 1987-1999 Texas Instruments Incorporatedasm30.exe -@_BR8.AAB 

Y:\workspace_eea\V615\APP\SOURCE\ASM\api.asm                         PAGE   70

     3727                   ;*      Branch Occurs to L248           ; |522| 
     3728 000004fb          L241:        
     3729                           .line   152
     3730                   ;----------------------------------------------------------------------
     3731                   ; 674 | k_set[0] = -1;                                                         
     3732                   ; 677 | switch (k_set[0])                                                      
     3733                   ; 679 | case 1:                                                                
     3734                   ;----------------------------------------------------------------------
     3735 000004fb 50480303         ldiu      *+fp(3),ar0           ; |674| 
     3736 000004fc 5060ffff         ldiu      -1,r0                 ; |674| 
     3737 000004fd 1540c000         sti       r0,*ar0               ; |674| 
     3738 000004fe 6a00002b         bu        L248                  ; |522| 
     3739                   ;*      Branch Occurs to L248           ; |522| 
     3740 000004ff          L242:        
     3741                           .line   159
     3742                   ;----------------------------------------------------------------------
     3743                   ; 681 | k0 = 346.4228;                                                         
     3744                   ;----------------------------------------------------------------------
     3745 000004ff 08700000-        ldp       @CL55,DP
     3746 00000500 40200036-        ldfu      @CL55,f0              ; |681| 
     3747 00000501 14400307         stf       f0,*+fp(7)            ; |681| 
     3748                           .line   160
     3749                   ;----------------------------------------------------------------------
     3750                   ; 682 | k1 = 0.4388;                                                           
     3751                   ;----------------------------------------------------------------------
     3752 00000502 08700000-        ldp       @CL56,DP
     3753 00000503 40200037-        ldfu      @CL56,f0              ; |682| 
     3754 00000504 14400308         stf       f0,*+fp(8)            ; |682| 
     3755                           .line   161
     3756                   ;----------------------------------------------------------------------
     3757                   ; 683 | k2 = 0.0;                                                              
     3758                   ;----------------------------------------------------------------------
     3759 00000505 40608000         ldfu      0.0000000000e+00,f0   ; |683| 
     3760 00000506 14400309         stf       f0,*+fp(9)            ; |683| 
     3761                           .line   163
     3762                   ;----------------------------------------------------------------------
     3763                   ; 685 | break;                                                                 
     3764                   ; 687 | case 2:                                                                
     3765                   ;----------------------------------------------------------------------
     3766 00000507 6a0000c5         bu        L284                  ; |685| 
     3767                   ;*      Branch Occurs to L284           ; |685| 
     3768 00000508          L243:        
     3769                           .line   167
     3770                   ;----------------------------------------------------------------------
     3771                   ; 689 | k0 = 2680.3206;                                                        
     3772                   ;----------------------------------------------------------------------
     3773 00000508 08700000-        ldp       @CL57,DP
     3774 00000509 40200038-        ldfu      @CL57,f0              ; |689| 
     3775 0000050a 14400307         stf       f0,*+fp(7)            ; |689| 
     3776                           .line   168
     3777                   ;----------------------------------------------------------------------
     3778                   ; 690 | k1 = 0.0;                                                              
     3779                   ;----------------------------------------------------------------------
     3780 0000050b 40608000         ldfu      0.0000000000e+00,f0   ; |690| 
TMS320C3x/4x COFF AssemblerVersion 5.12     Mon Jan 31 16:14:26 2022
Copyright (c) 1987-1999 Texas Instruments Incorporatedasm30.exe -@_BR8.AAB 

Y:\workspace_eea\V615\APP\SOURCE\ASM\api.asm                         PAGE   71

     3781 0000050c 14400308         stf       f0,*+fp(8)            ; |690| 
     3782                           .line   169
     3783                   ;----------------------------------------------------------------------
     3784                   ; 691 | k2 = -0.00336312;                                                      
     3785                   ;----------------------------------------------------------------------
     3786 0000050d 08700000-        ldp       @CL58,DP
     3787 0000050e 40200039-        ldfu      @CL58,f0              ; |691| 
     3788 0000050f 14400309         stf       f0,*+fp(9)            ; |691| 
     3789                           .line   171
     3790                   ;----------------------------------------------------------------------
     3791                   ; 693 | break;                                                                 
     3792                   ; 695 | case 3:                                                                
     3793                   ;----------------------------------------------------------------------
     3794 00000510 6a0000bc         bu        L284                  ; |693| 
     3795                   ;*      Branch Occurs to L284           ; |693| 
     3796 00000511          L244:        
     3797                           .line   175
     3798                   ;----------------------------------------------------------------------
     3799                   ; 697 | k0 = 594.5470;                                                         
     3800                   ;----------------------------------------------------------------------
     3801 00000511 08700000-        ldp       @CL59,DP
     3802 00000512 4020003a-        ldfu      @CL59,f0              ; |697| 
     3803 00000513 14400307         stf       f0,*+fp(7)            ; |697| 
     3804                           .line   176
     3805                   ;----------------------------------------------------------------------
     3806                   ; 698 | k1 = 0.0;                                                              
     3807                   ;----------------------------------------------------------------------
     3808 00000514 40608000         ldfu      0.0000000000e+00,f0   ; |698| 
     3809 00000515 14400308         stf       f0,*+fp(8)            ; |698| 
     3810                           .line   177
     3811                   ;----------------------------------------------------------------------
     3812                   ; 699 | k2 = 0.0;                                                              
     3813                   ;----------------------------------------------------------------------
     3814 00000516 40608000         ldfu      0.0000000000e+00,f0   ; |699| 
     3815 00000517 14400309         stf       f0,*+fp(9)            ; |699| 
     3816                           .line   179
     3817                   ;----------------------------------------------------------------------
     3818                   ; 701 | break;                                                                 
     3819                   ; 703 | case 4:                                                                
     3820                   ;----------------------------------------------------------------------
     3821 00000518 6a0000b4         bu        L284                  ; |701| 
     3822                   ;*      Branch Occurs to L284           ; |701| 
     3823 00000519          L245:        
     3824                           .line   183
     3825                   ;----------------------------------------------------------------------
     3826                   ; 705 | k0 = 186.9696;                                                         
     3827                   ;----------------------------------------------------------------------
     3828 00000519 08700000-        ldp       @CL60,DP
     3829 0000051a 4020003b-        ldfu      @CL60,f0              ; |705| 
     3830 0000051b 14400307         stf       f0,*+fp(7)            ; |705| 
     3831                           .line   184
     3832                   ;----------------------------------------------------------------------
     3833                   ; 706 | k1 = 0.4862;                                                           
     3834                   ;----------------------------------------------------------------------
TMS320C3x/4x COFF AssemblerVersion 5.12     Mon Jan 31 16:14:26 2022
Copyright (c) 1987-1999 Texas Instruments Incorporatedasm30.exe -@_BR8.AAB 

Y:\workspace_eea\V615\APP\SOURCE\ASM\api.asm                         PAGE   72

     3835 0000051c 08700000-        ldp       @CL61,DP
     3836 0000051d 4020003c-        ldfu      @CL61,f0              ; |706| 
     3837 0000051e 14400308         stf       f0,*+fp(8)            ; |706| 
     3838                           .line   185
     3839                   ;----------------------------------------------------------------------
     3840                   ; 707 | k2 = 0.0;                                                              
     3841                   ;----------------------------------------------------------------------
     3842 0000051f 40608000         ldfu      0.0000000000e+00,f0   ; |707| 
     3843 00000520 14400309         stf       f0,*+fp(9)            ; |707| 
     3844                           .line   187
     3845                   ;----------------------------------------------------------------------
     3846                   ; 709 | break;                                                                 
     3847                   ; 711 | case 0:                                                                
     3848                   ; 712 | default:                                                               
     3849                   ;----------------------------------------------------------------------
     3850 00000521 6a0000ab         bu        L284                  ; |709| 
     3851                   ;*      Branch Occurs to L284           ; |709| 
     3852 00000522          L246:        
     3853                           .line   192
     3854                   ;----------------------------------------------------------------------
     3855                   ; 714 | k_set[0] = -1;                                                         
     3856                   ;----------------------------------------------------------------------
     3857 00000522 50480303         ldiu      *+fp(3),ar0           ; |714| 
     3858 00000523 5060ffff         ldiu      -1,r0                 ; |714| 
     3859 00000524 1540c000         sti       r0,*ar0               ; |714| 
     3860                           .line   193
     3861                   ;----------------------------------------------------------------------
     3862                   ; 715 | GIEP;                                                                  
     3863                   ;----------------------------------------------------------------------
     3864 00000525 0e350000         pop             ST                      
     3865                           .line   195
     3866                   ;----------------------------------------------------------------------
     3867                   ; 717 | return API_error_num;                                                  
     3868                   ;----------------------------------------------------------------------
     3869 00000526 6a2000df         bud       L287                  ; |717| 
     3870 00000527 0c800000         nop
     3871 00000528 08700000-        ldp       @CL23,DP
     3872 00000529 40200016-        ldfu      @CL23,f0              ; |717| 
     3873                   ;*      Branch Occurs to L287           ; |717| 
     3874 0000052a          L248:        
     3875                           .line   155
     3876 0000052a 50480303         ldiu      *+fp(3),ar0           ; |677| 
     3877 0000052b 5040c000         ldiu      *ar0,r0               ; |677| 
     3878 0000052c 04e00000         cmpi      0,r0                  ; |677| 
     3879 0000052d 6a05fff4         beq       L246                  ; |677| 
     3880                   ;*      Branch Occurs to L246           ; |677| 
     3881 0000052e 04e00001         cmpi      1,r0                  ; |677| 
     3882 0000052f 6a05ffcf         beq       L242                  ; |677| 
     3883                   ;*      Branch Occurs to L242           ; |677| 
     3884 00000530 04e00002         cmpi      2,r0                  ; |677| 
     3885 00000531 6a05ffd6         beq       L243                  ; |677| 
     3886                   ;*      Branch Occurs to L243           ; |677| 
     3887 00000532 04e00003         cmpi      3,r0                  ; |677| 
     3888 00000533 6a05ffdd         beq       L244                  ; |677| 
TMS320C3x/4x COFF AssemblerVersion 5.12     Mon Jan 31 16:14:26 2022
Copyright (c) 1987-1999 Texas Instruments Incorporatedasm30.exe -@_BR8.AAB 

Y:\workspace_eea\V615\APP\SOURCE\ASM\api.asm                         PAGE   73

     3889                   ;*      Branch Occurs to L244           ; |677| 
     3890 00000534 04e00004         cmpi      4,r0                  ; |677| 
     3891 00000535 6a05ffe3         beq       L245                  ; |677| 
     3892                   ;*      Branch Occurs to L245           ; |677| 
     3893 00000536 6a00ffeb         bu        L246                  ; |677| 
     3894                   ;*      Branch Occurs to L246           ; |677| 
     3895                           .line   199
     3896                   ;----------------------------------------------------------------------
     3897                   ; 721 | break;                                                                 
     3898                   ; 723 | case 'C':                                                              
     3899                   ;----------------------------------------------------------------------
     3900 00000537          L255:        
     3901                           .line   203
     3902                   ;----------------------------------------------------------------------
     3903                   ; 725 | k_set[0] = 0;                                                          
     3904                   ;----------------------------------------------------------------------
     3905 00000537 50480303         ldiu      *+fp(3),ar0           ; |725| 
     3906 00000538 50600000         ldiu      0,r0                  ; |725| 
     3907 00000539 1540c000         sti       r0,*ar0               ; |725| 
     3908                           .line   204
     3909                   ;----------------------------------------------------------------------
     3910                   ; 726 | a                = f->a * 10e6;                                        
     3911                   ;----------------------------------------------------------------------
     3912 0000053a 08700000-        ldp       @CL33,DP
     3913 0000053b 5051030d         ldiu      *+fp(13),ir0          ; |726| 
     3914 0000053c 5068018f         ldiu      399,ar0               ; |726| 
     3915 0000053d 40200020-        ldfu      @CL33,f0              ; |726| 
     3916 0000053e 24c00040         mpyf3     *+ar0(ir0),f0,f0      ; |726| 
     3917 0000053f 14400306         stf       f0,*+fp(6)            ; |726| 
     3918                           .line   205
     3919                   ;----------------------------------------------------------------------
     3920                   ; 727 | t1               = (t*1.8) + 32.0;                                     
     3921                   ;----------------------------------------------------------------------
     3922 00000540 08700000-        ldp       @CL62,DP
     3923 00000541 4020003d-        ldfu      @CL62,f0              ; |727| 
     3924 00000542 0a400304         mpyf      *+fp(4),f0            ; |727| 
     3925 00000543 01e05000         addf      3.2000000000e+01,f0   ; |727| 
     3926 00000544 1440030a         stf       f0,*+fp(10)           ; |727| 
     3927                           .line   207
     3928                   ;----------------------------------------------------------------------
     3929                   ; 729 | if ((t1<0.0) || (a<270.0) || (a>930.0))                                
     3930                   ;----------------------------------------------------------------------
     3931 00000545 04608000         cmpf      0.0000000000e+00,f0   ; |729| 
     3932 00000546 6a070007         blt       L258                  ; |729| 
     3933                   ;*      Branch Occurs to L258           ; |729| 
     3934 00000547 08700000-        ldp       @CL34,DP
     3935 00000548 40400306         ldfu      *+fp(6),f0            ; |729| 
     3936 00000549 04200021-        cmpf      @CL34,f0              ; |729| 
     3937 0000054a 6a070003         blt       L258                  ; |729| 
     3938                   ;*      Branch Occurs to L258           ; |729| 
     3939 0000054b 08700000-        ldp       @CL35,DP
     3940 0000054c 04200022-        cmpf      @CL35,f0              ; |729| 
     3941 0000054d 6a08000a         ble       L260                  ; |729| 
     3942                   ;*      Branch Occurs to L260           ; |729| 
TMS320C3x/4x COFF AssemblerVersion 5.12     Mon Jan 31 16:14:26 2022
Copyright (c) 1987-1999 Texas Instruments Incorporatedasm30.exe -@_BR8.AAB 

Y:\workspace_eea\V615\APP\SOURCE\ASM\api.asm                         PAGE   74

     3943 0000054e          L258:        
     3944                           .line   209
     3945                   ;----------------------------------------------------------------------
     3946                   ; 731 | API_STATUS(fcidx, API_fail);                                           
     3947                   ;----------------------------------------------------------------------
     3948 0000054e 08700000-        ldp       @CL22,DP
     3949 0000054f 504a0301         ldiu      *+fp(1),ar2           ; |731| 
     3950 00000550 50620002         ldiu      2,r2                  ; |731| 
     3951 00000551 50200015-        ldiu      @CL22,r0              ; |731| 
     3952 00000552 70000000         callu     r0                    ; far call to _API_STATUS       ; |731| 
     3953                                                           ; |731| Far Call Occurs
     3954                           .line   210
     3955                   ;----------------------------------------------------------------------
     3956                   ; 732 | GIEP;                                                                  
     3957                   ;----------------------------------------------------------------------
     3958 00000553 0e350000         pop             ST                      
     3959                           .line   212
     3960                   ;----------------------------------------------------------------------
     3961                   ; 734 | return API_error_num;                                                  
     3962                   ;----------------------------------------------------------------------
     3963 00000554 6a2000b1         bud       L287                  ; |734| 
     3964 00000555 0c800000         nop
     3965 00000556 08700000-        ldp       @CL23,DP
     3966 00000557 40200016-        ldfu      @CL23,f0              ; |734| 
     3967                   ;*      Branch Occurs to L287           ; |734| 
     3968 00000558          L260:        
     3969                           .line   214
     3970                   ;----------------------------------------------------------------------
     3971                   ; 736 | else if ((a<510.0) && (t1>300.0))                                      
     3972                   ;----------------------------------------------------------------------
     3973 00000558 08700000-        ldp       @CL36,DP
     3974 00000559 40400306         ldfu      *+fp(6),f0            ; |736| 
     3975 0000055a 04200023-        cmpf      @CL36,f0              ; |736| 
     3976 0000055b 6a0a000e         bge       L264                  ; |736| 
     3977                   ;*      Branch Occurs to L264           ; |736| 
     3978 0000055c 08700000-        ldp       @CL24,DP
     3979 0000055d 4040030a         ldfu      *+fp(10),f0           ; |736| 
     3980 0000055e 04200017-        cmpf      @CL24,f0              ; |736| 
     3981 0000055f 6a08000a         ble       L264                  ; |736| 
     3982                   ;*      Branch Occurs to L264           ; |736| 
     3983                           .line   216
     3984                   ;----------------------------------------------------------------------
     3985                   ; 738 | API_STATUS(fcidx, API_fail);                                           
     3986                   ;----------------------------------------------------------------------
     3987 00000560 08700000-        ldp       @CL22,DP
     3988 00000561 504a0301         ldiu      *+fp(1),ar2           ; |738| 
     3989 00000562 50620002         ldiu      2,r2                  ; |738| 
     3990 00000563 50200015-        ldiu      @CL22,r0              ; |738| 
     3991 00000564 70000000         callu     r0                    ; far call to _API_STATUS       ; |738| 
     3992                                                           ; |738| Far Call Occurs
     3993                           .line   217
     3994                   ;----------------------------------------------------------------------
     3995                   ; 739 | GIEP;                                                                  
     3996                   ;----------------------------------------------------------------------
TMS320C3x/4x COFF AssemblerVersion 5.12     Mon Jan 31 16:14:26 2022
Copyright (c) 1987-1999 Texas Instruments Incorporatedasm30.exe -@_BR8.AAB 

Y:\workspace_eea\V615\APP\SOURCE\ASM\api.asm                         PAGE   75

     3997 00000565 0e350000         pop             ST                      
     3998                           .line   219
     3999                   ;----------------------------------------------------------------------
     4000                   ; 741 | return API_error_num;                                                  
     4001                   ;----------------------------------------------------------------------
     4002 00000566 6a20009f         bud       L287                  ; |741| 
     4003 00000567 0c800000         nop
     4004 00000568 08700000-        ldp       @CL23,DP
     4005 00000569 40200016-        ldfu      @CL23,f0              ; |741| 
     4006                   ;*      Branch Occurs to L287           ; |741| 
     4007 0000056a          L264:        
     4008                           .line   221
     4009                   ;----------------------------------------------------------------------
     4010                   ; 743 | else if ((a<530.0) && (t1>250.0))                                      
     4011                   ;----------------------------------------------------------------------
     4012 0000056a 08700000-        ldp       @CL37,DP
     4013 0000056b 40400306         ldfu      *+fp(6),f0            ; |743| 
     4014 0000056c 04200024-        cmpf      @CL37,f0              ; |743| 
     4015 0000056d 6a0a000d         bge       L268                  ; |743| 
     4016                   ;*      Branch Occurs to L268           ; |743| 
     4017 0000056e 4040030a         ldfu      *+fp(10),f0           ; |743| 
     4018 0000056f 046077a0         cmpf      2.5000000000e+02,f0   ; |743| 
     4019 00000570 6a08000a         ble       L268                  ; |743| 
     4020                   ;*      Branch Occurs to L268           ; |743| 
     4021                           .line   223
     4022                   ;----------------------------------------------------------------------
     4023                   ; 745 | API_STATUS(fcidx, API_fail);                                           
     4024                   ;----------------------------------------------------------------------
     4025 00000571 08700000-        ldp       @CL22,DP
     4026 00000572 504a0301         ldiu      *+fp(1),ar2           ; |745| 
     4027 00000573 50620002         ldiu      2,r2                  ; |745| 
     4028 00000574 50200015-        ldiu      @CL22,r0              ; |745| 
     4029 00000575 70000000         callu     r0                    ; far call to _API_STATUS       ; |745| 
     4030                                                           ; |745| Far Call Occurs
     4031                           .line   224
     4032                   ;----------------------------------------------------------------------
     4033                   ; 746 | GIEP;                                                                  
     4034                   ;----------------------------------------------------------------------
     4035 00000576 0e350000         pop             ST                      
     4036                           .line   226
     4037                   ;----------------------------------------------------------------------
     4038                   ; 748 | return API_error_num;                                                  
     4039                   ;----------------------------------------------------------------------
     4040 00000577 6a20008e         bud       L287                  ; |748| 
     4041 00000578 0c800000         nop
     4042 00000579 08700000-        ldp       @CL23,DP
     4043 0000057a 40200016-        ldfu      @CL23,f0              ; |748| 
     4044                   ;*      Branch Occurs to L287           ; |748| 
     4045 0000057b          L268:        
     4046                           .line   228
     4047                   ;----------------------------------------------------------------------
     4048                   ; 750 | else if ((a<=930.0) && (t1>200.0))                                     
     4049                   ;----------------------------------------------------------------------
     4050 0000057b 08700000-        ldp       @CL35,DP
TMS320C3x/4x COFF AssemblerVersion 5.12     Mon Jan 31 16:14:26 2022
Copyright (c) 1987-1999 Texas Instruments Incorporatedasm30.exe -@_BR8.AAB 

Y:\workspace_eea\V615\APP\SOURCE\ASM\api.asm                         PAGE   76

     4051 0000057c 40400306         ldfu      *+fp(6),f0            ; |750| 
     4052 0000057d 04200022-        cmpf      @CL35,f0              ; |750| 
     4053 0000057e 6a09000d         bgt       L271                  ; |750| 
     4054                   ;*      Branch Occurs to L271           ; |750| 
     4055 0000057f 4040030a         ldfu      *+fp(10),f0           ; |750| 
     4056 00000580 04607480         cmpf      2.0000000000e+02,f0   ; |750| 
     4057 00000581 6a08000a         ble       L271                  ; |750| 
     4058                   ;*      Branch Occurs to L271           ; |750| 
     4059                           .line   230
     4060                   ;----------------------------------------------------------------------
     4061                   ; 752 | API_STATUS(fcidx, API_fail);                                           
     4062                   ;----------------------------------------------------------------------
     4063 00000582 08700000-        ldp       @CL22,DP
     4064 00000583 504a0301         ldiu      *+fp(1),ar2           ; |752| 
     4065 00000584 50620002         ldiu      2,r2                  ; |752| 
     4066 00000585 50200015-        ldiu      @CL22,r0              ; |752| 
     4067 00000586 70000000         callu     r0                    ; far call to _API_STATUS       ; |752| 
     4068                                                           ; |752| Far Call Occurs
     4069                           .line   231
     4070                   ;----------------------------------------------------------------------
     4071                   ; 753 | GIEP;                                                                  
     4072                   ;----------------------------------------------------------------------
     4073 00000587 0e350000         pop             ST                      
     4074                           .line   233
     4075                   ;----------------------------------------------------------------------
     4076                   ; 755 | return API_error_num;                                                  
     4077                   ;----------------------------------------------------------------------
     4078 00000588 6a20007d         bud       L287                  ; |755| 
     4079 00000589 0c800000         nop
     4080 0000058a 08700000-        ldp       @CL23,DP
     4081 0000058b 40200016-        ldfu      @CL23,f0              ; |755| 
     4082                   ;*      Branch Occurs to L287           ; |755| 
     4083 0000058c          L271:        
     4084                           .line   236
     4085                   ;----------------------------------------------------------------------
     4086                   ; 758 | a = f->a;                                                              
     4087                   ;----------------------------------------------------------------------
     4088 0000058c 5051030d         ldiu      *+fp(13),ir0          ; |758| 
     4089 0000058d 5068018f         ldiu      399,ar0               ; |758| 
     4090 0000058e 40404000         ldfu      *+ar0(ir0),f0         ; |758| 
     4091 0000058f 14400306         stf       f0,*+fp(6)            ; |758| 
     4092                           .line   238
     4093                   ;----------------------------------------------------------------------
     4094                   ; 760 | break;                                                                 
     4095                   ; 762 | case 'D':                                                              
     4096                   ; 763 | default:                                                               
     4097                   ;----------------------------------------------------------------------
     4098 00000590 6a00003c         bu        L284                  ; |760| 
     4099                   ;*      Branch Occurs to L284           ; |760| 
     4100 00000591          L272:        
     4101                           .line   243
     4102                   ;----------------------------------------------------------------------
     4103                   ; 765 | f->API_TABLE = 'D'<<8;                                                 
     4104                   ;----------------------------------------------------------------------
TMS320C3x/4x COFF AssemblerVersion 5.12     Mon Jan 31 16:14:26 2022
Copyright (c) 1987-1999 Texas Instruments Incorporatedasm30.exe -@_BR8.AAB 

Y:\workspace_eea\V615\APP\SOURCE\ASM\api.asm                         PAGE   77

     4105 00000591 5051030d         ldiu      *+fp(13),ir0          ; |765| 
     4106 00000592 5068018e         ldiu      398,ar0               ; |765| 
     4107 00000593 50604400         ldiu      17408,r0              ; |765| 
     4108 00000594 15404000         sti       r0,*+ar0(ir0)         ; |765| 
     4109                           .line   244
     4110                   ;----------------------------------------------------------------------
     4111                   ; 766 | p                        = kgm3_to_API(r);                             
     4112                   ;----------------------------------------------------------------------
     4113 00000595 08700000-        ldp       @CL21,DP
     4114 00000596 40420302         ldfu      *+fp(2),f2            ; |766| 
     4115 00000597 50200014-        ldiu      @CL21,r0              ; |766| 
     4116 00000598 70000000         callu     r0                    ; far call to _kgm3_to_API      ; |766| 
     4117                                                           ; |766| Far Call Occurs
     4118 00000599 14400305         stf       f0,*+fp(5)            ; |766| 
     4119                           .line   245
     4120                   ;----------------------------------------------------------------------
     4121                   ; 767 | t1                       = (t*1.8) + 32.0;                             
     4122                   ;----------------------------------------------------------------------
     4123 0000059a 08700000-        ldp       @CL62,DP
     4124 0000059b 4020003d-        ldfu      @CL62,f0              ; |767| 
     4125 0000059c 0a400304         mpyf      *+fp(4),f0            ; |767| 
     4126 0000059d 01e05000         addf      3.2000000000e+01,f0   ; |767| 
     4127 0000059e 1440030a         stf       f0,*+fp(10)           ; |767| 
     4128                           .line   247
     4129                   ;----------------------------------------------------------------------
     4130                   ; 769 | if ((p<-10.0) || (p>45.0) || (t1<0.0) || (t1>300.0))                   
     4131                   ;----------------------------------------------------------------------
     4132 0000059f 08700000-        ldp       @CL38,DP
     4133 000005a0 40400305         ldfu      *+fp(5),f0            ; |769| 
     4134 000005a1 04200025-        cmpf      @CL38,f0              ; |769| 
     4135 000005a2 6a070008         blt       L276                  ; |769| 
     4136                   ;*      Branch Occurs to L276           ; |769| 
     4137 000005a3 04605340         cmpf      4.5000000000e+01,f0   ; |769| 
     4138 000005a4 6a090006         bgt       L276                  ; |769| 
     4139                   ;*      Branch Occurs to L276           ; |769| 
     4140 000005a5 4040030a         ldfu      *+fp(10),f0           ; |769| 
     4141 000005a6 04608000         cmpf      0.0000000000e+00,f0   ; |769| 
     4142 000005a7 6a070003         blt       L276                  ; |769| 
     4143                   ;*      Branch Occurs to L276           ; |769| 
     4144 000005a8 08700000-        ldp       @CL24,DP
     4145 000005a9 04200017-        cmpf      @CL24,f0              ; |769| 
     4146 000005aa 6a08000a         ble       L277                  ; |769| 
     4147                   ;*      Branch Occurs to L277           ; |769| 
     4148 000005ab          L276:        
     4149                           .line   249
     4150                   ;----------------------------------------------------------------------
     4151                   ; 771 | API_STATUS(fcidx, API_fail);                                           
     4152                   ;----------------------------------------------------------------------
     4153 000005ab 08700000-        ldp       @CL22,DP
     4154 000005ac 504a0301         ldiu      *+fp(1),ar2           ; |771| 
     4155 000005ad 50620002         ldiu      2,r2                  ; |771| 
     4156 000005ae 50200015-        ldiu      @CL22,r0              ; |771| 
     4157 000005af 70000000         callu     r0                    ; far call to _API_STATUS       ; |771| 
     4158                                                           ; |771| Far Call Occurs
TMS320C3x/4x COFF AssemblerVersion 5.12     Mon Jan 31 16:14:26 2022
Copyright (c) 1987-1999 Texas Instruments Incorporatedasm30.exe -@_BR8.AAB 

Y:\workspace_eea\V615\APP\SOURCE\ASM\api.asm                         PAGE   78

     4159                           .line   250
     4160                   ;----------------------------------------------------------------------
     4161                   ; 772 | GIEP;                                                                  
     4162                   ;----------------------------------------------------------------------
     4163 000005b0 0e350000         pop             ST                      
     4164                           .line   252
     4165                   ;----------------------------------------------------------------------
     4166                   ; 774 | return API_error_num;                                                  
     4167                   ;----------------------------------------------------------------------
     4168 000005b1 6a200054         bud       L287                  ; |774| 
     4169 000005b2 0c800000         nop
     4170 000005b3 08700000-        ldp       @CL23,DP
     4171 000005b4 40200016-        ldfu      @CL23,f0              ; |774| 
     4172                   ;*      Branch Occurs to L287           ; |774| 
     4173 000005b5          L277:        
     4174                           .line   255
     4175                   ;----------------------------------------------------------------------
     4176                   ; 777 | k_set[0] = 0;                                                          
     4177                   ;----------------------------------------------------------------------
     4178 000005b5 50480303         ldiu      *+fp(3),ar0           ; |777| 
     4179 000005b6 50600000         ldiu      0,r0                  ; |777| 
     4180 000005b7 1540c000         sti       r0,*ar0               ; |777| 
     4181                           .line   256
     4182                   ;----------------------------------------------------------------------
     4183                   ; 778 | k0               = 0.0;                                                
     4184                   ;----------------------------------------------------------------------
     4185 000005b8 40608000         ldfu      0.0000000000e+00,f0   ; |778| 
     4186 000005b9 14400307         stf       f0,*+fp(7)            ; |778| 
     4187                           .line   257
     4188                   ;----------------------------------------------------------------------
     4189                   ; 779 | k1               = 0.6278;                                             
     4190                   ;----------------------------------------------------------------------
     4191 000005ba 08700000-        ldp       @CL63,DP
     4192 000005bb 4020003e-        ldfu      @CL63,f0              ; |779| 
     4193 000005bc 14400308         stf       f0,*+fp(8)            ; |779| 
     4194                           .line   258
     4195                   ;----------------------------------------------------------------------
     4196                   ; 780 | k2               = 0.0;                                                
     4197                   ;----------------------------------------------------------------------
     4198 000005bd 40608000         ldfu      0.0000000000e+00,f0   ; |780| 
     4199 000005be 14400309         stf       f0,*+fp(9)            ; |780| 
     4200                           .line   260
     4201                   ;----------------------------------------------------------------------
     4202                   ; 782 | break;                                                                 
     4203                   ;----------------------------------------------------------------------
     4204 000005bf 6a00000d         bu        L284                  ; |782| 
     4205                   ;*      Branch Occurs to L284           ; |782| 
     4206 000005c0          L279:        
     4207                           .line   28
     4208 000005c0 5051030d         ldiu      *+fp(13),ir0          ; |550| 
     4209 000005c1 5068018e         ldiu      398,ar0               ; |550| 
     4210 000005c2 5060fff8         ldiu      -8,r0                 ; |550| 
     4211 000005c3 22a04000         ash3      r0,*+ar0(ir0),r0      ; |550| 
     4212 000005c4 04e00041         cmpi      65,r0                 ; |550| 
TMS320C3x/4x COFF AssemblerVersion 5.12     Mon Jan 31 16:14:26 2022
Copyright (c) 1987-1999 Texas Instruments Incorporatedasm30.exe -@_BR8.AAB 

Y:\workspace_eea\V615\APP\SOURCE\ASM\api.asm                         PAGE   79

     4213 000005c5 6a05fe20         beq       L176                  ; |550| 
     4214                   ;*      Branch Occurs to L176           ; |550| 
     4215 000005c6 04e00042         cmpi      66,r0                 ; |550| 
     4216 000005c7 6a05fea2         beq       L205                  ; |550| 
     4217                   ;*      Branch Occurs to L205           ; |550| 
     4218 000005c8 04e00043         cmpi      67,r0                 ; |550| 
     4219 000005c9 6a05ff6d         beq       L255                  ; |550| 
     4220                   ;*      Branch Occurs to L255           ; |550| 
     4221 000005ca 04e00044         cmpi      68,r0                 ; |550| 
     4222 000005cb 6a05ffc5         beq       L272                  ; |550| 
     4223                   ;*      Branch Occurs to L272           ; |550| 
     4224 000005cc 6a00ffc4         bu        L272                  ; |550| 
     4225                   ;*      Branch Occurs to L272           ; |550| 
     4226 000005cd          L284:        
     4227                           .line   264
     4228                   ;----------------------------------------------------------------------
     4229                   ; 786 | t -= 15.0;                                                             
     4230                   ;----------------------------------------------------------------------
     4231 000005cd 40603700         ldfu      1.5000000000e+01,f0   ; |786| 
     4232 000005ce 19400304         subrf     *+fp(4),f0            ; |786| 
     4233 000005cf 14400304         stf       f0,*+fp(4)            ; |786| 
     4234                           .line   265
     4235                   ;----------------------------------------------------------------------
     4236                   ; 787 | p  = r;                                                                
     4237                   ;----------------------------------------------------------------------
     4238 000005d0 40400302         ldfu      *+fp(2),f0            ; |787| 
     4239 000005d1 14400305         stf       f0,*+fp(5)            ; |787| 
     4240                           .line   267
     4241                   ;----------------------------------------------------------------------
     4242                   ; 789 | if ((f->API_TABLE>>8) != 'C')                                          
     4243                   ; 790 | {//a = (k0/(p*p)) + (k1/p) + k2;                                       
     4244                   ;----------------------------------------------------------------------
     4245 000005d2 5051030d         ldiu      *+fp(13),ir0          ; |789| 
     4246 000005d3 5068018e         ldiu      398,ar0               ; |789| 
     4247 000005d4 5060fff8         ldiu      -8,r0                 ; |789| 
     4248 000005d5 22a04000         ash3      r0,*+ar0(ir0),r0      ; |789| 
     4249 000005d6 04e00043         cmpi      67,r0                 ; |789| 
     4250 000005d7 6a050022         beq       L286                  ; |789| 
     4251                   ;*      Branch Occurs to L286           ; |789| 
     4252                           .line   269
     4253                   ;----------------------------------------------------------------------
     4254                   ; 791 | t1 = truncate((k0/p),8);                                               
     4255                   ;----------------------------------------------------------------------
     4256 000005d8 40400307         ldfu      *+fp(7),f0            ; |791| 
     4257 000005d9 40410305         ldfu      *+fp(5),f1            ; |791| 
     4258 000005da 62000000!        call      DIV_F30               ; |791| 
     4259                                                           ; |791| Call Occurs
     4260 000005db 08700000-        ldp       @CL40,DP
     4261 000005dc 40020000         ldfu      f0,f2                 ; |791| 
     4262 000005dd 50210027-        ldiu      @CL40,r1              ; |791| 
     4263 000005de 506a0008         ldiu      8,ar2                 ; |791| 
     4264 000005df 70000001         callu     r1                    ; far call to _truncate ; |791| 
     4265                                                           ; |791| Far Call Occurs
     4266 000005e0 1440030a         stf       f0,*+fp(10)           ; |791| 
TMS320C3x/4x COFF AssemblerVersion 5.12     Mon Jan 31 16:14:26 2022
Copyright (c) 1987-1999 Texas Instruments Incorporatedasm30.exe -@_BR8.AAB 

Y:\workspace_eea\V615\APP\SOURCE\ASM\api.asm                         PAGE   80

     4267                           .line   270
     4268                   ;----------------------------------------------------------------------
     4269                   ; 792 | t2 = truncate((t1/p),8);                                               
     4270                   ;----------------------------------------------------------------------
     4271 000005e1 40410305         ldfu      *+fp(5),f1            ; |792| 
     4272 000005e2 62000000!        call      DIV_F30               ; |792| 
     4273                                                           ; |792| Call Occurs
     4274 000005e3 08700000-        ldp       @CL40,DP
     4275 000005e4 50210027-        ldiu      @CL40,r1              ; |792| 
     4276 000005e5 506a0008         ldiu      8,ar2                 ; |792| 
     4277 000005e6 40020000         ldfu      f0,f2                 ; |792| 
     4278 000005e7 70000001         callu     r1                    ; far call to _truncate ; |792| 
     4279                                                           ; |792| Far Call Occurs
     4280 000005e8 1440030b         stf       f0,*+fp(11)           ; |792| 
     4281                           .line   271
     4282                   ;----------------------------------------------------------------------
     4283                   ; 793 | t3 = truncate((k1/p),8);                                               
     4284                   ;----------------------------------------------------------------------
     4285 000005e9 40410305         ldfu      *+fp(5),f1            ; |793| 
     4286 000005ea 40400308         ldfu      *+fp(8),f0            ; |793| 
     4287 000005eb 62000000!        call      DIV_F30               ; |793| 
     4288                                                           ; |793| Call Occurs
     4289 000005ec 08700000-        ldp       @CL40,DP
     4290 000005ed 50210027-        ldiu      @CL40,r1              ; |793| 
     4291 000005ee 40020000         ldfu      f0,f2                 ; |793| 
     4292 000005ef 506a0008         ldiu      8,ar2                 ; |793| 
     4293 000005f0 70000001         callu     r1                    ; far call to _truncate ; |793| 
     4294                                                           ; |793| Far Call Occurs
     4295 000005f1 1440030c         stf       f0,*+fp(12)           ; |793| 
     4296                           .line   272
     4297                   ;----------------------------------------------------------------------
     4298                   ; 794 | a  = sigfig((t2+t3+k2), 4);                                            
     4299                   ;----------------------------------------------------------------------
     4300 000005f2 40020000         ldfu      f0,f2
     4301 000005f3 01c2030b         addf      *+fp(11),f2           ; |794| 
     4302 000005f4 506a0004         ldiu      4,ar2                 ; |794| 
     4303 000005f5 08700000-        ldp       @CL41,DP
     4304 000005f6 01c20309         addf      *+fp(9),f2            ; |794| 
     4305 000005f7 50200028-        ldiu      @CL41,r0              ; |794| 
     4306 000005f8 70000000         callu     r0                    ; far call to _sigfig   ; |794| 
     4307                                                           ; |794| Far Call Occurs
     4308 000005f9 14400306         stf       f0,*+fp(6)            ; |794| 
     4309 000005fa          L286:        
     4310                           .line   275
     4311                   ;----------------------------------------------------------------------
     4312                   ; 797 | t = p * exp(-a*t*(1.0+0.8*a*t));                                       
     4313                   ;----------------------------------------------------------------------
     4314 000005fa 40410306         ldfu      *+fp(6),f1            ; |797| 
     4315 000005fb 08700000-        ldp       @CL42,DP
     4316 000005fc 0bc00306         negf      *+fp(6),f0            ; |797| 
     4317 000005fd 0a210029-        mpyf      @CL42,f1              ; |797| 
     4318 000005fe 0a400304         mpyf      *+fp(4),f0            ; |797| 
     4319 000005ff 08700000-        ldp       @CL43,DP
     4320 00000600 0a410304         mpyf      *+fp(4),f1            ; |797| 
TMS320C3x/4x COFF AssemblerVersion 5.12     Mon Jan 31 16:14:26 2022
Copyright (c) 1987-1999 Texas Instruments Incorporatedasm30.exe -@_BR8.AAB 

Y:\workspace_eea\V615\APP\SOURCE\ASM\api.asm                         PAGE   81

     4321 00000601 5023002a-        ldiu      @CL43,r3              ; |797| 
     4322 00000602 01e10000         addf      1.0000000000e+00,f1   ; |797| 
     4323 00000603 24820001         mpyf3     f1,f0,f2              ; |797| 
     4324 00000604 70000003         callu     r3                    ; far call to _exp      ; |797| 
     4325                                                           ; |797| Far Call Occurs
     4326 00000605 0a400305         mpyf      *+fp(5),f0            ; |797| 
     4327 00000606 14400304         stf       f0,*+fp(4)            ; |797| 
     4328                           .line   277
     4329                   ;----------------------------------------------------------------------
     4330                   ; 799 | GIEP;                                                                  
     4331                   ;----------------------------------------------------------------------
     4332 00000607 0e350000         pop             ST                      
     4333                           .line   278
     4334                   ;----------------------------------------------------------------------
     4335                   ; 800 | return t;                                                              
     4336                   ;----------------------------------------------------------------------
     4337 00000608          L287:        
     4338                           .line   279
     4339                                                           ; Begin Epilog Code
     4340 00000608 50410b01         ldiu      *-fp(1),r1            ; |801| 
     4341 00000609 504bc300         ldiu      *fp,fp                ; |801| 
     4342                                                           ; Restore SOE Registers
     4343 0000060a 0e2c0000         pop       ar4                   ; |801| 
     4344                                                           ; Unallocate the Frame
     4345 0000060b 1874000f         subi      15,sp                 ; |801| 
     4346 0000060c 68000001         bu        r1
     4347                   ;*      Branch Occurs to r1 
     4348                           .endfunc        801,000001000h,13
     4349                   
     4350                   
     4351 0000060d                  .sect    ".text"
     4352                   
     4353                           .global _API_PT_ST
     4354                           .sym    _API_PT_ST,_API_PT_ST,39,2,0
     4355                           .func   818
     4356                   ;******************************************************************************
     4357                   ;* FUNCTION NAME: _API_PT_ST                                                  *
     4358                   ;*                                                                            *
     4359                   ;*   Architecture       : TMS320C33                                           *
     4360                   ;*   Calling Convention : TI Standard Register Parameters                     *
     4361                   ;*   Function Uses Regs : f0,r0,f1,r1,f2,r2,r3,ar0,ar2,fp,ir0,st,rc           *
     4362                   ;*   Regs Saved         :                                                     *
     4363                   ;*   Stack Frame        : Full (w/ debug)                                     *
     4364                   ;*   Total Frame Size   : 2 Call + 0 Parm + 16 Auto + 0 SOE = 18 words        *
     4365                   ;******************************************************************************
     4366 0000060d          _API_PT_ST:
     4367                   ;* ar2   assigned to _fcidx
     4368                           .sym    _fcidx,10,4,17,32
     4369                   ;* f2    assigned to _r
     4370                           .sym    _r,2,7,17,32
     4371                   ;* r3    assigned to _F60
     4372                           .sym    _F60,3,14,17,32
     4373                   ;* rc    assigned to _RET_VCF
     4374                           .sym    _RET_VCF,19,14,17,32
TMS320C3x/4x COFF AssemblerVersion 5.12     Mon Jan 31 16:14:26 2022
Copyright (c) 1987-1999 Texas Instruments Incorporatedasm30.exe -@_BR8.AAB 

Y:\workspace_eea\V615\APP\SOURCE\ASM\api.asm                         PAGE   82

     4375                           .sym    _fcidx,1,4,1,32
     4376                           .sym    _r,2,7,1,32
     4377                           .sym    _F60,3,14,1,32
     4378                           .sym    _RET_VCF,4,14,1,32
     4379                           .sym    _pini,5,7,1,32
     4380                           .sym    _pn,6,7,1,32
     4381                           .sym    _pnext,7,7,1,32
     4382                           .sym    _a,8,7,1,32
     4383                           .sym    _p,9,7,1,32
     4384                           .sym    _vcf,10,7,1,32
     4385                           .sym    _i,11,4,1,32
     4386                           .sym    _k,12,4,1,32
     4387                           .sym    _k0,13,4,1,32
     4388                           .sym    _k_change,14,14,1,32
     4389                           .sym    _cont,15,14,1,32
     4390                           .sym    _f,16,24,1,32,.fake31
     4391                           .line   1
     4392                   ;----------------------------------------------------------------------
     4393                   ; 818 | double API_PT_ST(const int fcidx, const double r, const BOOL F60, const
     4394                   ;     |  BOOL RET_VCF)                                                         
     4395                   ;----------------------------------------------------------------------
     4396 0000060d 0f2b0000         push      fp
     4397 0000060e 500b0014         ldiu      sp,fp
     4398 0000060f 02740010         addi      16,sp
     4399                           .line   2
     4400                   ;----------------------------------------------------------------------
     4401                   ; 820 | double pini;    /* initial data */                                     
     4402                   ; 821 | double pn;              /* calculated data */                          
     4403                   ; 822 | double pnext;                                                          
     4404                   ; 823 | double a;               /* API @ process temperature */                
     4405                   ; 824 | double p;               /* process API */                              
     4406                   ; 825 | double vcf;                                                            
     4407                   ; 826 | int i;                  /* Counter */                                  
     4408                   ; 827 | int k, k0;              /* Constants */                                
     4409                   ; 828 | BOOL k_change;  /* Change constants? */                                
     4410                   ; 829 | BOOL cont;              /* Continue? */                                
     4411                   ; 830 | FLOW_COMP* f;   /* FC[fcidx] - Flow Computer @ index */                
     4412                   ;----------------------------------------------------------------------
     4413 00000610 155b0304         sti       rc,*+fp(4)            ; |819| 
     4414 00000611 15430303         sti       r3,*+fp(3)            ; |819| 
     4415 00000612 14420302         stf       f2,*+fp(2)            ; |819| 
     4416 00000613 154a0301         sti       ar2,*+fp(1)           ; |819| 
     4417                           .line   15
     4418                   ;----------------------------------------------------------------------
     4419                   ; 832 | _GIEP;                                                                 
     4420                   ;----------------------------------------------------------------------
     4421 00000614 0f350000         push    ST                      
     4422 00000615 03752000         andn    2000h, ST       
     4423                           .line   17
     4424                   ;----------------------------------------------------------------------
     4425                   ; 834 | i = 0;                                                                 
     4426                   ;----------------------------------------------------------------------
     4427 00000616 50600000         ldiu      0,r0                  ; |834| 
     4428 00000617 1540030b         sti       r0,*+fp(11)           ; |834| 
TMS320C3x/4x COFF AssemblerVersion 5.12     Mon Jan 31 16:14:26 2022
Copyright (c) 1987-1999 Texas Instruments Incorporatedasm30.exe -@_BR8.AAB 

Y:\workspace_eea\V615\APP\SOURCE\ASM\api.asm                         PAGE   83

     4429                           .line   18
     4430                   ;----------------------------------------------------------------------
     4431                   ; 835 | f = &FC[fcidx];                                                        
     4432                   ;----------------------------------------------------------------------
     4433 00000618 08700000-        ldp       @CL20,DP
     4434 00000619 5000000a         ldiu      ar2,r0
     4435 0000061a 0ae00538         mpyi      1336,r0               ; |835| 
     4436 0000061b 02200013-        addi      @CL20,r0              ; |835| Unsigned
     4437 0000061c 15400310         sti       r0,*+fp(16)           ; |835| 
     4438                           .line   19
     4439                   ;----------------------------------------------------------------------
     4440                   ; 836 | pini = r;                                                              
     4441                   ;----------------------------------------------------------------------
     4442 0000061d 40000002         ldfu      f2,f0
     4443 0000061e 14400305         stf       f0,*+fp(5)            ; |836| 
     4444                           .line   20
     4445                   ;----------------------------------------------------------------------
     4446                   ; 837 | pn = pini;                                                             
     4447                   ;----------------------------------------------------------------------
     4448 0000061f 14400306         stf       f0,*+fp(6)            ; |837| 
     4449                           .line   21
     4450                   ;----------------------------------------------------------------------
     4451                   ; 838 | pnext = API_error_num;                                                 
     4452                   ;----------------------------------------------------------------------
     4453 00000620 08700000-        ldp       @CL23,DP
     4454 00000621 40200016-        ldfu      @CL23,f0              ; |838| 
     4455 00000622 14400307         stf       f0,*+fp(7)            ; |838| 
     4456                           .line   22
     4457                   ;----------------------------------------------------------------------
     4458                   ; 839 | k = -1;                                                                
     4459                   ; 841 | while(1)                                                               
     4460                   ;----------------------------------------------------------------------
     4461 00000623 5060ffff         ldiu      -1,r0                 ; |839| 
     4462 00000624 1540030c         sti       r0,*+fp(12)           ; |839| 
     4463 00000625          L290:        
     4464                           .line   26
     4465                   ;----------------------------------------------------------------------
     4466                   ; 843 | i++;                                                                   
     4467                   ;----------------------------------------------------------------------
     4468 00000625 50600001         ldiu      1,r0                  ; |843| 
     4469 00000626 0240030b         addi      *+fp(11),r0           ; |843| 
     4470 00000627 1540030b         sti       r0,*+fp(11)           ; |843| 
     4471                           .line   28
     4472                   ;----------------------------------------------------------------------
     4473                   ; 845 | if (i>25)                                                              
     4474                   ;----------------------------------------------------------------------
     4475 00000628 04e00019         cmpi      25,r0                 ; |845| 
     4476 00000629 6a080009         ble       L292                  ; |845| 
     4477                   ;*      Branch Occurs to L292           ; |845| 
     4478                           .line   30
     4479                   ;----------------------------------------------------------------------
     4480                   ; 847 | API_STATUS(fcidx, API_fail);                                           
     4481                   ;----------------------------------------------------------------------
     4482 0000062a 08700000-        ldp       @CL22,DP
TMS320C3x/4x COFF AssemblerVersion 5.12     Mon Jan 31 16:14:26 2022
Copyright (c) 1987-1999 Texas Instruments Incorporatedasm30.exe -@_BR8.AAB 

Y:\workspace_eea\V615\APP\SOURCE\ASM\api.asm                         PAGE   84

     4483 0000062b 504a0301         ldiu      *+fp(1),ar2           ; |847| 
     4484 0000062c 50620002         ldiu      2,r2                  ; |847| 
     4485 0000062d 50200015-        ldiu      @CL22,r0              ; |847| 
     4486 0000062e 70000000         callu     r0                    ; far call to _API_STATUS       ; |847| 
     4487                                                           ; |847| Far Call Occurs
     4488                           .line   31
     4489                   ;----------------------------------------------------------------------
     4490                   ; 848 | pnext = API_error_num;                                                 
     4491                   ;----------------------------------------------------------------------
     4492 0000062f 08700000-        ldp       @CL23,DP
     4493 00000630 40200016-        ldfu      @CL23,f0              ; |848| 
     4494 00000631 14400307         stf       f0,*+fp(7)            ; |848| 
     4495                           .line   33
     4496                   ;----------------------------------------------------------------------
     4497                   ; 850 | break;                                                                 
     4498                   ;----------------------------------------------------------------------
     4499 00000632 6a0000ef         bu        L355                  ; |850| 
     4500                   ;*      Branch Occurs to L355           ; |850| 
     4501 00000633          L292:        
     4502                           .line   36
     4503                   ;----------------------------------------------------------------------
     4504                   ; 853 | k0 = k;                                                                
     4505                   ;----------------------------------------------------------------------
     4506 00000633 5040030c         ldiu      *+fp(12),r0           ; |853| 
     4507 00000634 1540030d         sti       r0,*+fp(13)           ; |853| 
     4508                           .line   38
     4509                   ;----------------------------------------------------------------------
     4510                   ; 855 | if (F60)                                                               
     4511                   ;----------------------------------------------------------------------
     4512 00000635 50400303         ldiu      *+fp(3),r0            ; |855| 
     4513 00000636 04e00000         cmpi      0,r0                  ; |855| 
     4514 00000637 6a050009         beq       L294                  ; |855| 
     4515                   ;*      Branch Occurs to L294           ; |855| 
     4516                           .line   39
     4517                   ;----------------------------------------------------------------------
     4518                   ; 856 | a = API_60F_PT(fcidx, pn, &k);                                         
     4519                   ; 857 | else                                                                   
     4520                   ;----------------------------------------------------------------------
     4521 00000638 08700000-        ldp       @CL64,DP
     4522 00000639 5003000b         ldiu      fp,r3                 ; |856| 
     4523 0000063a 504a0301         ldiu      *+fp(1),ar2           ; |856| 
     4524 0000063b 40420306         ldfu      *+fp(6),f2            ; |856| 
     4525 0000063c 5020003f-        ldiu      @CL64,r0              ; |856| 
     4526 0000063d 0263000c         addi      12,r3                 ; |856| 
     4527 0000063e 70000000         callu     r0                    ; far call to _API_60F_PT       ; |856| 
     4528                                                           ; |856| Far Call Occurs
     4529 0000063f 14400308         stf       f0,*+fp(8)            ; |856| 
     4530 00000640 6a000008         bu        L295                  ; |817| 
     4531                   ;*      Branch Occurs to L295           ; |817| 
     4532 00000641          L294:        
     4533                           .line   41
     4534                   ;----------------------------------------------------------------------
     4535                   ; 858 | a = API_15C_PT(fcidx, pn, &k);                                         
     4536                   ;----------------------------------------------------------------------
TMS320C3x/4x COFF AssemblerVersion 5.12     Mon Jan 31 16:14:26 2022
Copyright (c) 1987-1999 Texas Instruments Incorporatedasm30.exe -@_BR8.AAB 

Y:\workspace_eea\V615\APP\SOURCE\ASM\api.asm                         PAGE   85

     4537 00000641 08700000-        ldp       @CL65,DP
     4538 00000642 5003000b         ldiu      fp,r3                 ; |858| 
     4539 00000643 504a0301         ldiu      *+fp(1),ar2           ; |858| 
     4540 00000644 40420306         ldfu      *+fp(6),f2            ; |858| 
     4541 00000645 50200040-        ldiu      @CL65,r0              ; |858| 
     4542 00000646 0263000c         addi      12,r3                 ; |858| 
     4543 00000647 70000000         callu     r0                    ; far call to _API_15C_PT       ; |858| 
     4544                                                           ; |858| Far Call Occurs
     4545 00000648 14400308         stf       f0,*+fp(8)            ; |858| 
     4546 00000649          L295:        
     4547                           .line   43
     4548                   ;----------------------------------------------------------------------
     4549                   ; 860 | if (a==API_error_num)                                                  
     4550                   ;----------------------------------------------------------------------
     4551 00000649 08700000-        ldp       @CL23,DP
     4552 0000064a 40400308         ldfu      *+fp(8),f0            ; |860| 
     4553 0000064b 04200016-        cmpf      @CL23,f0              ; |860| 
     4554 0000064c 6a060004         bne       L297                  ; |860| 
     4555                   ;*      Branch Occurs to L297           ; |860| 
     4556                           .line   45
     4557                   ;----------------------------------------------------------------------
     4558                   ; 862 | pnext = API_error_num;                                                 
     4559                   ;----------------------------------------------------------------------
     4560 0000064d 08700000-        ldp       @CL23,DP
     4561 0000064e 40200016-        ldfu      @CL23,f0              ; |862| 
     4562 0000064f 14400307         stf       f0,*+fp(7)            ; |862| 
     4563                           .line   47
     4564                   ;----------------------------------------------------------------------
     4565                   ; 864 | break;                                                                 
     4566                   ;----------------------------------------------------------------------
     4567 00000650 6a0000d1         bu        L355                  ; |864| 
     4568                   ;*      Branch Occurs to L355           ; |864| 
     4569 00000651          L297:        
     4570                           .line   50
     4571                   ;----------------------------------------------------------------------
     4572                   ; 867 | p                = kgm3_to_API(a);                                     
     4573                   ;----------------------------------------------------------------------
     4574 00000651 08700000-        ldp       @CL21,DP
     4575 00000652 40420308         ldfu      *+fp(8),f2            ; |867| 
     4576 00000653 50200014-        ldiu      @CL21,r0              ; |867| 
     4577 00000654 70000000         callu     r0                    ; far call to _kgm3_to_API      ; |867| 
     4578                                                           ; |867| Far Call Occurs
     4579 00000655 14400309         stf       f0,*+fp(9)            ; |867| 
     4580                           .line   51
     4581                   ;----------------------------------------------------------------------
     4582                   ; 868 | k_change = FALSE;                                                      
     4583                   ;----------------------------------------------------------------------
     4584 00000656 50600000         ldiu      0,r0                  ; |868| 
     4585 00000657 1540030e         sti       r0,*+fp(14)           ; |868| 
     4586                           .line   52
     4587                   ;----------------------------------------------------------------------
     4588                   ; 869 | cont     = FALSE;                                                      
     4589                   ; 871 | switch (f->API_TABLE>>8)                                               
     4590                   ; 873 |         case 'A':       /* crude oil */                                
TMS320C3x/4x COFF AssemblerVersion 5.12     Mon Jan 31 16:14:26 2022
Copyright (c) 1987-1999 Texas Instruments Incorporatedasm30.exe -@_BR8.AAB 

Y:\workspace_eea\V615\APP\SOURCE\ASM\api.asm                         PAGE   86

     4591                   ;----------------------------------------------------------------------
     4592 00000658 1540030f         sti       r0,*+fp(15)           ; |869| 
     4593 00000659 6a000098         bu        L345                  ; |817| 
     4594                   ;*      Branch Occurs to L345           ; |817| 
     4595                           .line   57
     4596                   ;----------------------------------------------------------------------
     4597                   ; 874 | break;                                                                 
     4598                   ; 875 | case 'B':                                                              
     4599                   ;----------------------------------------------------------------------
     4600 0000065a          L299:        
     4601                           .line   60
     4602                   ;----------------------------------------------------------------------
     4603                   ; 877 | if (F60)                                                               
     4604                   ;----------------------------------------------------------------------
     4605 0000065a 50400303         ldiu      *+fp(3),r0            ; |877| 
     4606 0000065b 04e00000         cmpi      0,r0                  ; |877| 
     4607 0000065c 6a050040         beq       L320                  ; |877| 
     4608                   ;*      Branch Occurs to L320           ; |877| 
     4609                           .line   62
     4610                   ;----------------------------------------------------------------------
     4611                   ; 879 | if ((p>=0.0) && (p<37.0))                                              
     4612                   ;----------------------------------------------------------------------
     4613 0000065d 40400309         ldfu      *+fp(9),f0            ; |879| 
     4614 0000065e 04608000         cmpf      0.0000000000e+00,f0   ; |879| 
     4615 0000065f 6a07000d         blt       L305                  ; |879| 
     4616                   ;*      Branch Occurs to L305           ; |879| 
     4617 00000660 04605140         cmpf      3.7000000000e+01,f0   ; |879| 
     4618 00000661 6a0a000b         bge       L305                  ; |879| 
     4619                   ;*      Branch Occurs to L305           ; |879| 
     4620                           .line   64
     4621                   ;----------------------------------------------------------------------
     4622                   ; 881 | if (k!=k0)                                                             
     4623                   ;----------------------------------------------------------------------
     4624 00000662 5040030c         ldiu      *+fp(12),r0           ; |881| 
     4625 00000663 04c0030d         cmpi      *+fp(13),r0           ; |881| 
     4626 00000664 6a050080         beq       L340                  ; |881| 
     4627                   ;*      Branch Occurs to L340           ; |881| 
     4628                           .line   66
     4629                   ;----------------------------------------------------------------------
     4630                   ; 883 | k = 1;                                                                 
     4631                   ;----------------------------------------------------------------------
     4632 00000665 50600001         ldiu      1,r0                  ; |883| 
     4633 00000666 1540030c         sti       r0,*+fp(12)           ; |883| 
     4634                           .line   68
     4635                   ;----------------------------------------------------------------------
     4636                   ; 885 | if (k0!=-1)                                                            
     4637                   ;----------------------------------------------------------------------
     4638 00000667 5040030d         ldiu      *+fp(13),r0           ; |885| 
     4639 00000668 04e0ffff         cmpi      -1,r0                 ; |885| 
     4640 00000669 6a05007b         beq       L340                  ; |885| 
     4641                   ;*      Branch Occurs to L340           ; |885| 
     4642                           .line   69
     4643                   ;----------------------------------------------------------------------
     4644                   ; 886 | k_change = TRUE;                                                       
TMS320C3x/4x COFF AssemblerVersion 5.12     Mon Jan 31 16:14:26 2022
Copyright (c) 1987-1999 Texas Instruments Incorporatedasm30.exe -@_BR8.AAB 

Y:\workspace_eea\V615\APP\SOURCE\ASM\api.asm                         PAGE   87

     4645                   ;----------------------------------------------------------------------
     4646 0000066a 50600001         ldiu      1,r0                  ; |886| 
     4647 0000066b 1540030e         sti       r0,*+fp(14)           ; |886| 
     4648 0000066c 6a000078         bu        L340                  ; |817| 
     4649                   ;*      Branch Occurs to L340           ; |817| 
     4650 0000066d          L305:        
     4651                           .line   72
     4652                   ;----------------------------------------------------------------------
     4653                   ; 889 | else if ((p>=37.0) && (p<48.0))                                        
     4654                   ;----------------------------------------------------------------------
     4655 0000066d 40400309         ldfu      *+fp(9),f0            ; |889| 
     4656 0000066e 04605140         cmpf      3.7000000000e+01,f0   ; |889| 
     4657 0000066f 6a07000d         blt       L310                  ; |889| 
     4658                   ;*      Branch Occurs to L310           ; |889| 
     4659 00000670 04605400         cmpf      4.8000000000e+01,f0   ; |889| 
     4660 00000671 6a0a000b         bge       L310                  ; |889| 
     4661                   ;*      Branch Occurs to L310           ; |889| 
     4662                           .line   74
     4663                   ;----------------------------------------------------------------------
     4664                   ; 891 | if (k!=k0)                                                             
     4665                   ;----------------------------------------------------------------------
     4666 00000672 5040030c         ldiu      *+fp(12),r0           ; |891| 
     4667 00000673 04c0030d         cmpi      *+fp(13),r0           ; |891| 
     4668 00000674 6a050070         beq       L340                  ; |891| 
     4669                   ;*      Branch Occurs to L340           ; |891| 
     4670                           .line   76
     4671                   ;----------------------------------------------------------------------
     4672                   ; 893 | k = 2;                                                                 
     4673                   ;----------------------------------------------------------------------
     4674 00000675 50600002         ldiu      2,r0                  ; |893| 
     4675 00000676 1540030c         sti       r0,*+fp(12)           ; |893| 
     4676                           .line   78
     4677                   ;----------------------------------------------------------------------
     4678                   ; 895 | if (k0!=-1)                                                            
     4679                   ;----------------------------------------------------------------------
     4680 00000677 5040030d         ldiu      *+fp(13),r0           ; |895| 
     4681 00000678 04e0ffff         cmpi      -1,r0                 ; |895| 
     4682 00000679 6a05006b         beq       L340                  ; |895| 
     4683                   ;*      Branch Occurs to L340           ; |895| 
     4684                           .line   79
     4685                   ;----------------------------------------------------------------------
     4686                   ; 896 | k_change = TRUE;                                                       
     4687                   ;----------------------------------------------------------------------
     4688 0000067a 50600001         ldiu      1,r0                  ; |896| 
     4689 0000067b 1540030e         sti       r0,*+fp(14)           ; |896| 
     4690 0000067c 6a000068         bu        L340                  ; |817| 
     4691                   ;*      Branch Occurs to L340           ; |817| 
     4692 0000067d          L310:        
     4693                           .line   82
     4694                   ;----------------------------------------------------------------------
     4695                   ; 899 | else if ((p>=48.0) && (p<52.0))                                        
     4696                   ;----------------------------------------------------------------------
     4697 0000067d 40400309         ldfu      *+fp(9),f0            ; |899| 
     4698 0000067e 04605400         cmpf      4.8000000000e+01,f0   ; |899| 
TMS320C3x/4x COFF AssemblerVersion 5.12     Mon Jan 31 16:14:26 2022
Copyright (c) 1987-1999 Texas Instruments Incorporatedasm30.exe -@_BR8.AAB 

Y:\workspace_eea\V615\APP\SOURCE\ASM\api.asm                         PAGE   88

     4699 0000067f 6a07000d         blt       L315                  ; |899| 
     4700                   ;*      Branch Occurs to L315           ; |899| 
     4701 00000680 04605500         cmpf      5.2000000000e+01,f0   ; |899| 
     4702 00000681 6a0a000b         bge       L315                  ; |899| 
     4703                   ;*      Branch Occurs to L315           ; |899| 
     4704                           .line   84
     4705                   ;----------------------------------------------------------------------
     4706                   ; 901 | if (k!=k0)                                                             
     4707                   ;----------------------------------------------------------------------
     4708 00000682 5040030c         ldiu      *+fp(12),r0           ; |901| 
     4709 00000683 04c0030d         cmpi      *+fp(13),r0           ; |901| 
     4710 00000684 6a050060         beq       L340                  ; |901| 
     4711                   ;*      Branch Occurs to L340           ; |901| 
     4712                           .line   86
     4713                   ;----------------------------------------------------------------------
     4714                   ; 903 | k = 3;                                                                 
     4715                   ;----------------------------------------------------------------------
     4716 00000685 50600003         ldiu      3,r0                  ; |903| 
     4717 00000686 1540030c         sti       r0,*+fp(12)           ; |903| 
     4718                           .line   88
     4719                   ;----------------------------------------------------------------------
     4720                   ; 905 | if (k0!=-1)                                                            
     4721                   ;----------------------------------------------------------------------
     4722 00000687 5040030d         ldiu      *+fp(13),r0           ; |905| 
     4723 00000688 04e0ffff         cmpi      -1,r0                 ; |905| 
     4724 00000689 6a05005b         beq       L340                  ; |905| 
     4725                   ;*      Branch Occurs to L340           ; |905| 
     4726                           .line   89
     4727                   ;----------------------------------------------------------------------
     4728                   ; 906 | k_change = TRUE;                                                       
     4729                   ;----------------------------------------------------------------------
     4730 0000068a 50600001         ldiu      1,r0                  ; |906| 
     4731 0000068b 1540030e         sti       r0,*+fp(14)           ; |906| 
     4732 0000068c 6a000058         bu        L340                  ; |817| 
     4733                   ;*      Branch Occurs to L340           ; |817| 
     4734 0000068d          L315:        
     4735                           .line   92
     4736                   ;----------------------------------------------------------------------
     4737                   ; 909 | else if ((p>=52.0) && (p<=85.0))                                       
     4738                   ;----------------------------------------------------------------------
     4739 0000068d 40400309         ldfu      *+fp(9),f0            ; |909| 
     4740 0000068e 04605500         cmpf      5.2000000000e+01,f0   ; |909| 
     4741 0000068f 6a070055         blt       L340                  ; |909| 
     4742                   ;*      Branch Occurs to L340           ; |909| 
     4743 00000690 046062a0         cmpf      8.5000000000e+01,f0   ; |909| 
     4744 00000691 6a090053         bgt       L340                  ; |909| 
     4745                   ;*      Branch Occurs to L340           ; |909| 
     4746                           .line   94
     4747                   ;----------------------------------------------------------------------
     4748                   ; 911 | if (k!=k0)                                                             
     4749                   ;----------------------------------------------------------------------
     4750 00000692 5040030c         ldiu      *+fp(12),r0           ; |911| 
     4751 00000693 04c0030d         cmpi      *+fp(13),r0           ; |911| 
     4752 00000694 6a050050         beq       L340                  ; |911| 
TMS320C3x/4x COFF AssemblerVersion 5.12     Mon Jan 31 16:14:26 2022
Copyright (c) 1987-1999 Texas Instruments Incorporatedasm30.exe -@_BR8.AAB 

Y:\workspace_eea\V615\APP\SOURCE\ASM\api.asm                         PAGE   89

     4753                   ;*      Branch Occurs to L340           ; |911| 
     4754                           .line   96
     4755                   ;----------------------------------------------------------------------
     4756                   ; 913 | k = 4;                                                                 
     4757                   ;----------------------------------------------------------------------
     4758 00000695 50600004         ldiu      4,r0                  ; |913| 
     4759 00000696 1540030c         sti       r0,*+fp(12)           ; |913| 
     4760                           .line   98
     4761                   ;----------------------------------------------------------------------
     4762                   ; 915 | if (k0!=-1)                                                            
     4763                   ;----------------------------------------------------------------------
     4764 00000697 5040030d         ldiu      *+fp(13),r0           ; |915| 
     4765 00000698 04e0ffff         cmpi      -1,r0                 ; |915| 
     4766 00000699 6a05004b         beq       L340                  ; |915| 
     4767                   ;*      Branch Occurs to L340           ; |915| 
     4768                           .line   99
     4769                   ;----------------------------------------------------------------------
     4770                   ; 916 | k_change = TRUE;                                                       
     4771                   ; 920 | else                                                                   
     4772                   ;----------------------------------------------------------------------
     4773 0000069a 50600001         ldiu      1,r0                  ; |916| 
     4774 0000069b 1540030e         sti       r0,*+fp(14)           ; |916| 
     4775 0000069c 6a000048         bu        L340                  ; |817| 
     4776                   ;*      Branch Occurs to L340           ; |817| 
     4777 0000069d          L320:        
     4778                           .line   105
     4779                   ;----------------------------------------------------------------------
     4780                   ; 922 | if ((p>=653.0) && (p<770.0))                                           
     4781                   ;----------------------------------------------------------------------
     4782 0000069d 08700000-        ldp       @CL51,DP
     4783 0000069e 40400309         ldfu      *+fp(9),f0            ; |922| 
     4784 0000069f 04200032-        cmpf      @CL51,f0              ; |922| 
     4785 000006a0 6a07000e         blt       L325                  ; |922| 
     4786                   ;*      Branch Occurs to L325           ; |922| 
     4787 000006a1 08700000-        ldp       @CL52,DP
     4788 000006a2 04200033-        cmpf      @CL52,f0              ; |922| 
     4789 000006a3 6a0a000b         bge       L325                  ; |922| 
     4790                   ;*      Branch Occurs to L325           ; |922| 
     4791                           .line   107
     4792                   ;----------------------------------------------------------------------
     4793                   ; 924 | if (k!=k0)                                                             
     4794                   ;----------------------------------------------------------------------
     4795 000006a4 5040030c         ldiu      *+fp(12),r0           ; |924| 
     4796 000006a5 04c0030d         cmpi      *+fp(13),r0           ; |924| 
     4797 000006a6 6a050058         beq       L350                  ; |924| 
     4798                   ;*      Branch Occurs to L350           ; |924| 
     4799                           .line   109
     4800                   ;----------------------------------------------------------------------
     4801                   ; 926 | k = 1;                                                                 
     4802                   ;----------------------------------------------------------------------
     4803 000006a7 50600001         ldiu      1,r0                  ; |926| 
     4804 000006a8 1540030c         sti       r0,*+fp(12)           ; |926| 
     4805                           .line   111
     4806                   ;----------------------------------------------------------------------
TMS320C3x/4x COFF AssemblerVersion 5.12     Mon Jan 31 16:14:26 2022
Copyright (c) 1987-1999 Texas Instruments Incorporatedasm30.exe -@_BR8.AAB 

Y:\workspace_eea\V615\APP\SOURCE\ASM\api.asm                         PAGE   90

     4807                   ; 928 | if (k0!=-1)                                                            
     4808                   ;----------------------------------------------------------------------
     4809 000006a9 5040030d         ldiu      *+fp(13),r0           ; |928| 
     4810 000006aa 04e0ffff         cmpi      -1,r0                 ; |928| 
     4811 000006ab 6a050053         beq       L350                  ; |928| 
     4812                   ;*      Branch Occurs to L350           ; |928| 
     4813                           .line   112
     4814                   ;----------------------------------------------------------------------
     4815                   ; 929 | k_change = TRUE;                                                       
     4816                   ;----------------------------------------------------------------------
     4817 000006ac 50600001         ldiu      1,r0                  ; |929| 
     4818 000006ad 1540030e         sti       r0,*+fp(14)           ; |929| 
     4819 000006ae 6a000050         bu        L350                  ; |817| 
     4820                   ;*      Branch Occurs to L350           ; |817| 
     4821 000006af          L325:        
     4822                           .line   115
     4823                   ;----------------------------------------------------------------------
     4824                   ; 932 | else if ((p>=770.0) && (p<788.0))                                      
     4825                   ;----------------------------------------------------------------------
     4826 000006af 08700000-        ldp       @CL52,DP
     4827 000006b0 40400309         ldfu      *+fp(9),f0            ; |932| 
     4828 000006b1 04200033-        cmpf      @CL52,f0              ; |932| 
     4829 000006b2 6a07000e         blt       L330                  ; |932| 
     4830                   ;*      Branch Occurs to L330           ; |932| 
     4831 000006b3 08700000-        ldp       @CL53,DP
     4832 000006b4 04200034-        cmpf      @CL53,f0              ; |932| 
     4833 000006b5 6a0a000b         bge       L330                  ; |932| 
     4834                   ;*      Branch Occurs to L330           ; |932| 
     4835                           .line   117
     4836                   ;----------------------------------------------------------------------
     4837                   ; 934 | if (k!=k0)                                                             
     4838                   ;----------------------------------------------------------------------
     4839 000006b6 5040030c         ldiu      *+fp(12),r0           ; |934| 
     4840 000006b7 04c0030d         cmpi      *+fp(13),r0           ; |934| 
     4841 000006b8 6a050046         beq       L350                  ; |934| 
     4842                   ;*      Branch Occurs to L350           ; |934| 
     4843                           .line   119
     4844                   ;----------------------------------------------------------------------
     4845                   ; 936 | k = 2;                                                                 
     4846                   ;----------------------------------------------------------------------
     4847 000006b9 50600002         ldiu      2,r0                  ; |936| 
     4848 000006ba 1540030c         sti       r0,*+fp(12)           ; |936| 
     4849                           .line   121
     4850                   ;----------------------------------------------------------------------
     4851                   ; 938 | if (k0!=-1)                                                            
     4852                   ;----------------------------------------------------------------------
     4853 000006bb 5040030d         ldiu      *+fp(13),r0           ; |938| 
     4854 000006bc 04e0ffff         cmpi      -1,r0                 ; |938| 
     4855 000006bd 6a050041         beq       L350                  ; |938| 
     4856                   ;*      Branch Occurs to L350           ; |938| 
     4857                           .line   122
     4858                   ;----------------------------------------------------------------------
     4859                   ; 939 | k_change = TRUE;                                                       
     4860                   ;----------------------------------------------------------------------
TMS320C3x/4x COFF AssemblerVersion 5.12     Mon Jan 31 16:14:26 2022
Copyright (c) 1987-1999 Texas Instruments Incorporatedasm30.exe -@_BR8.AAB 

Y:\workspace_eea\V615\APP\SOURCE\ASM\api.asm                         PAGE   91

     4861 000006be 50600001         ldiu      1,r0                  ; |939| 
     4862 000006bf 1540030e         sti       r0,*+fp(14)           ; |939| 
     4863 000006c0 6a00003e         bu        L350                  ; |817| 
     4864                   ;*      Branch Occurs to L350           ; |817| 
     4865 000006c1          L330:        
     4866                           .line   125
     4867                   ;----------------------------------------------------------------------
     4868                   ; 942 | else if ((p>=788.0) && (p<839.0))                                      
     4869                   ;----------------------------------------------------------------------
     4870 000006c1 08700000-        ldp       @CL53,DP
     4871 000006c2 40400309         ldfu      *+fp(9),f0            ; |942| 
     4872 000006c3 04200034-        cmpf      @CL53,f0              ; |942| 
     4873 000006c4 6a07000e         blt       L335                  ; |942| 
     4874                   ;*      Branch Occurs to L335           ; |942| 
     4875 000006c5 08700000-        ldp       @CL54,DP
     4876 000006c6 04200035-        cmpf      @CL54,f0              ; |942| 
     4877 000006c7 6a0a000b         bge       L335                  ; |942| 
     4878                   ;*      Branch Occurs to L335           ; |942| 
     4879                           .line   127
     4880                   ;----------------------------------------------------------------------
     4881                   ; 944 | if (k!=k0)                                                             
     4882                   ;----------------------------------------------------------------------
     4883 000006c8 5040030c         ldiu      *+fp(12),r0           ; |944| 
     4884 000006c9 04c0030d         cmpi      *+fp(13),r0           ; |944| 
     4885 000006ca 6a050034         beq       L350                  ; |944| 
     4886                   ;*      Branch Occurs to L350           ; |944| 
     4887                           .line   129
     4888                   ;----------------------------------------------------------------------
     4889                   ; 946 | k = 3;                                                                 
     4890                   ;----------------------------------------------------------------------
     4891 000006cb 50600003         ldiu      3,r0                  ; |946| 
     4892 000006cc 1540030c         sti       r0,*+fp(12)           ; |946| 
     4893                           .line   131
     4894                   ;----------------------------------------------------------------------
     4895                   ; 948 | if (k0!=-1)                                                            
     4896                   ;----------------------------------------------------------------------
     4897 000006cd 5040030d         ldiu      *+fp(13),r0           ; |948| 
     4898 000006ce 04e0ffff         cmpi      -1,r0                 ; |948| 
     4899 000006cf 6a05002f         beq       L350                  ; |948| 
     4900                   ;*      Branch Occurs to L350           ; |948| 
     4901                           .line   132
     4902                   ;----------------------------------------------------------------------
     4903                   ; 949 | k_change = TRUE;                                                       
     4904                   ;----------------------------------------------------------------------
     4905 000006d0 50600001         ldiu      1,r0                  ; |949| 
     4906 000006d1 1540030e         sti       r0,*+fp(14)           ; |949| 
     4907 000006d2 6a00002c         bu        L350                  ; |817| 
     4908                   ;*      Branch Occurs to L350           ; |817| 
     4909 000006d3          L335:        
     4910                           .line   135
     4911                   ;----------------------------------------------------------------------
     4912                   ; 952 | else if ((p>=839.0) && (p<=1075.0))                                    
     4913                   ;----------------------------------------------------------------------
     4914 000006d3 08700000-        ldp       @CL54,DP
TMS320C3x/4x COFF AssemblerVersion 5.12     Mon Jan 31 16:14:26 2022
Copyright (c) 1987-1999 Texas Instruments Incorporatedasm30.exe -@_BR8.AAB 

Y:\workspace_eea\V615\APP\SOURCE\ASM\api.asm                         PAGE   92

     4915 000006d4 40400309         ldfu      *+fp(9),f0            ; |952| 
     4916 000006d5 04200035-        cmpf      @CL54,f0              ; |952| 
     4917 000006d6 6a070028         blt       L350                  ; |952| 
     4918                   ;*      Branch Occurs to L350           ; |952| 
     4919 000006d7 08700000-        ldp       @CL46,DP
     4920 000006d8 0420002d-        cmpf      @CL46,f0              ; |952| 
     4921 000006d9 6a090025         bgt       L350                  ; |952| 
     4922                   ;*      Branch Occurs to L350           ; |952| 
     4923                           .line   137
     4924                   ;----------------------------------------------------------------------
     4925                   ; 954 | if (k!=k0)                                                             
     4926                   ;----------------------------------------------------------------------
     4927 000006da 5040030c         ldiu      *+fp(12),r0           ; |954| 
     4928 000006db 04c0030d         cmpi      *+fp(13),r0           ; |954| 
     4929 000006dc 6a050022         beq       L350                  ; |954| 
     4930                   ;*      Branch Occurs to L350           ; |954| 
     4931                           .line   139
     4932                   ;----------------------------------------------------------------------
     4933                   ; 956 | k = 4;                                                                 
     4934                   ;----------------------------------------------------------------------
     4935 000006dd 50600004         ldiu      4,r0                  ; |956| 
     4936 000006de 1540030c         sti       r0,*+fp(12)           ; |956| 
     4937                           .line   141
     4938                   ;----------------------------------------------------------------------
     4939                   ; 958 | if (k0!=-1)                                                            
     4940                   ;----------------------------------------------------------------------
     4941 000006df 5040030d         ldiu      *+fp(13),r0           ; |958| 
     4942 000006e0 04e0ffff         cmpi      -1,r0                 ; |958| 
     4943 000006e1 6a05001d         beq       L350                  ; |958| 
     4944                   ;*      Branch Occurs to L350           ; |958| 
     4945                           .line   142
     4946                   ;----------------------------------------------------------------------
     4947                   ; 959 | k_change = TRUE;                                                       
     4948                   ;----------------------------------------------------------------------
     4949 000006e2 50600001         ldiu      1,r0                  ; |959| 
     4950 000006e3 1540030e         sti       r0,*+fp(14)           ; |959| 
     4951                           .line   146
     4952                   ;----------------------------------------------------------------------
     4953                   ; 963 | break;                                                                 
     4954                   ;----------------------------------------------------------------------
     4955 000006e4 6a00001a         bu        L350                  ; |963| 
     4956                   ;*      Branch Occurs to L350           ; |963| 
     4957 000006e5          L340:        
     4958                           .line   149
     4959                   ;----------------------------------------------------------------------
     4960                   ; 966 | if (k_change)                                                          
     4961                   ;----------------------------------------------------------------------
     4962 000006e5 5040030e         ldiu      *+fp(14),r0           ; |966| 
     4963 000006e6 04e00000         cmpi      0,r0                  ; |966| 
     4964 000006e7 6a050017         beq       L350                  ; |966| 
     4965                   ;*      Branch Occurs to L350           ; |966| 
     4966                           .line   151
     4967                   ;----------------------------------------------------------------------
     4968                   ; 968 | pn       = pini;                                                       
TMS320C3x/4x COFF AssemblerVersion 5.12     Mon Jan 31 16:14:26 2022
Copyright (c) 1987-1999 Texas Instruments Incorporatedasm30.exe -@_BR8.AAB 

Y:\workspace_eea\V615\APP\SOURCE\ASM\api.asm                         PAGE   93

     4969                   ;----------------------------------------------------------------------
     4970 000006e8 40400305         ldfu      *+fp(5),f0            ; |968| 
     4971 000006e9 14400306         stf       f0,*+fp(6)            ; |968| 
     4972                           .line   152
     4973                   ;----------------------------------------------------------------------
     4974                   ; 969 | cont = TRUE;                                                           
     4975                   ;----------------------------------------------------------------------
     4976 000006ea 50600001         ldiu      1,r0                  ; |969| 
     4977 000006eb 1540030f         sti       r0,*+fp(15)           ; |969| 
     4978                           .line   155
     4979                   ;----------------------------------------------------------------------
     4980                   ; 972 | break;                                                                 
     4981                   ; 974 | case 'C':                                                              
     4982                   ;----------------------------------------------------------------------
     4983 000006ec 6a000012         bu        L350                  ; |972| 
     4984                   ;*      Branch Occurs to L350           ; |972| 
     4985                           .line   158
     4986                   ;----------------------------------------------------------------------
     4987                   ; 975 | break;                                                                 
     4988                   ; 976 | case 'D':                                                              
     4989                   ; 977 | default:                                                               
     4990                   ;----------------------------------------------------------------------
     4991 000006ed          L343:        
     4992                           .line   162
     4993                   ;----------------------------------------------------------------------
     4994                   ; 979 | f->API_TABLE = 'D'<<8;                                                 
     4995                   ;----------------------------------------------------------------------
     4996 000006ed 50510310         ldiu      *+fp(16),ir0          ; |979| 
     4997 000006ee 5068018e         ldiu      398,ar0               ; |979| 
     4998 000006ef 50604400         ldiu      17408,r0              ; |979| 
     4999 000006f0 15404000         sti       r0,*+ar0(ir0)         ; |979| 
     5000                           .line   163
     5001                   ;----------------------------------------------------------------------
     5002                   ; 980 | break;                                                                 
     5003                   ;----------------------------------------------------------------------
     5004 000006f1 6a00000d         bu        L350                  ; |980| 
     5005                   ;*      Branch Occurs to L350           ; |980| 
     5006 000006f2          L345:        
     5007                           .line   54
     5008 000006f2 50510310         ldiu      *+fp(16),ir0          ; |871| 
     5009 000006f3 5068018e         ldiu      398,ar0               ; |871| 
     5010 000006f4 5060fff8         ldiu      -8,r0                 ; |871| 
     5011 000006f5 22a04000         ash3      r0,*+ar0(ir0),r0      ; |871| 
     5012 000006f6 04e00041         cmpi      65,r0                 ; |871| 
     5013 000006f7 6a050007         beq       L350                  ; |871| 
     5014                   ;*      Branch Occurs to L350           ; |871| 
     5015 000006f8 04e00042         cmpi      66,r0                 ; |871| 
     5016 000006f9 6a05ff60         beq       L299                  ; |871| 
     5017                   ;*      Branch Occurs to L299           ; |871| 
     5018 000006fa 04e00043         cmpi      67,r0                 ; |871| 
     5019 000006fb 6a050003         beq       L350                  ; |871| 
     5020                   ;*      Branch Occurs to L350           ; |871| 
     5021 000006fc 04e00044         cmpi      68,r0                 ; |871| 
     5022 000006fd 6a05ffef         beq       L343                  ; |871| 
TMS320C3x/4x COFF AssemblerVersion 5.12     Mon Jan 31 16:14:26 2022
Copyright (c) 1987-1999 Texas Instruments Incorporatedasm30.exe -@_BR8.AAB 

Y:\workspace_eea\V615\APP\SOURCE\ASM\api.asm                         PAGE   94

     5023                   ;*      Branch Occurs to L343           ; |871| 
     5024 000006fe 6a00ffee         bu        L343                  ; |871| 
     5025                   ;*      Branch Occurs to L343           ; |871| 
     5026 000006ff          L350:        
     5027                           .line   167
     5028                   ;----------------------------------------------------------------------
     5029                   ; 984 | if (cont)                                                              
     5030                   ;----------------------------------------------------------------------
     5031 000006ff 5040030f         ldiu      *+fp(15),r0           ; |984| 
     5032 00000700 04e00000         cmpi      0,r0                  ; |984| 
     5033 00000701 6a06ff23         bne       L290                  ; |984| 
     5034                   ;*      Branch Occurs to L290           ; |984| 
     5035                           .line   168
     5036                   ;----------------------------------------------------------------------
     5037                   ; 985 | continue;                                                              
     5038                   ;----------------------------------------------------------------------
     5039                           .line   170
     5040                   ;----------------------------------------------------------------------
     5041                   ; 987 | vcf = sigfig(a/pn,7);                                                  
     5042                   ;----------------------------------------------------------------------
     5043 00000702 40400308         ldfu      *+fp(8),f0            ; |987| 
     5044 00000703 40410306         ldfu      *+fp(6),f1            ; |987| 
     5045 00000704 62000000!        call      DIV_F30               ; |987| 
     5046                                                           ; |987| Call Occurs
     5047 00000705 08700000-        ldp       @CL41,DP
     5048 00000706 50210028-        ldiu      @CL41,r1              ; |987| 
     5049 00000707 506a0007         ldiu      7,ar2                 ; |987| 
     5050 00000708 40020000         ldfu      f0,f2                 ; |987| 
     5051 00000709 70000001         callu     r1                    ; far call to _sigfig   ; |987| 
     5052                                                           ; |987| Far Call Occurs
     5053 0000070a 1440030a         stf       f0,*+fp(10)           ; |987| 
     5054                           .line   172
     5055                   ;----------------------------------------------------------------------
     5056                   ; 989 | if (RET_VCF)                                                           
     5057                   ;----------------------------------------------------------------------
     5058 0000070b 50400304         ldiu      *+fp(4),r0            ; |989| 
     5059 0000070c 04e00000         cmpi      0,r0                  ; |989| 
     5060 0000070d 6a050003         beq       L353                  ; |989| 
     5061                   ;*      Branch Occurs to L353           ; |989| 
     5062                           .line   174
     5063                   ;----------------------------------------------------------------------
     5064                   ; 991 | pnext = vcf;                                                           
     5065                   ;----------------------------------------------------------------------
     5066 0000070e 4040030a         ldfu      *+fp(10),f0           ; |991| 
     5067 0000070f 14400307         stf       f0,*+fp(7)            ; |991| 
     5068                           .line   176
     5069                   ;----------------------------------------------------------------------
     5070                   ; 993 | break;                                                                 
     5071                   ;----------------------------------------------------------------------
     5072 00000710 6a000011         bu        L355                  ; |993| 
     5073                   ;*      Branch Occurs to L355           ; |993| 
     5074 00000711          L353:        
     5075                           .line   179
     5076                   ;----------------------------------------------------------------------
TMS320C3x/4x COFF AssemblerVersion 5.12     Mon Jan 31 16:14:26 2022
Copyright (c) 1987-1999 Texas Instruments Incorporatedasm30.exe -@_BR8.AAB 

Y:\workspace_eea\V615\APP\SOURCE\ASM\api.asm                         PAGE   95

     5077                   ; 996 | pnext = sigfig(pini/vcf,7);                                            
     5078                   ;----------------------------------------------------------------------
     5079 00000711 40400305         ldfu      *+fp(5),f0            ; |996| 
     5080 00000712 4041030a         ldfu      *+fp(10),f1           ; |996| 
     5081 00000713 62000000!        call      DIV_F30               ; |996| 
     5082                                                           ; |996| Call Occurs
     5083 00000714 08700000-        ldp       @CL41,DP
     5084 00000715 50210028-        ldiu      @CL41,r1              ; |996| 
     5085 00000716 506a0007         ldiu      7,ar2                 ; |996| 
     5086 00000717 40020000         ldfu      f0,f2                 ; |996| 
     5087 00000718 70000001         callu     r1                    ; far call to _sigfig   ; |996| 
     5088                                                           ; |996| Far Call Occurs
     5089 00000719 14400307         stf       f0,*+fp(7)            ; |996| 
     5090                           .line   181
     5091                   ;----------------------------------------------------------------------
     5092                   ; 998 | if ((pnext-pn)<0.050)                                                  
     5093                   ;----------------------------------------------------------------------
     5094 0000071a 08700000-        ldp       @CL66,DP
     5095 0000071b 40400306         ldfu      *+fp(6),f0            ; |998| 
     5096 0000071c 19400307         subrf     *+fp(7),f0            ; |998| 
     5097 0000071d 04200041-        cmpf      @CL66,f0              ; |998| 
     5098 0000071e 6a070003         blt       L355                  ; |998| 
     5099                   ;*      Branch Occurs to L355           ; |998| 
     5100                           .line   182
     5101                   ;----------------------------------------------------------------------
     5102                   ; 999 | break;                                                                 
     5103                   ;----------------------------------------------------------------------
     5104                           .line   184
     5105                   ;----------------------------------------------------------------------
     5106                   ; 1001 | pn = pnext;                                                            
     5107                   ;----------------------------------------------------------------------
     5108 0000071f 40400307         ldfu      *+fp(7),f0            ; |1001| 
     5109 00000720 14400306         stf       f0,*+fp(6)            ; |1001| 
     5110                           .line   185
     5111 00000721 6a00ff03         bu        L290                  ; |1002| 
     5112                   ;*      Branch Occurs to L290           ; |1002| 
     5113 00000722          L355:        
     5114                           .line   187
     5115                   ;----------------------------------------------------------------------
     5116                   ; 1004 | GIEP;                                                                  
     5117                   ;----------------------------------------------------------------------
     5118 00000722 0e350000         pop             ST                      
     5119                           .line   188
     5120                   ;----------------------------------------------------------------------
     5121                   ; 1005 | return pnext;                                                          
     5122                   ;----------------------------------------------------------------------
     5123 00000723 40400307         ldfu      *+fp(7),f0            ; |1005| 
     5124                           .line   189
     5125                                                           ; Begin Epilog Code
     5126 00000724 50410b01         ldiu      *-fp(1),r1            ; |1006| 
     5127 00000725 504bc300         ldiu      *fp,fp                ; |1006| 
     5128                                                           ; Unallocate the Frame
     5129 00000726 18740012         subi      18,sp                 ; |1006| 
     5130 00000727 68000001         bu        r1
TMS320C3x/4x COFF AssemblerVersion 5.12     Mon Jan 31 16:14:26 2022
Copyright (c) 1987-1999 Texas Instruments Incorporatedasm30.exe -@_BR8.AAB 

Y:\workspace_eea\V615\APP\SOURCE\ASM\api.asm                         PAGE   96

     5131                   ;*      Branch Occurs to r1 
     5132                           .endfunc        1006,000000000h,16
     5133                   
     5134                   
     5135 00000728                  .sect    ".text"
     5136                   
     5137                           .global _kgm3_to_API
     5138                           .sym    _kgm3_to_API,_kgm3_to_API,39,2,0
     5139                           .func   1020
     5140                   ;******************************************************************************
     5141                   ;* FUNCTION NAME: _kgm3_to_API                                                *
     5142                   ;*                                                                            *
     5143                   ;*   Architecture       : TMS320C33                                           *
     5144                   ;*   Calling Convention : TI Standard Register Parameters                     *
     5145                   ;*   Function Uses Regs : f0,f1,f2,st                                         *
     5146                   ;*   Regs Saved         :                                                     *
     5147                   ;*   Stack Frame        : Full (w/ debug)                                     *
     5148                   ;*   Total Frame Size   : 2 Call + 0 Parm + 1 Auto + 0 SOE = 3 words          *
     5149                   ;******************************************************************************
     5150 00000728          _kgm3_to_API:
     5151                   ;* f2    assigned to _r
     5152                           .sym    _r,2,7,17,32
     5153                           .sym    _r,1,7,1,32
     5154                           .line   1
     5155                   ;----------------------------------------------------------------------
     5156                   ; 1020 | double kgm3_to_API(const double r)                                     
     5157                   ;----------------------------------------------------------------------
     5158 00000728 0f2b0000         push      fp
     5159 00000729 500b0014         ldiu      sp,fp
     5160 0000072a 02740001         addi      1,sp
     5161                           .line   2
     5162 0000072b 14420301         stf       f2,*+fp(1)            ; |1021| 
     5163                           .line   3
     5164                   ;----------------------------------------------------------------------
     5165                   ; 1022 | if (r<=(double)0.0)                                                    
     5166                   ;----------------------------------------------------------------------
     5167 0000072c 40000002         ldfu      f2,f0
     5168 0000072d 04608000         cmpf      0.0000000000e+00,f0   ; |1022| 
     5169 0000072e 6a090004         bgt       L360                  ; |1022| 
     5170                   ;*      Branch Occurs to L360           ; |1022| 
     5171                           .line   4
     5172                   ;----------------------------------------------------------------------
     5173                   ; 1023 | return (double)API_error_num;                                          
     5174                   ;----------------------------------------------------------------------
     5175 0000072f 6a200006         bud       L361                  ; |1023| 
     5176 00000730 0c800000         nop
     5177 00000731 08700000-        ldp       @CL23,DP
     5178 00000732 40200016-        ldfu      @CL23,f0              ; |1023| 
     5179                   ;*      Branch Occurs to L361           ; |1023| 
     5180 00000733          L360:        
     5181                           .line   6
     5182                   ;----------------------------------------------------------------------
     5183                   ; 1025 | return (double)(((141.5*999.012)/r)-131.5);                            
     5184                   ;----------------------------------------------------------------------
TMS320C3x/4x COFF AssemblerVersion 5.12     Mon Jan 31 16:14:26 2022
Copyright (c) 1987-1999 Texas Instruments Incorporatedasm30.exe -@_BR8.AAB 

Y:\workspace_eea\V615\APP\SOURCE\ASM\api.asm                         PAGE   97

     5185 00000733 08700000-        ldp       @CL67,DP
     5186 00000734 40410301         ldfu      *+fp(1),f1            ; |1025| 
     5187 00000735 40200042-        ldfu      @CL67,f0              ; |1025| 
     5188 00000736 62000000!        call      DIV_F30               ; |1025| 
     5189                                                           ; |1025| Call Occurs
     5190 00000737 17e07038         subf      1.3150000000e+02,f0   ; |1025| 
     5191 00000738          L361:        
     5192                           .line   7
     5193                                                           ; Begin Epilog Code
     5194 00000738 50410b01         ldiu      *-fp(1),r1            ; |1026| 
     5195 00000739 504bc300         ldiu      *fp,fp                ; |1026| 
     5196                                                           ; Unallocate the Frame
     5197 0000073a 18740003         subi      3,sp                  ; |1026| 
     5198 0000073b 68000001         bu        r1
     5199                   ;*      Branch Occurs to r1 
     5200                           .endfunc        1026,000000000h,1
     5201                   
     5202                   
     5203 0000073c                  .sect    ".text"
     5204                   
     5205                           .global _API_to_kgm3
     5206                           .sym    _API_to_kgm3,_API_to_kgm3,39,2,0
     5207                           .func   1040
     5208                   ;******************************************************************************
     5209                   ;* FUNCTION NAME: _API_to_kgm3                                                *
     5210                   ;*                                                                            *
     5211                   ;*   Architecture       : TMS320C33                                           *
     5212                   ;*   Calling Convention : TI Standard Register Parameters                     *
     5213                   ;*   Function Uses Regs : f0,f1,f2,st                                         *
     5214                   ;*   Regs Saved         :                                                     *
     5215                   ;*   Stack Frame        : Full (w/ debug)                                     *
     5216                   ;*   Total Frame Size   : 2 Call + 0 Parm + 1 Auto + 0 SOE = 3 words          *
     5217                   ;******************************************************************************
     5218 0000073c          _API_to_kgm3:
     5219                   ;* f2    assigned to _r
     5220                           .sym    _r,2,7,17,32
     5221                           .sym    _r,1,7,1,32
     5222                           .line   1
     5223                   ;----------------------------------------------------------------------
     5224                   ; 1040 | double API_to_kgm3(const double r)                                     
     5225                   ;----------------------------------------------------------------------
     5226 0000073c 0f2b0000         push      fp
     5227 0000073d 500b0014         ldiu      sp,fp
     5228 0000073e 02740001         addi      1,sp
     5229                           .line   2
     5230 0000073f 14420301         stf       f2,*+fp(1)            ; |1041| 
     5231                           .line   3
     5232                   ;----------------------------------------------------------------------
     5233                   ; 1042 | if (r==(double)API_error_num)                                          
     5234                   ;----------------------------------------------------------------------
     5235 00000740 08700000-        ldp       @CL23,DP
     5236 00000741 40000002         ldfu      f2,f0
     5237 00000742 04200016-        cmpf      @CL23,f0              ; |1042| 
     5238 00000743 6a060004         bne       L365                  ; |1042| 
TMS320C3x/4x COFF AssemblerVersion 5.12     Mon Jan 31 16:14:26 2022
Copyright (c) 1987-1999 Texas Instruments Incorporatedasm30.exe -@_BR8.AAB 

Y:\workspace_eea\V615\APP\SOURCE\ASM\api.asm                         PAGE   98

     5239                   ;*      Branch Occurs to L365           ; |1042| 
     5240                           .line   4
     5241                   ;----------------------------------------------------------------------
     5242                   ; 1043 | return (double)0.0;                                                    
     5243                   ;----------------------------------------------------------------------
     5244 00000744 6a200006         bud       L366                  ; |1043| 
     5245 00000745 0c800000         nop
     5246 00000746 0c800000         nop
     5247 00000747 40608000         ldfu      0.0000000000e+00,f0   ; |1043| 
     5248                   ;*      Branch Occurs to L366           ; |1043| 
     5249 00000748          L365:        
     5250                           .line   6
     5251                   ;----------------------------------------------------------------------
     5252                   ; 1045 | return (double)(141.5*999.012/(r+131.5));                              
     5253                   ;----------------------------------------------------------------------
     5254 00000748 08700000-        ldp       @CL67,DP
     5255 00000749 40617038         ldfu      1.3150000000e+02,f1   ; |1045| 
     5256 0000074a 40200042-        ldfu      @CL67,f0              ; |1045| 
     5257 0000074b 01c10301         addf      *+fp(1),f1            ; |1045| 
     5258 0000074c 62000000!        call      DIV_F30               ; |1045| 
     5259                                                           ; |1045| Call Occurs
     5260 0000074d          L366:        
     5261                           .line   7
     5262                                                           ; Begin Epilog Code
     5263 0000074d 50410b01         ldiu      *-fp(1),r1            ; |1046| 
     5264 0000074e 504bc300         ldiu      *fp,fp                ; |1046| 
     5265                                                           ; Unallocate the Frame
     5266 0000074f 18740003         subi      3,sp                  ; |1046| 
     5267 00000750 68000001         bu        r1
     5268                   ;*      Branch Occurs to r1 
     5269                           .endfunc        1046,000000000h,1
     5270                   
     5271                   
     5272                   ;******************************************************************************
     5273                   ;* CONSTANT TABLE                                                             *
     5274                   ;******************************************************************************
     5275 00000000                  .sect   ".const"
     5276 00000000                  .bss    CL1,1
     5277 00000001                  .bss    CL2,1
     5278 00000002                  .bss    CL3,1
     5279 00000003                  .bss    CL4,1
     5280 00000004                  .bss    CL5,1
     5281 00000005                  .bss    CL6,1
     5282 00000006                  .bss    CL7,1
     5283 00000007                  .bss    CL8,1
     5284 00000008                  .bss    CL9,1
     5285 00000009                  .bss    CL10,1
     5286 0000000a                  .bss    CL11,1
     5287 0000000b                  .bss    CL12,1
     5288 0000000c                  .bss    CL13,1
     5289 0000000d                  .bss    CL14,1
     5290 0000000e                  .bss    CL15,1
     5291 0000000f                  .bss    CL16,1
     5292 00000010                  .bss    CL17,1
TMS320C3x/4x COFF AssemblerVersion 5.12     Mon Jan 31 16:14:26 2022
Copyright (c) 1987-1999 Texas Instruments Incorporatedasm30.exe -@_BR8.AAB 

Y:\workspace_eea\V615\APP\SOURCE\ASM\api.asm                         PAGE   99

     5293 00000011                  .bss    CL18,1
     5294 00000012                  .bss    CL19,1
     5295 00000013                  .bss    CL20,1
     5296 00000014                  .bss    CL21,1
     5297 00000015                  .bss    CL22,1
     5298 00000016                  .bss    CL23,1
     5299 00000017                  .bss    CL24,1
     5300 00000018                  .bss    CL25,1
     5301 00000019                  .bss    CL26,1
     5302 0000001a                  .bss    CL27,1
     5303 0000001b                  .bss    CL28,1
     5304 0000001c                  .bss    CL29,1
     5305 0000001d                  .bss    CL30,1
     5306 0000001e                  .bss    CL31,1
     5307 0000001f                  .bss    CL32,1
     5308 00000020                  .bss    CL33,1
     5309 00000021                  .bss    CL34,1
     5310 00000022                  .bss    CL35,1
     5311 00000023                  .bss    CL36,1
     5312 00000024                  .bss    CL37,1
     5313 00000025                  .bss    CL38,1
     5314 00000026                  .bss    CL39,1
     5315 00000027                  .bss    CL40,1
     5316 00000028                  .bss    CL41,1
     5317 00000029                  .bss    CL42,1
     5318 0000002a                  .bss    CL43,1
     5319 0000002b                  .bss    CL44,1
     5320 0000002c                  .bss    CL45,1
     5321 0000002d                  .bss    CL46,1
     5322 0000002e                  .bss    CL47,1
     5323 0000002f                  .bss    CL48,1
     5324 00000030                  .bss    CL49,1
     5325 00000031                  .bss    CL50,1
     5326 00000032                  .bss    CL51,1
     5327 00000033                  .bss    CL52,1
     5328 00000034                  .bss    CL53,1
     5329 00000035                  .bss    CL54,1
     5330 00000036                  .bss    CL55,1
     5331 00000037                  .bss    CL56,1
     5332 00000038                  .bss    CL57,1
     5333 00000039                  .bss    CL58,1
     5334 0000003a                  .bss    CL59,1
     5335 0000003b                  .bss    CL60,1
     5336 0000003c                  .bss    CL61,1
     5337 0000003d                  .bss    CL62,1
     5338 0000003e                  .bss    CL63,1
     5339 0000003f                  .bss    CL64,1
     5340 00000040                  .bss    CL65,1
     5341 00000041                  .bss    CL66,1
     5342 00000042                  .bss    CL67,1
     5343                   
     5344 00000000                  .sect   ".cinit"
     5345 00000000 00000043         .field          67,32
     5346 00000001 00000000-        .field          CL1+0,32
TMS320C3x/4x COFF AssemblerVersion 5.12     Mon Jan 31 16:14:26 2022
Copyright (c) 1987-1999 Texas Instruments Incorporatedasm30.exe -@_BR8.AAB 

Y:\workspace_eea\V615\APP\SOURCE\ASM\api.asm                         PAGE  100

     5347 00000002 00000000!        .field          _Convert,32
     5348 00000003 0000073c'        .field          _API_to_kgm3,32
     5349 00000004 0000060d'        .field          _API_PT_ST,32
     5350 00000005 080c0000         .word           0080C0000H ; double  2.800000000000000e+02
     5351 00000006 0979c000         .word           00979C000H ; double  9.990000000000000e+02
     5352 00000007 fd0e38e4         .word           0FD0E38E4H ; double  1.388888888888889e-01
     5353 00000008 e22980e3         .word           0E22980E3H ; double  1.233300000000000e-09
     5354 00000009 dc455961         .word           0DC455961H ; double  2.243600000000000e-11
     5355 0000000a ee702472         .word           0EE702472H ; double  7.156800000000000e-06
     5356 0000000b f2584221         .word           0F2584221H ; double  1.031200000000000e-04
     5357 0000000c ec2a784e         .word           0EC2A784EH ; double  1.270100000000000e-06
     5358 0000000d e73fbb4c         .word           0E73FBB4CH ; double  4.464100000000000e-08
     5359 0000000e e47722c7         .word           0E47722C7H ; double  7.192600000000000e-09
     5360 0000000f df0fdf00         .word           0DF0FDF00H ; double  1.308500000000000e-10
     5361 00000010 ef581fc5         .word           0EF581FC5H ; double  1.288200000000000e-05
     5362 00000011 f342a2fd         .word           0F342A2FDH ; double  1.856200000000000e-04
     5363 00000012 ee0a1471         .word           0EE0A1471H ; double  4.115100000000000e-06
     5364 00000013 e91b4e57         .word           0E91B4E57H ; double  1.446400000000000e-07
     5365 00000014 00000000!        .field          _DIAGNOSTICS,32
     5366 00000015 00000000!        .field          _FC,32
     5367 00000016 00000728'        .field          _kgm3_to_API,32
     5368 00000017 00000139'        .field          _API_STATUS,32
     5369 00000018 06ba0000         .word           006BA0000H ; double  -9.900000000000000e+01
     5370 00000019 08160000         .word           008160000H ; double  3.000000000000000e+02
     5371 0000001a 082a8c40         .word           0082A8C40H ; double  3.410957000000000e+02
     5372 0000001b 064fbe77         .word           0064FBE77H ; double  1.038720000000000e+02
     5373 0000001c fe0a4a8c         .word           0FE0A4A8CH ; double  2.701000000000000e-01
     5374 0000001d 08252687         .word           008252687H ; double  3.303010000000000e+02
     5375 0000001e 0a3a2225         .word           00A3A2225H ; double  1.489067000000000e+03
     5376 0000001f f68b1ae6         .word           0F68B1AE6H ; double  -1.868400000000000e-03
     5377 00000020 07407505         .word           007407505H ; double  1.924571000000000e+02
     5378 00000021 fd79a6b5         .word           0FD79A6B5H ; double  2.438000000000000e-01
     5379 00000022 17189680         .word           017189680H ; double  1.000000000000000e+07
     5380 00000023 08070000         .word           008070000H ; double  2.700000000000000e+02
     5381 00000024 09688000         .word           009688000H ; double  9.300000000000000e+02
     5382 00000025 087f0000         .word           0087F0000H ; double  5.100000000000000e+02
     5383 00000026 09048000         .word           009048000H ; double  5.300000000000000e+02
     5384 00000027 03e00000         .word           003E00000H ; double  -1.000000000000000e+01
     5385 00000028 fe32934b         .word           0FE32934BH ; double  3.487800000000000e-01
     5386 00000029 00000000!        .field          _truncate,32
     5387 0000002a 00000000!        .field          _sigfig,32
     5388 0000002b ff4ccccd         .word           0FF4CCCCDH ; double  8.000000000000000e-01
     5389 0000002c 00000000!        .field          _exp,32
     5390 0000002d 04f00000         .word           004F00000H ; double  -1.800000000000000e+01
     5391 0000002e 08610000         .word           008610000H ; double  4.500000000000000e+02
     5392 0000002f 0a066000         .word           00A066000H ; double  1.075000000000000e+03
     5393 00000030 093d8000         .word           0093D8000H ; double  7.580000000000000e+02
     5394 00000031 0942a000         .word           00942A000H ; double  7.785000000000000e+02
     5395 00000032 094e0000         .word           0094E0000H ; double  8.240000000000000e+02
     5396 00000033 09197e3a         .word           009197E3AH ; double  6.139723000000000e+02
     5397 00000034 09234000         .word           009234000H ; double  6.530000000000000e+02
     5398 00000035 09408000         .word           009408000H ; double  7.700000000000000e+02
     5399 00000036 09450000         .word           009450000H ; double  7.880000000000000e+02
     5400 00000037 0951c000         .word           00951C000H ; double  8.390000000000000e+02
TMS320C3x/4x COFF AssemblerVersion 5.12     Mon Jan 31 16:14:26 2022
Copyright (c) 1987-1999 Texas Instruments Incorporatedasm30.exe -@_BR8.AAB 

Y:\workspace_eea\V615\APP\SOURCE\ASM\api.asm                         PAGE  101

     5401 00000038 082d361e         .word           0082D361EH ; double  3.464228000000000e+02
     5402 00000039 fe60aa65         .word           0FE60AA65H ; double  4.388000000000000e-01
     5403 0000003a 0b278521         .word           00B278521H ; double  2.680320600000000e+03
     5404 0000003b f7a39836         .word           0F7A39836H ; double  -3.363120000000000e-03
     5405 0000003c 0914a302         .word           00914A302H ; double  5.945470000000000e+02
     5406 0000003d 073af838         .word           0073AF838H ; double  1.869696000000000e+02
     5407 0000003e fe78ef35         .word           0FE78EF35H ; double  4.862000000000000e-01
     5408 0000003f 00666666         .word           000666666H ; double  1.800000000000000e+00
     5409 00000040 ff20b780         .word           0FF20B780H ; double  6.278000000000000e-01
     5410 00000041 00000174'        .field          _API_60F_PT,32
     5411 00000042 000003c0'        .field          _API_15C_PT,32
     5412 00000043 fb4ccccd         .word           0FB4CCCCDH ; double  5.000000000000000e-02
     5413 00000044 110a0c0d         .word           0110A0C0DH ; double  1.413601980000000e+05
     5414                   
     5415 00000751                  .sect   ".text"
     5416                   ;******************************************************************************
     5417                   ;* UNDEFINED EXTERNAL REFERENCES                                              *
     5418                   ;******************************************************************************
     5419                   
     5420                           .global _exp
     5421                   
     5422                           .global _Convert
     5423                   
     5424                           .global _DIAGNOSTICS
     5425                   
     5426                           .global _FC
     5427                   
     5428                           .global _sigfig
     5429                   
     5430                           .global _truncate
     5431                           .global MPY_LD
     5432                           .global DIV_F30

 No Errors,  No Warnings
TMS320C3x/4x COFF AssemblerVersion 5.12     Mon Jan 31 16:14:26 2022
Copyright (c) 1987-1999 Texas Instruments Incorporatedasm30.exe -@_BR8.AAB 

Y:\workspace_eea\V615\APP\SOURCE\ASM\api.asm                         PAGE  102

LABEL                            VALUE       DEFN    REF

.BIGMODEL                        00000001       0 
.C30                             00000000       0 
.C30INTERRUPT                    00000000       0 
.C31                             00000000       0 
.C32                             00000000       0 
.C33                             00000001       0 
.C3X                             00000001       0 
.C3x                             00000001       0 
.C40                             00000000       0 
.C44                             00000000       0 
.C4X                             00000000       0 
.C4x                             00000000       0 
.REGPARM                         00000001       0 
.TMS320C30                       00000001       0 
.TMS320C31                       00000000       0 
.TMS320C32                       00000000       0 
.TMS320C40                       00000000       0 
.TMS320C44                       00000000       0 
.TMS320xx                        00000021       0 
.tms320C30                       00000001       0 
.tms320C31                       00000000       0 
.tms320C32                       00000000       0 
.tms320C40                       00000000       0 
.tms320C44                       00000000       0 
.tms320xx                        00000021       0 
.tmx320C40                       00000000       0 
CL1                              00000000-   5276    829    835   1083   1089 
                                                    1621   1629   3044   3052 
                                                    5346 
CL10                             00000009-   5285   1061   1063 
CL11                             0000000a-   5286   1058   1060 
CL12                             0000000b-   5287   1051   1053 
CL13                             0000000c-   5288   1295   1296 
CL14                             0000000d-   5289   1288   1289 
CL15                             0000000e-   5290   1293   1294 
CL16                             0000000f-   5291   1300   1302 
CL17                             00000010-   5292   1297   1299 
CL18                             00000011-   5293   1290   1292 
CL19                             00000012-   5294   1462   1463   1522   1523 
CL2                              00000001-   5277    864    867    870    872 
                                                     890    892   1132   1134 
CL20                             00000013-   5295   1610   1612   3033   3035 
                                                    4433   4436 
CL21                             00000014-   5296   1640   1641   4113   4115 
                                                    4574   4576 
TMS320C3x/4x COFF AssemblerVersion 5.12     Mon Jan 31 16:14:26 2022
Copyright (c) 1987-1999 Texas Instruments Incorporatedasm30.exe -@_BR8.AAB 

Y:\workspace_eea\V615\APP\SOURCE\ASM\api.asm                         PAGE  103

LABEL                            VALUE       DEFN    REF

CL22                             00000015-   5297   1653   1655   1682   1685 
                                                    1724   1727   1757   1760 
                                                    1788   1791   1821   1824 
                                                    1852   1855   1885   1888 
                                                    1916   1919   1943   1946 
                                                    1973   1976   2007   2010 
                                                    2068   2071   2110   2113 
                                                    2143   2146   2172   2175 
                                                    2205   2208   2234   2237 
                                                    2267   2270   2578   2581 
                                                    2617   2620   2655   2658 
                                                    2693   2696   2764   2767 
                                                    3072   3073   3104   3107 
                                                    3147   3150   3173   3176 
                                                    3204   3207   3237   3240 
                                                    3268   3271   3297   3300 
                                                    3327   3330   3356   3359 
                                                    3420   3423   3462   3465 
                                                    3495   3498   3525   3528 
                                                    3558   3561   3588   3591 
                                                    3621   3624   3948   3951 
                                                    3987   3990   4025   4028 
                                                    4063   4066   4153   4156 
                                                    4482   4485 
CL23                             00000016-   5298   1699   1700   1741   1742 
                                                    1805   1806   1869   1870 
                                                    1934   1935   1990   1991 
                                                    2085   2086   2127   2128 
                                                    2189   2190   2251   2252 
                                                    2509   2510   2595   2596 
                                                    2634   2635   2672   2673 
                                                    2710   2711   2781   2782 
                                                    3121   3122   3165   3166 
                                                    3221   3222   3281   3282 
                                                    3340   3341   3437   3438 
                                                    3479   3480   3542   3543 
                                                    3605   3606   3871   3872 
                                                    3965   3966   4004   4005 
                                                    4042   4043   4080   4081 
                                                    4170   4171   4453   4454 
                                                    4492   4493   4551   4553 
                                                    4560   4561   5177   5178 
                                                    5235   5237 
CL24                             00000017-   5299   1715   1717   1779   1781 
                                                    1843   1845   1907   1909 
                                                    1964   1966   2101   2103 
                                                    2608   2610   2755   2756 
                                                    3978   3980   4144   4145 
CL25                             00000018-   5300   2025   2026 
CL26                             00000019-   5301   2383   2384 
CL27                             0000001a-   5302   2390   2391 
TMS320C3x/4x COFF AssemblerVersion 5.12     Mon Jan 31 16:14:26 2022
Copyright (c) 1987-1999 Texas Instruments Incorporatedasm30.exe -@_BR8.AAB 

Y:\workspace_eea\V615\APP\SOURCE\ASM\api.asm                         PAGE  104

LABEL                            VALUE       DEFN    REF

CL28                             0000001b-   5303   2411   2412 
CL29                             0000001c-   5304   2438   2439 
CL3                              00000002-   5278    901    905   1143   1147 
CL30                             0000001d-   5305   2451   2452 
CL31                             0000001e-   5306   2466   2467 
CL32                             0000001f-   5307   2473   2474 
CL33                             00000020-   5308   2550   2553   3912   3915 
CL34                             00000021-   5309   2564   2566   3934   3936 
CL35                             00000022-   5310   2569   2570   2680   2682 
                                                    3939   3940   4050   4052 
CL36                             00000023-   5311   2603   2605   3973   3975 
CL37                             00000024-   5312   2642   2644   4012   4014 
CL38                             00000025-   5313   2743   2745   4132   4134 
CL39                             00000026-   5314   2802   2803 
CL4                              00000003-   5279    982    984    991    992 
CL40                             00000027-   5315   2871   2873   2885   2886 
                                                    2900   2901   4260   4262 
                                                    4274   4275   4289   4290 
CL41                             00000028-   5316   2914   2916   4303   4305 
                                                    5047   5048   5083   5084 
CL42                             00000029-   5317   2926   2928   4315   4317 
CL43                             0000002a-   5318   2930   2932   4319   4321 
CL44                             0000002b-   5319   3085   3087   3401   3403 
CL45                             0000002c-   5320   3090   3092 
CL46                             0000002d-   5321   3095   3096   3310   3312 
                                                    3411   3412   3571   3573 
                                                    3714   3715   4919   4920 
CL47                             0000002e-   5322   3130   3132 
CL48                             0000002f-   5323   3187   3189   3445   3447 
CL49                             00000030-   5324   3251   3253   3508   3510 
CL5                              00000004-   5280   1017   1018   1257   1258 
CL50                             00000031-   5325   3374   3375 
CL51                             00000032-   5326   3406   3408   3641   3643 
                                                    4782   4784 
CL52                             00000033-   5327   3646   3647   3663   3665 
                                                    4787   4788   4826   4828 
CL53                             00000034-   5328   3668   3669   3686   3688 
                                                    4831   4832   4870   4872 
CL54                             00000035-   5329   3691   3692   3709   3711 
                                                    4875   4876   4914   4916 
CL55                             00000036-   5330   3745   3746 
CL56                             00000037-   5331   3752   3753 
CL57                             00000038-   5332   3773   3774 
CL58                             00000039-   5333   3786   3787 
CL59                             0000003a-   5334   3801   3802 
CL6                              00000005-   5281   1019   1021   1259   1261 
CL60                             0000003b-   5335   3828   3829 
CL61                             0000003c-   5336   3835   3836 
CL62                             0000003d-   5337   3922   3923   4123   4124 
CL63                             0000003e-   5338   4191   4192 
CL64                             0000003f-   5339   4521   4525 
TMS320C3x/4x COFF AssemblerVersion 5.12     Mon Jan 31 16:14:26 2022
Copyright (c) 1987-1999 Texas Instruments Incorporatedasm30.exe -@_BR8.AAB 

Y:\workspace_eea\V615\APP\SOURCE\ASM\api.asm                         PAGE  105

LABEL                            VALUE       DEFN    REF

CL65                             00000040-   5340   4537   4541 
CL66                             00000041-   5341   5094   5097 
CL67                             00000042-   5342   5185   5187   5254   5256 
CL7                              00000006-   5282   1056   1057 
CL8                              00000007-   5283   1049   1050 
CL9                              00000008-   5284   1054   1055 
DIV_F30                          REF                 879    954   1121   1196 
                                                    2869   2883   2898   4258 
                                                    4272   4287   5045   5081 
                                                    5188   5258   5432 
FP                               0000000b       7 
L100                             0000025b'   2130   2104 
L102                             00000264'   2151   2095 
L106                             00000274'   2192   2166 
L108                             0000027d'   2213   2158 
L11                              00000075'    960    934    939 
L112                             0000028d'   2254   2228 
L114                             00000295'   2273   2137   2149   2199   2211 
                                                    2220   2261 
L118                             000002a1'   2302   2289   2292 
L121                             000002aa'   2323   2309   2312 
L124                             000002b3'   2344   2330   2333 
L127                             000002bc'   2366   2351   2354 
L128                             000002c0'   2378   2520 
L129                             000002c9'   2406   2523 
L13                              0000007b'    977    967 
L130                             000002d1'   2433   2526 
L131                             000002da'   2461   2529 
L132                             000002e3'   2490   2517   2531 
L134                             000002eb'   2512   2281   2300   2321   2342 
                                                    2364   2376 
L141                             000002f8'   2538   2830 
L144                             0000030b'   2573   2562   2567 
L146                             00000315'   2598   2571 
L15                              00000082'    994    975    985 
L150                             00000327'   2637   2606   2611 
L154                             00000338'   2675   2645   2649 
L157                             00000349'   2713   2683   2687 
L158                             0000034e'   2730   2833   2835 
L162                             0000035e'   2759   2746   2749   2753 
L163                             00000368'   2784   2757 
L165                             00000373'   2817   1659 
L17                              00000091'   1025   1010 
L170                             00000380'   2837   2045   2404   2431   2459 
                                                    2488   2728   2815 
L172                             000003ad'   2920   2861 
L173                             000003bb'   2948   1697   1739   1803   1867 
                                                    1932   1988   2083   2125 
                                                    2187   2249   2507   2593 
                                                    2632   2670   2708   2779 
L176                             000003e6'   3080   4213 
TMS320C3x/4x COFF AssemblerVersion 5.12     Mon Jan 31 16:14:26 2022
Copyright (c) 1987-1999 Texas Instruments Incorporatedasm30.exe -@_BR8.AAB 

Y:\workspace_eea\V615\APP\SOURCE\ASM\api.asm                         PAGE  106

LABEL                            VALUE       DEFN    REF

L179                             000003f1'   3099   3088   3093 
L18                              00000097'   1036   1023 
L181                             000003fb'   3124   3097 
L185                             0000040c'   3168   3141 
L186                             00000412'   3181   3133 
L19                              000000b3'   1076    820 
L190                             00000423'   3224   3198 
L192                             0000042c'   3245   3190 
L196                             0000043d'   3284   3262 
L198                             00000446'   3305   3254 
L202                             00000457'   3343   3321 
L204                             0000045f'   3362   3179   3231   3243   3291 
                                                    3303   3313   3350 
L205                             0000046a'   3396   4216 
L208                             00000475'   3415   3404   3409 
L210                             0000047f'   3440   3413 
L214                             00000490'   3482   3456 
L216                             00000499'   3503   3448 
L22                              000000d2'   1127   1106   1110 
L220                             000004aa'   3545   3519 
L222                             000004b3'   3566   3511 
L226                             000004c4'   3608   3582 
L228                             000004cc'   3627   3489   3501   3552   3564 
                                                    3574   3615 
L232                             000004da'   3658   3644   3648 
L235                             000004e5'   3681   3666   3670 
L238                             000004f0'   3704   3689   3693 
L24                              000000e6'   1167   1125   1158 
L241                             000004fb'   3728   3712   3716 
L242                             000004ff'   3740   3882 
L243                             00000508'   3768   3885 
L244                             00000511'   3796   3888 
L245                             00000519'   3823   3891 
L246                             00000522'   3852   3879   3893 
L248                             0000052a'   3874   3635   3656   3679   3702 
                                                    3726   3738 
L255                             00000537'   3900   4219 
L258                             0000054e'   3943   3932   3937 
L260                             00000558'   3968   3941 
L264                             0000056a'   4007   3976   3981 
L268                             0000057b'   4045   4015   4019 
L27                              000000f8'   1202   1176   1181 
L271                             0000058c'   4083   4053   4057 
L272                             00000591'   4100   4222   4224 
L276                             000005ab'   4148   4135   4138   4142 
L277                             000005b5'   4173   4146 
L279                             000005c0'   4206   3078 
L284                             000005cd'   4226   3394   3766   3794   3821 
                                                    3850   4098   4204 
L286                             000005fa'   4309   4250 
TMS320C3x/4x COFF AssemblerVersion 5.12     Mon Jan 31 16:14:26 2022
Copyright (c) 1987-1999 Texas Instruments Incorporatedasm30.exe -@_BR8.AAB 

Y:\workspace_eea\V615\APP\SOURCE\ASM\api.asm                         PAGE  107

LABEL                            VALUE       DEFN    REF

L287                             00000608'   4337   3119   3163   3219   3279 
                                                    3338   3435   3477   3540 
                                                    3603   3869   3963   4002 
                                                    4040   4078   4168 
L29                              000000fe'   1219   1209 
L290                             00000625'   4463   5033   5111 
L292                             00000633'   4501   4476 
L294                             00000641'   4532   4514 
L295                             00000649'   4546   4530 
L297                             00000651'   4569   4554 
L299                             0000065a'   4600   5016 
L3                               00000027'    822    816 
L305                             0000066d'   4650   4615   4618 
L31                              00000103'   1234   1217   1226 
L310                             0000067d'   4692   4657   4660 
L315                             0000068d'   4734   4699   4702 
L320                             0000069d'   4777   4607 
L325                             000006af'   4821   4785   4789 
L33                              00000112'   1265   1250 
L330                             000006c1'   4865   4829   4833 
L335                             000006d3'   4909   4873   4877 
L34                              00000118'   1276   1263 
L340                             000006e5'   4957   4626   4640   4648   4668 
                                                    4682   4690   4710   4724 
                                                    4732   4741   4744   4752 
                                                    4766   4775 
L343                             000006ed'   4991   5022   5024 
L345                             000006f2'   5006   4593 
L35                              00000133'   1313    958   1074   1200 
L350                             000006ff'   5026   4797   4811   4819   4841 
                                                    4855   4863   4885   4899 
                                                    4907   4917   4921   4929 
                                                    4943   4955   4964   4983 
                                                    5004   5013   5019 
L353                             00000711'   5074   5060 
L355                             00000722'   5113   4499   4567   5072   5098 
L360                             00000733'   5180   5169 
L361                             00000738'   5191   5175 
L365                             00000748'   5249   5238 
L366                             0000074d'   5260   5244 
L38                              0000013f'   1372   1446 
L39                              00000144'   1392   1443 
L40                              00000149'   1412   1440 
L42                              0000014e'   1436   1370 
L46                              00000156'   1450   1390   1410   1430 
L47                              00000160'   1476   1512 
L48                              00000163'   1490   1515 
L50                              00000166'   1508   1474 
L52                              0000016b'   1517   1488   1502 
L53                              00000170'   1527   1448 
L56                              0000019d'   1661   2824 
TMS320C3x/4x COFF AssemblerVersion 5.12     Mon Jan 31 16:14:26 2022
Copyright (c) 1987-1999 Texas Instruments Incorporatedasm30.exe -@_BR8.AAB 

Y:\workspace_eea\V615\APP\SOURCE\ASM\api.asm                         PAGE  108

LABEL                            VALUE       DEFN    REF

L59                              000001a5'   1677   1668   1672 
L6                               0000004f'    885    852    856 
L61                              000001af'   1702   1675 
L65                              000001c0'   1744   1718 
L67                              000001c9'   1765   1709 
L71                              000001da'   1808   1782 
L73                              000001e3'   1829   1773 
L77                              000001f4'   1872   1846 
L79                              000001fd'   1893   1837 
L8                               00000063'    925    883    916 
L83                              0000020e'   1937   1910 
L84                              00000214'   1951   1901 
L88                              00000225'   1993   1967 
L90                              0000022d'   2013   1751   1763   1815   1827 
                                                    1879   1891   1949   1958 
                                                    2000 
L91                              00000238'   2047   2827 
L94                              00000240'   2063   2054   2058 
L96                              0000024a'   2088   2061 
MPY_LD                           REF                 805   5431 
_API_15C_PT                      000003c0'   2978   2964   2965   2965   5411 
_API_60F_PT                      00000174'   1555   1541   1542   1542   5410 
_API_PT_ST                       0000060d'   4366   4353   4354   4354   5349 
_API_STATUS                      00000139'   1343   1330   1331   1331   5368 
_API_VCF                         00000000'    735    721    722    722 
_API_to_kgm3                     0000073c'   5218   5205   5206   5206   5348 
_Convert                         REF                5347   5422 
_DIAGNOSTICS                     REF                5365   5424 
_FC                              REF                5366   5426 
_exp                             REF                5389   5420 
_kgm3_to_API                     00000728'   5150   5137   5138   5138   5367 
_sigfig                          REF                5387   5428 
_truncate                        REF                5386   5430 
fp                               0000000b       6   4318   4320   4326   4327 
                                                    4340   4341   4341   4396 
                                                    4397   4413   4414   4415 
                                                    4416   4428   4437   4443 
                                                    4448   4455   4462   4469 
                                                    4470   4483   4494   4506 
                                                    4507   4512   4522   4523 
                                                    4524   4529   4538   4539 
                                                    4540   4545   4552   4562 
                                                    4575   4579   4585   4592 
                                                    4605   4613   4624   4625 
                                                    4633   4638   4647   4655 
                                                    4666   4667   4675   4680 
                                                    4689   4697   4708   4709 
                                                    4717   4722   4731   4739 
                                                    4750   4751   4759   4764 
                                                    4774   4783   4795   4796 
                                                    4804   4809   4818   4827 
                                                    4839   4840   4848   4853 
                                                    4862   4871   4883   4884 
                                                    4892   4897   4906   4915 
                                                    4927   4928   4936   4941 
                                                    4950   4962   4970   4971 
                                                    4977   4996   5008   5031 
                                                    5043   5044   5053   5058 
                                                    5066   5067   5079   5080 
                                                    5089   5095   5096   5108 
                                                    5109   5123   5126   5127 
                                                    5127   5158   5159   5162 
                                                    5186   5194   5195   5195 
                                                    5226   5227   5230   5257 
                                                    5263   5264   5264 
