TMS320C3x/4x COFF AssemblerVersion 5.12     Wed Jul 24 11:03:43 2019
Copyright (c) 1987-1999 Texas Instruments Incorporatedasm30.exe -@_3JG.AAB 

G:\workspace\EEA\V615\APP\SOURCE\ASM\dac.asm                         PAGE    1

        1                   ;******************************************************************************
        2                   ;* TMS320C3x/4x ANSI C Code Generator                            Version 5.11 *
        3                   ;* Date/Time created: Wed Jul 24 11:03:43 2019                                *
        4                   ;******************************************************************************
        5                           .regalias       ; enable floating point register aliases
        6          0000000b fp      .set    ar3
        7          0000000b FP      .set    ar3
        8                   ;******************************************************************************
        9                   ;* GLOBAL FILE PARAMETERS                                                     *
       10                   ;*                                                                            *
       11                   ;*   Optimization       : Always Choose Smaller Code Size                     *
       12                   ;*   Memory             : Big Memory Model                                    *
       13                   ;*   Float-to-Int       : Normal Conversions (round toward zero)              *
       14                   ;*   Multiply           : in Software (32 bits)                               *
       15                   ;*   Memory Info        : Unmapped Memory Exists                              *
       16                   ;*   Repeat Loops       : Use RPTS and/or RPTB                                *
       17                   ;*   Calls              : Normal Library ASM calls                            *
       18                   ;*   Debug Info         : Standard TI Debug Information                       *
       19                   ;******************************************************************************
       20                   ;       C:\tic3x4x\c3x4x\cgtools\bin\ac30.exe -@_3JG.AAA 
       21                           .file   "dac.c"
       22                           .file   "G:\workspace\EEA\V615\APP\SOURCE\INCLUDE\GLBLS.H"
       23                           .file   "G:\workspace\EEA\V615\INCLUDE\stdarg.h"
       24                           .sym    _va_list,0,18,13,32
       25                           .file   "G:\workspace\EEA\V615\INCLUDE\format.h"
       26                           .stag   .fake0,128
       27                           .member _flags,0,14,8,32
       28                           .member _fwidth,32,4,8,32
       29                           .member _precision,64,4,8,32
       30                           .member _conv,96,2,8,32
       31                           .eos
       32                           .sym    __PFIELD,0,8,13,128,.fake0
       33                           .stag   .fake1,3200
       34                           .member _flags,0,14,8,32
       35                           .member _fwidth,32,4,8,32
       36                           .member _precision,64,4,8,32
       37                           .member _scanset,96,50,8,3072,,96
       38                           .member _conv,3168,2,8,32
       39                           .eos
       40                           .sym    __SFIELD,0,8,13,3200,.fake1
       41                           .file   "G:\workspace\EEA\V615\INCLUDE\string.h"
       42                           .sym    _size_t,0,14,13,32
       43                           .file   "G:\workspace\EEA\V615\INCLUDE\stdio.h"
       44                           .stag   .fake2,224
       45                           .member _fd,0,4,8,32
       46                           .member _buf,32,28,8,32
       47                           .member _pos,64,28,8,32
       48                           .member _bufend,96,28,8,32
       49                           .member _buff_stop,128,28,8,32
       50                           .member _flags,160,14,8,32
       51                           .member _index,192,4,8,32
       52                           .eos
       53                           .sym    _FILE,0,8,13,224,.fake2
       54                           .sym    _fpos_t,0,5,13,32
TMS320C3x/4x COFF AssemblerVersion 5.12     Wed Jul 24 11:03:43 2019
Copyright (c) 1987-1999 Texas Instruments Incorporatedasm30.exe -@_3JG.AAB 

G:\workspace\EEA\V615\APP\SOURCE\ASM\dac.asm                         PAGE    2

       55                           .stag   .fake3,544
       56                           .member _name,0,50,8,288,,9
       57                           .member _flags,288,13,8,32
       58                           .member _OPEN,320,148,8,32
       59                           .member _CLOSE,352,148,8,32
       60                           .member _READ,384,148,8,32
       61                           .member _WRITE,416,148,8,32
       62                           .member _LSEEK,448,149,8,32
       63                           .member _UNLINK,480,148,8,32
       64                           .member _RENAME,512,148,8,32
       65                           .eos
       66                           .sym    __DEVICE,0,8,13,544,.fake3
       67                           .file   "G:\workspace\EEA\V615\INCLUDE\stdlib.h"
       68                           .sym    _wchar_t,0,2,13,32
       69                           .stag   __div_t,64
       70                           .member _quot,0,4,8,32
       71                           .member _rem,32,4,8,32
       72                           .eos
       73                           .sym    _div_t,0,8,13,64,__div_t
       74                           .sym    _ldiv_t,0,8,13,64,__div_t
       75                           .file   "G:\workspace\EEA\V615\INCLUDE\math.h"
       76                           .file   "G:\workspace\EEA\V615\INCLUDE\time.h"
       77                           .sym    _clock_t,0,15,13,32
       78                           .sym    _time_t,0,15,13,32
       79                           .stag   _tm,288
       80                           .member _tm_sec,0,4,8,32
       81                           .member _tm_min,32,4,8,32
       82                           .member _tm_hour,64,4,8,32
       83                           .member _tm_mday,96,4,8,32
       84                           .member _tm_mon,128,4,8,32
       85                           .member _tm_year,160,4,8,32
       86                           .member _tm_wday,192,4,8,32
       87                           .member _tm_yday,224,4,8,32
       88                           .member _tm_isdst,256,4,8,32
       89                           .eos
       90                           .stag   _tmzone,320
       91                           .member _daylight,0,3,8,32
       92                           .member _timezone,32,5,8,32
       93                           .member _tzname,64,50,8,128,,4
       94                           .member _dstname,192,50,8,128,,4
       95                           .eos
       96                           .file   "G:\workspace\EEA\V615\INCLUDE\ETC.H"
       97                           .sym    _BOOL,0,14,13,32
       98                           .file   "G:\workspace\EEA\V615\INCLUDE\LIST.H"
       99                           .stag   .fake4,96
      100                           .member _head,0,20,8,32
      101                           .member _tail,32,20,8,32
      102                           .member _n,64,4,8,32
      103                           .eos
      104                           .sym    _LIST,0,8,13,96,.fake4
      105                           .stag   .fake5,64
      106                           .member _prev,0,20,8,32
      107                           .member _next,32,20,8,32
      108                           .eos
TMS320C3x/4x COFF AssemblerVersion 5.12     Wed Jul 24 11:03:43 2019
Copyright (c) 1987-1999 Texas Instruments Incorporatedasm30.exe -@_3JG.AAB 

G:\workspace\EEA\V615\APP\SOURCE\ASM\dac.asm                         PAGE    3

      109                           .sym    _GENERIC,0,8,13,64,.fake5
      110                           .file   "G:\workspace\EEA\V615\APP\SOURCE\INCLUDE\VARIABLE.H"
      111                           .stag   .fake6,1408
      112                           .member _val,0,6,8,32
      113                           .member _vect1,32,20,8,32
      114                           .member _vect2,64,20,8,32
      115                           .member _STAT,96,4,8,32
      116                           .member _dampening,128,6,8,32
      117                           .member _damp_count,160,4,8,32
      118                           .member _aux,192,4,8,32
      119                           .member _val1,224,6,8,32
      120                           .member _val2,256,6,8,32
      121                           .member _calc_val,288,11,8,64
      122                           .member _base_val,352,11,8,64
      123                           .member _unit,416,4,8,32
      124                           .member _calc_unit,448,4,8,32
      125                           .member _class,480,4,8,32
      126                           .member _scale,512,6,8,32
      127                           .member _scale_long,544,6,8,32
      128                           .member _bound_hi_set,576,6,8,32
      129                           .member _bound_lo_set,608,6,8,32
      130                           .member _alarm_hi_set,640,6,8,32
      131                           .member _alarm_lo_set,672,6,8,32
      132                           .member _name,704,50,8,672,,21
      133                           .member _name_r,1376,4,8,32
      134                           .eos
      135                           .sym    _VAR,0,8,13,1408,.fake6
      136                           .stag   .fake7,96
      137                           .member _val,0,14,8,32
      138                           .member _vect,32,20,8,32
      139                           .member _vect2,64,20,8,32
      140                           .eos
      141                           .sym    _COIL,0,8,13,96,.fake7
      142                           .stag   .fake8,64
      143                           .member _val,0,4,8,32
      144                           .member _vect,32,20,8,32
      145                           .eos
      146                           .sym    _REGVECT,0,8,13,64,.fake8
      147                           .stag   .fake9,96
      148                           .member _prev,0,20,8,32
      149                           .member _next,32,20,8,32
      150                           .member _v,64,24,8,32,.fake6
      151                           .eos
      152                           .sym    _DPKT,0,8,13,96,.fake9
      153                           .file   "G:\workspace\EEA\V615\APP\SOURCE\INCLUDE\BUFFER.H"
      154                           .stag   .fake10,9824
      155                           .member _head,0,4,8,32
      156                           .member _tail,32,4,8,32
      157                           .member _n,64,4,8,32
      158                           .member _GSEED,96,14,8,32
      159                           .member _CRC16,128,14,8,32
      160                           .member _buff,160,62,8,9600,,300
      161                           .member _sum,9760,4,8,32
      162                           .member _locked,9792,14,8,32
TMS320C3x/4x COFF AssemblerVersion 5.12     Wed Jul 24 11:03:43 2019
Copyright (c) 1987-1999 Texas Instruments Incorporatedasm30.exe -@_3JG.AAB 

G:\workspace\EEA\V615\APP\SOURCE\ASM\dac.asm                         PAGE    4

      163                           .eos
      164                           .sym    _BFR,0,8,13,9824,.fake10
      165                           .file   "G:\workspace\EEA\V615\INCLUDE\UNITS.H"
      166                           .file   "G:\workspace\EEA\V615\APP\SOURCE\INCLUDE\TIMER.H"
      167                           .stag   .fake11,320
      168                           .member _prev,0,20,8,32
      169                           .member _next,32,20,8,32
      170                           .member _vect,64,20,8,32
      171                           .member _priority,96,4,8,32
      172                           .member _parent,128,20,8,32
      173                           .member _n,160,4,8,32
      174                           .member _prev_n,192,4,8,32
      175                           .member _countdown,224,4,8,32
      176                           .member _preset_time,256,4,8,32
      177                           .member _t,288,6,8,32
      178                           .eos
      179                           .sym    _TPKT,0,8,13,320,.fake11
      180                           .file   "G:\workspace\EEA\V615\INCLUDE\I2C.H"
      181                           .file   "G:\workspace\EEA\V615\APP\SOURCE\INCLUDE\ERRORS.H"
      182                           .file   "G:\workspace\EEA\V615\APP\SOURCE\INCLUDE\SERIAL.H"
      183                           .stag   .fake12,2272
      184                           .member _Slave,0,4,8,32
      185                           .member _SNUM,32,4,8,32
      186                           .member _PRESENT,64,14,8,32
      187                           .member _TX_complete,96,14,8,32
      188                           .member _RX_pending,128,14,8,32
      189                           .member _BUSY,160,14,8,32
      190                           .member _IGNORE_RX,192,14,8,32
      191                           .member _STAT,224,12,8,32
      192                           .member _DAT,256,12,8,32
      193                           .member _broadcast,288,14,8,32
      194                           .member _TMR_Network_WDOG,320,4,8,32
      195                           .member _TMR_EOT_Delay,352,4,8,32
      196                           .member _TMR_Prefix_Delay,384,4,8,32
      197                           .member _TMR_Suffix_Delay,416,4,8,32
      198                           .member _TMR_Char,448,4,8,32
      199                           .member _TMR_Poll,480,8,8,320,.fake11
      200                           .member _TMR_Retry,800,8,8,320,.fake11
      201                           .member _nr,1120,4,8,32
      202                           .member _Received_PKT,1152,14,8,32
      203                           .member _TMR_enabled,1184,14,8,32
      204                           .member _tvector,1216,20,8,32
      205                           .member _pvector,1248,20,8,32
      206                           .member _pvector_main,1280,20,8,32
      207                           .member _tvector_main,1312,20,8,32
      208                           .member _fvector,1344,20,8,32
      209                           .member _actual_baud_rate,1376,6,8,32
      210                           .member _c,1408,14,8,32
      211                           .member _r,1440,14,8,32
      212                           .member _n,1472,4,8,32
      213                           .member _n_exp,1504,4,8,32
      214                           .member _ai,1536,4,8,32
      215                           .member _start,1568,4,8,32
      216                           .member _i,1600,4,8,32
TMS320C3x/4x COFF AssemblerVersion 5.12     Wed Jul 24 11:03:43 2019
Copyright (c) 1987-1999 Texas Instruments Incorporatedasm30.exe -@_3JG.AAB 

G:\workspace\EEA\V615\APP\SOURCE\ASM\dac.asm                         PAGE    5

      217                           .member _i_main,1632,4,8,32
      218                           .member _func,1664,14,8,32
      219                           .member _ERROR_COUNT,1696,14,8,32
      220                           .member _WDOG_COUNT,1728,14,8,32
      221                           .member _INV_CMD_COUNT,1760,14,8,32
      222                           .member _INV_PKT_COUNT,1792,14,8,32
      223                           .member _SUCCESS,1824,14,8,32
      224                           .member _NUM_RETRIES,1856,14,8,32
      225                           .member _FLAG1,1888,14,8,32
      226                           .member _FLAG2,1920,14,8,32
      227                           .member _FLAG3,1952,14,8,32
      228                           .member _LONG_ADDRESS,1984,14,8,32
      229                           .member _MASTER,2016,8,8,96,.fake4
      230                           .member _p,2112,20,8,32
      231                           .member _data,2144,14,8,32
      232                           .member _f,2176,22,8,32
      233                           .member _l,2208,30,8,32
      234                           .member _failed,2240,14,8,32
      235                           .eos
      236                           .sym    _PORTV,0,8,13,2272,.fake12
      237                           .stag   .fake13,11488
      238                           .member _PREFIX,0,8,8,1408,.fake6
      239                           .member _SUFFIX,1408,8,8,1408,.fake6
      240                           .member _NETWDOG,2816,8,8,1408,.fake6
      241                           .member _Slave_ID,4224,8,8,1408,.fake6
      242                           .member _Baud_Rate,5632,8,8,1408,.fake6
      243                           .member _Parity,7040,4,8,32
      244                           .member _n_bits,7072,4,8,32
      245                           .member _STP,7104,4,8,32
      246                           .member _N,7136,4,8,32
      247                           .member _N_retry,7168,4,8,32
      248                           .member _EOT_Delay,7200,8,8,1408,.fake6
      249                           .member _Retry_Time,8608,8,8,1408,.fake6
      250                           .member _Num_Retry,10016,8,8,1408,.fake6
      251                           .member _poll_time,11424,4,8,32
      252                           .member _timeout,11456,4,8,32
      253                           .eos
      254                           .sym    _PORTC,0,8,13,11488,.fake13
      255                           .stag   .fake14,672
      256                           .member _prev,0,20,8,32
      257                           .member _next,32,20,8,32
      258                           .member _rxvect,64,20,8,32
      259                           .member _txvect,96,20,8,32
      260                           .member _n,128,4,8,32
      261                           .member _slave,160,4,8,32
      262                           .member _func,192,4,8,32
      263                           .member _addr,224,4,8,32
      264                           .member _num,256,4,8,32
      265                           .member _v,288,54,8,320,,10
      266                           .member _flt_ptr,608,22,8,32
      267                           .member _int_ptr,640,20,8,32
      268                           .eos
      269                           .sym    _MPKT,0,8,13,672,.fake14
      270                           .file   "G:\workspace\EEA\V615\APP\SOURCE\INCLUDE\ADC.H"
TMS320C3x/4x COFF AssemblerVersion 5.12     Wed Jul 24 11:03:43 2019
Copyright (c) 1987-1999 Texas Instruments Incorporatedasm30.exe -@_3JG.AAB 

G:\workspace\EEA\V615\APP\SOURCE\ASM\dac.asm                         PAGE    6

      271                           .stag   .fake15,10176
      272                           .member _CURRENT,0,8,8,1408,.fake6
      273                           .member _CURRENT_PERCENT_OF_RANGE,1408,8,8,1408,.fake6
      274                           .member _LRV,2816,8,8,1408,.fake6
      275                           .member _URV,4224,8,8,1408,.fake6
      276                           .member _TRIM_MIN,5632,8,8,1408,.fake6
      277                           .member _TRIM_MAX,7040,8,8,1408,.fake6
      278                           .member _VALUE,8448,8,8,1408,.fake6
      279                           .member _TRIM_MIN_C,9856,6,8,32
      280                           .member _TRIM_MAX_C,9888,6,8,32
      281                           .member _v,9920,8,8,64,.fake8
      282                           .member _class,9984,8,8,64,.fake8
      283                           .member _unit,10048,8,8,64,.fake8
      284                           .member _present,10112,14,8,32
      285                           .member _val,10144,6,8,32
      286                           .eos
      287                           .sym    _LOOPDATA_I,0,8,13,10176,.fake15
      288                           .file   "G:\workspace\EEA\V615\APP\SOURCE\INCLUDE\DAC.H"
      289                           .stag   .fake16,13408
      290                           .member _CURRENT,0,8,8,1408,.fake6
      291                           .member _CURRENT_PERCENT_OF_RANGE,1408,8,8,1408,.fake6
      292                           .member _LRV,2816,8,8,1408,.fake6
      293                           .member _URV,4224,8,8,1408,.fake6
      294                           .member _TRIM_MIN,5632,8,8,1408,.fake6
      295                           .member _TRIM_MAX,7040,8,8,1408,.fake6
      296                           .member _TRIM_MIN_C,8448,6,8,32
      297                           .member _TRIM_MAX_C,8480,6,8,32
      298                           .member _ALARM_SELECT,8512,4,8,32
      299                           .member _MINSPAN,8544,6,8,32
      300                           .member _v,8576,8,8,64,.fake8
      301                           .member _class,8640,8,8,64,.fake8
      302                           .member _unit,8704,8,8,64,.fake8
      303                           .member _MANUAL,8768,4,8,32
      304                           .member _MANUAL_PERCENT,8800,6,8,32
      305                           .member _REVERSE,8832,4,8,32
      306                           .member _PID_input,8864,6,8,32
      307                           .member _PID_setpoint,8896,6,8,32
      308                           .member _P,8928,8,8,1408,.fake6
      309                           .member _I,10336,8,8,1408,.fake6
      310                           .member _D,11744,8,8,1408,.fake6
      311                           .member _pid_lastcycle,13152,4,8,32
      312                           .member _pid_output,13184,6,8,32
      313                           .member _pid_propband,13216,6,8,32
      314                           .member _pid_error,13248,6,8,32
      315                           .member _pid_bias,13280,6,8,32
      316                           .member _present,13312,14,8,32
      317                           .member _PID_fail,13344,14,8,32
      318                           .member _PID_enable_failsafe,13376,14,8,32
      319                           .eos
      320                           .sym    _LOOPDATA_O,0,8,13,13408,.fake16
      321                           .file   "G:\workspace\EEA\V615\APP\SOURCE\INCLUDE\EXECUTE.H"
      322                           .stag   .fake17,128
      323                           .member _prev,0,20,8,32
      324                           .member _next,32,20,8,32
TMS320C3x/4x COFF AssemblerVersion 5.12     Wed Jul 24 11:03:43 2019
Copyright (c) 1987-1999 Texas Instruments Incorporatedasm30.exe -@_3JG.AAB 

G:\workspace\EEA\V615\APP\SOURCE\ASM\dac.asm                         PAGE    7

      325                           .member _vect,64,20,8,32
      326                           .member _priority,96,4,8,32
      327                           .eos
      328                           .sym    _EPKT,0,8,13,128,.fake17
      329                           .file   "G:\workspace\EEA\V615\INCLUDE\FLASH.H"
      330                           .file   "G:\workspace\EEA\V615\APP\SOURCE\INCLUDE\LOG.H"
      331                           .stag   .fake18,384
      332                           .member _log_len,0,14,8,32
      333                           .member _log_n_sectors,32,14,8,32
      334                           .member _log_n_max_per_sector,64,14,8,32
      335                           .member _log_n,96,14,8,32
      336                           .member _log_current_sector,128,14,8,32
      337                           .member _log_absolute_index,160,14,8,32
      338                           .member _log_start,192,30,8,32
      339                           .member _log_sector_size,224,14,8,32
      340                           .member _log_record_size,256,14,8,32
      341                           .member _log_end,288,14,8,32
      342                           .member _LOG_ERASE,320,14,8,32
      343                           .member _erased_sector,352,14,8,32
      344                           .eos
      345                           .sym    _LOG,0,8,13,384,.fake18
      346                           .file   "G:\workspace\EEA\V615\APP\SOURCE\INCLUDE\DEMO.H"
      347                           .file   "G:\workspace\EEA\V615\APP\SOURCE\INCLUDE\SELFTEST.H"
      348                           .file   "G:\workspace\EEA\V615\APP\SOURCE\INCLUDE\MENU.H"
      349                           .stag   .fake19,16288
      350                           .member _INIT,0,14,8,32
      351                           .member _FRESH,32,14,8,32
      352                           .member _MENU,64,14,8,32
      353                           .member _SELECT,96,14,8,32
      354                           .member _VALUE,128,14,8,32
      355                           .member _ENTER,160,14,8,32
      356                           .member _DIR,192,4,8,32
      357                           .member _DIR_CHANGE,224,14,8,32
      358                           .member _M,256,14,8,32
      359                           .member _S,288,14,8,32
      360                           .member _V,320,14,8,32
      361                           .member _E,352,14,8,32
      362                           .member _CURSOR_ENABLED,384,14,8,32
      363                           .member _CURSOR_ROW,416,4,8,32
      364                           .member _CURSOR_COL,448,4,8,32
      365                           .member _CNT,480,14,8,32
      366                           .member _MENU_CNT,512,14,8,32
      367                           .member _SELECT_CNT,544,14,8,32
      368                           .member _VALUE_CNT,576,14,8,32
      369                           .member _k,608,14,8,32
      370                           .member _MODE_LOCKDOWN,640,14,8,32
      371                           .member _MODE_WPROT,672,14,8,32
      372                           .member _MODE_DEFINE,704,14,8,32
      373                           .member _MODE_USER,736,14,8,32
      374                           .member _MODE_TECH,768,14,8,32
      375                           .member _MODE_NORMAL,800,14,8,32
      376                           .member _menu_list_top,832,14,8,32
      377                           .member _menu_list_operations,864,14,8,32
      378                           .member _menu_list_configurations,896,14,8,32
TMS320C3x/4x COFF AssemblerVersion 5.12     Wed Jul 24 11:03:43 2019
Copyright (c) 1987-1999 Texas Instruments Incorporatedasm30.exe -@_3JG.AAB 

G:\workspace\EEA\V615\APP\SOURCE\ASM\dac.asm                         PAGE    8

      379                           .member _menu_list_security_info,928,14,8,32
      380                           .member _menu_list_measurements,960,14,8,32
      381                           .member _menu_list_changed,992,14,8,32
      382                           .member _PAGE,1024,14,8,32
      383                           .member _SUBPAGE,1056,14,8,32
      384                           .member _MENU_TRAP,1088,14,8,32
      385                           .member _DIP,1120,62,8,128,,4
      386                           .member _tmpf,1248,54,8,320,,10
      387                           .member _tmpi,1568,52,8,320,,10
      388                           .member _str,1888,242,8,12928,,4,101
      389                           .member _tmpv,14816,8,8,1408,.fake6
      390                           .member _ptmpv,16224,24,8,32,.fake6
      391                           .member _tbl,16256,20,8,32
      392                           .eos
      393                           .sym    _MENU_STRUCT,0,8,13,16288,.fake19
      394                           .file   "G:\workspace\EEA\V615\APP\SOURCE\INCLUDE\FLOAT1.H"
      395                           .file   "G:\workspace\EEA\V615\APP\SOURCE\INCLUDE\GLBLS.H"
      396                           .stag   .fake20,480
      397                           .member _i,0,4,8,32
      398                           .member _Watercut,32,6,8,32
      399                           .member _Temperature,64,6,8,32
      400                           .member _Salinity,96,6,8,32
      401                           .member _Frequency_Oil,128,6,8,32
      402                           .member _Frequency_Water,160,6,8,32
      403                           .member _RefPower_Oil,192,6,8,32
      404                           .member _RefPower_Water,224,6,8,32
      405                           .member _Dadj,256,6,8,32
      406                           .member _Time_HH,288,4,8,32
      407                           .member _Time_MM,320,4,8,32
      408                           .member _Time_MONTH,352,4,8,32
      409                           .member _Time_DAY,384,4,8,32
      410                           .member _Time_DAY_OF_WEEK,416,4,8,32
      411                           .member _Time_YEAR,448,4,8,32
      412                           .eos
      413                           .sym    _CAPDATA,0,8,13,480,.fake20
      414                           .stag   .fake21,640
      415                           .member _Watercut,0,54,8,64,,2
      416                           .member _Temperature,64,54,8,64,,2
      417                           .member _Salinity,128,54,8,64,,2
      418                           .member _Frequency_Oil,192,54,8,64,,2
      419                           .member _Frequency_Water,256,54,8,64,,2
      420                           .member _RefPower_Oil,320,54,8,64,,2
      421                           .member _RefPower_Water,384,54,8,64,,2
      422                           .member _Dadj,448,54,8,64,,2
      423                           .member _Time_MONTH_DAY_HH_MM,512,52,8,64,,2
      424                           .member _CLRSTAT_Time_YEAR,576,52,8,64,,2
      425                           .eos
      426                           .sym    _CAPRECORD,0,8,13,640,.fake21
      427                           .stag   .fake22,800
      428                           .member _Start_HH,0,4,8,32
      429                           .member _Start_MM,32,4,8,32
      430                           .member _Start_SS,64,4,8,32
      431                           .member _Start_MONTH,96,4,8,32
      432                           .member _Start_DAY,128,4,8,32
TMS320C3x/4x COFF AssemblerVersion 5.12     Wed Jul 24 11:03:43 2019
Copyright (c) 1987-1999 Texas Instruments Incorporatedasm30.exe -@_3JG.AAB 

G:\workspace\EEA\V615\APP\SOURCE\ASM\dac.asm                         PAGE    9

      433                           .member _Start_YEAR,160,4,8,32
      434                           .member _Stop_HH,192,4,8,32
      435                           .member _Stop_MM,224,4,8,32
      436                           .member _Stop_SS,256,4,8,32
      437                           .member _Stop_MONTH,288,4,8,32
      438                           .member _Stop_DAY,320,4,8,32
      439                           .member _Stop_YEAR,352,4,8,32
      440                           .member _stream,384,6,8,32
      441                           .member _elapsed_s,416,6,8,32
      442                           .member _duration,448,6,8,32
      443                           .member _purge,480,6,8,32
      444                           .member _gross_gas,512,6,8,32
      445                           .member _gross_oil,544,6,8,32
      446                           .member _gross_water,576,6,8,32
      447                           .member _gross_total,608,6,8,32
      448                           .member _gas24,640,6,8,32
      449                           .member _oil24,672,6,8,32
      450                           .member _water24,704,6,8,32
      451                           .member _total24,736,6,8,32
      452                           .member _watercut,768,6,8,32
      453                           .eos
      454                           .sym    _CCMRECORD,0,8,13,800,.fake22
      455                           .stag   .fake23,224
      456                           .member _SNUM,0,4,8,32
      457                           .member _ADDR,32,4,8,32
      458                           .member _BNUM,64,4,8,32
      459                           .member _REV,96,4,8,32
      460                           .member _MONTH,128,4,8,32
      461                           .member _DAY,160,4,8,32
      462                           .member _YEAR,192,4,8,32
      463                           .eos
      464                           .sym    _BOARD,0,8,13,224,.fake23
      465                           .etag   _Pulse_Input_Type,32
      466                           .member _PULSE_GAS_TEMP,1,4,16,32
      467                           .member _PULSE_SALINITY,2,4,16,32
      468                           .member _PULSE_STREAM_SELECT,3,4,16,32
      469                           .member _PULSE_USER_TEMP,4,4,16,32
      470                           .member _PULSE_FC_WC,5,4,16,32
      471                           .member _PULSE_FC_TEMP,6,4,16,32
      472                           .member _PULSE_FC_TOTAL_FLOW,7,4,16,32
      473                           .member _PULSE_FC_PRESSURE,8,4,16,32
      474                           .member _PULSE_FC_DENSITY,9,4,16,32
      475                           .member _PULSE_FC_SALINITY,10,4,16,32
      476                           .member _PULSE_FC_OIL_DENSITY,11,4,16,32
      477                           .member _PULSE_FC_OIL_DENSITY_ST,12,4,16,32
      478                           .member _PULSE_FC_WATER_DENSITY,13,4,16,32
      479                           .member _PULSE_FC_WATER_DENSITY_ST,14,4,16,32
      480                           .member _PULSE_NONE,15,4,16,32
      481                           .eos
      482                           .stag   .fake24,64
      483                           .member _freq,0,6,8,32
      484                           .member _counter,32,4,8,32
      485                           .eos
      486                           .sym    _Boxcar_Var,0,8,13,64,.fake24
TMS320C3x/4x COFF AssemblerVersion 5.12     Wed Jul 24 11:03:43 2019
Copyright (c) 1987-1999 Texas Instruments Incorporatedasm30.exe -@_3JG.AAB 

G:\workspace\EEA\V615\APP\SOURCE\ASM\dac.asm                         PAGE   10

      487                           .stag   .fake25,1088
      488                           .member _data,0,54,8,960,,30
      489                           .member _head,960,4,8,32
      490                           .member _tail,992,4,8,32
      491                           .member _length,1024,4,8,32
      492                           .member _average,1056,6,8,32
      493                           .eos
      494                           .sym    _bubble_struct,0,8,13,1088,.fake25
      495                           .stag   .fake26,3008
      496                           .member _data,0,54,8,2880,,90
      497                           .member _head,2880,4,8,32
      498                           .member _tail,2912,4,8,32
      499                           .member _length,2944,4,8,32
      500                           .member _average,2976,6,8,32
      501                           .eos
      502                           .sym    _pattern_struct,0,8,13,3008,.fake26
      503                           .stag   .fake27,320
      504                           .member _MODE,0,4,8,32
      505                           .member _STATUS_MASK,32,4,8,32
      506                           .member _v,64,8,8,64,.fake8
      507                           .member _setpoint,128,6,8,32
      508                           .member _ON,160,8,8,96,.fake7
      509                           .member _class,256,4,8,32
      510                           .member _unit,288,4,8,32
      511                           .eos
      512                           .sym    _RELAYDATA,0,8,13,320,.fake27
      513                           .stag   .fake28,12224
      514                           .member _diag,0,6,8,32
      515                           .member _mfr,32,6,8,32
      516                           .member _u_mfr,64,4,8,32
      517                           .member _density,96,6,8,32
      518                           .member _u_density,128,4,8,32
      519                           .member _density_PDI_corrected,160,6,8,32
      520                           .member _density_corrected,192,6,8,32
      521                           .member _u_density_corrected,224,4,8,32
      522                           .member _T,256,6,8,32
      523                           .member _u_T,288,4,8,32
      524                           .member _vfr,320,6,8,32
      525                           .member _u_vfr,352,4,8,32
      526                           .member _visc,384,6,8,32
      527                           .member _u_visc,416,4,8,32
      528                           .member _press,448,6,8,32
      529                           .member _mass_total,480,6,8,32
      530                           .member _u_m,512,4,8,32
      531                           .member _volume_total,544,6,8,32
      532                           .member _u_v,576,4,8,32
      533                           .member _u_P,608,4,8,32
      534                           .member _P,640,6,8,32
      535                           .member _mass_inv,672,6,8,32
      536                           .member _volume_inv,704,6,8,32
      537                           .member _raw_tube_freq,736,6,8,32
      538                           .member _left_pickup_value,768,6,8,32
      539                           .member _right_pickup_value,800,6,8,32
      540                           .member _drive_gain,832,6,8,32
TMS320C3x/4x COFF AssemblerVersion 5.12     Wed Jul 24 11:03:43 2019
Copyright (c) 1987-1999 Texas Instruments Incorporatedasm30.exe -@_3JG.AAB 

G:\workspace\EEA\V615\APP\SOURCE\ASM\dac.asm                         PAGE   11

      541                           .member _damp_flow_rate,864,8,8,1408,.fake6
      542                           .member _damp_density,2272,8,8,1408,.fake6
      543                           .member _mfr_cutoff,3680,8,8,1408,.fake6
      544                           .member _vfr_cutoff,5088,8,8,1408,.fake6
      545                           .member _mcf,6496,8,8,1408,.fake6
      546                           .member _address,7904,8,8,1408,.fake6
      547                           .member _mass_unit,9312,8,8,1408,.fake6
      548                           .member _density_cutoff,10720,8,8,1408,.fake6
      549                           .member _Z,12128,8,8,96,.fake7
      550                           .eos
      551                           .sym    _CORIOLIS,0,8,13,12224,.fake28
      552                           .stag   .fake29,288
      553                           .member _p_delta,0,6,8,32
      554                           .member _p_static,32,6,8,32
      555                           .member _T,64,6,8,32
      556                           .member _diag0,96,6,8,32
      557                           .member _diag1,128,6,8,32
      558                           .member _diag2,160,6,8,32
      559                           .member _u_DP,192,4,8,32
      560                           .member _u_SP,224,4,8,32
      561                           .member _u_PT,256,4,8,32
      562                           .eos
      563                           .sym    _PRESSURE,0,8,13,288,.fake29
      564                           .stag   .fake30,192
      565                           .member _T,0,6,8,32
      566                           .member _etc0,32,6,8,32
      567                           .member _etc1,64,6,8,32
      568                           .member _etc2,96,6,8,32
      569                           .member _etc3,128,6,8,32
      570                           .member _etc4,160,6,8,32
      571                           .eos
      572                           .sym    _TMPT,0,8,13,192,.fake30
      573                           .stag   .fake31,42752
      574                           .member _watercut,0,8,8,1408,.fake6
      575                           .member _T,1408,8,8,1408,.fake6
      576                           .member _pressure,2816,8,8,1408,.fake6
      577                           .member _density,4224,8,8,1408,.fake6
      578                           .member _density_PDI_corrected,5632,6,8,32
      579                           .member _density_adj,5664,6,8,32
      580                           .member _density_oilST,5696,8,8,1408,.fake6
      581                           .member _density_oil,7104,8,8,1408,.fake6
      582                           .member _density_waterST,8512,8,8,1408,.fake6
      583                           .member _density_water,9920,8,8,1408,.fake6
      584                           .member _salinity,11328,8,8,1408,.fake6
      585                           .member _API_TABLE,12736,4,8,32
      586                           .member _a,12768,6,8,32
      587                           .member _Meter_Factor,12800,8,8,1408,.fake6
      588                           .member _Shrinkage,14208,8,8,1408,.fake6
      589                           .member _VCFo,15616,6,8,32
      590                           .member _VCFw,15648,6,8,32
      591                           .member _net_watercut,15680,6,8,32
      592                           .member _net_watercut_mass,15712,6,8,32
      593                           .member _Dadj,15744,6,8,32
      594                           .member _NET_FLOW_OIL,15776,8,8,1408,.fake6
TMS320C3x/4x COFF AssemblerVersion 5.12     Wed Jul 24 11:03:43 2019
Copyright (c) 1987-1999 Texas Instruments Incorporatedasm30.exe -@_3JG.AAB 

G:\workspace\EEA\V615\APP\SOURCE\ASM\dac.asm                         PAGE   12

      595                           .member _NET_FLOW_WATER,17184,8,8,1408,.fake6
      596                           .member _NET_FLOW_TOTAL,18592,8,8,1408,.fake6
      597                           .member _NET_OIL,20000,8,8,1408,.fake6
      598                           .member _NET_WATER,21408,8,8,1408,.fake6
      599                           .member _NET_TOTAL,22816,8,8,1408,.fake6
      600                           .member _AVG_NET_TOTAL,24224,8,8,1408,.fake6
      601                           .member _GROSS_OIL,25632,8,8,1408,.fake6
      602                           .member _gross_oil_whole_part,27040,11,8,64
      603                           .member _gross_oil_fract_part,27104,11,8,64
      604                           .member _GROSS_WATER,27168,8,8,1408,.fake6
      605                           .member _gross_water_whole_part,28576,11,8,64
      606                           .member _gross_water_fract_part,28640,11,8,64
      607                           .member _GROSS_TOTAL,28704,8,8,1408,.fake6
      608                           .member _AVG_GROSS_TOTAL,30112,8,8,1408,.fake6
      609                           .member _FLOW_OIL,31520,8,8,1408,.fake6
      610                           .member _FLOW_WATER,32928,8,8,1408,.fake6
      611                           .member _FLOW_TOTAL,34336,8,8,1408,.fake6
      612                           .member _PULSES_PER_ACCUM_UNIT,35744,14,8,32
      613                           .member _PULSE_TOTAL,35776,8,8,1408,.fake6
      614                           .member _PULSE_FLOW,37184,8,8,1408,.fake6
      615                           .member _PULSE_FREQ,38592,8,8,1408,.fake6
      616                           .member _PULSE_COUNTER,40000,14,8,32
      617                           .member _PULSE,40032,4,8,32
      618                           .member _CNT,40064,4,8,32
      619                           .member _PULSE_DELTA,40096,4,8,32
      620                           .member _PULSE_FACTOR,40128,6,8,32
      621                           .member _PULSE_STAT,40160,4,8,32
      622                           .member _enable_NET,40192,14,8,32
      623                           .member _enable_GROSS,40224,14,8,32
      624                           .member _enable_FLOW,40256,14,8,32
      625                           .member _enable_DENSITY,40288,14,8,32
      626                           .member _enable_PULSE,40320,14,8,32
      627                           .member _flow_class,40352,8,8,64,.fake8
      628                           .member _flow_unit,40416,8,8,64,.fake8
      629                           .member _accum_unit,40480,8,8,64,.fake8
      630                           .member _Z,40544,8,8,96,.fake7
      631                           .member _use_totalizer,40640,8,8,96,.fake7
      632                           .member _pulse_v,40736,8,8,64,.fake8
      633                           .member _pulse_class,40800,8,8,64,.fake8
      634                           .member _pulse_unit,40864,8,8,64,.fake8
      635                           .member _pulse_VALUE,40928,8,8,1408,.fake6
      636                           .member _USE_PDI_TEMP,42336,14,8,32
      637                           .member _USE_PDI_SALINITY,42368,14,8,32
      638                           .member _CALC_WC_DENSITY,42400,14,8,32
      639                           .member _MAN_TEMP,42432,14,8,32
      640                           .member _MAN_SALINITY,42464,14,8,32
      641                           .member _MAN_WATERCUT,42496,14,8,32
      642                           .member _MAN_DENSITY,42528,14,8,32
      643                           .member _MAN_PRESSURE,42560,14,8,32
      644                           .member _MAN_FLOW,42592,14,8,32
      645                           .member _AUTHORIZATION_CODE1,42624,14,8,32
      646                           .member _AUTHORIZATION_CODE2,42656,14,8,32
      647                           .member _AUTHORIZATION_CODE3,42688,14,8,32
      648                           .member _AUTHORIZATION_CODE4,42720,14,8,32
TMS320C3x/4x COFF AssemblerVersion 5.12     Wed Jul 24 11:03:43 2019
Copyright (c) 1987-1999 Texas Instruments Incorporatedasm30.exe -@_3JG.AAB 

G:\workspace\EEA\V615\APP\SOURCE\ASM\dac.asm                         PAGE   13

      649                           .eos
      650                           .sym    _FLOW_COMP,0,8,13,42752,.fake31
      651                           .stag   .fake32,2176
      652                           .member _WATERCUT,0,6,8,32
      653                           .member _FLOW_RATE,32,6,8,32
      654                           .member _TEMPERATURE,64,6,8,32
      655                           .member _DENSITY,96,6,8,32
      656                           .member _VISCOSITY,128,6,8,32
      657                           .member _iWATERCUTz,160,4,8,32
      658                           .member _iWATERCUT,192,4,8,32
      659                           .member _iFLOW_RATE,224,4,8,32
      660                           .member _iTEMPERATURE,256,4,8,32
      661                           .member _iDENSITY,288,4,8,32
      662                           .member _iVISCOSITY,320,4,8,32
      663                           .member _maxWATERCUTz,352,6,8,32
      664                           .member _maxWATERCUT,384,6,8,32
      665                           .member _maxFLOW_RATE,416,6,8,32
      666                           .member _maxTEMPERATURE,448,6,8,32
      667                           .member _maxDENSITY,480,6,8,32
      668                           .member _maxVISCOSITY,512,6,8,32
      669                           .member _minWATERCUTz,544,6,8,32
      670                           .member _minWATERCUT,576,6,8,32
      671                           .member _minFLOW_RATE,608,6,8,32
      672                           .member _minTEMPERATURE,640,6,8,32
      673                           .member _minDENSITY,672,6,8,32
      674                           .member _minVISCOSITY,704,6,8,32
      675                           .member _ENABLED,736,14,8,32
      676                           .member _DESTINATION_ADDRESS,768,8,8,1408,.fake6
      677                           .eos
      678                           .sym    _ALYESKA_STRUCT,0,8,13,2176,.fake32
      679                           .stag   .fake33,2464
      680                           .member _ENABLED,0,8,8,96,.fake7
      681                           .member _flow_threshold,96,8,8,1408,.fake6
      682                           .member _S3,1504,6,8,32
      683                           .member _S2,1536,6,8,32
      684                           .member _S1,1568,6,8,32
      685                           .member _S0,1600,6,8,32
      686                           .member _Fmin,1632,6,8,32
      687                           .member _Dmin,1664,6,8,32
      688                           .member _Dmax,1696,6,8,32
      689                           .member _CHANGED,1728,14,8,32
      690                           .member _PURGING,1760,14,8,32
      691                           .member _TEST_IN_PROGRESS,1792,14,8,32
      692                           .member _SP3A,1824,6,8,32
      693                           .member _SP2A,1856,6,8,32
      694                           .member _SP1A,1888,6,8,32
      695                           .member _SP0A,1920,6,8,32
      696                           .member _SPLOA,1952,6,8,32
      697                           .member _SPHIA,1984,6,8,32
      698                           .member _SP3B,2016,6,8,32
      699                           .member _SP2B,2048,6,8,32
      700                           .member _SP1B,2080,6,8,32
      701                           .member _SP0B,2112,6,8,32
      702                           .member _SPLOB,2144,6,8,32
TMS320C3x/4x COFF AssemblerVersion 5.12     Wed Jul 24 11:03:43 2019
Copyright (c) 1987-1999 Texas Instruments Incorporatedasm30.exe -@_3JG.AAB 

G:\workspace\EEA\V615\APP\SOURCE\ASM\dac.asm                         PAGE   14

      703                           .member _SPHIB,2176,6,8,32
      704                           .member _FBHI3,2208,6,8,32
      705                           .member _FBHI2,2240,6,8,32
      706                           .member _FBHI1,2272,6,8,32
      707                           .member _FBHI0,2304,6,8,32
      708                           .member _FBLO3,2336,6,8,32
      709                           .member _FBLO2,2368,6,8,32
      710                           .member _FBLO1,2400,6,8,32
      711                           .member _FBLO0,2432,6,8,32
      712                           .eos
      713                           .sym    _HS_STRUCT,0,8,13,2464,.fake33
      714                           .file   "G:\workspace\EEA\V615\APP\SOURCE\INCLUDE\HART.H"
      715                           .file   "G:\workspace\EEA\V615\APP\SOURCE\INCLUDE\MODBUSRTU.H"
      716                           .file   "G:\workspace\EEA\V615\APP\SOURCE\INCLUDE\MISC.H"
      717                           .file   "G:\workspace\EEA\V615\APP\SOURCE\INCLUDE\API.H"
      718                           .file   "dac.c"
      719 00000000                  .sect    ".text"
      720                   
      721                           .global _Write_DAC
      722                           .sym    _Write_DAC,_Write_DAC,32,2,0
      723                           .func   40
      724                   ;******************************************************************************
      725                   ;* FUNCTION NAME: _Write_DAC                                                  *
      726                   ;*                                                                            *
      727                   ;*   Architecture       : TMS320C33                                           *
      728                   ;*   Calling Convention : TI Standard Register Parameters                     *
      729                   ;*   Function Uses Regs : f0,r0,f1,r1,f2,r2,r3,ar0,ar1,ar2,fp,ir0,ir1,st,rc   *
      730                   ;*   Regs Saved         :                                                     *
      731                   ;*   Stack Frame        : Full (w/ debug)                                     *
      732                   ;*   Total Frame Size   : 2 Call + 0 Parm + 12 Auto + 0 SOE = 14 words        *
      733                   ;******************************************************************************
      734 00000000          _Write_DAC:
      735                   ;* ar2   assigned to _n
      736                           .sym    _n,10,4,17,32
      737                           .sym    _n,1,4,1,32
      738                           .sym    _i,2,4,1,32
      739                           .sym    _t,3,6,1,32
      740                           .sym    _v,4,6,1,32
      741                           .sym    _pt,5,62,1,160,,5
      742                           .sym    _r,10,14,1,32
      743                           .sym    _ext_mb,11,14,1,32
      744                           .sym    _addr,12,4,1,32
      745                           .line   1
      746                   ;----------------------------------------------------------------------
      747                   ;  40 | void Write_DAC(int n)                                                  
      748                   ;----------------------------------------------------------------------
      749 00000000 0f2b0000         push      fp
      750 00000001 500b0014         ldiu      sp,fp
      751 00000002 0274000c         addi      12,sp
      752                           .line   2
      753                   ;----------------------------------------------------------------------
      754                   ;  42 | int     i;                              /* value written to DAC */     
      755                   ;  43 | float   t;                              /* temp value to help with i */
      756                   ;  44 | float   v;                              /* DAC value */                
TMS320C3x/4x COFF AssemblerVersion 5.12     Wed Jul 24 11:03:43 2019
Copyright (c) 1987-1999 Texas Instruments Incorporatedasm30.exe -@_3JG.AAB 

G:\workspace\EEA\V615\APP\SOURCE\ASM\dac.asm                         PAGE   15

      757                   ;  45 | unsigned int pt[5];             /* buffer */                           
      758                   ;  46 | BOOL r,ext_mb;                  /* r - successful config; ext_mb - enab
      759                   ;     | le exteneded modbus table */                                           
      760                   ;  47 | int addr;                               /* DAC Address */              
      761                   ;----------------------------------------------------------------------
      762 00000003 154a0301         sti       ar2,*+fp(1)           ; |41| 
      763                           .line   10
      764                   ;----------------------------------------------------------------------
      765                   ;  49 | _GIEP;                                                                 
      766                   ;----------------------------------------------------------------------
      767 00000004 0f350000         push    ST                      
      768 00000005 03752000         andn    2000h, ST       
      769                           .line   12
      770                   ;----------------------------------------------------------------------
      771                   ;  51 | v = REG_DAC[n].val;                                                    
      772                   ;----------------------------------------------------------------------
      773 00000006 5011000a         ldiu      ar2,ir0               ; |51| 
      774 00000007 08700000-        ldp       @CL1,DP
      775 00000008 0af1002c         mpyi      44,ir0                ; |51| 
      776 00000009 5028000c-        ldiu      @CL1,ar0              ; |51| 
      777 0000000a 40404000         ldfu      *+ar0(ir0),f0         ; |51| 
      778 0000000b 14400304         stf       f0,*+fp(4)            ; |51| 
      779                           .line   14
      780                   ;----------------------------------------------------------------------
      781                   ;  53 | if (v < 0.0)                                                           
      782                   ;----------------------------------------------------------------------
      783 0000000c 04608000         cmpf      0.0000000000e+00,f0   ; |53| 
      784 0000000d 6a0a0002         bge       L3                    ; |53| 
      785                   ;*      Branch Occurs to L3             ; |53| 
      786                           .line   15
      787                   ;----------------------------------------------------------------------
      788                   ;  54 | v = 0.0;                                                               
      789                   ;----------------------------------------------------------------------
      790 0000000e 40608000         ldfu      0.0000000000e+00,f0   ; |54| 
      791 0000000f 14400304         stf       f0,*+fp(4)            ; |54| 
      792 00000010          L3:        
      793                           .line   17
      794                   ;----------------------------------------------------------------------
      795                   ;  56 | if (SA)                                                                
      796                   ;----------------------------------------------------------------------
      797 00000010 08700000-        ldp       @CL2,DP
      798 00000011 5028000d-        ldiu      @CL2,ar0              ; |56| 
      799 00000012 5040c000         ldiu      *ar0,r0               ; |56| 
      800 00000013 04e00000         cmpi      0,r0                  ; |56| 
      801 00000014 6a0500af         beq       L23                   ; |56| 
      802                   ;*      Branch Occurs to L23            ; |56| 
      803                           .line   19
      804                   ;----------------------------------------------------------------------
      805                   ;  58 | if ((n!=DAC_VTUNE) && (n!=DAC_Aout1))                                  
      806                   ;----------------------------------------------------------------------
      807 00000015 50400301         ldiu      *+fp(1),r0            ; |58| 
      808 00000016 04e0000a         cmpi      10,r0                 ; |58| 
      809 00000017 6a05000b         beq       L7                    ; |58| 
      810                   ;*      Branch Occurs to L7             ; |58| 
TMS320C3x/4x COFF AssemblerVersion 5.12     Wed Jul 24 11:03:43 2019
Copyright (c) 1987-1999 Texas Instruments Incorporatedasm30.exe -@_3JG.AAB 

G:\workspace\EEA\V615\APP\SOURCE\ASM\dac.asm                         PAGE   16

      811 00000018 04e00000         cmpi      0,r0                  ; |58| 
      812 00000019 6a050009         beq       L7                    ; |58| 
      813                   ;*      Branch Occurs to L7             ; |58| 
      814                           .line   21
      815                   ;----------------------------------------------------------------------
      816                   ;  60 | VAR_NaN(&REG_DAC[n]);                                                  
      817                   ;----------------------------------------------------------------------
      818 0000001a 500a0000         ldiu      r0,ar2
      819 0000001b 08700000-        ldp       @CL1,DP
      820 0000001c 0aea002c         mpyi      44,ar2                ; |60| 
      821 0000001d 022a000c-        addi      @CL1,ar2              ; |60| Unsigned
      822 0000001e 08700000-        ldp       @CL3,DP
      823 0000001f 5020000e-        ldiu      @CL3,r0               ; |60| 
      824 00000020 70000000         callu     r0                    ; far call to _VAR_NaN  ; |60| 
      825                                                           ; |60| Far Call Occurs
      826                           .line   22
      827                   ;----------------------------------------------------------------------
      828                   ;  61 | GIEP;                                                                  
      829                   ;----------------------------------------------------------------------
      830 00000021 0e350000         pop             ST                      
      831                           .line   24
      832                   ;----------------------------------------------------------------------
      833                   ;  63 | return;                                                                
      834                   ;----------------------------------------------------------------------
      835 00000022 6a00018f         bu        L51                   ; |63| 
      836                   ;*      Branch Occurs to L51            ; |63| 
      837 00000023          L7:        
      838                           .line   27
      839                   ;----------------------------------------------------------------------
      840                   ;  66 | i = (int)(v*DAC_TRIM_I_1[n] / DAC_TRIM_F_1[n]);                        
      841                   ;----------------------------------------------------------------------
      842 00000023 08700000-        ldp       @CL4,DP
      843 00000024 50520301         ldiu      *+fp(1),ir1           ; |66| 
      844 00000025 5029000f-        ldiu      @CL4,ar1              ; |66| 
      845 00000026 08700000-        ldp       @CL5,DP
      846 00000027 50110012         ldiu      ir1,ir0               ; |66| 
      847 00000028 50280010-        ldiu      @CL5,ar0              ; |66| 
      848 00000029 05c08100         float     *+ar1(ir1),f0         ; |66| 
      849 0000002a 40414000         ldfu      *+ar0(ir0),f1         ; |66| 
      850 0000002b 0a400304         mpyf      *+fp(4),f0            ; |66| 
      851 0000002c 62000000!        call      DIV_F30               ; |66| 
      852                                                           ; |66| Call Occurs
      853 0000002d 0b820000         negf      f0,f2                 ; |66| 
      854 0000002e 05010000         fix       f0,r1                 ; |66| 
      855 0000002f 05000002         fix       f2,r0                 ; |66| 
      856 00000030 0c000000         negi      r0,r0                 ; |66| 
      857 00000031 54010000         ldile     r0,r1                 ; |66| 
      858 00000032 15410302         sti       r1,*+fp(2)            ; |66| 
      859                           .line   28
      860                   ;----------------------------------------------------------------------
      861                   ;  67 | t = (v*DAC_TRIM_I_1[n]/DAC_TRIM_F_1[n]) - (float)i;                    
      862                   ;----------------------------------------------------------------------
      863 00000033 08700000-        ldp       @CL4,DP
      864 00000034 5028000f-        ldiu      @CL4,ar0              ; |67| 
TMS320C3x/4x COFF AssemblerVersion 5.12     Wed Jul 24 11:03:43 2019
Copyright (c) 1987-1999 Texas Instruments Incorporatedasm30.exe -@_3JG.AAB 

G:\workspace\EEA\V615\APP\SOURCE\ASM\dac.asm                         PAGE   17

      865 00000035 50510301         ldiu      *+fp(1),ir0           ; |67| 
      866 00000036 08700000-        ldp       @CL5,DP
      867 00000037 50120011         ldiu      ir0,ir1               ; |67| 
      868 00000038 50290010-        ldiu      @CL5,ar1              ; |67| 
      869 00000039 05c04000         float     *+ar0(ir0),f0         ; |67| 
      870 0000003a 40418100         ldfu      *+ar1(ir1),f1         ; |67| 
      871 0000003b 0a400304         mpyf      *+fp(4),f0            ; |67| 
      872 0000003c 62000000!        call      DIV_F30               ; |67| 
      873                                                           ; |67| Call Occurs
      874 0000003d 05c10302         float     *+fp(2),f1            ; |67| 
      875 0000003e 19010000         subrf     f0,f1                 ; |67| 
      876 0000003f 14410303         stf       f1,*+fp(3)            ; |67| 
      877                           .line   30
      878                   ;----------------------------------------------------------------------
      879                   ;  69 | if (t>=0.5)                                                            
      880                   ;----------------------------------------------------------------------
      881 00000040 08700000-        ldp       @CL6,DP
      882 00000041 40000001         ldfu      f1,f0
      883 00000042 04200011-        cmpf      @CL6,f0               ; |69| 
      884 00000043 6a070003         blt       L9                    ; |69| 
      885                   ;*      Branch Occurs to L9             ; |69| 
      886                           .line   31
      887                   ;----------------------------------------------------------------------
      888                   ;  70 | i++;                                                                   
      889                   ;----------------------------------------------------------------------
      890 00000044 50600001         ldiu      1,r0                  ; |70| 
      891 00000045 02400302         addi      *+fp(2),r0            ; |70| 
      892 00000046 15400302         sti       r0,*+fp(2)            ; |70| 
      893 00000047          L9:        
      894                           .line   33
      895                   ;----------------------------------------------------------------------
      896                   ;  72 | if (i > DAC_TRIM_I_1[n])                                               
      897                   ;----------------------------------------------------------------------
      898 00000047 08700000-        ldp       @CL4,DP
      899 00000048 50510301         ldiu      *+fp(1),ir0           ; |72| 
      900 00000049 5028000f-        ldiu      @CL4,ar0              ; |72| 
      901 0000004a 50400302         ldiu      *+fp(2),r0            ; |72| 
      902 0000004b 23c00040         cmpi3     *+ar0(ir0),r0         ; |72| 
      903 0000004c 6a080005         ble       L11                   ; |72| 
      904                   ;*      Branch Occurs to L11            ; |72| 
      905                           .line   34
      906                   ;----------------------------------------------------------------------
      907                   ;  73 | i = DAC_TRIM_I_1[n];                                                   
      908                   ;----------------------------------------------------------------------
      909 0000004d 08700000-        ldp       @CL4,DP
      910 0000004e 5028000f-        ldiu      @CL4,ar0              ; |73| 
      911 0000004f 50404000         ldiu      *+ar0(ir0),r0         ; |73| 
      912 00000050 15400302         sti       r0,*+fp(2)            ; |73| 
      913 00000051 6a000005         bu        L13                   ; |39| 
      914                   ;*      Branch Occurs to L13            ; |39| 
      915 00000052          L11:        
      916                           .line   35
      917                   ;----------------------------------------------------------------------
      918                   ;  74 | else if (i<0)                                                          
TMS320C3x/4x COFF AssemblerVersion 5.12     Wed Jul 24 11:03:43 2019
Copyright (c) 1987-1999 Texas Instruments Incorporatedasm30.exe -@_3JG.AAB 

G:\workspace\EEA\V615\APP\SOURCE\ASM\dac.asm                         PAGE   18

      919                   ;----------------------------------------------------------------------
      920 00000052 50400302         ldiu      *+fp(2),r0            ; |74| 
      921 00000053 04e00000         cmpi      0,r0                  ; |74| 
      922 00000054 6a0a0002         bge       L13                   ; |74| 
      923                   ;*      Branch Occurs to L13            ; |74| 
      924                           .line   36
      925                   ;----------------------------------------------------------------------
      926                   ;  75 | i = 0;                                                                 
      927                   ;----------------------------------------------------------------------
      928 00000055 50600000         ldiu      0,r0                  ; |75| 
      929 00000056 15400302         sti       r0,*+fp(2)            ; |75| 
      930 00000057          L13:        
      931                           .line   38
      932                   ;----------------------------------------------------------------------
      933                   ;  77 | VAR_Update(&REG_DAC[n], (float)i*DAC_TRIM_F_1[n]/DAC_TRIM_I_1[n], 0, 0)
      934                   ;     | ;                                                                      
      935                   ;----------------------------------------------------------------------
      936 00000057 08700000-        ldp       @CL5,DP
      937 00000058 50520301         ldiu      *+fp(1),ir1           ; |77| 
      938 00000059 50280010-        ldiu      @CL5,ar0              ; |77| 
      939 0000005a 05c00302         float     *+fp(2),f0            ; |77| 
      940 0000005b 08700000-        ldp       @CL4,DP
      941 0000005c 50110012         ldiu      ir1,ir0               ; |77| 
      942 0000005d 5029000f-        ldiu      @CL4,ar1              ; |77| 
      943 0000005e 24c00080         mpyf3     *+ar0(ir1),f0,f0      ; |77| 
      944 0000005f 05c14100         float     *+ar1(ir0),f1         ; |77| 
      945 00000060 62000000!        call      DIV_F30               ; |77| 
      946                                                           ; |77| Call Occurs
      947 00000061 506100ff         ldiu      255,r1                ; |77| 
      948 00000062 08700000-        ldp       @CL7,DP
      949 00000063 40020000         ldfu      f0,f2                 ; |77| Move F32 into F40 for CONV
      950 00000064 504a0301         ldiu      *+fp(1),ar2           ; |77| 
      951 00000065 507b0000         ldiu      0,rc                  ; |77| 
      952 00000066 50200012-        ldiu      @CL7,r0               ; |77| 
      953 00000067 0aea002c         mpyi      44,ar2                ; |77| 
      954 00000068 08700000-        ldp       @CL1,DP
      955 00000069 03020001         andn      r1,f2                 ; |77| Bit mask for F32/F40 conversion
      956 0000006a 022a000c-        addi      @CL1,ar2              ; |77| Unsigned
      957 0000006b 50630000         ldiu      0,r3                  ; |77| 
      958 0000006c 70000000         callu     r0                    ; far call to _VAR_Update       ; |77| 
      959                                                           ; |77| Far Call Occurs
      960                           .line   40
      961                   ;----------------------------------------------------------------------
      962                   ;  79 | DAC_INT[n] = i;                                                        
      963                   ;  81 | switch(n)                                                              
      964                   ;  83 |         case DAC_VTUNE:                                                
      965                   ;----------------------------------------------------------------------
      966 0000006d 08700000-        ldp       @CL8,DP
      967 0000006e 50510301         ldiu      *+fp(1),ir0           ; |79| 
      968 0000006f 50280013-        ldiu      @CL8,ar0              ; |79| 
      969 00000070 50400302         ldiu      *+fp(2),r0            ; |79| 
      970 00000071 15404000         sti       r0,*+ar0(ir0)         ; |79| 
      971 00000072 6a000032         bu        L17                   ; |39| 
      972                   ;*      Branch Occurs to L17            ; |39| 
TMS320C3x/4x COFF AssemblerVersion 5.12     Wed Jul 24 11:03:43 2019
Copyright (c) 1987-1999 Texas Instruments Incorporatedasm30.exe -@_3JG.AAB 

G:\workspace\EEA\V615\APP\SOURCE\ASM\dac.asm                         PAGE   19

      973 00000073          L14:        
      974                           .line   46
      975                   ;----------------------------------------------------------------------
      976                   ;  85 | SEL_DAC0;                                                              
      977                   ;----------------------------------------------------------------------
      978 00000073 08780062         ldi             62h,IOF         
      979                           .line   47
      980                   ;----------------------------------------------------------------------
      981                   ;  86 | *SP0_TXDATA = i|DAC_FASTMODE;                                          
      982                   ;----------------------------------------------------------------------
      983 00000074 08700000-        ldp       @CL9,DP
      984 00000075 50604000         ldiu      16384,r0              ; |86| 
      985 00000076 50280014-        ldiu      @CL9,ar0              ; |86| 
      986 00000077 10400302         or        *+fp(2),r0            ; |86| 
      987 00000078 1540c000         sti       r0,*ar0               ; |86| 
      988                           .line   48
      989                   ;----------------------------------------------------------------------
      990                   ;  87 | WAIT_SP0;                                                              
      991                   ;----------------------------------------------------------------------
      992 00000079 08700000-        ldp       @CL11,DP
      993 0000007a 50280016-        ldiu      @CL11,ar0             ; |87| 
      994 0000007b 08700000-        ldp       @CL10,DP
      995 0000007c 50290015-        ldiu      @CL10,ar1             ; |87| 
      996 0000007d 5040c000         ldiu      *ar0,r0               ; |87| 
      997 0000007e 02e0ffff         and       65535,r0              ; |87| 
      998 0000007f 1540c100         sti       r0,*ar1               ; |87| 
      999 00000080 1a770020         tstb    0020h, IF       
     1000 00000081 6a05fffe         .word   6A05FFFEh       
     1001 00000082 03770020         andn    0020h, IF
     1002 00000083 08780022         ldi             22h,IOF         
     1003 00000084 08700000-        ldp       @CL11,DP
     1004 00000085 50280016-        ldiu      @CL11,ar0             ; |87| 
     1005 00000086 08700000-        ldp       @CL10,DP
     1006 00000087 50290015-        ldiu      @CL10,ar1             ; |87| 
     1007 00000088 5040c000         ldiu      *ar0,r0               ; |87| 
     1008 00000089 02e0ffff         and       65535,r0              ; |87| 
     1009 0000008a 1540c100         sti       r0,*ar1               ; |87| 
     1010                           .line   50
     1011                   ;----------------------------------------------------------------------
     1012                   ;  89 | break;                                                                 
     1013                   ;  91 | case DAC_Aout1:                                                        
     1014                   ;----------------------------------------------------------------------
     1015 0000008b 6a00001e         bu        L19                   ; |89| 
     1016                   ;*      Branch Occurs to L19            ; |89| 
     1017 0000008c          L15:        
     1018                           .line   54
     1019                   ;----------------------------------------------------------------------
     1020                   ;  93 | SEL_DAC1;                                                              
     1021                   ;----------------------------------------------------------------------
     1022 0000008c 08780066         ldi             66h,IOF         
     1023                           .line   55
     1024                   ;----------------------------------------------------------------------
     1025                   ;  94 | *SP0_TXDATA = i|DAC_FASTMODE;                                          
     1026                   ;----------------------------------------------------------------------
TMS320C3x/4x COFF AssemblerVersion 5.12     Wed Jul 24 11:03:43 2019
Copyright (c) 1987-1999 Texas Instruments Incorporatedasm30.exe -@_3JG.AAB 

G:\workspace\EEA\V615\APP\SOURCE\ASM\dac.asm                         PAGE   20

     1027 0000008d 08700000-        ldp       @CL9,DP
     1028 0000008e 50604000         ldiu      16384,r0              ; |94| 
     1029 0000008f 50280014-        ldiu      @CL9,ar0              ; |94| 
     1030 00000090 10400302         or        *+fp(2),r0            ; |94| 
     1031 00000091 1540c000         sti       r0,*ar0               ; |94| 
     1032                           .line   56
     1033                   ;----------------------------------------------------------------------
     1034                   ;  95 | WAIT_SP0;                                                              
     1035                   ;----------------------------------------------------------------------
     1036 00000092 08700000-        ldp       @CL11,DP
     1037 00000093 50290016-        ldiu      @CL11,ar1             ; |95| 
     1038 00000094 08700000-        ldp       @CL10,DP
     1039 00000095 5040c100         ldiu      *ar1,r0               ; |95| 
     1040 00000096 50280015-        ldiu      @CL10,ar0             ; |95| 
     1041 00000097 02e0ffff         and       65535,r0              ; |95| 
     1042 00000098 1540c000         sti       r0,*ar0               ; |95| 
     1043 00000099 1a770020         tstb    0020h, IF       
     1044 0000009a 6a05fffe         .word   6A05FFFEh       
     1045 0000009b 03770020         andn    0020h, IF
     1046 0000009c 08780022         ldi             22h,IOF         
     1047 0000009d 08700000-        ldp       @CL11,DP
     1048 0000009e 50290016-        ldiu      @CL11,ar1             ; |95| 
     1049 0000009f 08700000-        ldp       @CL10,DP
     1050 000000a0 50280015-        ldiu      @CL10,ar0             ; |95| 
     1051 000000a1 5040c100         ldiu      *ar1,r0               ; |95| 
     1052 000000a2 02e0ffff         and       65535,r0              ; |95| 
     1053 000000a3 1540c000         sti       r0,*ar0               ; |95| 
     1054                           .line   58
     1055                   ;----------------------------------------------------------------------
     1056                   ;  97 | break;                                                                 
     1057                   ;----------------------------------------------------------------------
     1058 000000a4 6a000005         bu        L19                   ; |97| 
     1059                   ;*      Branch Occurs to L19            ; |97| 
     1060 000000a5          L17:        
     1061                           .line   42
     1062 000000a5 50400301         ldiu      *+fp(1),r0            ; |81| 
     1063 000000a6 04e00000         cmpi      0,r0                  ; |81| 
     1064 000000a7 6a05ffe4         beq       L15                   ; |81| 
     1065                   ;*      Branch Occurs to L15            ; |81| 
     1066 000000a8 04e0000a         cmpi      10,r0                 ; |81| 
     1067 000000a9 6a05ffc9         beq       L14                   ; |81| 
     1068                   ;*      Branch Occurs to L14            ; |81| 
     1069 000000aa          L19:        
     1070                           .line   62
     1071                   ;----------------------------------------------------------------------
     1072                   ; 101 | if ((REG_DAC[n].STAT & var_NaNum) && (n<AO_NLOOPS))                    
     1073                   ;----------------------------------------------------------------------
     1074 000000aa 50510301         ldiu      *+fp(1),ir0           ; |101| 
     1075 000000ab 08700000-        ldp       @CL12,DP
     1076 000000ac 0af1002c         mpyi      44,ir0                ; |101| 
     1077 000000ad 50280017-        ldiu      @CL12,ar0             ; |101| 
     1078 000000ae 50600008         ldiu      8,r0                  ; |101| 
     1079 000000af 27c00040         tstb3     *+ar0(ir0),r0         ; |101| 
     1080 000000b0 6a050011         beq       L22                   ; |101| 
TMS320C3x/4x COFF AssemblerVersion 5.12     Wed Jul 24 11:03:43 2019
Copyright (c) 1987-1999 Texas Instruments Incorporatedasm30.exe -@_3JG.AAB 

G:\workspace\EEA\V615\APP\SOURCE\ASM\dac.asm                         PAGE   21

     1081                   ;*      Branch Occurs to L22            ; |101| 
     1082 000000b1 50400301         ldiu      *+fp(1),r0            ; |101| 
     1083 000000b2 04e00009         cmpi      9,r0                  ; |101| 
     1084 000000b3 6a0a000e         bge       L22                   ; |101| 
     1085                   ;*      Branch Occurs to L22            ; |101| 
     1086                           .line   64
     1087                   ;----------------------------------------------------------------------
     1088                   ; 103 | VAR_NaN(&AO[n].CURRENT);                                               
     1089                   ;----------------------------------------------------------------------
     1090 000000b4 500a0000         ldiu      r0,ar2
     1091 000000b5 08700000-        ldp       @CL13,DP
     1092 000000b6 0aea01a3         mpyi      419,ar2               ; |103| 
     1093 000000b7 022a0018-        addi      @CL13,ar2             ; |103| Unsigned
     1094 000000b8 08700000-        ldp       @CL3,DP
     1095 000000b9 5020000e-        ldiu      @CL3,r0               ; |103| 
     1096 000000ba 70000000         callu     r0                    ; far call to _VAR_NaN  ; |103| 
     1097                                                           ; |103| Far Call Occurs
     1098                           .line   65
     1099                   ;----------------------------------------------------------------------
     1100                   ; 104 | VAR_NaN(&AO[n].CURRENT_PERCENT_OF_RANGE);                              
     1101                   ;----------------------------------------------------------------------
     1102 000000bb 08700000-        ldp       @CL14,DP
     1103 000000bc 504a0301         ldiu      *+fp(1),ar2           ; |104| 
     1104 000000bd 0aea01a3         mpyi      419,ar2               ; |104| 
     1105 000000be 022a0019-        addi      @CL14,ar2             ; |104| Unsigned
     1106 000000bf 08700000-        ldp       @CL3,DP
     1107 000000c0 5020000e-        ldiu      @CL3,r0               ; |104| 
     1108 000000c1 70000000         callu     r0                    ; far call to _VAR_NaN  ; |104| 
     1109                                                           ; |104| Far Call Occurs
     1110 000000c2          L22:        
     1111                           .line   68
     1112                   ;----------------------------------------------------------------------
     1113                   ; 107 | GIEP;                                                                  
     1114                   ;----------------------------------------------------------------------
     1115 000000c2 0e350000         pop             ST                      
     1116                           .line   70
     1117                   ;----------------------------------------------------------------------
     1118                   ; 109 | return;                                                                
     1119                   ;----------------------------------------------------------------------
     1120 000000c3 6a0000ee         bu        L51                   ; |109| 
     1121                   ;*      Branch Occurs to L51            ; |109| 
     1122 000000c4          L23:        
     1123                           .line   73
     1124                   ;----------------------------------------------------------------------
     1125                   ; 112 | ext_mb = FALSE;                                                        
     1126                   ; 114 | switch(n)                                                              
     1127                   ; 116 |         case DAC_OSCSEL:                                               
     1128                   ;----------------------------------------------------------------------
     1129 000000c4 50600000         ldiu      0,r0                  ; |112| 
     1130 000000c5 1540030b         sti       r0,*+fp(11)           ; |112| 
     1131 000000c6 6a00005b         bu        L35                   ; |39| 
     1132                   ;*      Branch Occurs to L35            ; |39| 
     1133 000000c7          L24:        
     1134                           .line   79
TMS320C3x/4x COFF AssemblerVersion 5.12     Wed Jul 24 11:03:43 2019
Copyright (c) 1987-1999 Texas Instruments Incorporatedasm30.exe -@_3JG.AAB 

G:\workspace\EEA\V615\APP\SOURCE\ASM\dac.asm                         PAGE   22

     1135                   ;----------------------------------------------------------------------
     1136                   ; 118 | addr  = DAC_ADDRA1;                                                    
     1137                   ;----------------------------------------------------------------------
     1138 000000c7 50600098         ldiu      152,r0                ; |118| 
     1139 000000c8 1540030c         sti       r0,*+fp(12)           ; |118| 
     1140                           .line   80
     1141                   ;----------------------------------------------------------------------
     1142                   ; 119 | pt[0] = 0x12;                                                          
     1143                   ;----------------------------------------------------------------------
     1144 000000c9 5008000b         ldiu      fp,ar0                ; |119| 
     1145 000000ca 02680005         addi      5,ar0                 ; |119| 
     1146 000000cb 50600012         ldiu      18,r0                 ; |119| 
     1147 000000cc 1540c000         sti       r0,*ar0               ; |119| 
     1148                           .line   82
     1149                   ;----------------------------------------------------------------------
     1150                   ; 121 | break;                                                                 
     1151                   ; 123 | case DAC_VTUNE:                                                        
     1152                   ;----------------------------------------------------------------------
     1153 000000cd 6a000067         bu        L37                   ; |121| 
     1154                   ;*      Branch Occurs to L37            ; |121| 
     1155 000000ce          L25:        
     1156                           .line   86
     1157                   ;----------------------------------------------------------------------
     1158                   ; 125 | addr  = DAC_ADDRA1;                                                    
     1159                   ;----------------------------------------------------------------------
     1160 000000ce 50600098         ldiu      152,r0                ; |125| 
     1161 000000cf 1540030c         sti       r0,*+fp(12)           ; |125| 
     1162                           .line   87
     1163                   ;----------------------------------------------------------------------
     1164                   ; 126 | pt[0] = 0x14;                                                          
     1165                   ;----------------------------------------------------------------------
     1166 000000d0 5008000b         ldiu      fp,ar0                ; |126| 
     1167 000000d1 02680005         addi      5,ar0                 ; |126| 
     1168 000000d2 50600014         ldiu      20,r0                 ; |126| 
     1169 000000d3 1540c000         sti       r0,*ar0               ; |126| 
     1170                           .line   89
     1171                   ;----------------------------------------------------------------------
     1172                   ; 128 | break;                                                                 
     1173                   ; 130 | case DAC_TUNESEL:                                                      
     1174                   ;----------------------------------------------------------------------
     1175 000000d4 6a000060         bu        L37                   ; |128| 
     1176                   ;*      Branch Occurs to L37            ; |128| 
     1177 000000d5          L26:        
     1178                           .line   93
     1179                   ;----------------------------------------------------------------------
     1180                   ; 132 | addr  = DAC_ADDRA1;                                                    
     1181                   ;----------------------------------------------------------------------
     1182 000000d5 50600098         ldiu      152,r0                ; |132| 
     1183 000000d6 1540030c         sti       r0,*+fp(12)           ; |132| 
     1184                           .line   94
     1185                   ;----------------------------------------------------------------------
     1186                   ; 133 | pt[0] = 0x16;                                                          
     1187                   ;----------------------------------------------------------------------
     1188 000000d7 5008000b         ldiu      fp,ar0                ; |133| 
TMS320C3x/4x COFF AssemblerVersion 5.12     Wed Jul 24 11:03:43 2019
Copyright (c) 1987-1999 Texas Instruments Incorporatedasm30.exe -@_3JG.AAB 

G:\workspace\EEA\V615\APP\SOURCE\ASM\dac.asm                         PAGE   23

     1189 000000d8 02680005         addi      5,ar0                 ; |133| 
     1190 000000d9 50600016         ldiu      22,r0                 ; |133| 
     1191 000000da 1540c000         sti       r0,*ar0               ; |133| 
     1192                           .line   96
     1193                   ;----------------------------------------------------------------------
     1194                   ; 135 | break;                                                                 
     1195                   ; 137 | case DAC_Aout1:                                                        
     1196                   ;----------------------------------------------------------------------
     1197 000000db 6a000059         bu        L37                   ; |135| 
     1198                   ;*      Branch Occurs to L37            ; |135| 
     1199 000000dc          L27:        
     1200                           .line   100
     1201                   ;----------------------------------------------------------------------
     1202                   ; 139 | addr                                    = DAC_ADDRA1;                  
     1203                   ;----------------------------------------------------------------------
     1204 000000dc 50600098         ldiu      152,r0                ; |139| 
     1205 000000dd 1540030c         sti       r0,*+fp(12)           ; |139| 
     1206                           .line   101
     1207                   ;----------------------------------------------------------------------
     1208                   ; 140 | pt[0]                                   = 0x10;                        
     1209                   ;----------------------------------------------------------------------
     1210 000000de 5008000b         ldiu      fp,ar0                ; |140| 
     1211 000000df 02680005         addi      5,ar0                 ; |140| 
     1212 000000e0 50600010         ldiu      16,r0                 ; |140| 
     1213 000000e1 1540c000         sti       r0,*ar0               ; |140| 
     1214                           .line   102
     1215                   ;----------------------------------------------------------------------
     1216                   ; 141 | AO[n-DAC_Aout1].present = TRUE;                                        
     1217                   ;----------------------------------------------------------------------
     1218 000000e2 08700000-        ldp       @CL15,DP
     1219 000000e3 50510301         ldiu      *+fp(1),ir0           ; |141| 
     1220 000000e4 0af101a3         mpyi      419,ir0               ; |141| 
     1221 000000e5 5028001a-        ldiu      @CL15,ar0             ; |141| 
     1222 000000e6 50600001         ldiu      1,r0                  ; |141| 
     1223 000000e7 15404000         sti       r0,*+ar0(ir0)         ; |141| 
     1224                           .line   103
     1225                   ;----------------------------------------------------------------------
     1226                   ; 142 | break;                                                                 
     1227                   ; 144 | case DAC_Aout2:                                                        
     1228                   ;----------------------------------------------------------------------
     1229 000000e8 6a00004c         bu        L37                   ; |142| 
     1230                   ;*      Branch Occurs to L37            ; |142| 
     1231 000000e9          L28:        
     1232                           .line   107
     1233                   ;----------------------------------------------------------------------
     1234                   ; 146 | addr                                    = DAC_ADDRA2;                  
     1235                   ;----------------------------------------------------------------------
     1236 000000e9 5060009e         ldiu      158,r0                ; |146| 
     1237 000000ea 1540030c         sti       r0,*+fp(12)           ; |146| 
     1238                           .line   108
     1239                   ;----------------------------------------------------------------------
     1240                   ; 147 | pt[0]                                   = 0x10;                        
     1241                   ;----------------------------------------------------------------------
     1242 000000eb 5008000b         ldiu      fp,ar0                ; |147| 
TMS320C3x/4x COFF AssemblerVersion 5.12     Wed Jul 24 11:03:43 2019
Copyright (c) 1987-1999 Texas Instruments Incorporatedasm30.exe -@_3JG.AAB 

G:\workspace\EEA\V615\APP\SOURCE\ASM\dac.asm                         PAGE   24

     1243 000000ec 02680005         addi      5,ar0                 ; |147| 
     1244 000000ed 50600010         ldiu      16,r0                 ; |147| 
     1245 000000ee 1540c000         sti       r0,*ar0               ; |147| 
     1246                           .line   109
     1247                   ;----------------------------------------------------------------------
     1248                   ; 148 | AO[n-DAC_Aout1].present = TRUE;                                        
     1249                   ;----------------------------------------------------------------------
     1250 000000ef 08700000-        ldp       @CL15,DP
     1251 000000f0 50510301         ldiu      *+fp(1),ir0           ; |148| 
     1252 000000f1 0af101a3         mpyi      419,ir0               ; |148| 
     1253 000000f2 5028001a-        ldiu      @CL15,ar0             ; |148| 
     1254 000000f3 50600001         ldiu      1,r0                  ; |148| 
     1255 000000f4 15404000         sti       r0,*+ar0(ir0)         ; |148| 
     1256                           .line   110
     1257                   ;----------------------------------------------------------------------
     1258                   ; 149 | break;                                                                 
     1259                   ; 151 | case DAC_Aout3:                                                        
     1260                   ;----------------------------------------------------------------------
     1261 000000f5 6a00003f         bu        L37                   ; |149| 
     1262                   ;*      Branch Occurs to L37            ; |149| 
     1263 000000f6          L29:        
     1264                           .line   114
     1265                   ;----------------------------------------------------------------------
     1266                   ; 153 | addr                                    = DAC_ADDRA2;                  
     1267                   ;----------------------------------------------------------------------
     1268 000000f6 5060009e         ldiu      158,r0                ; |153| 
     1269 000000f7 1540030c         sti       r0,*+fp(12)           ; |153| 
     1270                           .line   115
     1271                   ;----------------------------------------------------------------------
     1272                   ; 154 | pt[0]                                   = 0x12;                        
     1273                   ;----------------------------------------------------------------------
     1274 000000f8 5008000b         ldiu      fp,ar0                ; |154| 
     1275 000000f9 02680005         addi      5,ar0                 ; |154| 
     1276 000000fa 50600012         ldiu      18,r0                 ; |154| 
     1277 000000fb 1540c000         sti       r0,*ar0               ; |154| 
     1278                           .line   116
     1279                   ;----------------------------------------------------------------------
     1280                   ; 155 | AO[n-DAC_Aout1].present = TRUE;                                        
     1281                   ;----------------------------------------------------------------------
     1282 000000fc 08700000-        ldp       @CL15,DP
     1283 000000fd 50510301         ldiu      *+fp(1),ir0           ; |155| 
     1284 000000fe 0af101a3         mpyi      419,ir0               ; |155| 
     1285 000000ff 5028001a-        ldiu      @CL15,ar0             ; |155| 
     1286 00000100 50600001         ldiu      1,r0                  ; |155| 
     1287 00000101 15404000         sti       r0,*+ar0(ir0)         ; |155| 
     1288                           .line   117
     1289                   ;----------------------------------------------------------------------
     1290                   ; 156 | break;                                                                 
     1291                   ; 158 | case DAC_Aout4:                                                        
     1292                   ;----------------------------------------------------------------------
     1293 00000102 6a000032         bu        L37                   ; |156| 
     1294                   ;*      Branch Occurs to L37            ; |156| 
     1295 00000103          L30:        
     1296                           .line   121
TMS320C3x/4x COFF AssemblerVersion 5.12     Wed Jul 24 11:03:43 2019
Copyright (c) 1987-1999 Texas Instruments Incorporatedasm30.exe -@_3JG.AAB 

G:\workspace\EEA\V615\APP\SOURCE\ASM\dac.asm                         PAGE   25

     1297                   ;----------------------------------------------------------------------
     1298                   ; 160 | addr                                    = DAC_ADDRA2;                  
     1299                   ;----------------------------------------------------------------------
     1300 00000103 5060009e         ldiu      158,r0                ; |160| 
     1301 00000104 1540030c         sti       r0,*+fp(12)           ; |160| 
     1302                           .line   122
     1303                   ;----------------------------------------------------------------------
     1304                   ; 161 | pt[0]                                   = 0x14;                        
     1305                   ;----------------------------------------------------------------------
     1306 00000105 5008000b         ldiu      fp,ar0                ; |161| 
     1307 00000106 02680005         addi      5,ar0                 ; |161| 
     1308 00000107 50600014         ldiu      20,r0                 ; |161| 
     1309 00000108 1540c000         sti       r0,*ar0               ; |161| 
     1310                           .line   123
     1311                   ;----------------------------------------------------------------------
     1312                   ; 162 | AO[n-DAC_Aout1].present = TRUE;                                        
     1313                   ;----------------------------------------------------------------------
     1314 00000109 08700000-        ldp       @CL15,DP
     1315 0000010a 50510301         ldiu      *+fp(1),ir0           ; |162| 
     1316 0000010b 0af101a3         mpyi      419,ir0               ; |162| 
     1317 0000010c 5028001a-        ldiu      @CL15,ar0             ; |162| 
     1318 0000010d 50600001         ldiu      1,r0                  ; |162| 
     1319 0000010e 15404000         sti       r0,*+ar0(ir0)         ; |162| 
     1320                           .line   124
     1321                   ;----------------------------------------------------------------------
     1322                   ; 163 | break;                                                                 
     1323                   ; 165 | case DAC_Aout5:                                                        
     1324                   ;----------------------------------------------------------------------
     1325 0000010f 6a000025         bu        L37                   ; |163| 
     1326                   ;*      Branch Occurs to L37            ; |163| 
     1327 00000110          L31:        
     1328                           .line   128
     1329                   ;----------------------------------------------------------------------
     1330                   ; 167 | addr                                    = DAC_ADDRA2;                  
     1331                   ;----------------------------------------------------------------------
     1332 00000110 5060009e         ldiu      158,r0                ; |167| 
     1333 00000111 1540030c         sti       r0,*+fp(12)           ; |167| 
     1334                           .line   129
     1335                   ;----------------------------------------------------------------------
     1336                   ; 168 | pt[0]                                   = 0x16;                        
     1337                   ;----------------------------------------------------------------------
     1338 00000112 5008000b         ldiu      fp,ar0                ; |168| 
     1339 00000113 02680005         addi      5,ar0                 ; |168| 
     1340 00000114 50600016         ldiu      22,r0                 ; |168| 
     1341 00000115 1540c000         sti       r0,*ar0               ; |168| 
     1342                           .line   130
     1343                   ;----------------------------------------------------------------------
     1344                   ; 169 | AO[n-DAC_Aout1].present = TRUE;                                        
     1345                   ;----------------------------------------------------------------------
     1346 00000116 08700000-        ldp       @CL15,DP
     1347 00000117 50510301         ldiu      *+fp(1),ir0           ; |169| 
     1348 00000118 0af101a3         mpyi      419,ir0               ; |169| 
     1349 00000119 5028001a-        ldiu      @CL15,ar0             ; |169| 
     1350 0000011a 50600001         ldiu      1,r0                  ; |169| 
TMS320C3x/4x COFF AssemblerVersion 5.12     Wed Jul 24 11:03:43 2019
Copyright (c) 1987-1999 Texas Instruments Incorporatedasm30.exe -@_3JG.AAB 

G:\workspace\EEA\V615\APP\SOURCE\ASM\dac.asm                         PAGE   26

     1351 0000011b 15404000         sti       r0,*+ar0(ir0)         ; |169| 
     1352                           .line   131
     1353                   ;----------------------------------------------------------------------
     1354                   ; 170 | break;                                                                 
     1355                   ; 172 | case DAC_Aout6:                                                        
     1356                   ; 173 | case DAC_Aout7:                                                        
     1357                   ; 174 | case DAC_Aout8:                                                        
     1358                   ; 175 | case DAC_Aout9:                                                        
     1359                   ;----------------------------------------------------------------------
     1360 0000011c 6a000018         bu        L37                   ; |170| 
     1361                   ;*      Branch Occurs to L37            ; |170| 
     1362 0000011d          L32:        
     1363                           .line   138
     1364                   ;----------------------------------------------------------------------
     1365                   ; 177 | ext_mb = TRUE;                                                         
     1366                   ;----------------------------------------------------------------------
     1367 0000011d 50600001         ldiu      1,r0                  ; |177| 
     1368 0000011e 1540030b         sti       r0,*+fp(11)           ; |177| 
     1369                           .line   140
     1370                   ;----------------------------------------------------------------------
     1371                   ; 179 | break;                                                                 
     1372                   ; 181 | default:                                                               
     1373                   ;----------------------------------------------------------------------
     1374 0000011f 6a000015         bu        L37                   ; |179| 
     1375                   ;*      Branch Occurs to L37            ; |179| 
     1376 00000120          L33:        
     1377                           .line   144
     1378                   ;----------------------------------------------------------------------
     1379                   ; 183 | GIEP;                                                                  
     1380                   ;----------------------------------------------------------------------
     1381 00000120 0e350000         pop             ST                      
     1382                           .line   145
     1383                   ;----------------------------------------------------------------------
     1384                   ; 184 | return;                                                                
     1385                   ;----------------------------------------------------------------------
     1386 00000121 6a000090         bu        L51                   ; |184| 
     1387                   ;*      Branch Occurs to L51            ; |184| 
     1388 00000122          L35:        
     1389                           .line   75
     1390 00000122 50510301         ldiu      *+fp(1),ir0           ; |114| 
     1391 00000123 04f1000b         cmpi      11,ir0                ; |114| 
     1392 00000124 6a03fffb         bhi       L33                   ; |114| 
     1393                   ;*      Branch Occurs to L33            ; |114| 
     1394 00000125 08700000-        ldp       @CL16,DP
     1395 00000126 5028001b-        ldiu      @CL16,ar0             ; |114| 
     1396 00000127 50404000         ldiu      *+ar0(ir0),r0         ; |114| 
     1397 00000128 68000000         bu        r0                    ; |114| 
     1398                   
     1399 00000129                  .sect   ".text"
     1400 00000129 000000dc'SW0:    .word   L27     ; 0
     1401 0000012a 000000e9'        .word   L28     ; 1
     1402 0000012b 000000f6'        .word   L29     ; 2
     1403 0000012c 00000103'        .word   L30     ; 3
     1404 0000012d 00000110'        .word   L31     ; 4
TMS320C3x/4x COFF AssemblerVersion 5.12     Wed Jul 24 11:03:43 2019
Copyright (c) 1987-1999 Texas Instruments Incorporatedasm30.exe -@_3JG.AAB 

G:\workspace\EEA\V615\APP\SOURCE\ASM\dac.asm                         PAGE   27

     1405 0000012e 0000011d'        .word   L32     ; 5
     1406 0000012f 0000011d'        .word   L32     ; 6
     1407 00000130 0000011d'        .word   L32     ; 7
     1408 00000131 0000011d'        .word   L32     ; 8
     1409 00000132 000000c7'        .word   L24     ; 9
     1410 00000133 000000ce'        .word   L25     ; 10
     1411 00000134 000000d5'        .word   L26     ; 11
     1412 00000135                  .sect   ".text"
     1413                   ;*      Branch Occurs to r0             ; |114| 
     1414 00000135          L37:        
     1415                           .line   149
     1416                   ;----------------------------------------------------------------------
     1417                   ; 188 | i = (int)(v*DAC_TRIM_I_1[n] / DAC_TRIM_F_1[n]);                        
     1418                   ;----------------------------------------------------------------------
     1419 00000135 08700000-        ldp       @CL4,DP
     1420 00000136 50520301         ldiu      *+fp(1),ir1           ; |188| 
     1421 00000137 5029000f-        ldiu      @CL4,ar1              ; |188| 
     1422 00000138 08700000-        ldp       @CL5,DP
     1423 00000139 50110012         ldiu      ir1,ir0               ; |188| 
     1424 0000013a 50280010-        ldiu      @CL5,ar0              ; |188| 
     1425 0000013b 05c08100         float     *+ar1(ir1),f0         ; |188| 
     1426 0000013c 40414000         ldfu      *+ar0(ir0),f1         ; |188| 
     1427 0000013d 0a400304         mpyf      *+fp(4),f0            ; |188| 
     1428 0000013e 62000000!        call      DIV_F30               ; |188| 
     1429                                                           ; |188| Call Occurs
     1430 0000013f 0b820000         negf      f0,f2                 ; |188| 
     1431 00000140 05010000         fix       f0,r1                 ; |188| 
     1432 00000141 05000002         fix       f2,r0                 ; |188| 
     1433 00000142 0c000000         negi      r0,r0                 ; |188| 
     1434 00000143 54010000         ldile     r0,r1                 ; |188| 
     1435 00000144 15410302         sti       r1,*+fp(2)            ; |188| 
     1436                           .line   150
     1437                   ;----------------------------------------------------------------------
     1438                   ; 189 | t = (v*DAC_TRIM_I_1[n] / DAC_TRIM_F_1[n]) - (float)i;                  
     1439                   ;----------------------------------------------------------------------
     1440 00000145 08700000-        ldp       @CL4,DP
     1441 00000146 5028000f-        ldiu      @CL4,ar0              ; |189| 
     1442 00000147 50520301         ldiu      *+fp(1),ir1           ; |189| 
     1443 00000148 08700000-        ldp       @CL5,DP
     1444 00000149 50110012         ldiu      ir1,ir0               ; |189| 
     1445 0000014a 50290010-        ldiu      @CL5,ar1              ; |189| 
     1446 0000014b 05c08000         float     *+ar0(ir1),f0         ; |189| 
     1447 0000014c 40414100         ldfu      *+ar1(ir0),f1         ; |189| 
     1448 0000014d 0a400304         mpyf      *+fp(4),f0            ; |189| 
     1449 0000014e 62000000!        call      DIV_F30               ; |189| 
     1450                                                           ; |189| Call Occurs
     1451 0000014f 05c10302         float     *+fp(2),f1            ; |189| 
     1452 00000150 19010000         subrf     f0,f1                 ; |189| 
     1453 00000151 14410303         stf       f1,*+fp(3)            ; |189| 
     1454                           .line   152
     1455                   ;----------------------------------------------------------------------
     1456                   ; 191 | if (t>=0.5)                                                            
     1457                   ;----------------------------------------------------------------------
     1458 00000152 08700000-        ldp       @CL6,DP
TMS320C3x/4x COFF AssemblerVersion 5.12     Wed Jul 24 11:03:43 2019
Copyright (c) 1987-1999 Texas Instruments Incorporatedasm30.exe -@_3JG.AAB 

G:\workspace\EEA\V615\APP\SOURCE\ASM\dac.asm                         PAGE   28

     1459 00000153 40000001         ldfu      f1,f0
     1460 00000154 04200011-        cmpf      @CL6,f0               ; |191| 
     1461 00000155 6a070003         blt       L39                   ; |191| 
     1462                   ;*      Branch Occurs to L39            ; |191| 
     1463                           .line   153
     1464                   ;----------------------------------------------------------------------
     1465                   ; 192 | i++;                                                                   
     1466                   ;----------------------------------------------------------------------
     1467 00000156 50600001         ldiu      1,r0                  ; |192| 
     1468 00000157 02400302         addi      *+fp(2),r0            ; |192| 
     1469 00000158 15400302         sti       r0,*+fp(2)            ; |192| 
     1470 00000159          L39:        
     1471                           .line   155
     1472                   ;----------------------------------------------------------------------
     1473                   ; 194 | if (i>DAC_TRIM_I_1[n])                                                 
     1474                   ;----------------------------------------------------------------------
     1475 00000159 08700000-        ldp       @CL4,DP
     1476 0000015a 50510301         ldiu      *+fp(1),ir0           ; |194| 
     1477 0000015b 5028000f-        ldiu      @CL4,ar0              ; |194| 
     1478 0000015c 50400302         ldiu      *+fp(2),r0            ; |194| 
     1479 0000015d 23c00040         cmpi3     *+ar0(ir0),r0         ; |194| 
     1480 0000015e 6a080005         ble       L41                   ; |194| 
     1481                   ;*      Branch Occurs to L41            ; |194| 
     1482                           .line   156
     1483                   ;----------------------------------------------------------------------
     1484                   ; 195 | i = DAC_TRIM_I_1[n];                                                   
     1485                   ;----------------------------------------------------------------------
     1486 0000015f 08700000-        ldp       @CL4,DP
     1487 00000160 5028000f-        ldiu      @CL4,ar0              ; |195| 
     1488 00000161 50404000         ldiu      *+ar0(ir0),r0         ; |195| 
     1489 00000162 15400302         sti       r0,*+fp(2)            ; |195| 
     1490 00000163 6a000005         bu        L43                   ; |39| 
     1491                   ;*      Branch Occurs to L43            ; |39| 
     1492 00000164          L41:        
     1493                           .line   157
     1494                   ;----------------------------------------------------------------------
     1495                   ; 196 | else if (i<0)                                                          
     1496                   ;----------------------------------------------------------------------
     1497 00000164 50400302         ldiu      *+fp(2),r0            ; |196| 
     1498 00000165 04e00000         cmpi      0,r0                  ; |196| 
     1499 00000166 6a0a0002         bge       L43                   ; |196| 
     1500                   ;*      Branch Occurs to L43            ; |196| 
     1501                           .line   158
     1502                   ;----------------------------------------------------------------------
     1503                   ; 197 | i = 0;                                                                 
     1504                   ;----------------------------------------------------------------------
     1505 00000167 50600000         ldiu      0,r0                  ; |197| 
     1506 00000168 15400302         sti       r0,*+fp(2)            ; |197| 
     1507 00000169          L43:        
     1508                           .line   160
     1509                   ;----------------------------------------------------------------------
     1510                   ; 199 | DAC_INT[n] = i;                                                        
     1511                   ;----------------------------------------------------------------------
     1512 00000169 08700000-        ldp       @CL8,DP
TMS320C3x/4x COFF AssemblerVersion 5.12     Wed Jul 24 11:03:43 2019
Copyright (c) 1987-1999 Texas Instruments Incorporatedasm30.exe -@_3JG.AAB 

G:\workspace\EEA\V615\APP\SOURCE\ASM\dac.asm                         PAGE   29

     1513 0000016a 50510301         ldiu      *+fp(1),ir0           ; |199| 
     1514 0000016b 50280013-        ldiu      @CL8,ar0              ; |199| 
     1515 0000016c 50400302         ldiu      *+fp(2),r0            ; |199| 
     1516 0000016d 15404000         sti       r0,*+ar0(ir0)         ; |199| 
     1517                           .line   162
     1518                   ;----------------------------------------------------------------------
     1519                   ; 201 | if (ext_mb==FALSE)                                                     
     1520                   ;----------------------------------------------------------------------
     1521 0000016e 5040030b         ldiu      *+fp(11),r0           ; |201| 
     1522 0000016f 04e00000         cmpi      0,r0                  ; |201| 
     1523 00000170 6a060040         bne       L50                   ; |201| 
     1524                   ;*      Branch Occurs to L50            ; |201| 
     1525                           .line   164
     1526                   ;----------------------------------------------------------------------
     1527                   ; 203 | pt[1] = i>>8;                                                          
     1528                   ;----------------------------------------------------------------------
     1529 00000171 5008000b         ldiu      fp,ar0                ; |203| 
     1530 00000172 50400302         ldiu      *+fp(2),r0            ; |203| 
     1531 00000173 02680006         addi      6,ar0                 ; |203| 
     1532 00000174 03e0fff8         ash       -8,r0                 ; |203| 
     1533 00000175 1540c000         sti       r0,*ar0               ; |203| 
     1534                           .line   165
     1535                   ;----------------------------------------------------------------------
     1536                   ; 204 | pt[2] = i;                                                             
     1537                   ;----------------------------------------------------------------------
     1538 00000176 5008000b         ldiu      fp,ar0                ; |204| 
     1539 00000177 02680007         addi      7,ar0                 ; |204| 
     1540 00000178 50400302         ldiu      *+fp(2),r0            ; |204| 
     1541 00000179 1540c000         sti       r0,*ar0               ; |204| 
     1542                           .line   167
     1543                   ;----------------------------------------------------------------------
     1544                   ; 206 | r = Write_ADC_DAC(addr, 3, (unsigned char*)pt); /* setup cfg register *
     1545                   ;     | /                                                                      
     1546                   ;----------------------------------------------------------------------
     1547 0000017a 5003000b         ldiu      fp,r3                 ; |206| 
     1548 0000017b 08700000-        ldp       @CL17,DP
     1549 0000017c 50620003         ldiu      3,r2                  ; |206| 
     1550 0000017d 02630005         addi      5,r3                  ; |206| 
     1551 0000017e 504a030c         ldiu      *+fp(12),ar2          ; |206| 
     1552 0000017f 5020001c-        ldiu      @CL17,r0              ; |206| 
     1553 00000180 70000000         callu     r0                    ; far call to _Write_ADC_DAC    ; |206| 
     1554                                                           ; |206| Far Call Occurs
     1555 00000181 1540030a         sti       r0,*+fp(10)           ; |206| 
     1556                           .line   169
     1557                   ;----------------------------------------------------------------------
     1558                   ; 208 | if (!r)                                                                
     1559                   ;----------------------------------------------------------------------
     1560 00000182 04e00000         cmpi      0,r0                  ; |208| 
     1561 00000183 6a060008         bne       L46                   ; |208| 
     1562                   ;*      Branch Occurs to L46            ; |208| 
     1563                           .line   170
     1564                   ;----------------------------------------------------------------------
     1565                   ; 209 | VAR_NaN(&REG_DAC[n]);                                                  
     1566                   ; 210 | else /* clear NaN flag */                                              
TMS320C3x/4x COFF AssemblerVersion 5.12     Wed Jul 24 11:03:43 2019
Copyright (c) 1987-1999 Texas Instruments Incorporatedasm30.exe -@_3JG.AAB 

G:\workspace\EEA\V615\APP\SOURCE\ASM\dac.asm                         PAGE   30

     1567                   ;----------------------------------------------------------------------
     1568 00000184 504a0301         ldiu      *+fp(1),ar2           ; |209| 
     1569 00000185 08700000-        ldp       @CL1,DP
     1570 00000186 0aea002c         mpyi      44,ar2                ; |209| 
     1571 00000187 022a000c-        addi      @CL1,ar2              ; |209| Unsigned
     1572 00000188 08700000-        ldp       @CL3,DP
     1573 00000189 5020000e-        ldiu      @CL3,r0               ; |209| 
     1574 0000018a 70000000         callu     r0                    ; far call to _VAR_NaN  ; |209| 
     1575                                                           ; |209| Far Call Occurs
     1576 0000018b 6a000007         bu        L47                   ; |39| 
     1577                   ;*      Branch Occurs to L47            ; |39| 
     1578 0000018c          L46:        
     1579                           .line   172
     1580                   ;----------------------------------------------------------------------
     1581                   ; 211 | REG_DAC[n].STAT &= var_NaNum ^ 0xFFFFFFFF;                             
     1582                   ;----------------------------------------------------------------------
     1583 0000018c 50480301         ldiu      *+fp(1),ar0           ; |211| 
     1584 0000018d 08700000-        ldp       @CL1,DP
     1585 0000018e 0ae8002c         mpyi      44,ar0                ; |211| 
     1586 0000018f 0228000c-        addi      @CL1,ar0              ; |211| Unsigned
     1587 00000190 50400003         ldiu      *+ar0(3),r0           ; |211| 
     1588 00000191 03600008         andn      8,r0                  ; |211| 
     1589 00000192 15400003         sti       r0,*+ar0(3)           ; |211| 
     1590 00000193          L47:        
     1591                           .line   174
     1592                   ;----------------------------------------------------------------------
     1593                   ; 213 | if ((REG_DAC[n].STAT & var_NaNum) && (n<=DAC_Aout9))                   
     1594                   ;----------------------------------------------------------------------
     1595 00000193 50510301         ldiu      *+fp(1),ir0           ; |213| 
     1596 00000194 08700000-        ldp       @CL12,DP
     1597 00000195 0af1002c         mpyi      44,ir0                ; |213| 
     1598 00000196 50280017-        ldiu      @CL12,ar0             ; |213| 
     1599 00000197 50600008         ldiu      8,r0                  ; |213| 
     1600 00000198 27c00040         tstb3     *+ar0(ir0),r0         ; |213| 
     1601 00000199 6a050017         beq       L50                   ; |213| 
     1602                   ;*      Branch Occurs to L50            ; |213| 
     1603 0000019a 50400301         ldiu      *+fp(1),r0            ; |213| 
     1604 0000019b 04e00008         cmpi      8,r0                  ; |213| 
     1605 0000019c 6a090014         bgt       L50                   ; |213| 
     1606                   ;*      Branch Occurs to L50            ; |213| 
     1607                           .line   176
     1608                   ;----------------------------------------------------------------------
     1609                   ; 215 | VAR_NaN(&AO[n-DAC_Aout1].CURRENT);                                     
     1610                   ;----------------------------------------------------------------------
     1611 0000019d 500a0000         ldiu      r0,ar2
     1612 0000019e 08700000-        ldp       @CL13,DP
     1613 0000019f 0aea01a3         mpyi      419,ar2               ; |215| 
     1614 000001a0 022a0018-        addi      @CL13,ar2             ; |215| Unsigned
     1615 000001a1 08700000-        ldp       @CL3,DP
     1616 000001a2 5020000e-        ldiu      @CL3,r0               ; |215| 
     1617 000001a3 70000000         callu     r0                    ; far call to _VAR_NaN  ; |215| 
     1618                                                           ; |215| Far Call Occurs
     1619                           .line   177
     1620                   ;----------------------------------------------------------------------
TMS320C3x/4x COFF AssemblerVersion 5.12     Wed Jul 24 11:03:43 2019
Copyright (c) 1987-1999 Texas Instruments Incorporatedasm30.exe -@_3JG.AAB 

G:\workspace\EEA\V615\APP\SOURCE\ASM\dac.asm                         PAGE   31

     1621                   ; 216 | VAR_NaN(&AO[n-DAC_Aout1].CURRENT_PERCENT_OF_RANGE);                    
     1622                   ;----------------------------------------------------------------------
     1623 000001a4 08700000-        ldp       @CL14,DP
     1624 000001a5 504a0301         ldiu      *+fp(1),ar2           ; |216| 
     1625 000001a6 0aea01a3         mpyi      419,ar2               ; |216| 
     1626 000001a7 022a0019-        addi      @CL14,ar2             ; |216| Unsigned
     1627 000001a8 08700000-        ldp       @CL3,DP
     1628 000001a9 5020000e-        ldiu      @CL3,r0               ; |216| 
     1629 000001aa 70000000         callu     r0                    ; far call to _VAR_NaN  ; |216| 
     1630                                                           ; |216| Far Call Occurs
     1631                           .line   178
     1632                   ;----------------------------------------------------------------------
     1633                   ; 217 | AO[n-DAC_Aout1].present = FALSE;                                       
     1634                   ;----------------------------------------------------------------------
     1635 000001ab 08700000-        ldp       @CL15,DP
     1636 000001ac 50510301         ldiu      *+fp(1),ir0           ; |217| 
     1637 000001ad 5028001a-        ldiu      @CL15,ar0             ; |217| 
     1638 000001ae 0af101a3         mpyi      419,ir0               ; |217| 
     1639 000001af 50600000         ldiu      0,r0                  ; |217| 
     1640 000001b0 15404000         sti       r0,*+ar0(ir0)         ; |217| 
     1641 000001b1          L50:        
     1642                           .line   182
     1643                   ;----------------------------------------------------------------------
     1644                   ; 221 | GIEP;                                                                  
     1645                   ;----------------------------------------------------------------------
     1646 000001b1 0e350000         pop             ST                      
     1647 000001b2          L51:        
     1648                           .line   183
     1649                                                           ; Begin Epilog Code
     1650 000001b2 50410b01         ldiu      *-fp(1),r1
     1651 000001b3 504bc300         ldiu      *fp,fp
     1652                                                           ; Unallocate the Frame
     1653 000001b4 1874000e         subi      14,sp
     1654 000001b5 68000001         bu        r1
     1655                   ;*      Branch Occurs to r1 
     1656                           .endfunc        222,000000000h,12
     1657                   
     1658                   
     1659 000001b6                  .sect    ".text"
     1660                   
     1661                           .global _MB_RX_DAC_Aout
     1662                           .sym    _MB_RX_DAC_Aout,_MB_RX_DAC_Aout,32,2,0
     1663                           .func   237
     1664                   ;******************************************************************************
     1665                   ;* FUNCTION NAME: _MB_RX_DAC_Aout                                             *
     1666                   ;*                                                                            *
     1667                   ;*   Architecture       : TMS320C33                                           *
     1668                   ;*   Calling Convention : TI Standard Register Parameters                     *
     1669                   ;*   Function Uses Regs : r0,r2,ar0,ar2,ir0,st                                *
     1670                   ;*   Regs Saved         :                                                     *
     1671                   ;*   Stack Frame        : Full (w/ debug)                                     *
     1672                   ;*   Total Frame Size   : 2 Call + 0 Parm + 2 Auto + 0 SOE = 4 words          *
     1673                   ;******************************************************************************
     1674 000001b6          _MB_RX_DAC_Aout:
TMS320C3x/4x COFF AssemblerVersion 5.12     Wed Jul 24 11:03:43 2019
Copyright (c) 1987-1999 Texas Instruments Incorporatedasm30.exe -@_3JG.AAB 

G:\workspace\EEA\V615\APP\SOURCE\ASM\dac.asm                         PAGE   32

     1675                   ;* ar2   assigned to _id
     1676                           .sym    _id,10,4,17,32
     1677                   ;* r2    assigned to _i
     1678                           .sym    _i,2,4,17,32
     1679                           .sym    _id,1,4,1,32
     1680                           .sym    _i,2,4,1,32
     1681                           .line   1
     1682                   ;----------------------------------------------------------------------
     1683                   ; 237 | void MB_RX_DAC_Aout(int id, int i)                                     
     1684                   ;----------------------------------------------------------------------
     1685 000001b6 0f2b0000         push      fp
     1686 000001b7 500b0014         ldiu      sp,fp
     1687 000001b8 02740002         addi      2,sp
     1688                           .line   2
     1689 000001b9 15420302         sti       r2,*+fp(2)            ; |238| 
     1690 000001ba 154a0301         sti       ar2,*+fp(1)           ; |238| 
     1691                           .line   3
     1692                   ;----------------------------------------------------------------------
     1693                   ; 239 | if (!PORT[id].failed)                                                  
     1694                   ;----------------------------------------------------------------------
     1695 000001bb 5011000a         ldiu      ar2,ir0               ; |239| 
     1696 000001bc 08700000-        ldp       @CL18,DP
     1697 000001bd 0af10047         mpyi      71,ir0                ; |239| 
     1698 000001be 5028001d-        ldiu      @CL18,ar0             ; |239| 
     1699 000001bf 50404000         ldiu      *+ar0(ir0),r0         ; |239| 
     1700 000001c0 04e00000         cmpi      0,r0                  ; |239| 
     1701 000001c1 6a06000e         bne       L55                   ; |239| 
     1702                   ;*      Branch Occurs to L55            ; |239| 
     1703                           .line   5
     1704                   ;----------------------------------------------------------------------
     1705                   ; 241 | REG_DAC[i].STAT                 &= var_NaNum ^ 0xFFFFFFFF;             
     1706                   ;----------------------------------------------------------------------
     1707 000001c2 50080002         ldiu      r2,ar0
     1708 000001c3 08700000-        ldp       @CL1,DP
     1709 000001c4 0ae8002c         mpyi      44,ar0                ; |241| 
     1710 000001c5 0228000c-        addi      @CL1,ar0              ; |241| Unsigned
     1711 000001c6 50400003         ldiu      *+ar0(3),r0           ; |241| 
     1712 000001c7 03600008         andn      8,r0                  ; |241| 
     1713 000001c8 15400003         sti       r0,*+ar0(3)           ; |241| 
     1714                           .line   6
     1715                   ;----------------------------------------------------------------------
     1716                   ; 242 | AO[i-DAC_Aout1].present  = TRUE;                                       
     1717                   ; 244 | else                                                                   
     1718                   ;----------------------------------------------------------------------
     1719 000001c9 08700000-        ldp       @CL15,DP
     1720 000001ca 50510302         ldiu      *+fp(2),ir0           ; |242| 
     1721 000001cb 0af101a3         mpyi      419,ir0               ; |242| 
     1722 000001cc 5028001a-        ldiu      @CL15,ar0             ; |242| 
     1723 000001cd 50600001         ldiu      1,r0                  ; |242| 
     1724 000001ce 15404000         sti       r0,*+ar0(ir0)         ; |242| 
     1725 000001cf 6a00001b         bu        L56                   ; |236| 
     1726                   ;*      Branch Occurs to L56            ; |236| 
     1727 000001d0          L55:        
     1728                           .line   10
TMS320C3x/4x COFF AssemblerVersion 5.12     Wed Jul 24 11:03:43 2019
Copyright (c) 1987-1999 Texas Instruments Incorporatedasm30.exe -@_3JG.AAB 

G:\workspace\EEA\V615\APP\SOURCE\ASM\dac.asm                         PAGE   33

     1729                   ;----------------------------------------------------------------------
     1730                   ; 246 | VAR_NaN(&REG_DAC[i]);                                                  
     1731                   ;----------------------------------------------------------------------
     1732 000001d0 504a0302         ldiu      *+fp(2),ar2           ; |246| 
     1733 000001d1 08700000-        ldp       @CL1,DP
     1734 000001d2 0aea002c         mpyi      44,ar2                ; |246| 
     1735 000001d3 022a000c-        addi      @CL1,ar2              ; |246| Unsigned
     1736 000001d4 08700000-        ldp       @CL3,DP
     1737 000001d5 5020000e-        ldiu      @CL3,r0               ; |246| 
     1738 000001d6 70000000         callu     r0                    ; far call to _VAR_NaN  ; |246| 
     1739                                                           ; |246| Far Call Occurs
     1740                           .line   11
     1741                   ;----------------------------------------------------------------------
     1742                   ; 247 | VAR_NaN(&AO[i-DAC_Aout1].CURRENT);                                     
     1743                   ;----------------------------------------------------------------------
     1744 000001d7 08700000-        ldp       @CL13,DP
     1745 000001d8 504a0302         ldiu      *+fp(2),ar2           ; |247| 
     1746 000001d9 0aea01a3         mpyi      419,ar2               ; |247| 
     1747 000001da 022a0018-        addi      @CL13,ar2             ; |247| Unsigned
     1748 000001db 08700000-        ldp       @CL3,DP
     1749 000001dc 5020000e-        ldiu      @CL3,r0               ; |247| 
     1750 000001dd 70000000         callu     r0                    ; far call to _VAR_NaN  ; |247| 
     1751                                                           ; |247| Far Call Occurs
     1752                           .line   12
     1753                   ;----------------------------------------------------------------------
     1754                   ; 248 | VAR_NaN(&AO[i-DAC_Aout1].CURRENT_PERCENT_OF_RANGE);                    
     1755                   ;----------------------------------------------------------------------
     1756 000001de 08700000-        ldp       @CL14,DP
     1757 000001df 504a0302         ldiu      *+fp(2),ar2           ; |248| 
     1758 000001e0 0aea01a3         mpyi      419,ar2               ; |248| 
     1759 000001e1 022a0019-        addi      @CL14,ar2             ; |248| Unsigned
     1760 000001e2 08700000-        ldp       @CL3,DP
     1761 000001e3 5020000e-        ldiu      @CL3,r0               ; |248| 
     1762 000001e4 70000000         callu     r0                    ; far call to _VAR_NaN  ; |248| 
     1763                                                           ; |248| Far Call Occurs
     1764                           .line   13
     1765                   ;----------------------------------------------------------------------
     1766                   ; 249 | AO[i-DAC_Aout1].present = FALSE;                                       
     1767                   ;----------------------------------------------------------------------
     1768 000001e5 50510302         ldiu      *+fp(2),ir0           ; |249| 
     1769 000001e6 08700000-        ldp       @CL15,DP
     1770 000001e7 0af101a3         mpyi      419,ir0               ; |249| 
     1771 000001e8 5028001a-        ldiu      @CL15,ar0             ; |249| 
     1772 000001e9 50600000         ldiu      0,r0                  ; |249| 
     1773 000001ea 15404000         sti       r0,*+ar0(ir0)         ; |249| 
     1774 000001eb          L56:        
     1775                           .line   15
     1776                                                           ; Begin Epilog Code
     1777 000001eb 50410b01         ldiu      *-fp(1),r1
     1778 000001ec 504bc300         ldiu      *fp,fp
     1779                                                           ; Unallocate the Frame
     1780 000001ed 18740004         subi      4,sp
     1781 000001ee 68000001         bu        r1
     1782                   ;*      Branch Occurs to r1 
TMS320C3x/4x COFF AssemblerVersion 5.12     Wed Jul 24 11:03:43 2019
Copyright (c) 1987-1999 Texas Instruments Incorporatedasm30.exe -@_3JG.AAB 

G:\workspace\EEA\V615\APP\SOURCE\ASM\dac.asm                         PAGE   34

     1783                           .endfunc        251,000000000h,2
     1784                   
     1785                   
     1786 000001ef                  .sect    ".text"
     1787                   
     1788                           .global _MB_RX_DAC_Aout6_7
     1789                           .sym    _MB_RX_DAC_Aout6_7,_MB_RX_DAC_Aout6_7,32,2,0
     1790                           .func   265
     1791                   ;******************************************************************************
     1792                   ;* FUNCTION NAME: _MB_RX_DAC_Aout6_7                                          *
     1793                   ;*                                                                            *
     1794                   ;*   Architecture       : TMS320C33                                           *
     1795                   ;*   Calling Convention : TI Standard Register Parameters                     *
     1796                   ;*   Function Uses Regs : r0,r2,ar2                                           *
     1797                   ;*   Regs Saved         :                                                     *
     1798                   ;*   Stack Frame        : Full (w/ debug)                                     *
     1799                   ;*   Total Frame Size   : 2 Call + 0 Parm + 1 Auto + 0 SOE = 3 words          *
     1800                   ;******************************************************************************
     1801 000001ef          _MB_RX_DAC_Aout6_7:
     1802                   ;* ar2   assigned to _id
     1803                           .sym    _id,10,4,17,32
     1804                           .sym    _id,1,4,1,32
     1805                           .line   1
     1806                   ;----------------------------------------------------------------------
     1807                   ; 265 | void MB_RX_DAC_Aout6_7(int id)                                         
     1808                   ;----------------------------------------------------------------------
     1809 000001ef 0f2b0000         push      fp
     1810 000001f0 500b0014         ldiu      sp,fp
     1811 000001f1 02740001         addi      1,sp
     1812                           .line   2
     1813 000001f2 154a0301         sti       ar2,*+fp(1)           ; |266| 
     1814                           .line   3
     1815                   ;----------------------------------------------------------------------
     1816                   ; 267 | MB_RX_DAC_Aout(id, DAC_Aout6);                                         
     1817                   ;----------------------------------------------------------------------
     1818 000001f3 08700000-        ldp       @CL19,DP
     1819 000001f4 50620005         ldiu      5,r2                  ; |267| 
     1820 000001f5 5020001e-        ldiu      @CL19,r0              ; |267| 
     1821 000001f6 70000000         callu     r0                    ; far call to _MB_RX_DAC_Aout   ; |267| 
     1822                                                           ; |267| Far Call Occurs
     1823                           .line   4
     1824                   ;----------------------------------------------------------------------
     1825                   ; 268 | MB_RX_DAC_Aout(id, DAC_Aout7);                                         
     1826                   ;----------------------------------------------------------------------
     1827 000001f7 08700000-        ldp       @CL19,DP
     1828 000001f8 5020001e-        ldiu      @CL19,r0              ; |268| 
     1829 000001f9 504a0301         ldiu      *+fp(1),ar2           ; |268| 
     1830 000001fa 50620006         ldiu      6,r2                  ; |268| 
     1831 000001fb 70000000         callu     r0                    ; far call to _MB_RX_DAC_Aout   ; |268| 
     1832                                                           ; |268| Far Call Occurs
     1833                           .line   5
     1834                                                           ; Begin Epilog Code
     1835 000001fc 50410b01         ldiu      *-fp(1),r1
     1836 000001fd 504bc300         ldiu      *fp,fp
TMS320C3x/4x COFF AssemblerVersion 5.12     Wed Jul 24 11:03:43 2019
Copyright (c) 1987-1999 Texas Instruments Incorporatedasm30.exe -@_3JG.AAB 

G:\workspace\EEA\V615\APP\SOURCE\ASM\dac.asm                         PAGE   35

     1837                                                           ; Unallocate the Frame
     1838 000001fe 18740003         subi      3,sp
     1839 000001ff 68000001         bu        r1
     1840                   ;*      Branch Occurs to r1 
     1841                           .endfunc        269,000000000h,1
     1842                   
     1843                   
     1844 00000200                  .sect    ".text"
     1845                   
     1846                           .global _MB_RX_DAC_Aout8_9
     1847                           .sym    _MB_RX_DAC_Aout8_9,_MB_RX_DAC_Aout8_9,32,2,0
     1848                           .func   283
     1849                   ;******************************************************************************
     1850                   ;* FUNCTION NAME: _MB_RX_DAC_Aout8_9                                          *
     1851                   ;*                                                                            *
     1852                   ;*   Architecture       : TMS320C33                                           *
     1853                   ;*   Calling Convention : TI Standard Register Parameters                     *
     1854                   ;*   Function Uses Regs : r0,r2,ar2                                           *
     1855                   ;*   Regs Saved         :                                                     *
     1856                   ;*   Stack Frame        : Full (w/ debug)                                     *
     1857                   ;*   Total Frame Size   : 2 Call + 0 Parm + 1 Auto + 0 SOE = 3 words          *
     1858                   ;******************************************************************************
     1859 00000200          _MB_RX_DAC_Aout8_9:
     1860                   ;* ar2   assigned to _id
     1861                           .sym    _id,10,4,17,32
     1862                           .sym    _id,1,4,1,32
     1863                           .line   1
     1864                   ;----------------------------------------------------------------------
     1865                   ; 283 | void MB_RX_DAC_Aout8_9(int id)                                         
     1866                   ;----------------------------------------------------------------------
     1867 00000200 0f2b0000         push      fp
     1868 00000201 500b0014         ldiu      sp,fp
     1869 00000202 02740001         addi      1,sp
     1870                           .line   2
     1871 00000203 154a0301         sti       ar2,*+fp(1)           ; |284| 
     1872                           .line   3
     1873                   ;----------------------------------------------------------------------
     1874                   ; 285 | MB_RX_DAC_Aout(id, DAC_Aout8);                                         
     1875                   ;----------------------------------------------------------------------
     1876 00000204 08700000-        ldp       @CL19,DP
     1877 00000205 50620007         ldiu      7,r2                  ; |285| 
     1878 00000206 5020001e-        ldiu      @CL19,r0              ; |285| 
     1879 00000207 70000000         callu     r0                    ; far call to _MB_RX_DAC_Aout   ; |285| 
     1880                                                           ; |285| Far Call Occurs
     1881                           .line   4
     1882                   ;----------------------------------------------------------------------
     1883                   ; 286 | MB_RX_DAC_Aout(id, DAC_Aout9);                                         
     1884                   ;----------------------------------------------------------------------
     1885 00000208 08700000-        ldp       @CL19,DP
     1886 00000209 5020001e-        ldiu      @CL19,r0              ; |286| 
     1887 0000020a 504a0301         ldiu      *+fp(1),ar2           ; |286| 
     1888 0000020b 50620008         ldiu      8,r2                  ; |286| 
     1889 0000020c 70000000         callu     r0                    ; far call to _MB_RX_DAC_Aout   ; |286| 
     1890                                                           ; |286| Far Call Occurs
TMS320C3x/4x COFF AssemblerVersion 5.12     Wed Jul 24 11:03:43 2019
Copyright (c) 1987-1999 Texas Instruments Incorporatedasm30.exe -@_3JG.AAB 

G:\workspace\EEA\V615\APP\SOURCE\ASM\dac.asm                         PAGE   36

     1891                           .line   5
     1892                                                           ; Begin Epilog Code
     1893 0000020d 50410b01         ldiu      *-fp(1),r1
     1894 0000020e 504bc300         ldiu      *fp,fp
     1895                                                           ; Unallocate the Frame
     1896 0000020f 18740003         subi      3,sp
     1897 00000210 68000001         bu        r1
     1898                   ;*      Branch Occurs to r1 
     1899                           .endfunc        287,000000000h,1
     1900                   
     1901                   
     1902 00000000                  .sect    "initialization"
     1903                   
     1904                           .global _Setup_DAC
     1905                           .sym    _Setup_DAC,_Setup_DAC,32,2,0
     1906                           .func   302
     1907                   ;******************************************************************************
     1908                   ;* FUNCTION NAME: _Setup_DAC                                                  *
     1909                   ;*                                                                            *
     1910                   ;*   Architecture       : TMS320C33                                           *
     1911                   ;*   Calling Convention : TI Standard Register Parameters                     *
     1912                   ;*   Function Uses Regs : r0,f2,r3,ar0,ar1,ar2,ir0,st,rc                      *
     1913                   ;*   Regs Saved         :                                                     *
     1914                   ;*   Stack Frame        : Full (w/ debug)                                     *
     1915                   ;*   Total Frame Size   : 2 Call + 0 Parm + 1 Auto + 0 SOE = 3 words          *
     1916                   ;******************************************************************************
     1917 00000000          _Setup_DAC:
     1918                   ;* ar2   assigned to _n
     1919                           .sym    _n,10,4,17,32
     1920                           .sym    _n,1,4,1,32
     1921                           .line   1
     1922                   ;----------------------------------------------------------------------
     1923                   ; 302 | void Setup_DAC(int n)                                                  
     1924                   ;----------------------------------------------------------------------
     1925 00000000 0f2b0000         push      fp
     1926 00000001 500b0014         ldiu      sp,fp
     1927 00000002 02740001         addi      1,sp
     1928                           .line   2
     1929 00000003 154a0301         sti       ar2,*+fp(1)           ; |303| 
     1930                           .line   3
     1931                   ;----------------------------------------------------------------------
     1932                   ; 304 | if( (n>=DAC_Aout1) && (n<=DAC_Aout9) )                                 
     1933                   ;----------------------------------------------------------------------
     1934 00000004 5000000a         ldiu      ar2,r0
     1935 00000005 04e00000         cmpi      0,r0                  ; |304| 
     1936 00000006 6a070008         blt       L67                   ; |304| 
     1937                   ;*      Branch Occurs to L67            ; |304| 
     1938 00000007 04e00008         cmpi      8,r0                  ; |304| 
     1939 00000008 6a090006         bgt       L67                   ; |304| 
     1940                   ;*      Branch Occurs to L67            ; |304| 
     1941                           .line   4
     1942                   ;----------------------------------------------------------------------
     1943                   ; 305 | AO[n-DAC_Aout1].present = FALSE;                                       
     1944                   ;----------------------------------------------------------------------
TMS320C3x/4x COFF AssemblerVersion 5.12     Wed Jul 24 11:03:43 2019
Copyright (c) 1987-1999 Texas Instruments Incorporatedasm30.exe -@_3JG.AAB 

G:\workspace\EEA\V615\APP\SOURCE\ASM\dac.asm                         PAGE   37

     1945 00000009 50110000         ldiu      r0,ir0
     1946 0000000a 08700000-        ldp       @CL15,DP
     1947 0000000b 0af101a3         mpyi      419,ir0               ; |305| 
     1948 0000000c 5028001a-        ldiu      @CL15,ar0             ; |305| 
     1949 0000000d 50600000         ldiu      0,r0                  ; |305| 
     1950 0000000e 15404000         sti       r0,*+ar0(ir0)         ; |305| 
     1951 0000000f          L67:        
     1952                           .line   6
     1953                   ;----------------------------------------------------------------------
     1954                   ; 307 | VAR_NaN(&REG_DAC[n]);                                                  
     1955                   ;----------------------------------------------------------------------
     1956 0000000f 504a0301         ldiu      *+fp(1),ar2           ; |307| 
     1957 00000010 08700000-        ldp       @CL1,DP
     1958 00000011 0aea002c         mpyi      44,ar2                ; |307| 
     1959 00000012 022a000c-        addi      @CL1,ar2              ; |307| Unsigned
     1960 00000013 08700000-        ldp       @CL3,DP
     1961 00000014 5020000e-        ldiu      @CL3,r0               ; |307| 
     1962 00000015 70000000         callu     r0                    ; far call to _VAR_NaN  ; |307| 
     1963                                                           ; |307| Far Call Occurs
     1964                           .line   8
     1965                   ;----------------------------------------------------------------------
     1966                   ; 309 | if(SA)                                                                 
     1967                   ; 311 |         switch(n)                                                      
     1968                   ; 313 |                 case DAC_VTUNE:                                        
     1969                   ;----------------------------------------------------------------------
     1970 00000016 08700000-        ldp       @CL2,DP
     1971 00000017 5028000d-        ldiu      @CL2,ar0              ; |309| 
     1972 00000018 5040c000         ldiu      *ar0,r0               ; |309| 
     1973 00000019 04e00000         cmpi      0,r0                  ; |309| 
     1974 0000001a 6a050044         beq       L76                   ; |309| 
     1975                   ;*      Branch Occurs to L76            ; |309| 
     1976 0000001b 6a00003d         bu        L73                   ; |301| 
     1977                   ;*      Branch Occurs to L73            ; |301| 
     1978 0000001c          L69:        
     1979                           .line   14
     1980                   ;----------------------------------------------------------------------
     1981                   ; 315 | SEL_DAC0;                                                              
     1982                   ;----------------------------------------------------------------------
     1983 0000001c 08780062         ldi             62h,IOF         
     1984                           .line   15
     1985                   ;----------------------------------------------------------------------
     1986                   ; 316 | *SP0_TXDATA = DAC_INTREF;                                              
     1987                   ;----------------------------------------------------------------------
     1988 0000001d 08700000-        ldp       @CL9,DP
     1989 0000001e 50280014-        ldiu      @CL9,ar0              ; |316| 
     1990 0000001f 08700000-        ldp       @CL20,DP
     1991 00000020 5020001f-        ldiu      @CL20,r0              ; |316| 
     1992 00000021 1540c000         sti       r0,*ar0               ; |316| 
     1993                           .line   16
     1994                   ;----------------------------------------------------------------------
     1995                   ; 317 | WAIT_SP0;                                                              
     1996                   ;----------------------------------------------------------------------
     1997 00000022 08700000-        ldp       @CL11,DP
     1998 00000023 50280016-        ldiu      @CL11,ar0             ; |317| 
TMS320C3x/4x COFF AssemblerVersion 5.12     Wed Jul 24 11:03:43 2019
Copyright (c) 1987-1999 Texas Instruments Incorporatedasm30.exe -@_3JG.AAB 

G:\workspace\EEA\V615\APP\SOURCE\ASM\dac.asm                         PAGE   38

     1999 00000024 08700000-        ldp       @CL10,DP
     2000 00000025 5040c000         ldiu      *ar0,r0               ; |317| 
     2001 00000026 50290015-        ldiu      @CL10,ar1             ; |317| 
     2002 00000027 02e0ffff         and       65535,r0              ; |317| 
     2003 00000028 1540c100         sti       r0,*ar1               ; |317| 
     2004 00000029 1a770020         tstb    0020h, IF       
     2005 0000002a 6a05fffe         .word   6A05FFFEh       
     2006 0000002b 03770020         andn    0020h, IF
     2007 0000002c 08780022         ldi             22h,IOF         
     2008 0000002d 08700000-        ldp       @CL11,DP
     2009 0000002e 50280016-        ldiu      @CL11,ar0             ; |317| 
     2010 0000002f 08700000-        ldp       @CL10,DP
     2011 00000030 50290015-        ldiu      @CL10,ar1             ; |317| 
     2012 00000031 5040c000         ldiu      *ar0,r0               ; |317| 
     2013 00000032 02e0ffff         and       65535,r0              ; |317| 
     2014 00000033 1540c100         sti       r0,*ar1               ; |317| 
     2015                           .line   18
     2016                   ;----------------------------------------------------------------------
     2017                   ; 319 | break;                                                                 
     2018                   ; 321 | case DAC_Aout1:                                                        
     2019                   ;----------------------------------------------------------------------
     2020 00000034 6a00002a         bu        L76                   ; |319| 
     2021                   ;*      Branch Occurs to L76            ; |319| 
     2022 00000035          L70:        
     2023                           .line   22
     2024                   ;----------------------------------------------------------------------
     2025                   ; 323 | if (B202_PORT)                                                         
     2026                   ;----------------------------------------------------------------------
     2027 00000035 08700000-        ldp       @CL21,DP
     2028 00000036 50280020-        ldiu      @CL21,ar0             ; |323| 
     2029 00000037 50600020         ldiu      32,r0                 ; |323| 
     2030 00000038 27c000c0         tstb3     *ar0,r0               ; |323| 
     2031 00000039 6a060036         bne       L77                   ; |323| 
     2032                   ;*      Branch Occurs to L77            ; |323| 
     2033                           .line   24
     2034                   ;----------------------------------------------------------------------
     2035                   ; 325 | AO[n].present = TRUE;                                                  
     2036                   ;----------------------------------------------------------------------
     2037 0000003a 50510301         ldiu      *+fp(1),ir0           ; |325| 
     2038 0000003b 08700000-        ldp       @CL15,DP
     2039 0000003c 0af101a3         mpyi      419,ir0               ; |325| 
     2040 0000003d 5028001a-        ldiu      @CL15,ar0             ; |325| 
     2041 0000003e 50600001         ldiu      1,r0                  ; |325| 
     2042 0000003f 15404000         sti       r0,*+ar0(ir0)         ; |325| 
     2043                           .line   25
     2044                   ;----------------------------------------------------------------------
     2045                   ; 326 | SEL_DAC1;                                                              
     2046                   ;----------------------------------------------------------------------
     2047 00000040 08780066         ldi             66h,IOF         
     2048                           .line   26
     2049                   ;----------------------------------------------------------------------
     2050                   ; 327 | *SP0_TXDATA   = DAC_INTREF;                                            
     2051                   ;----------------------------------------------------------------------
     2052 00000041 08700000-        ldp       @CL9,DP
TMS320C3x/4x COFF AssemblerVersion 5.12     Wed Jul 24 11:03:43 2019
Copyright (c) 1987-1999 Texas Instruments Incorporatedasm30.exe -@_3JG.AAB 

G:\workspace\EEA\V615\APP\SOURCE\ASM\dac.asm                         PAGE   39

     2053 00000042 50280014-        ldiu      @CL9,ar0              ; |327| 
     2054 00000043 08700000-        ldp       @CL20,DP
     2055 00000044 5020001f-        ldiu      @CL20,r0              ; |327| 
     2056 00000045 1540c000         sti       r0,*ar0               ; |327| 
     2057                           .line   27
     2058                   ;----------------------------------------------------------------------
     2059                   ; 328 | WAIT_SP0;                                                              
     2060                   ; 330 | else                                                                   
     2061                   ;----------------------------------------------------------------------
     2062 00000046 08700000-        ldp       @CL11,DP
     2063 00000047 50280016-        ldiu      @CL11,ar0             ; |328| 
     2064 00000048 08700000-        ldp       @CL10,DP
     2065 00000049 50290015-        ldiu      @CL10,ar1             ; |328| 
     2066 0000004a 5040c000         ldiu      *ar0,r0               ; |328| 
     2067 0000004b 02e0ffff         and       65535,r0              ; |328| 
     2068 0000004c 1540c100         sti       r0,*ar1               ; |328| 
     2069 0000004d 1a770020         tstb    0020h, IF       
     2070 0000004e 6a05fffe         .word   6A05FFFEh       
     2071 0000004f 03770020         andn    0020h, IF
     2072 00000050 08780022         ldi             22h,IOF         
     2073 00000051 08700000-        ldp       @CL11,DP
     2074 00000052 50290016-        ldiu      @CL11,ar1             ; |328| 
     2075 00000053 08700000-        ldp       @CL10,DP
     2076 00000054 50280015-        ldiu      @CL10,ar0             ; |328| 
     2077 00000055 5040c100         ldiu      *ar1,r0               ; |328| 
     2078 00000056 02e0ffff         and       65535,r0              ; |328| 
     2079 00000057 1540c000         sti       r0,*ar0               ; |328| 
     2080 00000058 6a000006         bu        L76                   ; |301| 
     2081                   ;*      Branch Occurs to L76            ; |301| 
     2082                           .line   30
     2083                   ;----------------------------------------------------------------------
     2084                   ; 331 | return;                                                                
     2085                   ;----------------------------------------------------------------------
     2086                           .line   32
     2087                   ;----------------------------------------------------------------------
     2088                   ; 333 | break;                                                                 
     2089                   ; 335 | default:                                                               
     2090                   ;----------------------------------------------------------------------
     2091                           .line   35
     2092                   ;----------------------------------------------------------------------
     2093                   ; 336 | return;                                                                
     2094                   ;----------------------------------------------------------------------
     2095 00000059          L73:        
     2096                           .line   10
     2097 00000059 50400301         ldiu      *+fp(1),r0            ; |311| 
     2098 0000005a 04e00000         cmpi      0,r0                  ; |311| 
     2099 0000005b 6a05ffd9         beq       L70                   ; |311| 
     2100                   ;*      Branch Occurs to L70            ; |311| 
     2101 0000005c 04e0000a         cmpi      10,r0                 ; |311| 
     2102 0000005d 6a05ffbe         beq       L69                   ; |311| 
     2103                   ;*      Branch Occurs to L69            ; |311| 
     2104 0000005e 6a000011         bu        L77                   ; |311| 
     2105                   ;*      Branch Occurs to L77            ; |311| 
     2106 0000005f          L76:        
TMS320C3x/4x COFF AssemblerVersion 5.12     Wed Jul 24 11:03:43 2019
Copyright (c) 1987-1999 Texas Instruments Incorporatedasm30.exe -@_3JG.AAB 

G:\workspace\EEA\V615\APP\SOURCE\ASM\dac.asm                         PAGE   40

     2107                           .line   39
     2108                   ;----------------------------------------------------------------------
     2109                   ; 340 | VAR_Update(&REG_DAC[n], 0.0, 0, 0);                                    
     2110                   ;----------------------------------------------------------------------
     2111 0000005f 08700000-        ldp       @CL7,DP
     2112 00000060 504a0301         ldiu      *+fp(1),ar2           ; |340| 
     2113 00000061 50200012-        ldiu      @CL7,r0               ; |340| 
     2114 00000062 08700000-        ldp       @CL1,DP
     2115 00000063 0aea002c         mpyi      44,ar2                ; |340| 
     2116 00000064 022a000c-        addi      @CL1,ar2              ; |340| Unsigned
     2117 00000065 08700000-        ldp       @CL22+0,DP
     2118 00000066 40220021-        ldfu      @CL22+0,f2            ; |340| 40b float hi half
     2119 00000067 08700000-        ldp       @CL22+1,DP
     2120 00000068 507b0000         ldiu      0,rc                  ; |340| 
     2121 00000069 50220022-        ldiu      @CL22+1,r2            ; |340| 40b float lo half
     2122 0000006a 50630000         ldiu      0,r3                  ; |340| 
     2123 0000006b 70000000         callu     r0                    ; far call to _VAR_Update       ; |340| 
     2124                                                           ; |340| Far Call Occurs
     2125                           .line   40
     2126                   ;----------------------------------------------------------------------
     2127                   ; 341 | Write_DAC(n);                                                          
     2128                   ;----------------------------------------------------------------------
     2129 0000006c 08700000-        ldp       @CL23,DP
     2130 0000006d 50200023-        ldiu      @CL23,r0              ; |341| 
     2131 0000006e 504a0301         ldiu      *+fp(1),ar2           ; |341| 
     2132 0000006f 70000000         callu     r0                    ; far call to _Write_DAC        ; |341| 
     2133                                                           ; |341| Far Call Occurs
     2134 00000070          L77:        
     2135                           .line   41
     2136                                                           ; Begin Epilog Code
     2137 00000070 50410b01         ldiu      *-fp(1),r1
     2138 00000071 504bc300         ldiu      *fp,fp
     2139                                                           ; Unallocate the Frame
     2140 00000072 18740003         subi      3,sp
     2141 00000073 68000001         bu        r1
     2142                   ;*      Branch Occurs to r1 
     2143                           .endfunc        342,000000000h,1
     2144                   
     2145                   
     2146 00000211                  .sect    ".text"
     2147                   
     2148                           .global _Set_Current
     2149                           .sym    _Set_Current,_Set_Current,32,2,0
     2150                           .func   356
     2151                   ;******************************************************************************
     2152                   ;* FUNCTION NAME: _Set_Current                                                *
     2153                   ;*                                                                            *
     2154                   ;*   Architecture       : TMS320C33                                           *
     2155                   ;*   Calling Convention : TI Standard Register Parameters                     *
     2156                   ;*   Function Uses Regs : f0,r0,f1,r1,f2,r2,f3,r3,f4,r4,ar0,ar1,ar2,fp,ar4,   *
     2157                   ;*                        ar5,ir0,ir1,bk,st,rs,re,rc                          *
     2158                   ;*   Regs Saved         : r4,ar4,ar5                                          *
     2159                   ;*   Stack Frame        : Full (w/ debug)                                     *
     2160                   ;*   Total Frame Size   : 2 Call + 0 Parm + 22 Auto + 3 SOE = 27 words        *
TMS320C3x/4x COFF AssemblerVersion 5.12     Wed Jul 24 11:03:43 2019
Copyright (c) 1987-1999 Texas Instruments Incorporatedasm30.exe -@_3JG.AAB 

G:\workspace\EEA\V615\APP\SOURCE\ASM\dac.asm                         PAGE   41

     2161                   ;******************************************************************************
     2162 00000211          _Set_Current:
     2163                           .sym    _minv,1,11,1,64
     2164                           .sym    _maxv,3,11,1,64
     2165                           .sym    _minc,5,11,1,64
     2166                           .sym    _maxc,7,11,1,64
     2167                           .sym    _urv,9,11,1,64
     2168                           .sym    _lrv,11,11,1,64
     2169                           .sym    _t,13,11,1,64
     2170                           .sym    _m,15,11,1,64
     2171                           .sym    _y,17,11,1,64
     2172                           .sym    _current,19,6,1,32
     2173                           .sym    _v,20,24,1,32,.fake6
     2174                           .sym    _ui,21,14,1,32
     2175                           .sym    _i,22,4,1,32
     2176                           .line   1
     2177                   ;----------------------------------------------------------------------
     2178                   ; 356 | void Set_Current(void)                                                 
     2179                   ; 358 | long double minv, maxv; /* minimum voltage; maximum voltage */         
     2180                   ; 359 | long double minc, maxc; /* maximum current; maximum current */         
     2181                   ; 360 | long double urv, lrv;   /* AO.URV, AO.LRV
     2182                   ;     |          */                                                            
     2183                   ; 361 | long double t;                  /* PID manual percent
     2184                   ;     |          */                                                            
     2185                   ; 362 | long double m;                  /* calculated AO.CURRENT
     2186                   ;     |          */                                                            
     2187                   ; 363 | long double y;                  /* temp caluclation variable
     2188                   ;     |  */                                                                    
     2189                   ; 364 | float current;                  /* mode -1: current
     2190                   ;     |                  */                                                    
     2191                   ; 365 | VAR* v;                                 /* HART variable
     2192                   ;     |                          */                                            
     2193                   ; 366 | unsigned int ui;                /* user index?
     2194                   ;     |                  */                                                    
     2195                   ; 367 | int i;                                  /* counter
     2196                   ;     |                                  */                                    
     2197                   ;----------------------------------------------------------------------
     2198 00000211 0f2b0000         push      fp
     2199 00000212 500b0014         ldiu      sp,fp
     2200 00000213 02740016         addi      22,sp
     2201 00000214 0f240000         push      r4
     2202 00000215 0f2c0000         push      ar4
     2203 00000216 0f2d0000         push      ar5
     2204                           .line   14
     2205                   ;----------------------------------------------------------------------
     2206                   ; 369 | _GIEP;                                                                 
     2207                   ;----------------------------------------------------------------------
     2208 00000217 0f350000         push    ST                      
     2209 00000218 03752000         andn    2000h, ST       
     2210                           .line   16
     2211                   ;----------------------------------------------------------------------
     2212                   ; 371 | for (i=0;i<AO_NLOOPS;i++)                                              
     2213                   ;----------------------------------------------------------------------
     2214 00000219 50600000         ldiu      0,r0                  ; |371| 
TMS320C3x/4x COFF AssemblerVersion 5.12     Wed Jul 24 11:03:43 2019
Copyright (c) 1987-1999 Texas Instruments Incorporatedasm30.exe -@_3JG.AAB 

G:\workspace\EEA\V615\APP\SOURCE\ASM\dac.asm                         PAGE   42

     2215 0000021a 15400316         sti       r0,*+fp(22)           ; |371| 
     2216 0000021b 04e00009         cmpi      9,r0                  ; |371| 
     2217 0000021c 6a0a0332         bge       L140                  ; |371| 
     2218                   ;*      Branch Occurs to L140           ; |371| 
     2219 0000021d          L80:        
     2220                           .line   18
     2221                   ;----------------------------------------------------------------------
     2222                   ; 373 | if (!AO[i].present)/* if channel not present, check next channel */    
     2223                   ;----------------------------------------------------------------------
     2224 0000021d 50510316         ldiu      *+fp(22),ir0          ; |373| 
     2225 0000021e 08700000-        ldp       @CL15,DP
     2226 0000021f 0af101a3         mpyi      419,ir0               ; |373| 
     2227 00000220 5028001a-        ldiu      @CL15,ar0             ; |373| 
     2228 00000221 50404000         ldiu      *+ar0(ir0),r0         ; |373| 
     2229 00000222 04e00000         cmpi      0,r0                  ; |373| 
     2230 00000223 6a050326         beq       L139                  ; |373| 
     2231                   ;*      Branch Occurs to L139           ; |373| 
     2232                           .line   19
     2233                   ;----------------------------------------------------------------------
     2234                   ; 374 | continue;                                                              
     2235                   ;----------------------------------------------------------------------
     2236                           .line   21
     2237                   ;----------------------------------------------------------------------
     2238                   ; 376 | if (((i+DAC_Aout1)>=DAC_Aout6) && ((i+DAC_Aout1)<=DAC_Aout9) && (AO[i].
     2239                   ;     | v.val==-2))                                                            
     2240                   ;----------------------------------------------------------------------
     2241 00000224 50400316         ldiu      *+fp(22),r0           ; |376| 
     2242 00000225 04e00005         cmpi      5,r0                  ; |376| 
     2243 00000226 6a07000f         blt       L85                   ; |376| 
     2244                   ;*      Branch Occurs to L85            ; |376| 
     2245 00000227 04e00008         cmpi      8,r0                  ; |376| 
     2246 00000228 6a09000d         bgt       L85                   ; |376| 
     2247                   ;*      Branch Occurs to L85            ; |376| 
     2248 00000229 50110000         ldiu      r0,ir0
     2249 0000022a 08700000-        ldp       @CL24,DP
     2250 0000022b 0af101a3         mpyi      419,ir0               ; |376| 
     2251 0000022c 50280024-        ldiu      @CL24,ar0             ; |376| 
     2252 0000022d 50404000         ldiu      *+ar0(ir0),r0         ; |376| 
     2253 0000022e 04e0fffe         cmpi      -2,r0                 ; |376| 
     2254 0000022f 6a060006         bne       L85                   ; |376| 
     2255                   ;*      Branch Occurs to L85            ; |376| 
     2256                           .line   22
     2257                   ;----------------------------------------------------------------------
     2258                   ; 377 | AO[i].v.val = -1; /* PID mode not allowed on AO6-9 */                  
     2259                   ;----------------------------------------------------------------------
     2260 00000230 50510316         ldiu      *+fp(22),ir0          ; |377| 
     2261 00000231 08700000-        ldp       @CL24,DP
     2262 00000232 0af101a3         mpyi      419,ir0               ; |377| 
     2263 00000233 50280024-        ldiu      @CL24,ar0             ; |377| 
     2264 00000234 5060ffff         ldiu      -1,r0                 ; |377| 
     2265 00000235 15404000         sti       r0,*+ar0(ir0)         ; |377| 
     2266 00000236          L85:        
     2267                           .line   24
     2268                   ;----------------------------------------------------------------------
TMS320C3x/4x COFF AssemblerVersion 5.12     Wed Jul 24 11:03:43 2019
Copyright (c) 1987-1999 Texas Instruments Incorporatedasm30.exe -@_3JG.AAB 

G:\workspace\EEA\V615\APP\SOURCE\ASM\dac.asm                         PAGE   43

     2269                   ; 379 | minc = VAR_Get_Unit_Param(&AO[i].CURRENT, reg_direct_bmin, 0, 0);      
     2270                   ;----------------------------------------------------------------------
     2271 00000236 08700000-        ldp       @CL26,DP
     2272 00000237 504a0316         ldiu      *+fp(22),ar2          ; |379| 
     2273 00000238 50200026-        ldiu      @CL26,r0              ; |379| 
     2274 00000239 08700000-        ldp       @CL13,DP
     2275 0000023a 0aea01a3         mpyi      419,ar2               ; |379| 
     2276 0000023b 022a0018-        addi      @CL13,ar2             ; |379| Unsigned
     2277 0000023c 08700000-        ldp       @CL25,DP
     2278 0000023d 507b0000         ldiu      0,rc                  ; |379| 
     2279 0000023e 50220025-        ldiu      @CL25,r2              ; |379| 
     2280 0000023f 50630000         ldiu      0,r3                  ; |379| 
     2281 00000240 70000000         callu     r0                    ; far call to _VAR_Get_Unit_Param       ; |379| 
     2282                                                           ; |379| Far Call Occurs
     2283 00000241 506100ff         ldiu      255,r1                ; |379| 
     2284 00000242 03000001         andn      r1,f0                 ; |379| Bit mask for F32/F40 conversion
     2285 00000243 14400305         stf       f0,*+fp(5)            ; |379| Store high half
     2286 00000244 15400306         sti       r0,*+fp(6)            ; |379| Store low half
     2287                           .line   25
     2288                   ;----------------------------------------------------------------------
     2289                   ; 380 | maxc = VAR_Get_Unit_Param(&AO[i].CURRENT, reg_direct_bmax, 0, 0);      
     2290                   ;----------------------------------------------------------------------
     2291 00000245 08700000-        ldp       @CL26,DP
     2292 00000246 504a0316         ldiu      *+fp(22),ar2          ; |380| 
     2293 00000247 50200026-        ldiu      @CL26,r0              ; |380| 
     2294 00000248 08700000-        ldp       @CL13,DP
     2295 00000249 0aea01a3         mpyi      419,ar2               ; |380| 
     2296 0000024a 022a0018-        addi      @CL13,ar2             ; |380| Unsigned
     2297 0000024b 08700000-        ldp       @CL27,DP
     2298 0000024c 507b0000         ldiu      0,rc                  ; |380| 
     2299 0000024d 50220027-        ldiu      @CL27,r2              ; |380| 
     2300 0000024e 50630000         ldiu      0,r3                  ; |380| 
     2301 0000024f 70000000         callu     r0                    ; far call to _VAR_Get_Unit_Param       ; |380| 
     2302                                                           ; |380| Far Call Occurs
     2303 00000250 506100ff         ldiu      255,r1                ; |380| 
     2304 00000251 03000001         andn      r1,f0                 ; |380| Bit mask for F32/F40 conversion
     2305 00000252 14400307         stf       f0,*+fp(7)            ; |380| Store high half
     2306 00000253 15400308         sti       r0,*+fp(8)            ; |380| Store low half
     2307                           .line   26
     2308                   ;----------------------------------------------------------------------
     2309                   ; 381 | minv = AO[i].TRIM_MIN.calc_val*(float)DAC_TRIM_F_1[i+DAC_Aout1]/DAC_TRI
     2310                   ;     | M_I_1[i+DAC_Aout1];                                                    
     2311                   ;----------------------------------------------------------------------
     2312 00000254 08700000-        ldp       @CL5,DP
     2313 00000255 50290010-        ldiu      @CL5,ar1              ; |381| 
     2314 00000256 50480316         ldiu      *+fp(22),ar0          ; |381| 
     2315 00000257 50110008         ldiu      ar0,ir0               ; |381| 
     2316 00000258 0ae801a3         mpyi      419,ar0               ; |381| 
     2317 00000259 08700000-        ldp       @CL28,DP
     2318 0000025a 40404100         ldfu      *+ar1(ir0),f0         ; |381| 
     2319 0000025b 02280028-        addi      @CL28,ar0             ; |381| Unsigned
     2320 0000025c 40010000         ldfu      f0,f1                 ; |381| Move F32 into F40 for CONV
     2321 0000025d 4040c000         ldfu      *ar0,f0               ; |381| 40b float hi half
     2322 0000025e 506200ff         ldiu      255,r2                ; |381| 
TMS320C3x/4x COFF AssemblerVersion 5.12     Wed Jul 24 11:03:43 2019
Copyright (c) 1987-1999 Texas Instruments Incorporatedasm30.exe -@_3JG.AAB 

G:\workspace\EEA\V615\APP\SOURCE\ASM\dac.asm                         PAGE   44

     2323 0000025f 03010002         andn      r2,f1                 ; |381| Bit mask for F32/F40 conversion
     2324 00000260 50400001         ldiu      *+ar0,r0              ; |381| 40b float lo half
     2325 00000261 62000000!        call      MPY_LD                ; |381| 
     2326                                                           ; |381| Call Occurs
     2327 00000262 08700000-        ldp       @CL4,DP
     2328 00000263 5028000f-        ldiu      @CL4,ar0              ; |381| 
     2329 00000264 50510316         ldiu      *+fp(22),ir0          ; |381| 
     2330 00000265 50414000         ldiu      *+ar0(ir0),r1         ; |381| 
     2331 00000266 05810001         float     r1,f1                 ; |381| 
     2332 00000267 62000000!        call      DIV_LD                ; |381| 
     2333                                                           ; |381| Call Occurs
     2334 00000268 14400301         stf       f0,*+fp(1)            ; |381| Store high half
     2335 00000269 15400302         sti       r0,*+fp(2)            ; |381| Store low half
     2336                           .line   27
     2337                   ;----------------------------------------------------------------------
     2338                   ; 382 | maxv = AO[i].TRIM_MAX.calc_val*(float)DAC_TRIM_F_1[i+DAC_Aout1]/DAC_TRI
     2339                   ;     | M_I_1[i+DAC_Aout1];                                                    
     2340                   ;----------------------------------------------------------------------
     2341 0000026a 08700000-        ldp       @CL5,DP
     2342 0000026b 50510316         ldiu      *+fp(22),ir0          ; |382| 
     2343 0000026c 50280010-        ldiu      @CL5,ar0              ; |382| 
     2344 0000026d 40404000         ldfu      *+ar0(ir0),f0         ; |382| 
     2345 0000026e 50080011         ldiu      ir0,ar0               ; |382| 
     2346 0000026f 0ae801a3         mpyi      419,ar0               ; |382| 
     2347 00000270 08700000-        ldp       @CL29,DP
     2348 00000271 40010000         ldfu      f0,f1                 ; |382| Move F32 into F40 for CONV
     2349 00000272 02280029-        addi      @CL29,ar0             ; |382| Unsigned
     2350 00000273 506200ff         ldiu      255,r2                ; |382| 
     2351 00000274 4040c000         ldfu      *ar0,f0               ; |382| 40b float hi half
     2352 00000275 03010002         andn      r2,f1                 ; |382| Bit mask for F32/F40 conversion
     2353 00000276 50400001         ldiu      *+ar0,r0              ; |382| 40b float lo half
     2354 00000277 62000000!        call      MPY_LD                ; |382| 
     2355                                                           ; |382| Call Occurs
     2356 00000278 08700000-        ldp       @CL4,DP
     2357 00000279 50510316         ldiu      *+fp(22),ir0          ; |382| 
     2358 0000027a 5028000f-        ldiu      @CL4,ar0              ; |382| 
     2359 0000027b 50414000         ldiu      *+ar0(ir0),r1         ; |382| 
     2360 0000027c 05810001         float     r1,f1                 ; |382| 
     2361 0000027d 62000000!        call      DIV_LD                ; |382| 
     2362                                                           ; |382| Call Occurs
     2363 0000027e 14400303         stf       f0,*+fp(3)            ; |382| Store high half
     2364 0000027f 15400304         sti       r0,*+fp(4)            ; |382| Store low half
     2365                           .line   29
     2366                   ;----------------------------------------------------------------------
     2367                   ; 384 | if ((AO[i].v.val != -2) || (AO[i].MANUAL))                             
     2368                   ;----------------------------------------------------------------------
     2369 00000280 50510316         ldiu      *+fp(22),ir0          ; |384| 
     2370 00000281 08700000-        ldp       @CL24,DP
     2371 00000282 0af101a3         mpyi      419,ir0               ; |384| 
     2372 00000283 50280024-        ldiu      @CL24,ar0             ; |384| 
     2373 00000284 50404000         ldiu      *+ar0(ir0),r0         ; |384| 
     2374 00000285 04e0fffe         cmpi      -2,r0                 ; |384| 
     2375 00000286 6a060007         bne       L87                   ; |384| 
     2376                   ;*      Branch Occurs to L87            ; |384| 
TMS320C3x/4x COFF AssemblerVersion 5.12     Wed Jul 24 11:03:43 2019
Copyright (c) 1987-1999 Texas Instruments Incorporatedasm30.exe -@_3JG.AAB 

G:\workspace\EEA\V615\APP\SOURCE\ASM\dac.asm                         PAGE   45

     2377 00000287 50510316         ldiu      *+fp(22),ir0          ; |384| 
     2378 00000288 08700000-        ldp       @CL30,DP
     2379 00000289 0af101a3         mpyi      419,ir0               ; |384| 
     2380 0000028a 5028002a-        ldiu      @CL30,ar0             ; |384| 
     2381 0000028b 50404000         ldiu      *+ar0(ir0),r0         ; |384| 
     2382 0000028c 04e00000         cmpi      0,r0                  ; |384| 
     2383 0000028d 6a050004         beq       L88                   ; |384| 
     2384                   ;*      Branch Occurs to L88            ; |384| 
     2385 0000028e          L87:        
     2386                           .line   30
     2387                   ;----------------------------------------------------------------------
     2388                   ; 385 | PID_Init(i);    /* this is here to prevent problems when switching betw
     2389                   ;     | een NORMAL/MANUAL & PID */                                             
     2390                   ;----------------------------------------------------------------------
     2391 0000028e 08700000-        ldp       @CL31,DP
     2392 0000028f 504a0316         ldiu      *+fp(22),ar2          ; |385| 
     2393 00000290 5020002b-        ldiu      @CL31,r0              ; |385| 
     2394 00000291 70000000         callu     r0                    ; far call to _PID_Init ; |385| 
     2395                                                           ; |385| Far Call Occurs
     2396 00000292          L88:        
     2397                           .line   32
     2398                   ;----------------------------------------------------------------------
     2399                   ; 387 | if (AO[i].v.val == -2)                                                 
     2400                   ;----------------------------------------------------------------------
     2401 00000292 50510316         ldiu      *+fp(22),ir0          ; |387| 
     2402 00000293 08700000-        ldp       @CL24,DP
     2403 00000294 0af101a3         mpyi      419,ir0               ; |387| 
     2404 00000295 50280024-        ldiu      @CL24,ar0             ; |387| 
     2405 00000296 50404000         ldiu      *+ar0(ir0),r0         ; |387| 
     2406 00000297 04e0fffe         cmpi      -2,r0                 ; |387| 
     2407 00000298 6a0600c0         bne       L106                  ; |387| 
     2408                   ;*      Branch Occurs to L106           ; |387| 
     2409                           .line   34
     2410                   ;----------------------------------------------------------------------
     2411                   ; 389 | if (AO[i].MANUAL)                                                      
     2412                   ;----------------------------------------------------------------------
     2413 00000299 50510316         ldiu      *+fp(22),ir0          ; |389| 
     2414 0000029a 08700000-        ldp       @CL30,DP
     2415 0000029b 0af101a3         mpyi      419,ir0               ; |389| 
     2416 0000029c 5028002a-        ldiu      @CL30,ar0             ; |389| 
     2417 0000029d 50404000         ldiu      *+ar0(ir0),r0         ; |389| 
     2418 0000029e 04e00000         cmpi      0,r0                  ; |389| 
     2419 0000029f 6a050078         beq       L102                  ; |389| 
     2420                   ;*      Branch Occurs to L102           ; |389| 
     2421                           .line   36
     2422                   ;----------------------------------------------------------------------
     2423                   ; 391 | if (AO[i].MANUAL_PERCENT > 100.0)       /* check bounds of manual % */ 
     2424                   ;----------------------------------------------------------------------
     2425 000002a0 50510316         ldiu      *+fp(22),ir0          ; |391| 
     2426 000002a1 08700000-        ldp       @CL32,DP
     2427 000002a2 0af101a3         mpyi      419,ir0               ; |391| 
     2428 000002a3 5028002c-        ldiu      @CL32,ar0             ; |391| 
     2429 000002a4 40606480         ldfu      1.0000000000e+02,f0   ; |391| 
     2430 000002a5 23204000         cmpf3     f0,*+ar0(ir0)         ; |391| 
TMS320C3x/4x COFF AssemblerVersion 5.12     Wed Jul 24 11:03:43 2019
Copyright (c) 1987-1999 Texas Instruments Incorporatedasm30.exe -@_3JG.AAB 

G:\workspace\EEA\V615\APP\SOURCE\ASM\dac.asm                         PAGE   46

     2431 000002a6 6a080007         ble       L92                   ; |391| 
     2432                   ;*      Branch Occurs to L92            ; |391| 
     2433                           .line   37
     2434                   ;----------------------------------------------------------------------
     2435                   ; 392 | AO[i].MANUAL_PERCENT = 100.0;                                          
     2436                   ;----------------------------------------------------------------------
     2437 000002a7 50510316         ldiu      *+fp(22),ir0          ; |392| 
     2438 000002a8 08700000-        ldp       @CL32,DP
     2439 000002a9 0af101a3         mpyi      419,ir0               ; |392| 
     2440 000002aa 5028002c-        ldiu      @CL32,ar0             ; |392| 
     2441 000002ab 40606480         ldfu      1.0000000000e+02,f0   ; |392| 
     2442 000002ac 14404000         stf       f0,*+ar0(ir0)         ; |392| 
     2443 000002ad 6a00000d         bu        L94                   ; |355| 
     2444                   ;*      Branch Occurs to L94            ; |355| 
     2445 000002ae          L92:        
     2446                           .line   38
     2447                   ;----------------------------------------------------------------------
     2448                   ; 393 | else if (AO[i].MANUAL_PERCENT<0.0)                                     
     2449                   ;----------------------------------------------------------------------
     2450 000002ae 50510316         ldiu      *+fp(22),ir0          ; |393| 
     2451 000002af 08700000-        ldp       @CL32,DP
     2452 000002b0 0af101a3         mpyi      419,ir0               ; |393| 
     2453 000002b1 5028002c-        ldiu      @CL32,ar0             ; |393| 
     2454 000002b2 40608000         ldfu      0.0000000000e+00,f0   ; |393| 
     2455 000002b3 23204000         cmpf3     f0,*+ar0(ir0)         ; |393| 
     2456 000002b4 6a0a0006         bge       L94                   ; |393| 
     2457                   ;*      Branch Occurs to L94            ; |393| 
     2458                           .line   39
     2459                   ;----------------------------------------------------------------------
     2460                   ; 394 | AO[i].MANUAL_PERCENT = 0.0;                                            
     2461                   ;----------------------------------------------------------------------
     2462 000002b5 50510316         ldiu      *+fp(22),ir0          ; |394| 
     2463 000002b6 08700000-        ldp       @CL32,DP
     2464 000002b7 0af101a3         mpyi      419,ir0               ; |394| 
     2465 000002b8 5028002c-        ldiu      @CL32,ar0             ; |394| 
     2466 000002b9 40608000         ldfu      0.0000000000e+00,f0   ; |394| 
     2467 000002ba 14404000         stf       f0,*+ar0(ir0)         ; |394| 
     2468 000002bb          L94:        
     2469                           .line   41
     2470                   ;----------------------------------------------------------------------
     2471                   ; 396 | t = AO[i].MANUAL_PERCENT;                                              
     2472                   ;----------------------------------------------------------------------
     2473 000002bb 50510316         ldiu      *+fp(22),ir0          ; |396| 
     2474 000002bc 08700000-        ldp       @CL32,DP
     2475 000002bd 0af101a3         mpyi      419,ir0               ; |396| 
     2476 000002be 5028002c-        ldiu      @CL32,ar0             ; |396| 
     2477 000002bf 506100ff         ldiu      255,r1                ; |396| 
     2478 000002c0 40404000         ldfu      *+ar0(ir0),f0         ; |396| 
     2479 000002c1 03000001         andn      r1,f0                 ; |396| Bit mask for F32/F40 conversion
     2480 000002c2 1440030d         stf       f0,*+fp(13)           ; |396| Store high half
     2481 000002c3 1540030e         sti       r0,*+fp(14)           ; |396| Store low half
     2482                           .line   43
     2483                   ;----------------------------------------------------------------------
     2484                   ; 398 | if (AO[i].PID_enable_failsafe && AO[i].PID_fail)                       
TMS320C3x/4x COFF AssemblerVersion 5.12     Wed Jul 24 11:03:43 2019
Copyright (c) 1987-1999 Texas Instruments Incorporatedasm30.exe -@_3JG.AAB 

G:\workspace\EEA\V615\APP\SOURCE\ASM\dac.asm                         PAGE   47

     2485                   ;----------------------------------------------------------------------
     2486 000002c4 50510316         ldiu      *+fp(22),ir0          ; |398| 
     2487 000002c5 08700000-        ldp       @CL33,DP
     2488 000002c6 0af101a3         mpyi      419,ir0               ; |398| 
     2489 000002c7 5028002d-        ldiu      @CL33,ar0             ; |398| 
     2490 000002c8 50404000         ldiu      *+ar0(ir0),r0         ; |398| 
     2491 000002c9 04e00000         cmpi      0,r0                  ; |398| 
     2492 000002ca 6a05001f         beq       L99                   ; |398| 
     2493                   ;*      Branch Occurs to L99            ; |398| 
     2494 000002cb 50510316         ldiu      *+fp(22),ir0          ; |398| 
     2495 000002cc 08700000-        ldp       @CL34,DP
     2496 000002cd 0af101a3         mpyi      419,ir0               ; |398| 
     2497 000002ce 5028002e-        ldiu      @CL34,ar0             ; |398| 
     2498 000002cf 50404000         ldiu      *+ar0(ir0),r0         ; |398| 
     2499 000002d0 04e00000         cmpi      0,r0                  ; |398| 
     2500 000002d1 6a050018         beq       L99                   ; |398| 
     2501                   ;*      Branch Occurs to L99            ; |398| 
     2502                           .line   45
     2503                   ;----------------------------------------------------------------------
     2504                   ; 400 | PID_Init(i);                                                           
     2505                   ;----------------------------------------------------------------------
     2506 000002d2 08700000-        ldp       @CL31,DP
     2507 000002d3 504a0316         ldiu      *+fp(22),ar2          ; |400| 
     2508 000002d4 5020002b-        ldiu      @CL31,r0              ; |400| 
     2509 000002d5 70000000         callu     r0                    ; far call to _PID_Init ; |400| 
     2510                                                           ; |400| Far Call Occurs
     2511                           .line   47
     2512                   ;----------------------------------------------------------------------
     2513                   ; 402 | if (AO[i].REVERSE)                                                     
     2514                   ;----------------------------------------------------------------------
     2515 000002d6 08700000-        ldp       @CL35,DP
     2516 000002d7 50510316         ldiu      *+fp(22),ir0          ; |402| 
     2517 000002d8 5028002f-        ldiu      @CL35,ar0             ; |402| 
     2518 000002d9 0af101a3         mpyi      419,ir0               ; |402| 
     2519 000002da 50404000         ldiu      *+ar0(ir0),r0         ; |402| 
     2520 000002db 04e00000         cmpi      0,r0                  ; |402| 
     2521 000002dc 6a050007         beq       L98                   ; |402| 
     2522                   ;*      Branch Occurs to L98            ; |402| 
     2523                           .line   48
     2524                   ;----------------------------------------------------------------------
     2525                   ; 403 | t = 100.0;                                                             
     2526                   ; 404 | else                                                                   
     2527                   ;----------------------------------------------------------------------
     2528 000002dd 08700000-        ldp       @CL36+0,DP
     2529 000002de 40200030-        ldfu      @CL36+0,f0            ; |403| 40b float hi half
     2530 000002df 08700000-        ldp       @CL36+1,DP
     2531 000002e0 50200031-        ldiu      @CL36+1,r0            ; |403| 40b float lo half
     2532 000002e1 1440030d         stf       f0,*+fp(13)           ; |403| Store high half
     2533 000002e2 1540030e         sti       r0,*+fp(14)           ; |403| Store low half
     2534 000002e3 6a000006         bu        L99                   ; |355| 
     2535                   ;*      Branch Occurs to L99            ; |355| 
     2536 000002e4          L98:        
     2537                           .line   50
     2538                   ;----------------------------------------------------------------------
TMS320C3x/4x COFF AssemblerVersion 5.12     Wed Jul 24 11:03:43 2019
Copyright (c) 1987-1999 Texas Instruments Incorporatedasm30.exe -@_3JG.AAB 

G:\workspace\EEA\V615\APP\SOURCE\ASM\dac.asm                         PAGE   48

     2539                   ; 405 | t = 0.0;                                                               
     2540                   ;----------------------------------------------------------------------
     2541 000002e4 08700000-        ldp       @CL22+0,DP
     2542 000002e5 40200021-        ldfu      @CL22+0,f0            ; |405| 40b float hi half
     2543 000002e6 08700000-        ldp       @CL22+1,DP
     2544 000002e7 50200022-        ldiu      @CL22+1,r0            ; |405| 40b float lo half
     2545 000002e8 1440030d         stf       f0,*+fp(13)           ; |405| Store high half
     2546 000002e9 1540030e         sti       r0,*+fp(14)           ; |405| Store low half
     2547 000002ea          L99:        
     2548                           .line   53
     2549                   ;----------------------------------------------------------------------
     2550                   ; 408 | if (AO[i].REVERSE)                                                     
     2551                   ;----------------------------------------------------------------------
     2552 000002ea 50510316         ldiu      *+fp(22),ir0          ; |408| 
     2553 000002eb 08700000-        ldp       @CL35,DP
     2554 000002ec 0af101a3         mpyi      419,ir0               ; |408| 
     2555 000002ed 5028002f-        ldiu      @CL35,ar0             ; |408| 
     2556 000002ee 50404000         ldiu      *+ar0(ir0),r0         ; |408| 
     2557 000002ef 04e00000         cmpi      0,r0                  ; |408| 
     2558 000002f0 6a050014         beq       L101                  ; |408| 
     2559                   ;*      Branch Occurs to L101           ; |408| 
     2560                           .line   54
     2561                   ;----------------------------------------------------------------------
     2562                   ; 409 | m = ((maxc-minc)*(100.0-t)/100.0) + minc;                              
     2563                   ; 410 | else                                                                   
     2564                   ;----------------------------------------------------------------------
     2565 000002f1 40400305         ldfu      *+fp(5),f0            ; |409| 40b float hi half
     2566 000002f2 40420307         ldfu      *+fp(7),f2            ; |409| 40b float hi half
     2567 000002f3 4041030d         ldfu      *+fp(13),f1           ; |409| 40b float hi half
     2568 000002f4 50400306         ldiu      *+fp(6),r0            ; |409| 40b float lo half
     2569 000002f5 50420308         ldiu      *+fp(8),r2            ; |409| 40b float lo half
     2570 000002f6 5041030e         ldiu      *+fp(14),r1           ; |409| 40b float lo half
     2571 000002f7 26800200         subf3     f0,f2,f0              ; |409| 
     2572 000002f8 19616480         subrf     1.0000000000e+02,f1   ; |409| 
     2573 000002f9 62000000!        call      MPY_LD                ; |409| 
     2574                                                           ; |409| Call Occurs
     2575 000002fa 08700000-        ldp       @CL37+0,DP
     2576 000002fb 40210032-        ldfu      @CL37+0,f1            ; |409| 40b float hi half
     2577 000002fc 08700000-        ldp       @CL37+1,DP
     2578 000002fd 50210033-        ldiu      @CL37+1,r1            ; |409| 40b float lo half
     2579 000002fe 62000000!        call      MPY_LD                ; |409| 
     2580                                                           ; |409| Call Occurs
     2581 000002ff 40410305         ldfu      *+fp(5),f1            ; |409| 40b float hi half
     2582 00000300 50410306         ldiu      *+fp(6),r1            ; |409| 40b float lo half
     2583 00000301 01810000         addf      f0,f1                 ; |409| High Precision ADD
     2584 00000302 1441030f         stf       f1,*+fp(15)           ; |409| Store high half
     2585 00000303 15410310         sti       r1,*+fp(16)           ; |409| Store low half
     2586 00000304 6a000048         bu        L105                  ; |355| 
     2587                   ;*      Branch Occurs to L105           ; |355| 
     2588 00000305          L101:        
     2589                           .line   56
     2590                   ;----------------------------------------------------------------------
     2591                   ; 411 | m = ((maxc-minc)*t/100.0) + minc;                                      
     2592                   ; 413 | else                                                                   
TMS320C3x/4x COFF AssemblerVersion 5.12     Wed Jul 24 11:03:43 2019
Copyright (c) 1987-1999 Texas Instruments Incorporatedasm30.exe -@_3JG.AAB 

G:\workspace\EEA\V615\APP\SOURCE\ASM\dac.asm                         PAGE   49

     2593                   ;----------------------------------------------------------------------
     2594 00000305 40400305         ldfu      *+fp(5),f0            ; |411| 40b float hi half
     2595 00000306 40420307         ldfu      *+fp(7),f2            ; |411| 40b float hi half
     2596 00000307 4041030d         ldfu      *+fp(13),f1           ; |411| 40b float hi half
     2597 00000308 50400306         ldiu      *+fp(6),r0            ; |411| 40b float lo half
     2598 00000309 50420308         ldiu      *+fp(8),r2            ; |411| 40b float lo half
     2599 0000030a 5041030e         ldiu      *+fp(14),r1           ; |411| 40b float lo half
     2600 0000030b 26800200         subf3     f0,f2,f0              ; |411| 
     2601 0000030c 62000000!        call      MPY_LD                ; |411| 
     2602                                                           ; |411| Call Occurs
     2603 0000030d 08700000-        ldp       @CL37+0,DP
     2604 0000030e 40210032-        ldfu      @CL37+0,f1            ; |411| 40b float hi half
     2605 0000030f 08700000-        ldp       @CL37+1,DP
     2606 00000310 50210033-        ldiu      @CL37+1,r1            ; |411| 40b float lo half
     2607 00000311 62000000!        call      MPY_LD                ; |411| 
     2608                                                           ; |411| Call Occurs
     2609 00000312 40410305         ldfu      *+fp(5),f1            ; |411| 40b float hi half
     2610 00000313 50410306         ldiu      *+fp(6),r1            ; |411| 40b float lo half
     2611 00000314 01810000         addf      f0,f1                 ; |411| High Precision ADD
     2612 00000315 1441030f         stf       f1,*+fp(15)           ; |411| Store high half
     2613 00000316 15410310         sti       r1,*+fp(16)           ; |411| Store low half
     2614 00000317 6a000035         bu        L105                  ; |355| 
     2615                   ;*      Branch Occurs to L105           ; |355| 
     2616 00000318          L102:        
     2617                           .line   60
     2618                   ;----------------------------------------------------------------------
     2619                   ; 415 | y = PID(i);                                                            
     2620                   ; 417 | //account for reverse mode! 10/22/2015                                 
     2621                   ;----------------------------------------------------------------------
     2622 00000318 08700000-        ldp       @CL38,DP
     2623 00000319 504a0316         ldiu      *+fp(22),ar2          ; |415| 
     2624 0000031a 50200034-        ldiu      @CL38,r0              ; |415| 
     2625 0000031b 70000000         callu     r0                    ; far call to _PID      ; |415| 
     2626                                                           ; |415| Far Call Occurs
     2627 0000031c 506100ff         ldiu      255,r1                ; |415| 
     2628 0000031d 03000001         andn      r1,f0                 ; |415| Bit mask for F32/F40 conversion
     2629 0000031e 14400311         stf       f0,*+fp(17)           ; |415| Store high half
     2630 0000031f 15400312         sti       r0,*+fp(18)           ; |415| Store low half
     2631                           .line   63
     2632                   ;----------------------------------------------------------------------
     2633                   ; 418 | if (!AO[i].REVERSE)                                                    
     2634                   ;----------------------------------------------------------------------
     2635 00000320 08700000-        ldp       @CL35,DP
     2636 00000321 50510316         ldiu      *+fp(22),ir0          ; |418| 
     2637 00000322 5028002f-        ldiu      @CL35,ar0             ; |418| 
     2638 00000323 0af101a3         mpyi      419,ir0               ; |418| 
     2639 00000324 50404000         ldiu      *+ar0(ir0),r0         ; |418| 
     2640 00000325 04e00000         cmpi      0,r0                  ; |418| 
     2641 00000326 6a060013         bne       L104                  ; |418| 
     2642                   ;*      Branch Occurs to L104           ; |418| 
     2643                           .line   64
     2644                   ;----------------------------------------------------------------------
     2645                   ; 419 | m = ((maxc-minc)*y/100.0) + minc;                                      
     2646                   ; 420 | else //reverse mode                                                    
TMS320C3x/4x COFF AssemblerVersion 5.12     Wed Jul 24 11:03:43 2019
Copyright (c) 1987-1999 Texas Instruments Incorporatedasm30.exe -@_3JG.AAB 

G:\workspace\EEA\V615\APP\SOURCE\ASM\dac.asm                         PAGE   50

     2647                   ;----------------------------------------------------------------------
     2648 00000327 40400305         ldfu      *+fp(5),f0            ; |419| 40b float hi half
     2649 00000328 40420307         ldfu      *+fp(7),f2            ; |419| 40b float hi half
     2650 00000329 40410311         ldfu      *+fp(17),f1           ; |419| 40b float hi half
     2651 0000032a 50400306         ldiu      *+fp(6),r0            ; |419| 40b float lo half
     2652 0000032b 50420308         ldiu      *+fp(8),r2            ; |419| 40b float lo half
     2653 0000032c 50410312         ldiu      *+fp(18),r1           ; |419| 40b float lo half
     2654 0000032d 26800200         subf3     f0,f2,f0              ; |419| 
     2655 0000032e 62000000!        call      MPY_LD                ; |419| 
     2656                                                           ; |419| Call Occurs
     2657 0000032f 08700000-        ldp       @CL37+0,DP
     2658 00000330 40210032-        ldfu      @CL37+0,f1            ; |419| 40b float hi half
     2659 00000331 08700000-        ldp       @CL37+1,DP
     2660 00000332 50210033-        ldiu      @CL37+1,r1            ; |419| 40b float lo half
     2661 00000333 62000000!        call      MPY_LD                ; |419| 
     2662                                                           ; |419| Call Occurs
     2663 00000334 40410305         ldfu      *+fp(5),f1            ; |419| 40b float hi half
     2664 00000335 50410306         ldiu      *+fp(6),r1            ; |419| 40b float lo half
     2665 00000336 01810000         addf      f0,f1                 ; |419| High Precision ADD
     2666 00000337 1441030f         stf       f1,*+fp(15)           ; |419| Store high half
     2667 00000338 15410310         sti       r1,*+fp(16)           ; |419| Store low half
     2668 00000339 6a000013         bu        L105                  ; |355| 
     2669                   ;*      Branch Occurs to L105           ; |355| 
     2670 0000033a          L104:        
     2671                           .line   66
     2672                   ;----------------------------------------------------------------------
     2673                   ; 421 | m = ((maxc-minc)*(100-y)/100.0) + minc;                                
     2674                   ;----------------------------------------------------------------------
     2675 0000033a 40400305         ldfu      *+fp(5),f0            ; |421| 40b float hi half
     2676 0000033b 40420307         ldfu      *+fp(7),f2            ; |421| 40b float hi half
     2677 0000033c 40410311         ldfu      *+fp(17),f1           ; |421| 40b float hi half
     2678 0000033d 50400306         ldiu      *+fp(6),r0            ; |421| 40b float lo half
     2679 0000033e 50420308         ldiu      *+fp(8),r2            ; |421| 40b float lo half
     2680 0000033f 50410312         ldiu      *+fp(18),r1           ; |421| 40b float lo half
     2681 00000340 26800200         subf3     f0,f2,f0              ; |421| 
     2682 00000341 19616480         subrf     1.0000000000e+02,f1   ; |421| 
     2683 00000342 62000000!        call      MPY_LD                ; |421| 
     2684                                                           ; |421| Call Occurs
     2685 00000343 08700000-        ldp       @CL37+0,DP
     2686 00000344 40210032-        ldfu      @CL37+0,f1            ; |421| 40b float hi half
     2687 00000345 08700000-        ldp       @CL37+1,DP
     2688 00000346 50210033-        ldiu      @CL37+1,r1            ; |421| 40b float lo half
     2689 00000347 62000000!        call      MPY_LD                ; |421| 
     2690                                                           ; |421| Call Occurs
     2691 00000348 40410305         ldfu      *+fp(5),f1            ; |421| 40b float hi half
     2692 00000349 50410306         ldiu      *+fp(6),r1            ; |421| 40b float lo half
     2693 0000034a 01810000         addf      f0,f1                 ; |421| High Precision ADD
     2694 0000034b 1441030f         stf       f1,*+fp(15)           ; |421| Store high half
     2695 0000034c 15410310         sti       r1,*+fp(16)           ; |421| Store low half
     2696 0000034d          L105:        
     2697                           .line   69
     2698                   ;----------------------------------------------------------------------
     2699                   ; 424 | VAR_Update(&AO[i].CURRENT, m, 0, 0);                                   
     2700                   ;----------------------------------------------------------------------
TMS320C3x/4x COFF AssemblerVersion 5.12     Wed Jul 24 11:03:43 2019
Copyright (c) 1987-1999 Texas Instruments Incorporatedasm30.exe -@_3JG.AAB 

G:\workspace\EEA\V615\APP\SOURCE\ASM\dac.asm                         PAGE   51

     2701 0000034d 08700000-        ldp       @CL7,DP
     2702 0000034e 504a0316         ldiu      *+fp(22),ar2          ; |424| 
     2703 0000034f 4042030f         ldfu      *+fp(15),f2           ; |424| 40b float hi half
     2704 00000350 507b0000         ldiu      0,rc                  ; |424| 
     2705 00000351 50200012-        ldiu      @CL7,r0               ; |424| 
     2706 00000352 0aea01a3         mpyi      419,ar2               ; |424| 
     2707 00000353 08700000-        ldp       @CL13,DP
     2708 00000354 50420310         ldiu      *+fp(16),r2           ; |424| 40b float lo half
     2709 00000355 022a0018-        addi      @CL13,ar2             ; |424| Unsigned
     2710 00000356 50630000         ldiu      0,r3                  ; |424| 
     2711 00000357 70000000         callu     r0                    ; far call to _VAR_Update       ; |424| 
     2712                                                           ; |424| Far Call Occurs
     2713 00000358 6a00000d         bu        L108                  ; |355| 
     2714                   ;*      Branch Occurs to L108           ; |355| 
     2715 00000359          L106:        
     2716                           .line   71
     2717                   ;----------------------------------------------------------------------
     2718                   ; 426 | else if (AO[i].v.val < 0)                                              
     2719                   ;----------------------------------------------------------------------
     2720 00000359 50510316         ldiu      *+fp(22),ir0          ; |426| 
     2721 0000035a 08700000-        ldp       @CL24,DP
     2722 0000035b 0af101a3         mpyi      419,ir0               ; |426| 
     2723 0000035c 50280024-        ldiu      @CL24,ar0             ; |426| 
     2724 0000035d 50404000         ldiu      *+ar0(ir0),r0         ; |426| 
     2725 0000035e 04e00000         cmpi      0,r0                  ; |426| 
     2726 0000035f 6a0a0006         bge       L108                  ; |426| 
     2727                   ;*      Branch Occurs to L108           ; |426| 
     2728                           .line   72
     2729                   ;----------------------------------------------------------------------
     2730                   ; 427 | AO[i].MANUAL = TRUE;                                                   
     2731                   ;----------------------------------------------------------------------
     2732 00000360 50510316         ldiu      *+fp(22),ir0          ; |427| 
     2733 00000361 08700000-        ldp       @CL30,DP
     2734 00000362 0af101a3         mpyi      419,ir0               ; |427| 
     2735 00000363 5028002a-        ldiu      @CL30,ar0             ; |427| 
     2736 00000364 50600001         ldiu      1,r0                  ; |427| 
     2737 00000365 15404000         sti       r0,*+ar0(ir0)         ; |427| 
     2738 00000366          L108:        
     2739                           .line   74
     2740                   ;----------------------------------------------------------------------
     2741                   ; 429 | if (AO[i].v.val>=-1)                                                   
     2742                   ; 430 | {// HART mode                                                          
     2743                   ;----------------------------------------------------------------------
     2744 00000366 50510316         ldiu      *+fp(22),ir0          ; |429| 
     2745 00000367 08700000-        ldp       @CL24,DP
     2746 00000368 0af101a3         mpyi      419,ir0               ; |429| 
     2747 00000369 50280024-        ldiu      @CL24,ar0             ; |429| 
     2748 0000036a 50404000         ldiu      *+ar0(ir0),r0         ; |429| 
     2749 0000036b 04e0ffff         cmpi      -1,r0                 ; |429| 
     2750 0000036c 6a070153         blt       L131                  ; |429| 
     2751                   ;*      Branch Occurs to L131           ; |429| 
     2752                           .line   76
     2753                   ;----------------------------------------------------------------------
     2754                   ; 431 | v = HART_Lookup(AO[i].v.val, &ui, (int*)&HART_DV_Table);               
TMS320C3x/4x COFF AssemblerVersion 5.12     Wed Jul 24 11:03:43 2019
Copyright (c) 1987-1999 Texas Instruments Incorporatedasm30.exe -@_3JG.AAB 

G:\workspace\EEA\V615\APP\SOURCE\ASM\dac.asm                         PAGE   52

     2755                   ;----------------------------------------------------------------------
     2756 0000036d 08700000-        ldp       @CL24,DP
     2757 0000036e 50510316         ldiu      *+fp(22),ir0          ; |431| 
     2758 0000036f 5002000b         ldiu      fp,r2                 ; |431| 
     2759 00000370 50280024-        ldiu      @CL24,ar0             ; |431| 
     2760 00000371 0af101a3         mpyi      419,ir0               ; |431| 
     2761 00000372 08700000-        ldp       @CL40,DP
     2762 00000373 504a4000         ldiu      *+ar0(ir0),ar2        ; |431| 
     2763 00000374 50200036-        ldiu      @CL40,r0              ; |431| 
     2764 00000375 08700000-        ldp       @CL39,DP
     2765 00000376 02620015         addi      21,r2                 ; |431| 
     2766 00000377 50230035-        ldiu      @CL39,r3              ; |431| 
     2767 00000378 70000000         callu     r0                    ; far call to _HART_Lookup      ; |431| 
     2768                                                           ; |431| Far Call Occurs
     2769 00000379 15400314         sti       r0,*+fp(20)           ; |431| 
     2770                           .line   89
     2771                   ;----------------------------------------------------------------------
     2772                   ; 444 | if  ( (  !SA && (PORT[4].Slave != 0) ) || (!DIO_HART_5.val && !LOOP_ENA
     2773                   ;     | BLED.val) )                                                            
     2774                   ; 445 | { //    EEA, PORT4 !Slave0  || !HART, !LOOP_ENABLED                    
     2775                   ;----------------------------------------------------------------------
     2776 0000037a 08700000-        ldp       @CL2,DP
     2777 0000037b 5028000d-        ldiu      @CL2,ar0              ; |444| 
     2778 0000037c 5040c000         ldiu      *ar0,r0               ; |444| 
     2779 0000037d 04e00000         cmpi      0,r0                  ; |444| 
     2780 0000037e 6a060005         bne       L111                  ; |444| 
     2781                   ;*      Branch Occurs to L111           ; |444| 
     2782 0000037f 08700000-        ldp       @CL41,DP
     2783 00000380 50280037-        ldiu      @CL41,ar0             ; |444| 
     2784 00000381 5040c000         ldiu      *ar0,r0               ; |444| 
     2785 00000382 04e00000         cmpi      0,r0                  ; |444| 
     2786 00000383 6a06000a         bne       L113                  ; |444| 
     2787                   ;*      Branch Occurs to L113           ; |444| 
     2788 00000384          L111:        
     2789 00000384 08700000-        ldp       @CL42,DP
     2790 00000385 50280038-        ldiu      @CL42,ar0             ; |444| 
     2791 00000386 5040c000         ldiu      *ar0,r0               ; |444| 
     2792 00000387 04e00000         cmpi      0,r0                  ; |444| 
     2793 00000388 6a06001c         bne       L114                  ; |444| 
     2794                   ;*      Branch Occurs to L114           ; |444| 
     2795 00000389 08700000-        ldp       @CL43,DP
     2796 0000038a 50280039-        ldiu      @CL43,ar0             ; |444| 
     2797 0000038b 5040c000         ldiu      *ar0,r0               ; |444| 
     2798 0000038c 04e00000         cmpi      0,r0                  ; |444| 
     2799 0000038d 6a060017         bne       L114                  ; |444| 
     2800                   ;*      Branch Occurs to L114           ; |444| 
     2801 0000038e          L113:        
     2802                           .line   91
     2803                   ;----------------------------------------------------------------------
     2804                   ; 446 | AO[0].MANUAL = TRUE;                                                   
     2805                   ;----------------------------------------------------------------------
     2806 0000038e 08700000-        ldp       @CL30,DP
     2807 0000038f 5028002a-        ldiu      @CL30,ar0             ; |446| 
     2808 00000390 50600001         ldiu      1,r0                  ; |446| 
TMS320C3x/4x COFF AssemblerVersion 5.12     Wed Jul 24 11:03:43 2019
Copyright (c) 1987-1999 Texas Instruments Incorporatedasm30.exe -@_3JG.AAB 

G:\workspace\EEA\V615\APP\SOURCE\ASM\dac.asm                         PAGE   53

     2809 00000391 1540c000         sti       r0,*ar0               ; |446| 
     2810                           .line   92
     2811                   ;----------------------------------------------------------------------
     2812                   ; 447 | VAR_Update(&AO[0].CURRENT, VAR_Get_Unit_Param(&AO[0].CURRENT, reg_direc
     2813                   ;     | t_bmin, 0, 0), 0, 0);                                                  
     2814                   ;----------------------------------------------------------------------
     2815 00000392 08700000-        ldp       @CL13,DP
     2816 00000393 502a0018-        ldiu      @CL13,ar2             ; |447| 
     2817 00000394 08700000-        ldp       @CL26,DP
     2818 00000395 50200026-        ldiu      @CL26,r0              ; |447| 
     2819 00000396 08700000-        ldp       @CL25,DP
     2820 00000397 507b0000         ldiu      0,rc                  ; |447| 
     2821 00000398 50220025-        ldiu      @CL25,r2              ; |447| 
     2822 00000399 50630000         ldiu      0,r3                  ; |447| 
     2823 0000039a 70000000         callu     r0                    ; far call to _VAR_Get_Unit_Param       ; |447| 
     2824                                                           ; |447| Far Call Occurs
     2825 0000039b 08700000-        ldp       @CL13,DP
     2826 0000039c 506100ff         ldiu      255,r1                ; |447| 
     2827 0000039d 502a0018-        ldiu      @CL13,ar2             ; |447| 
     2828 0000039e 40020000         ldfu      f0,f2                 ; |447| Move F32 into F40 for CONV
     2829 0000039f 08700000-        ldp       @CL7,DP
     2830 000003a0 03020001         andn      r1,f2                 ; |447| Bit mask for F32/F40 conversion
     2831 000003a1 50200012-        ldiu      @CL7,r0               ; |447| 
     2832 000003a2 507b0000         ldiu      0,rc                  ; |447| 
     2833 000003a3 50630000         ldiu      0,r3                  ; |447| 
     2834 000003a4 70000000         callu     r0                    ; far call to _VAR_Update       ; |447| 
     2835                                                           ; |447| Far Call Occurs
     2836 000003a5          L114:        
     2837                           .line   95
     2838                   ;----------------------------------------------------------------------
     2839                   ; 450 | if (AO[i].MANUAL)                                                      
     2840                   ;----------------------------------------------------------------------
     2841 000003a5 50510316         ldiu      *+fp(22),ir0          ; |450| 
     2842 000003a6 08700000-        ldp       @CL30,DP
     2843 000003a7 0af101a3         mpyi      419,ir0               ; |450| 
     2844 000003a8 5028002a-        ldiu      @CL30,ar0             ; |450| 
     2845 000003a9 50404000         ldiu      *+ar0(ir0),r0         ; |450| 
     2846 000003aa 04e00000         cmpi      0,r0                  ; |450| 
     2847 000003ab 6a050034         beq       L119                  ; |450| 
     2848                   ;*      Branch Occurs to L119           ; |450| 
     2849                           .line   97
     2850                   ;----------------------------------------------------------------------
     2851                   ; 452 | y = AO[i].CURRENT.val;                                                 
     2852                   ;----------------------------------------------------------------------
     2853 000003ac 50510316         ldiu      *+fp(22),ir0          ; |452| 
     2854 000003ad 08700000-        ldp       @CL13,DP
     2855 000003ae 0af101a3         mpyi      419,ir0               ; |452| 
     2856 000003af 50280018-        ldiu      @CL13,ar0             ; |452| 
     2857 000003b0 506100ff         ldiu      255,r1                ; |452| 
     2858 000003b1 40404000         ldfu      *+ar0(ir0),f0         ; |452| 
     2859 000003b2 03000001         andn      r1,f0                 ; |452| Bit mask for F32/F40 conversion
     2860 000003b3 14400311         stf       f0,*+fp(17)           ; |452| Store high half
     2861 000003b4 15400312         sti       r0,*+fp(18)           ; |452| Store low half
     2862                           .line   99
TMS320C3x/4x COFF AssemblerVersion 5.12     Wed Jul 24 11:03:43 2019
Copyright (c) 1987-1999 Texas Instruments Incorporatedasm30.exe -@_3JG.AAB 

G:\workspace\EEA\V615\APP\SOURCE\ASM\dac.asm                         PAGE   54

     2863                   ;----------------------------------------------------------------------
     2864                   ; 454 | if (y > maxc)                                                          
     2865                   ;----------------------------------------------------------------------
     2866 000003b5 40410307         ldfu      *+fp(7),f1            ; |454| 40b float hi half
     2867 000003b6 40400311         ldfu      *+fp(17),f0           ; |454| 40b float hi half
     2868 000003b7 50410308         ldiu      *+fp(8),r1            ; |454| 40b float lo half
     2869 000003b8 50400312         ldiu      *+fp(18),r0           ; |454| 40b float lo half
     2870 000003b9 04000001         cmpf      f1,f0                 ; |454| 
     2871 000003ba 6a08000f         ble       L117                  ; |454| 
     2872                   ;*      Branch Occurs to L117           ; |454| 
     2873                           .line   101
     2874                   ;----------------------------------------------------------------------
     2875                   ; 456 | y = maxc;                                                              
     2876                   ;----------------------------------------------------------------------
     2877 000003bb 40000001         ldfu      f1,f0                 ; |456| High precision move
     2878 000003bc 14400311         stf       f0,*+fp(17)           ; |456| Store high half
     2879 000003bd 15400312         sti       r0,*+fp(18)           ; |456| Store low half
     2880                           .line   103
     2881                   ;----------------------------------------------------------------------
     2882                   ; 458 | VAR_Update(&AO[i].CURRENT, y, 0, 0);                                   
     2883                   ;----------------------------------------------------------------------
     2884 000003be 504a0316         ldiu      *+fp(22),ar2          ; |458| 
     2885 000003bf 08700000-        ldp       @CL7,DP
     2886 000003c0 0aea01a3         mpyi      419,ar2               ; |458| 
     2887 000003c1 50200012-        ldiu      @CL7,r0               ; |458| 
     2888 000003c2 40420311         ldfu      *+fp(17),f2           ; |458| 40b float hi half
     2889 000003c3 08700000-        ldp       @CL13,DP
     2890 000003c4 507b0000         ldiu      0,rc                  ; |458| 
     2891 000003c5 022a0018-        addi      @CL13,ar2             ; |458| Unsigned
     2892 000003c6 50420312         ldiu      *+fp(18),r2           ; |458| 40b float lo half
     2893 000003c7 50630000         ldiu      0,r3                  ; |458| 
     2894 000003c8 70000000         callu     r0                    ; far call to _VAR_Update       ; |458| 
     2895                                                           ; |458| Far Call Occurs
     2896 000003c9 6a0000f6         bu        L131                  ; |355| 
     2897                   ;*      Branch Occurs to L131           ; |355| 
     2898 000003ca          L117:        
     2899                           .line   105
     2900                   ;----------------------------------------------------------------------
     2901                   ; 460 | else if (y < minc)                                                     
     2902                   ;----------------------------------------------------------------------
     2903 000003ca 40410311         ldfu      *+fp(17),f1           ; |460| 40b float hi half
     2904 000003cb 40400305         ldfu      *+fp(5),f0            ; |460| 40b float hi half
     2905 000003cc 50410312         ldiu      *+fp(18),r1           ; |460| 40b float lo half
     2906 000003cd 50400306         ldiu      *+fp(6),r0            ; |460| 40b float lo half
     2907 000003ce 04010000         cmpf      f0,f1                 ; |460| 
     2908 000003cf 6a0a00f0         bge       L131                  ; |460| 
     2909                   ;*      Branch Occurs to L131           ; |460| 
     2910                           .line   107
     2911                   ;----------------------------------------------------------------------
     2912                   ; 462 | y = minc;                                                              
     2913                   ;----------------------------------------------------------------------
     2914 000003d0 40400305         ldfu      *+fp(5),f0            ; |462| 40b float hi half
     2915 000003d1 50400306         ldiu      *+fp(6),r0            ; |462| 40b float lo half
     2916 000003d2 14400311         stf       f0,*+fp(17)           ; |462| Store high half
TMS320C3x/4x COFF AssemblerVersion 5.12     Wed Jul 24 11:03:43 2019
Copyright (c) 1987-1999 Texas Instruments Incorporatedasm30.exe -@_3JG.AAB 

G:\workspace\EEA\V615\APP\SOURCE\ASM\dac.asm                         PAGE   55

     2917 000003d3 15400312         sti       r0,*+fp(18)           ; |462| Store low half
     2918                           .line   109
     2919                   ;----------------------------------------------------------------------
     2920                   ; 464 | VAR_Update(&AO[i].CURRENT, y, 0, 0);                                   
     2921                   ;----------------------------------------------------------------------
     2922 000003d4 504a0316         ldiu      *+fp(22),ar2          ; |464| 
     2923 000003d5 08700000-        ldp       @CL7,DP
     2924 000003d6 0aea01a3         mpyi      419,ar2               ; |464| 
     2925 000003d7 50200012-        ldiu      @CL7,r0               ; |464| 
     2926 000003d8 40420311         ldfu      *+fp(17),f2           ; |464| 40b float hi half
     2927 000003d9 08700000-        ldp       @CL13,DP
     2928 000003da 507b0000         ldiu      0,rc                  ; |464| 
     2929 000003db 022a0018-        addi      @CL13,ar2             ; |464| Unsigned
     2930 000003dc 50420312         ldiu      *+fp(18),r2           ; |464| 40b float lo half
     2931 000003dd 50630000         ldiu      0,r3                  ; |464| 
     2932 000003de 70000000         callu     r0                    ; far call to _VAR_Update       ; |464| 
     2933                                                           ; |464| Far Call Occurs
     2934 000003df 6a0000e0         bu        L131                  ; |355| 
     2935                   ;*      Branch Occurs to L131           ; |355| 
     2936 000003e0          L119:        
     2937                           .line   112
     2938                   ;----------------------------------------------------------------------
     2939                   ; 467 | else if ((v->STAT & (var_NaNum|var_bound_hi|var_bound_lo|var_alarm_hi|v
     2940                   ;     | ar_alarm_lo)) || (v==&REG_DUMMY))                                      
     2941                   ;----------------------------------------------------------------------
     2942 000003e0 50480314         ldiu      *+fp(20),ar0          ; |467| 
     2943 000003e1 506000f8         ldiu      248,r0                ; |467| 
     2944 000003e2 1a400003         tstb      *+ar0(3),r0           ; |467| 
     2945 000003e3 6a060004         bne       L121                  ; |467| 
     2946                   ;*      Branch Occurs to L121           ; |467| 
     2947 000003e4 08700000-        ldp       @CL44,DP
     2948 000003e5 50000008         ldiu      ar0,r0
     2949 000003e6 04a0003a-        cmpi      @CL44,r0              ; |467| 
     2950 000003e7 6a060047         bne       L130                  ; |467| 
     2951                   ;*      Branch Occurs to L130           ; |467| 
     2952 000003e8          L121:        
     2953                           .line   115
     2954                   ;----------------------------------------------------------------------
     2955                   ; 470 | if ((v->STAT & var_NaNum) || (v==&REG_DUMMY))                          
     2956                   ; 471 | {// NaN or Dummy                                                       
     2957                   ;----------------------------------------------------------------------
     2958 000003e8 50480314         ldiu      *+fp(20),ar0          ; |470| 
     2959 000003e9 50600008         ldiu      8,r0                  ; |470| 
     2960 000003ea 1a400003         tstb      *+ar0(3),r0           ; |470| 
     2961 000003eb 6a060004         bne       L123                  ; |470| 
     2962                   ;*      Branch Occurs to L123           ; |470| 
     2963 000003ec 08700000-        ldp       @CL44,DP
     2964 000003ed 50000008         ldiu      ar0,r0
     2965 000003ee 04a0003a-        cmpi      @CL44,r0              ; |470| 
     2966 000003ef 6a06001f         bne       L126                  ; |470| 
     2967                   ;*      Branch Occurs to L126           ; |470| 
     2968 000003f0          L123:        
     2969                           .line   117
     2970                   ;----------------------------------------------------------------------
TMS320C3x/4x COFF AssemblerVersion 5.12     Wed Jul 24 11:03:43 2019
Copyright (c) 1987-1999 Texas Instruments Incorporatedasm30.exe -@_3JG.AAB 

G:\workspace\EEA\V615\APP\SOURCE\ASM\dac.asm                         PAGE   56

     2971                   ; 472 | if (AO[i].ALARM_SELECT)                                                
     2972                   ;----------------------------------------------------------------------
     2973 000003f0 50510316         ldiu      *+fp(22),ir0          ; |472| 
     2974 000003f1 08700000-        ldp       @CL45,DP
     2975 000003f2 0af101a3         mpyi      419,ir0               ; |472| 
     2976 000003f3 5028003b-        ldiu      @CL45,ar0             ; |472| 
     2977 000003f4 50404000         ldiu      *+ar0(ir0),r0         ; |472| 
     2978 000003f5 04e00000         cmpi      0,r0                  ; |472| 
     2979 000003f6 6a05000c         beq       L125                  ; |472| 
     2980                   ;*      Branch Occurs to L125           ; |472| 
     2981                           .line   118
     2982                   ;----------------------------------------------------------------------
     2983                   ; 473 | VAR_Update(&AO[i].CURRENT, minc, 0, 0);                                
     2984                   ; 474 | else                                                                   
     2985                   ;----------------------------------------------------------------------
     2986 000003f7 08700000-        ldp       @CL7,DP
     2987 000003f8 504a0316         ldiu      *+fp(22),ar2          ; |473| 
     2988 000003f9 40420305         ldfu      *+fp(5),f2            ; |473| 40b float hi half
     2989 000003fa 507b0000         ldiu      0,rc                  ; |473| 
     2990 000003fb 50200012-        ldiu      @CL7,r0               ; |473| 
     2991 000003fc 0aea01a3         mpyi      419,ar2               ; |473| 
     2992 000003fd 08700000-        ldp       @CL13,DP
     2993 000003fe 50420306         ldiu      *+fp(6),r2            ; |473| 40b float lo half
     2994 000003ff 022a0018-        addi      @CL13,ar2             ; |473| Unsigned
     2995 00000400 50630000         ldiu      0,r3                  ; |473| 
     2996 00000401 70000000         callu     r0                    ; far call to _VAR_Update       ; |473| 
     2997                                                           ; |473| Far Call Occurs
     2998 00000402 6a0000bd         bu        L131                  ; |355| 
     2999                   ;*      Branch Occurs to L131           ; |355| 
     3000 00000403          L125:        
     3001                           .line   120
     3002                   ;----------------------------------------------------------------------
     3003                   ; 475 | VAR_Update(&AO[i].CURRENT, maxc, 0, 0);                                
     3004                   ;----------------------------------------------------------------------
     3005 00000403 08700000-        ldp       @CL7,DP
     3006 00000404 504a0316         ldiu      *+fp(22),ar2          ; |475| 
     3007 00000405 40420307         ldfu      *+fp(7),f2            ; |475| 40b float hi half
     3008 00000406 507b0000         ldiu      0,rc                  ; |475| 
     3009 00000407 50200012-        ldiu      @CL7,r0               ; |475| 
     3010 00000408 0aea01a3         mpyi      419,ar2               ; |475| 
     3011 00000409 08700000-        ldp       @CL13,DP
     3012 0000040a 50420308         ldiu      *+fp(8),r2            ; |475| 40b float lo half
     3013 0000040b 022a0018-        addi      @CL13,ar2             ; |475| Unsigned
     3014 0000040c 50630000         ldiu      0,r3                  ; |475| 
     3015 0000040d 70000000         callu     r0                    ; far call to _VAR_Update       ; |475| 
     3016                                                           ; |475| Far Call Occurs
     3017 0000040e 6a0000b1         bu        L131                  ; |355| 
     3018                   ;*      Branch Occurs to L131           ; |355| 
     3019 0000040f          L126:        
     3020                           .line   122
     3021                   ;----------------------------------------------------------------------
     3022                   ; 477 | else if (v->STAT & (var_bound_lo|var_alarm_lo)) // lo bound or alarm   
     3023                   ;----------------------------------------------------------------------
     3024 0000040f 50480314         ldiu      *+fp(20),ar0          ; |477| 
TMS320C3x/4x COFF AssemblerVersion 5.12     Wed Jul 24 11:03:43 2019
Copyright (c) 1987-1999 Texas Instruments Incorporatedasm30.exe -@_3JG.AAB 

G:\workspace\EEA\V615\APP\SOURCE\ASM\dac.asm                         PAGE   57

     3025 00000410 506000a0         ldiu      160,r0                ; |477| 
     3026 00000411 1a400003         tstb      *+ar0(3),r0           ; |477| 
     3027 00000412 6a05000c         beq       L128                  ; |477| 
     3028                   ;*      Branch Occurs to L128           ; |477| 
     3029                           .line   123
     3030                   ;----------------------------------------------------------------------
     3031                   ; 478 | VAR_Update(&AO[i].CURRENT, minc, 0, 0);                                
     3032                   ;----------------------------------------------------------------------
     3033 00000413 08700000-        ldp       @CL7,DP
     3034 00000414 504a0316         ldiu      *+fp(22),ar2          ; |478| 
     3035 00000415 40420305         ldfu      *+fp(5),f2            ; |478| 40b float hi half
     3036 00000416 507b0000         ldiu      0,rc                  ; |478| 
     3037 00000417 50200012-        ldiu      @CL7,r0               ; |478| 
     3038 00000418 0aea01a3         mpyi      419,ar2               ; |478| 
     3039 00000419 08700000-        ldp       @CL13,DP
     3040 0000041a 50420306         ldiu      *+fp(6),r2            ; |478| 40b float lo half
     3041 0000041b 022a0018-        addi      @CL13,ar2             ; |478| Unsigned
     3042 0000041c 50630000         ldiu      0,r3                  ; |478| 
     3043 0000041d 70000000         callu     r0                    ; far call to _VAR_Update       ; |478| 
     3044                                                           ; |478| Far Call Occurs
     3045 0000041e 6a0000a1         bu        L131                  ; |355| 
     3046                   ;*      Branch Occurs to L131           ; |355| 
     3047 0000041f          L128:        
     3048                           .line   124
     3049                   ;----------------------------------------------------------------------
     3050                   ; 479 | else if (v->STAT & (var_bound_hi|var_alarm_hi)) // hi bound or alarm   
     3051                   ;----------------------------------------------------------------------
     3052 0000041f 50480314         ldiu      *+fp(20),ar0          ; |479| 
     3053 00000420 50600050         ldiu      80,r0                 ; |479| 
     3054 00000421 1a400003         tstb      *+ar0(3),r0           ; |479| 
     3055 00000422 6a05009d         beq       L131                  ; |479| 
     3056                   ;*      Branch Occurs to L131           ; |479| 
     3057                           .line   125
     3058                   ;----------------------------------------------------------------------
     3059                   ; 480 | VAR_Update(&AO[i].CURRENT, maxc, 0, 0);                                
     3060                   ; 483 | else                                                                   
     3061                   ;----------------------------------------------------------------------
     3062 00000423 08700000-        ldp       @CL7,DP
     3063 00000424 504a0316         ldiu      *+fp(22),ar2          ; |480| 
     3064 00000425 40420307         ldfu      *+fp(7),f2            ; |480| 40b float hi half
     3065 00000426 507b0000         ldiu      0,rc                  ; |480| 
     3066 00000427 50200012-        ldiu      @CL7,r0               ; |480| 
     3067 00000428 0aea01a3         mpyi      419,ar2               ; |480| 
     3068 00000429 08700000-        ldp       @CL13,DP
     3069 0000042a 50420308         ldiu      *+fp(8),r2            ; |480| 40b float lo half
     3070 0000042b 022a0018-        addi      @CL13,ar2             ; |480| Unsigned
     3071 0000042c 50630000         ldiu      0,r3                  ; |480| 
     3072 0000042d 70000000         callu     r0                    ; far call to _VAR_Update       ; |480| 
     3073                                                           ; |480| Far Call Occurs
     3074 0000042e 6a000091         bu        L131                  ; |355| 
     3075                   ;*      Branch Occurs to L131           ; |355| 
     3076 0000042f          L130:        
     3077                           .line   130
     3078                   ;----------------------------------------------------------------------
TMS320C3x/4x COFF AssemblerVersion 5.12     Wed Jul 24 11:03:43 2019
Copyright (c) 1987-1999 Texas Instruments Incorporatedasm30.exe -@_3JG.AAB 

G:\workspace\EEA\V615\APP\SOURCE\ASM\dac.asm                         PAGE   58

     3079                   ; 485 | lrv     = Convert(AO[i].class.val, AO[i].LRV.unit, AO[i].unit.val, AO[i
     3080                   ;     | ].LRV.val, 0, AO[i].LRV.aux);                                          
     3081                   ;----------------------------------------------------------------------
     3082 0000042f 50510316         ldiu      *+fp(22),ir0          ; |485| 
     3083 00000430 50000011         ldiu      ir0,r0                ; |485| 
     3084 00000431 50120000         ldiu      r0,ir1                ; |485| 
     3085 00000432 50010000         ldiu      r0,r1                 ; |485| 
     3086 00000433 08700000-        ldp       @CL49,DP
     3087 00000434 5028003f-        ldiu      @CL49,ar0             ; |485| 
     3088 00000435 08700000-        ldp       @CL48,DP
     3089 00000436 0af101a3         mpyi      419,ir0               ; |485| 
     3090 00000437 5029003e-        ldiu      @CL48,ar1             ; |485| 
     3091 00000438 08700000-        ldp       @CL50,DP
     3092 00000439 50020000         ldiu      r0,r2                 ; |485| 
     3093 0000043a 502c0040-        ldiu      @CL50,ar4             ; |485| 
     3094 0000043b 0ae101a3         mpyi      419,r1                ; |485| 
     3095 0000043c 08700000-        ldp       @CL46,DP
     3096 0000043d 502d003c-        ldiu      @CL46,ar5             ; |485| 
     3097 0000043e 507900ff         ldiu      255,rs                ; |485| 
     3098 0000043f 08700000-        ldp       @CL47,DP
     3099 00000440 0af201a3         mpyi      419,ir1               ; |485| 
     3100 00000441 502a003d-        ldiu      @CL47,ar2             ; |485| 
     3101 00000442 0ae001a3         mpyi      419,r0                ; |485| 
     3102 00000443 40444000         ldfu      *+ar0(ir0),f4         ; |485| 
     3103 00000444 50110001         ldiu      r1,ir0                ; |485| 
     3104 00000445 50414100         ldiu      *+ar1(ir0),r1         ; |485| 
     3105 00000446 50110000         ldiu      r0,ir0                ; |485| 
     3106 00000447 501b0001         ldiu      r1,rc                 ; |485| 
     3107 00000448 0ae201a3         mpyi      419,r2                ; |485| 
     3108 00000449 50030002         ldiu      r2,r3                 ; |485| 
     3109 0000044a 40020004         ldfu      f4,f2                 ; |485| Move F32 into F40 for CONV
     3110 0000044b 50448400         ldiu      *+ar4(ir1),r4         ; |485| 
     3111 0000044c 08700000-        ldp       @CL51,DP
     3112 0000044d 50120003         ldiu      r3,ir1                ; |485| 
     3113 0000044e 03020019         andn      rs,f2                 ; |485| Bit mask for F32/F40 conversion
     3114                   
     3115 0000044f c6c04582         ldiu      *+ar2(ir1),r3         ; |485| 
     3116                   ||      ldiu      *+ar5(ir0),r0         ; |485| 
     3117                   
     3118 00000450 50330041-        ldiu      @CL51,bk              ; |485| 
     3119 00000451 50790000         ldiu      0,rs                  ; |485| 
     3120 00000452 500a0000         ldiu      r0,ar2                ; |485| 
     3121 00000453 501a0004         ldiu      r4,re                 ; |485| 
     3122 00000454 70000013         callu     bk                    ; far call to _Convert  ; |485| 
     3123                                                           ; |485| Far Call Occurs
     3124 00000455 1440030b         stf       f0,*+fp(11)           ; |485| Store high half
     3125 00000456 1540030c         sti       r0,*+fp(12)           ; |485| Store low half
     3126                           .line   131
     3127                   ;----------------------------------------------------------------------
     3128                   ; 486 | urv     = Convert(AO[i].class.val, AO[i].URV.unit, AO[i].unit.val, AO[i
     3129                   ;     | ].URV.val, 0, AO[i].URV.aux);                                          
     3130                   ;----------------------------------------------------------------------
     3131 00000457 50510316         ldiu      *+fp(22),ir0          ; |486| 
     3132 00000458 50000011         ldiu      ir0,r0                ; |486| 
TMS320C3x/4x COFF AssemblerVersion 5.12     Wed Jul 24 11:03:43 2019
Copyright (c) 1987-1999 Texas Instruments Incorporatedasm30.exe -@_3JG.AAB 

G:\workspace\EEA\V615\APP\SOURCE\ASM\dac.asm                         PAGE   59

     3133 00000459 50010000         ldiu      r0,r1                 ; |486| 
     3134 0000045a 50120011         ldiu      ir0,ir1               ; |486| 
     3135 0000045b 08700000-        ldp       @CL53,DP
     3136 0000045c 502a0043-        ldiu      @CL53,ar2             ; |486| 
     3137 0000045d 08700000-        ldp       @CL48,DP
     3138 0000045e 5029003e-        ldiu      @CL48,ar1             ; |486| 
     3139 0000045f 08700000-        ldp       @CL54,DP
     3140 00000460 502c0044-        ldiu      @CL54,ar4             ; |486| 
     3141 00000461 08700000-        ldp       @CL46,DP
     3142 00000462 502d003c-        ldiu      @CL46,ar5             ; |486| 
     3143 00000463 08700000-        ldp       @CL52,DP
     3144 00000464 0af101a3         mpyi      419,ir0               ; |486| 
     3145 00000465 50280042-        ldiu      @CL52,ar0             ; |486| 
     3146 00000466 0af201a3         mpyi      419,ir1               ; |486| 
     3147 00000467 50020000         ldiu      r0,r2                 ; |486| 
     3148 00000468 0ae101a3         mpyi      419,r1                ; |486| 
     3149 00000469 507900ff         ldiu      255,rs                ; |486| 
     3150 0000046a 0ae001a3         mpyi      419,r0                ; |486| 
     3151 0000046b 0ae201a3         mpyi      419,r2                ; |486| 
     3152 0000046c 50030002         ldiu      r2,r3                 ; |486| 
     3153 0000046d 40424200         ldfu      *+ar2(ir0),f2         ; |486| 
     3154 0000046e 50110001         ldiu      r1,ir0                ; |486| 
     3155                   
     3156 0000046f c7088144         ldiu      *+ar4(ir0),r4         ; |486| 
     3157                   ||      ldiu      *+ar1(ir1),r1         ; |486| 
     3158                   
     3159 00000470 03020019         andn      rs,f2                 ; |486| Bit mask for F32/F40 conversion
     3160 00000471 501a0004         ldiu      r4,re                 ; |486| 
     3161 00000472 50790000         ldiu      0,rs                  ; |486| 
     3162 00000473 50120003         ldiu      r3,ir1                ; |486| 
     3163 00000474 50110000         ldiu      r0,ir0                ; |486| 
     3164 00000475 08700000-        ldp       @CL51,DP
     3165                   
     3166 00000476 c6c04580         ldiu      *+ar0(ir1),r3         ; |486| 
     3167                   ||      ldiu      *+ar5(ir0),r0         ; |486| 
     3168                   
     3169 00000477 500a0000         ldiu      r0,ar2                ; |486| 
     3170 00000478 50330041-        ldiu      @CL51,bk              ; |486| 
     3171 00000479 501b0001         ldiu      r1,rc                 ; |486| 
     3172 0000047a 70000013         callu     bk                    ; far call to _Convert  ; |486| 
     3173                                                           ; |486| Far Call Occurs
     3174 0000047b 14400309         stf       f0,*+fp(9)            ; |486| Store high half
     3175 0000047c 1540030a         sti       r0,*+fp(10)           ; |486| Store low half
     3176                           .line   132
     3177                   ;----------------------------------------------------------------------
     3178                   ; 487 | m               = (maxc-minc)/(urv-lrv);                               
     3179                   ;----------------------------------------------------------------------
     3180 0000047d 40410307         ldfu      *+fp(7),f1            ; |487| 40b float hi half
     3181 0000047e 40400305         ldfu      *+fp(5),f0            ; |487| 40b float hi half
     3182 0000047f 50410308         ldiu      *+fp(8),r1            ; |487| 40b float lo half
     3183 00000480 50400306         ldiu      *+fp(6),r0            ; |487| 40b float lo half
     3184 00000481 26800100         subf3     f0,f1,f0              ; |487| 
     3185 00000482 40410309         ldfu      *+fp(9),f1            ; |487| 40b float hi half
     3186 00000483 4042030b         ldfu      *+fp(11),f2           ; |487| 40b float hi half
TMS320C3x/4x COFF AssemblerVersion 5.12     Wed Jul 24 11:03:43 2019
Copyright (c) 1987-1999 Texas Instruments Incorporatedasm30.exe -@_3JG.AAB 

G:\workspace\EEA\V615\APP\SOURCE\ASM\dac.asm                         PAGE   60

     3187 00000484 5042030c         ldiu      *+fp(12),r2           ; |487| 40b float lo half
     3188 00000485 5041030a         ldiu      *+fp(10),r1           ; |487| 40b float lo half
     3189 00000486 26810102         subf3     f2,f1,f1              ; |487| 
     3190 00000487 62000000!        call      DIV_LD                ; |487| 
     3191                                                           ; |487| Call Occurs
     3192 00000488 1440030f         stf       f0,*+fp(15)           ; |487| Store high half
     3193 00000489 15400310         sti       r0,*+fp(16)           ; |487| Store low half
     3194                           .line   133
     3195                   ;----------------------------------------------------------------------
     3196                   ; 488 | current = m * (Convert(AO[i].class.val, v->unit,AO[i].unit.val, v->val,
     3197                   ;     | 0, v->aux) - AO[i].LRV.val) + minc;                                    
     3198                   ;----------------------------------------------------------------------
     3199 0000048a 08700000-        ldp       @CL48,DP
     3200 0000048b 502a003e-        ldiu      @CL48,ar2             ; |488| 
     3201 0000048c 50480314         ldiu      *+fp(20),ar0          ; |488| 
     3202 0000048d 08700000-        ldp       @CL46,DP
     3203 0000048e 4040c000         ldfu      *ar0,f0               ; |488| 
     3204 0000048f 5028003c-        ldiu      @CL46,ar0             ; |488| 
     3205 00000490 08700000-        ldp       @CL51,DP
     3206 00000491 50510316         ldiu      *+fp(22),ir0          ; |488| 
     3207 00000492 50120011         ldiu      ir0,ir1               ; |488| 
     3208 00000493 50330041-        ldiu      @CL51,bk              ; |488| 
     3209 00000494 0af101a3         mpyi      419,ir0               ; |488| 
     3210 00000495 0af201a3         mpyi      419,ir1               ; |488| 
     3211 00000496 507900ff         ldiu      255,rs                ; |488| 
     3212 00000497 504c0314         ldiu      *+fp(20),ar4          ; |488| 
     3213 00000498 40020000         ldfu      f0,f2                 ; |488| Move F32 into F40 for CONV
     3214 00000499 505a0406         ldiu      *+ar4(6),re           ; |488| 
     3215 0000049a 5009000c         ldiu      ar4,ar1               ; |488| 
     3216                   
     3217 0000049b c6084280         ldiu      *+ar0(ir1),r0         ; |488| 
     3218                   ||      ldiu      *+ar2(ir0),r1         ; |488| 
     3219                   
     3220 0000049c 5043010d         ldiu      *+ar1(13),r3          ; |488| 
     3221 0000049d 501b0001         ldiu      r1,rc                 ; |488| 
     3222 0000049e 03020019         andn      rs,f2                 ; |488| Bit mask for F32/F40 conversion
     3223 0000049f 50790000         ldiu      0,rs                  ; |488| 
     3224 000004a0 500a0000         ldiu      r0,ar2                ; |488| 
     3225 000004a1 70000013         callu     bk                    ; far call to _Convert  ; |488| 
     3226                                                           ; |488| Far Call Occurs
     3227 000004a2 50510316         ldiu      *+fp(22),ir0          ; |488| 
     3228 000004a3 08700000-        ldp       @CL49,DP
     3229 000004a4 0af101a3         mpyi      419,ir0               ; |488| 
     3230 000004a5 5028003f-        ldiu      @CL49,ar0             ; |488| 
     3231 000004a6 40414000         ldfu      *+ar0(ir0),f1         ; |488| 
     3232 000004a7 40020001         ldfu      f1,f2                 ; |488| Move F32 into F40 for CONV
     3233 000004a8 40010000         ldfu      f0,f1                 ; |488| High precision move
     3234 000004a9 506300ff         ldiu      255,r3                ; |488| 
     3235 000004aa 4040030f         ldfu      *+fp(15),f0           ; |488| 40b float hi half
     3236 000004ab 03020003         andn      r3,f2                 ; |488| Bit mask for F32/F40 conversion
     3237 000004ac 50400310         ldiu      *+fp(16),r0           ; |488| 40b float lo half
     3238 000004ad 26810102         subf3     f2,f1,f1              ; |488| 
     3239 000004ae 62000000!        call      MPY_LD                ; |488| 
     3240                                                           ; |488| Call Occurs
TMS320C3x/4x COFF AssemblerVersion 5.12     Wed Jul 24 11:03:43 2019
Copyright (c) 1987-1999 Texas Instruments Incorporatedasm30.exe -@_3JG.AAB 

G:\workspace\EEA\V615\APP\SOURCE\ASM\dac.asm                         PAGE   61

     3241 000004af 40410305         ldfu      *+fp(5),f1            ; |488| 40b float hi half
     3242 000004b0 50410306         ldiu      *+fp(6),r1            ; |488| 40b float lo half
     3243 000004b1 01810000         addf      f0,f1                 ; |488| High Precision ADD
     3244 000004b2 11000001         rnd       f1,f0                 ; |488| Demote to low precision
     3245 000004b3 14400313         stf       f0,*+fp(19)           ; |488| 
     3246                           .line   135
     3247                   ;----------------------------------------------------------------------
     3248                   ; 490 | VAR_Update(&AO[i].CURRENT, current, 0, 0);                             
     3249                   ;----------------------------------------------------------------------
     3250 000004b4 504a0316         ldiu      *+fp(22),ar2          ; |490| 
     3251 000004b5 0aea01a3         mpyi      419,ar2               ; |490| 
     3252 000004b6 08700000-        ldp       @CL13,DP
     3253 000004b7 506300ff         ldiu      255,r3                ; |490| 
     3254 000004b8 022a0018-        addi      @CL13,ar2             ; |490| Unsigned
     3255 000004b9 40020000         ldfu      f0,f2                 ; |490| Move F32 into F40 for CONV
     3256 000004ba 08700000-        ldp       @CL7,DP
     3257 000004bb 03020003         andn      r3,f2                 ; |490| Bit mask for F32/F40 conversion
     3258 000004bc 50210012-        ldiu      @CL7,r1               ; |490| 
     3259 000004bd 507b0000         ldiu      0,rc                  ; |490| 
     3260 000004be 50630000         ldiu      0,r3                  ; |490| 
     3261 000004bf 70000001         callu     r1                    ; far call to _VAR_Update       ; |490| 
     3262                                                           ; |490| Far Call Occurs
     3263 000004c0          L131:        
     3264                           .line   145
     3265                   ;----------------------------------------------------------------------
     3266                   ; 500 | m = (maxv-minv)/(AO[i].TRIM_MAX_C-AO[i].TRIM_MIN_C);                   
     3267                   ;----------------------------------------------------------------------
     3268 000004c0 08700000-        ldp       @CL56,DP
     3269 000004c1 50510316         ldiu      *+fp(22),ir0          ; |500| 
     3270 000004c2 40400301         ldfu      *+fp(1),f0            ; |500| 40b float hi half
     3271 000004c3 40430303         ldfu      *+fp(3),f3            ; |500| 40b float hi half
     3272 000004c4 506200ff         ldiu      255,r2                ; |500| 
     3273 000004c5 50280046-        ldiu      @CL56,ar0             ; |500| 
     3274 000004c6 50120011         ldiu      ir0,ir1               ; |500| 
     3275 000004c7 50400302         ldiu      *+fp(2),r0            ; |500| 40b float lo half
     3276 000004c8 50430304         ldiu      *+fp(4),r3            ; |500| 40b float lo half
     3277 000004c9 08700000-        ldp       @CL55,DP
     3278 000004ca 0af201a3         mpyi      419,ir1               ; |500| 
     3279 000004cb 0af101a3         mpyi      419,ir0               ; |500| 
     3280 000004cc 50290045-        ldiu      @CL55,ar1             ; |500| 
     3281 000004cd 26800300         subf3     f0,f3,f0              ; |500| 
     3282 000004ce 26e18140         subf3     *+ar0(ir0),*+ar1(ir1),f1 ; |500| 
     3283 000004cf 03010002         andn      r2,f1                 ; |500| Bit mask for F32/F40 conversion
     3284 000004d0 62000000!        call      DIV_LD                ; |500| 
     3285                                                           ; |500| Call Occurs
     3286 000004d1 1440030f         stf       f0,*+fp(15)           ; |500| Store high half
     3287 000004d2 15400310         sti       r0,*+fp(16)           ; |500| Store low half
     3288                           .line   146
     3289                   ;----------------------------------------------------------------------
     3290                   ; 501 | y = m*(AO[i].CURRENT.val-AO[i].TRIM_MIN_C) + minv;                     
     3291                   ;----------------------------------------------------------------------
     3292 000004d3 08700000-        ldp       @CL56,DP
     3293 000004d4 50290046-        ldiu      @CL56,ar1             ; |501| 
     3294 000004d5 08700000-        ldp       @CL13,DP
TMS320C3x/4x COFF AssemblerVersion 5.12     Wed Jul 24 11:03:43 2019
Copyright (c) 1987-1999 Texas Instruments Incorporatedasm30.exe -@_3JG.AAB 

G:\workspace\EEA\V615\APP\SOURCE\ASM\dac.asm                         PAGE   62

     3295 000004d6 50280018-        ldiu      @CL13,ar0             ; |501| 
     3296 000004d7 50520316         ldiu      *+fp(22),ir1          ; |501| 
     3297 000004d8 50110012         ldiu      ir1,ir0               ; |501| 
     3298 000004d9 0af101a3         mpyi      419,ir0               ; |501| 
     3299 000004da 0af201a3         mpyi      419,ir1               ; |501| 
     3300 000004db 506200ff         ldiu      255,r2                ; |501| 
     3301 000004dc 26e04081         subf3     *+ar1(ir1),*+ar0(ir0),f0 ; |501| 
     3302 000004dd 40010000         ldfu      f0,f1                 ; |501| Move F32 into F40 for CONV
     3303 000004de 4040030f         ldfu      *+fp(15),f0           ; |501| 40b float hi half
     3304 000004df 03010002         andn      r2,f1                 ; |501| Bit mask for F32/F40 conversion
     3305 000004e0 50400310         ldiu      *+fp(16),r0           ; |501| 40b float lo half
     3306 000004e1 62000000!        call      MPY_LD                ; |501| 
     3307                                                           ; |501| Call Occurs
     3308 000004e2 40410301         ldfu      *+fp(1),f1            ; |501| 40b float hi half
     3309 000004e3 50410302         ldiu      *+fp(2),r1            ; |501| 40b float lo half
     3310 000004e4 01810000         addf      f0,f1                 ; |501| High Precision ADD
     3311 000004e5 14410311         stf       f1,*+fp(17)           ; |501| Store high half
     3312 000004e6 15410312         sti       r1,*+fp(18)           ; |501| Store low half
     3313                           .line   148
     3314                   ;----------------------------------------------------------------------
     3315                   ; 503 | VAR_Update(&REG_DAC[i], y, 0, 0);                                      
     3316                   ;----------------------------------------------------------------------
     3317 000004e7 08700000-        ldp       @CL7,DP
     3318 000004e8 50200012-        ldiu      @CL7,r0               ; |503| 
     3319 000004e9 507b0000         ldiu      0,rc                  ; |503| 
     3320 000004ea 08700000-        ldp       @CL1,DP
     3321 000004eb 504a0316         ldiu      *+fp(22),ar2          ; |503| 
     3322 000004ec 0aea002c         mpyi      44,ar2                ; |503| 
     3323 000004ed 022a000c-        addi      @CL1,ar2              ; |503| Unsigned
     3324 000004ee 40020001         ldfu      f1,f2                 ; |503| High precision move
     3325 000004ef 50630000         ldiu      0,r3                  ; |503| 
     3326 000004f0 70000000         callu     r0                    ; far call to _VAR_Update       ; |503| 
     3327                                                           ; |503| Far Call Occurs
     3328                           .line   149
     3329                   ;----------------------------------------------------------------------
     3330                   ; 504 | Write_DAC(i);                                                          
     3331                   ;----------------------------------------------------------------------
     3332 000004f1 08700000-        ldp       @CL23,DP
     3333 000004f2 50200023-        ldiu      @CL23,r0              ; |504| 
     3334 000004f3 504a0316         ldiu      *+fp(22),ar2          ; |504| 
     3335 000004f4 70000000         callu     r0                    ; far call to _Write_DAC        ; |504| 
     3336                                                           ; |504| Far Call Occurs
     3337                           .line   151
     3338                   ;----------------------------------------------------------------------
     3339                   ; 506 | m = 100.0/( maxc - minc );                                             
     3340                   ;----------------------------------------------------------------------
     3341 000004f5 08700000-        ldp       @CL36+0,DP
     3342 000004f6 40200030-        ldfu      @CL36+0,f0            ; |506| 40b float hi half
     3343 000004f7 40420307         ldfu      *+fp(7),f2            ; |506| 40b float hi half
     3344 000004f8 40410305         ldfu      *+fp(5),f1            ; |506| 40b float hi half
     3345 000004f9 08700000-        ldp       @CL36+1,DP
     3346 000004fa 50420308         ldiu      *+fp(8),r2            ; |506| 40b float lo half
     3347 000004fb 50200031-        ldiu      @CL36+1,r0            ; |506| 40b float lo half
     3348 000004fc 50410306         ldiu      *+fp(6),r1            ; |506| 40b float lo half
TMS320C3x/4x COFF AssemblerVersion 5.12     Wed Jul 24 11:03:43 2019
Copyright (c) 1987-1999 Texas Instruments Incorporatedasm30.exe -@_3JG.AAB 

G:\workspace\EEA\V615\APP\SOURCE\ASM\dac.asm                         PAGE   63

     3349 000004fd 26810201         subf3     f1,f2,f1              ; |506| 
     3350 000004fe 62000000!        call      DIV_LD                ; |506| 
     3351                                                           ; |506| Call Occurs
     3352 000004ff 1440030f         stf       f0,*+fp(15)           ; |506| Store high half
     3353 00000500 15400310         sti       r0,*+fp(16)           ; |506| Store low half
     3354                           .line   152
     3355                   ;----------------------------------------------------------------------
     3356                   ; 507 | y = m * (AO[i].CURRENT.val - minc);                                    
     3357                   ;----------------------------------------------------------------------
     3358 00000501 08700000-        ldp       @CL13,DP
     3359 00000502 50510316         ldiu      *+fp(22),ir0          ; |507| 
     3360 00000503 0af101a3         mpyi      419,ir0               ; |507| 
     3361 00000504 50280018-        ldiu      @CL13,ar0             ; |507| 
     3362 00000505 40414000         ldfu      *+ar0(ir0),f1         ; |507| 
     3363 00000506 506000ff         ldiu      255,r0                ; |507| 
     3364 00000507 03010000         andn      r0,f1                 ; |507| Bit mask for F32/F40 conversion
     3365 00000508 4040030f         ldfu      *+fp(15),f0           ; |507| 40b float hi half
     3366 00000509 40420305         ldfu      *+fp(5),f2            ; |507| 40b float hi half
     3367 0000050a 50400310         ldiu      *+fp(16),r0           ; |507| 40b float lo half
     3368 0000050b 50420306         ldiu      *+fp(6),r2            ; |507| 40b float lo half
     3369 0000050c 26810102         subf3     f2,f1,f1              ; |507| 
     3370 0000050d 62000000!        call      MPY_LD                ; |507| 
     3371                                                           ; |507| Call Occurs
     3372 0000050e 14400311         stf       f0,*+fp(17)           ; |507| Store high half
     3373 0000050f 15400312         sti       r0,*+fp(18)           ; |507| Store low half
     3374                           .line   154
     3375                   ;----------------------------------------------------------------------
     3376                   ; 509 | if (y >= 100.0)                                                        
     3377                   ;----------------------------------------------------------------------
     3378 00000510 08700000-        ldp       @CL36+0,DP
     3379 00000511 40210030-        ldfu      @CL36+0,f1            ; |509| 40b float hi half
     3380 00000512 40400311         ldfu      *+fp(17),f0           ; |509| 40b float hi half
     3381 00000513 08700000-        ldp       @CL36+1,DP
     3382 00000514 50210031-        ldiu      @CL36+1,r1            ; |509| 40b float lo half
     3383 00000515 50400312         ldiu      *+fp(18),r0           ; |509| 40b float lo half
     3384 00000516 04000001         cmpf      f1,f0                 ; |509| 
     3385 00000517 6a070006         blt       L133                  ; |509| 
     3386                   ;*      Branch Occurs to L133           ; |509| 
     3387                           .line   155
     3388                   ;----------------------------------------------------------------------
     3389                   ; 510 | y  = 100.0;                                                            
     3390                   ;----------------------------------------------------------------------
     3391 00000518 08700000-        ldp       @CL36+0,DP
     3392 00000519 40200030-        ldfu      @CL36+0,f0            ; |510| 40b float hi half
     3393 0000051a 08700000-        ldp       @CL36+1,DP
     3394 0000051b 50200031-        ldiu      @CL36+1,r0            ; |510| 40b float lo half
     3395 0000051c 14400311         stf       f0,*+fp(17)           ; |510| Store high half
     3396 0000051d 15400312         sti       r0,*+fp(18)           ; |510| Store low half
     3397 0000051e          L133:        
     3398                           .line   157
     3399                   ;----------------------------------------------------------------------
     3400                   ; 512 | if (y <= 0.0)                                                          
     3401                   ;----------------------------------------------------------------------
     3402 0000051e 08700000-        ldp       @CL22+0,DP
TMS320C3x/4x COFF AssemblerVersion 5.12     Wed Jul 24 11:03:43 2019
Copyright (c) 1987-1999 Texas Instruments Incorporatedasm30.exe -@_3JG.AAB 

G:\workspace\EEA\V615\APP\SOURCE\ASM\dac.asm                         PAGE   64

     3403 0000051f 40400311         ldfu      *+fp(17),f0           ; |512| 40b float hi half
     3404 00000520 40210021-        ldfu      @CL22+0,f1            ; |512| 40b float hi half
     3405 00000521 08700000-        ldp       @CL22+1,DP
     3406 00000522 50400312         ldiu      *+fp(18),r0           ; |512| 40b float lo half
     3407 00000523 50210022-        ldiu      @CL22+1,r1            ; |512| 40b float lo half
     3408 00000524 04000001         cmpf      f1,f0                 ; |512| 
     3409 00000525 6a090006         bgt       L135                  ; |512| 
     3410                   ;*      Branch Occurs to L135           ; |512| 
     3411                           .line   158
     3412                   ;----------------------------------------------------------------------
     3413                   ; 513 | y  = 0.0;                                                              
     3414                   ; 515 | //Restore the reversed value so that CURRENT_PERCENT_OF_RANGE represent
     3415                   ;     | s the VALVE POSITION!                                                  
     3416                   ;----------------------------------------------------------------------
     3417 00000526 08700000-        ldp       @CL22+0,DP
     3418 00000527 40200021-        ldfu      @CL22+0,f0            ; |513| 40b float hi half
     3419 00000528 08700000-        ldp       @CL22+1,DP
     3420 00000529 50200022-        ldiu      @CL22+1,r0            ; |513| 40b float lo half
     3421 0000052a 14400311         stf       f0,*+fp(17)           ; |513| Store high half
     3422 0000052b 15400312         sti       r0,*+fp(18)           ; |513| Store low half
     3423 0000052c          L135:        
     3424                           .line   161
     3425                   ;----------------------------------------------------------------------
     3426                   ; 516 | if ((AO[i].v.val == -2) && (AO[i].REVERSE))                            
     3427                   ;----------------------------------------------------------------------
     3428 0000052c 50510316         ldiu      *+fp(22),ir0          ; |516| 
     3429 0000052d 08700000-        ldp       @CL24,DP
     3430 0000052e 0af101a3         mpyi      419,ir0               ; |516| 
     3431 0000052f 50280024-        ldiu      @CL24,ar0             ; |516| 
     3432 00000530 50404000         ldiu      *+ar0(ir0),r0         ; |516| 
     3433 00000531 04e0fffe         cmpi      -2,r0                 ; |516| 
     3434 00000532 6a06000c         bne       L138                  ; |516| 
     3435                   ;*      Branch Occurs to L138           ; |516| 
     3436 00000533 50510316         ldiu      *+fp(22),ir0          ; |516| 
     3437 00000534 08700000-        ldp       @CL35,DP
     3438 00000535 0af101a3         mpyi      419,ir0               ; |516| 
     3439 00000536 5028002f-        ldiu      @CL35,ar0             ; |516| 
     3440 00000537 50404000         ldiu      *+ar0(ir0),r0         ; |516| 
     3441 00000538 04e00000         cmpi      0,r0                  ; |516| 
     3442 00000539 6a050005         beq       L138                  ; |516| 
     3443                   ;*      Branch Occurs to L138           ; |516| 
     3444                           .line   162
     3445                   ;----------------------------------------------------------------------
     3446                   ; 517 | y = 100.0 - y;                                                         
     3447                   ;----------------------------------------------------------------------
     3448 0000053a 40400311         ldfu      *+fp(17),f0           ; |517| 40b float hi half
     3449 0000053b 50400312         ldiu      *+fp(18),r0           ; |517| 40b float lo half
     3450 0000053c 19606480         subrf     1.0000000000e+02,f0   ; |517| 
     3451 0000053d 14400311         stf       f0,*+fp(17)           ; |517| Store high half
     3452 0000053e 15400312         sti       r0,*+fp(18)           ; |517| Store low half
     3453 0000053f          L138:        
     3454                           .line   164
     3455                   ;----------------------------------------------------------------------
     3456                   ; 519 | VAR_Update(&AO[i].CURRENT_PERCENT_OF_RANGE, y, 0, 0);                  
TMS320C3x/4x COFF AssemblerVersion 5.12     Wed Jul 24 11:03:43 2019
Copyright (c) 1987-1999 Texas Instruments Incorporatedasm30.exe -@_3JG.AAB 

G:\workspace\EEA\V615\APP\SOURCE\ASM\dac.asm                         PAGE   65

     3457                   ;----------------------------------------------------------------------
     3458 0000053f 08700000-        ldp       @CL7,DP
     3459 00000540 504a0316         ldiu      *+fp(22),ar2          ; |519| 
     3460 00000541 40420311         ldfu      *+fp(17),f2           ; |519| 40b float hi half
     3461 00000542 507b0000         ldiu      0,rc                  ; |519| 
     3462 00000543 50200012-        ldiu      @CL7,r0               ; |519| 
     3463 00000544 0aea01a3         mpyi      419,ar2               ; |519| 
     3464 00000545 08700000-        ldp       @CL14,DP
     3465 00000546 50420312         ldiu      *+fp(18),r2           ; |519| 40b float lo half
     3466 00000547 022a0019-        addi      @CL14,ar2             ; |519| Unsigned
     3467 00000548 50630000         ldiu      0,r3                  ; |519| 
     3468 00000549 70000000         callu     r0                    ; far call to _VAR_Update       ; |519| 
     3469                                                           ; |519| Far Call Occurs
     3470 0000054a          L139:        
     3471                           .line   16
     3472 0000054a 50600001         ldiu      1,r0                  ; |371| 
     3473 0000054b 02400316         addi      *+fp(22),r0           ; |371| 
     3474 0000054c 15400316         sti       r0,*+fp(22)           ; |371| 
     3475 0000054d 04e00009         cmpi      9,r0                  ; |371| 
     3476 0000054e 6a07fcce         blt       L80                   ; |371| 
     3477                   ;*      Branch Occurs to L80            ; |371| 
     3478 0000054f          L140:        
     3479                           .line   167
     3480                   ;----------------------------------------------------------------------
     3481                   ; 522 | GIEP;                                                                  
     3482                   ;----------------------------------------------------------------------
     3483 0000054f 0e350000         pop             ST                      
     3484                           .line   168
     3485                                                           ; Begin Epilog Code
     3486 00000550 50410b01         ldiu      *-fp(1),r1
     3487 00000551 504bc300         ldiu      *fp,fp
     3488                                                           ; Restore SOE Registers
     3489 00000552 0e2d0000         pop       ar5
     3490 00000553 0e2c0000         pop       ar4
     3491 00000554 0e240000         pop       r4
     3492                                                           ; Unallocate the Frame
     3493 00000555 18740018         subi      24,sp
     3494 00000556 68000001         bu        r1
     3495                   ;*      Branch Occurs to r1 
     3496                           .endfunc        523,000003010h,22
     3497                   
     3498                   
     3499 00000557                  .sect    ".text"
     3500                   
     3501                           .global _PID_Init
     3502                           .sym    _PID_Init,_PID_Init,32,2,0
     3503                           .func   537
     3504                   ;******************************************************************************
     3505                   ;* FUNCTION NAME: _PID_Init                                                   *
     3506                   ;*                                                                            *
     3507                   ;*   Architecture       : TMS320C33                                           *
     3508                   ;*   Calling Convention : TI Standard Register Parameters                     *
     3509                   ;*   Function Uses Regs : f0,r0,ar0,ar1,ar2,ir0,st                            *
     3510                   ;*   Regs Saved         :                                                     *
TMS320C3x/4x COFF AssemblerVersion 5.12     Wed Jul 24 11:03:43 2019
Copyright (c) 1987-1999 Texas Instruments Incorporatedasm30.exe -@_3JG.AAB 

G:\workspace\EEA\V615\APP\SOURCE\ASM\dac.asm                         PAGE   66

     3511                   ;*   Stack Frame        : Full (w/ debug)                                     *
     3512                   ;*   Total Frame Size   : 2 Call + 0 Parm + 1 Auto + 0 SOE = 3 words          *
     3513                   ;******************************************************************************
     3514 00000557          _PID_Init:
     3515                   ;* ar2   assigned to _loop
     3516                           .sym    _loop,10,4,17,32
     3517                           .sym    _loop,1,4,1,32
     3518                           .line   1
     3519                   ;----------------------------------------------------------------------
     3520                   ; 537 | void PID_Init(int loop)                                                
     3521                   ;----------------------------------------------------------------------
     3522 00000557 0f2b0000         push      fp
     3523 00000558 500b0014         ldiu      sp,fp
     3524 00000559 02740001         addi      1,sp
     3525                           .line   2
     3526 0000055a 154a0301         sti       ar2,*+fp(1)           ; |538| 
     3527                           .line   3
     3528                   ;----------------------------------------------------------------------
     3529                   ; 539 | if ((loop<0) || (loop>=AO_NLOOPS))                                     
     3530                   ;----------------------------------------------------------------------
     3531 0000055b 5000000a         ldiu      ar2,r0
     3532 0000055c 04e00000         cmpi      0,r0                  ; |539| 
     3533 0000055d 6a070023         blt       L148                  ; |539| 
     3534                   ;*      Branch Occurs to L148           ; |539| 
     3535 0000055e 04e00009         cmpi      9,r0                  ; |539| 
     3536 0000055f 6a070001         blt       L147                  ; |539| 
     3537                   ;*      Branch Occurs to L147           ; |539| 
     3538 00000560 6a000020         bu        L148                  ; |539| 
     3539                   ;*      Branch Occurs to L148           ; |539| 
     3540                           .line   4
     3541                   ;----------------------------------------------------------------------
     3542                   ; 540 | return;                                                                
     3543                   ;----------------------------------------------------------------------
     3544 00000561          L147:        
     3545                           .line   6
     3546                   ;----------------------------------------------------------------------
     3547                   ; 542 | AO[loop].pid_output         = 0.0;                                     
     3548                   ;----------------------------------------------------------------------
     3549 00000561 50510301         ldiu      *+fp(1),ir0           ; |542| 
     3550 00000562 08700000-        ldp       @CL57,DP
     3551 00000563 0af101a3         mpyi      419,ir0               ; |542| 
     3552 00000564 50280047-        ldiu      @CL57,ar0             ; |542| 
     3553 00000565 40608000         ldfu      0.0000000000e+00,f0   ; |542| 
     3554 00000566 14404000         stf       f0,*+ar0(ir0)         ; |542| 
     3555                           .line   7
     3556                   ;----------------------------------------------------------------------
     3557                   ; 543 | AO[loop].pid_error          = 0.0;                                     
     3558                   ;----------------------------------------------------------------------
     3559 00000567 08700000-        ldp       @CL58,DP
     3560 00000568 50510301         ldiu      *+fp(1),ir0           ; |543| 
     3561 00000569 50280048-        ldiu      @CL58,ar0             ; |543| 
     3562 0000056a 0af101a3         mpyi      419,ir0               ; |543| 
     3563 0000056b 40608000         ldfu      0.0000000000e+00,f0   ; |543| 
     3564 0000056c 14404000         stf       f0,*+ar0(ir0)         ; |543| 
TMS320C3x/4x COFF AssemblerVersion 5.12     Wed Jul 24 11:03:43 2019
Copyright (c) 1987-1999 Texas Instruments Incorporatedasm30.exe -@_3JG.AAB 

G:\workspace\EEA\V615\APP\SOURCE\ASM\dac.asm                         PAGE   67

     3565                           .line   8
     3566                   ;----------------------------------------------------------------------
     3567                   ; 544 | AO[loop].PID_input          = 0.0;                                     
     3568                   ;----------------------------------------------------------------------
     3569 0000056d 08700000-        ldp       @CL59,DP
     3570 0000056e 50510301         ldiu      *+fp(1),ir0           ; |544| 
     3571 0000056f 50280049-        ldiu      @CL59,ar0             ; |544| 
     3572 00000570 0af101a3         mpyi      419,ir0               ; |544| 
     3573 00000571 40608000         ldfu      0.0000000000e+00,f0   ; |544| 
     3574 00000572 14404000         stf       f0,*+ar0(ir0)         ; |544| 
     3575                           .line   9
     3576                   ;----------------------------------------------------------------------
     3577                   ; 545 | AO[loop].pid_bias           = 0.0;                                     
     3578                   ;----------------------------------------------------------------------
     3579 00000573 08700000-        ldp       @CL60,DP
     3580 00000574 50510301         ldiu      *+fp(1),ir0           ; |545| 
     3581 00000575 5028004a-        ldiu      @CL60,ar0             ; |545| 
     3582 00000576 0af101a3         mpyi      419,ir0               ; |545| 
     3583 00000577 40608000         ldfu      0.0000000000e+00,f0   ; |545| 
     3584 00000578 14404000         stf       f0,*+ar0(ir0)         ; |545| 
     3585                           .line   10
     3586                   ;----------------------------------------------------------------------
     3587                   ; 546 | AO[loop].pid_lastcycle  = *TMR1_CNT;                                   
     3588                   ;----------------------------------------------------------------------
     3589 00000579 08700000-        ldp       @CL62,DP
     3590 0000057a 5029004c-        ldiu      @CL62,ar1             ; |546| 
     3591 0000057b 08700000-        ldp       @CL61,DP
     3592 0000057c 50510301         ldiu      *+fp(1),ir0           ; |546| 
     3593 0000057d 5028004b-        ldiu      @CL61,ar0             ; |546| 
     3594 0000057e 0af101a3         mpyi      419,ir0               ; |546| 
     3595 0000057f 5040c100         ldiu      *ar1,r0               ; |546| 
     3596 00000580 15404000         sti       r0,*+ar0(ir0)         ; |546| 
     3597 00000581          L148:        
     3598                           .line   11
     3599                                                           ; Begin Epilog Code
     3600 00000581 50410b01         ldiu      *-fp(1),r1
     3601 00000582 504bc300         ldiu      *fp,fp
     3602                                                           ; Unallocate the Frame
     3603 00000583 18740003         subi      3,sp
     3604 00000584 68000001         bu        r1
     3605                   ;*      Branch Occurs to r1 
     3606                           .endfunc        547,000000000h,1
     3607                   
     3608                   
     3609 00000585                  .sect    ".text"
     3610                   
     3611                           .global _PID
     3612                           .sym    _PID,_PID,39,2,0
     3613                           .func   561
     3614                   ;******************************************************************************
     3615                   ;* FUNCTION NAME: _PID                                                        *
     3616                   ;*                                                                            *
     3617                   ;*   Architecture       : TMS320C33                                           *
     3618                   ;*   Calling Convention : TI Standard Register Parameters                     *
TMS320C3x/4x COFF AssemblerVersion 5.12     Wed Jul 24 11:03:43 2019
Copyright (c) 1987-1999 Texas Instruments Incorporatedasm30.exe -@_3JG.AAB 

G:\workspace\EEA\V615\APP\SOURCE\ASM\dac.asm                         PAGE   68

     3619                   ;*   Function Uses Regs : f0,r0,f1,f2,ar0,ar1,ar2,ir0,ir1,st                  *
     3620                   ;*   Regs Saved         :                                                     *
     3621                   ;*   Stack Frame        : Full (w/ debug)                                     *
     3622                   ;*   Total Frame Size   : 2 Call + 0 Parm + 14 Auto + 0 SOE = 16 words        *
     3623                   ;******************************************************************************
     3624 00000585          _PID:
     3625                   ;* ar2   assigned to _loop
     3626                           .sym    _loop,10,4,17,32
     3627                           .sym    _loop,1,4,1,32
     3628                           .sym    _P,2,7,1,32
     3629                           .sym    _I,3,7,1,32
     3630                           .sym    _D,4,7,1,32
     3631                           .sym    _sp,5,7,1,32
     3632                           .sym    _new_out,6,7,1,32
     3633                           .sym    _delta_bias,7,7,1,32
     3634                           .sym    _e,8,7,1,32
     3635                           .sym    _last_e,9,7,1,32
     3636                           .sym    _delta_e,10,7,1,32
     3637                           .sym    _dt,11,7,1,32
     3638                           .sym    _c,12,4,1,32
     3639                           .sym    _delta,13,4,1,32
     3640                           .sym    _per,14,4,1,32
     3641                           .line   1
     3642                   ;----------------------------------------------------------------------
     3643                   ; 561 | double PID(int loop)                                                   
     3644                   ;----------------------------------------------------------------------
     3645 00000585 0f2b0000         push      fp
     3646 00000586 500b0014         ldiu      sp,fp
     3647 00000587 0274000e         addi      14,sp
     3648                           .line   2
     3649                   ;----------------------------------------------------------------------
     3650                   ; 563 | double P;                   /* PID propband
     3651                   ;     |      */                                                                
     3652                   ; 564 | double I;                   /* Analog out I value                   */ 
     3653                   ; 565 | double D;                   /* Analog out D value                   */ 
     3654                   ; 566 | //double kd;                /* Analog out P value                   */ 
     3655                   ; 567 | double sp;                  // setpoint
     3656                   ;     |      */                                                                
     3657                   ; 568 | double new_out;             // new output                              
     3658                   ; 569 | double delta_bias;  // change in bias                                  
     3659                   ; 570 |     double e;                       // current error                   
     3660                   ; 571 | double last_e;              // last error                              
     3661                   ; 572 |     double delta_e;         // current error - last error              
     3662                   ; 573 |     //double last_out;      // last output <-- not needed for this PID
     3663                   ;     | scheme 10/16/2015                                                      
     3664                   ; 574 | double dt;                  /* delta time
     3665                   ;     |      */                                                                
     3666                   ; 575 | int c, delta, per;  /* Timer1 Count, time delta, Timer1 per */         
     3667                   ;----------------------------------------------------------------------
     3668 00000588 154a0301         sti       ar2,*+fp(1)           ; |562| 
     3669                           .line   17
     3670                   ;----------------------------------------------------------------------
     3671                   ; 577 | if ((loop<0) || (loop>=AO_NLOOPS))  /* check range */                  
     3672                   ;----------------------------------------------------------------------
TMS320C3x/4x COFF AssemblerVersion 5.12     Wed Jul 24 11:03:43 2019
Copyright (c) 1987-1999 Texas Instruments Incorporatedasm30.exe -@_3JG.AAB 

G:\workspace\EEA\V615\APP\SOURCE\ASM\dac.asm                         PAGE   69

     3673 00000589 5000000a         ldiu      ar2,r0
     3674 0000058a 04e00000         cmpi      0,r0                  ; |577| 
     3675 0000058b 6a070002         blt       L152                  ; |577| 
     3676                   ;*      Branch Occurs to L152           ; |577| 
     3677 0000058c 04e00009         cmpi      9,r0                  ; |577| 
     3678 0000058d 6a070004         blt       L153                  ; |577| 
     3679                   ;*      Branch Occurs to L153           ; |577| 
     3680 0000058e          L152:        
     3681                           .line   18
     3682                   ;----------------------------------------------------------------------
     3683                   ; 578 | return 0;                                                              
     3684                   ;----------------------------------------------------------------------
     3685 0000058e 6a200127         bud       L186                  ; |578| 
     3686 0000058f 0c800000         nop
     3687 00000590 0c800000         nop
     3688 00000591 40608000         ldfu      0.0000000000e+00,f0   ; |578| 
     3689                   ;*      Branch Occurs to L186           ; |578| 
     3690 00000592          L153:        
     3691                           .line   20
     3692                   ;----------------------------------------------------------------------
     3693                   ; 580 | if (!AO[loop].present)                          /* present? */         
     3694                   ;----------------------------------------------------------------------
     3695 00000592 50510301         ldiu      *+fp(1),ir0           ; |580| 
     3696 00000593 08700000-        ldp       @CL15,DP
     3697 00000594 0af101a3         mpyi      419,ir0               ; |580| 
     3698 00000595 5028001a-        ldiu      @CL15,ar0             ; |580| 
     3699 00000596 50404000         ldiu      *+ar0(ir0),r0         ; |580| 
     3700 00000597 04e00000         cmpi      0,r0                  ; |580| 
     3701 00000598 6a060004         bne       L155                  ; |580| 
     3702                   ;*      Branch Occurs to L155           ; |580| 
     3703                           .line   21
     3704                   ;----------------------------------------------------------------------
     3705                   ; 581 | return 0;                                                              
     3706                   ;----------------------------------------------------------------------
     3707 00000599 6a20011c         bud       L186                  ; |581| 
     3708 0000059a 0c800000         nop
     3709 0000059b 0c800000         nop
     3710 0000059c 40608000         ldfu      0.0000000000e+00,f0   ; |581| 
     3711                   ;*      Branch Occurs to L186           ; |581| 
     3712 0000059d          L155:        
     3713                           .line   23
     3714                   ;----------------------------------------------------------------------
     3715                   ; 583 | if (AO[loop].PID_enable_failsafe && AO[loop].PID_fail)                 
     3716                   ;----------------------------------------------------------------------
     3717 0000059d 50510301         ldiu      *+fp(1),ir0           ; |583| 
     3718 0000059e 08700000-        ldp       @CL33,DP
     3719 0000059f 0af101a3         mpyi      419,ir0               ; |583| 
     3720 000005a0 5028002d-        ldiu      @CL33,ar0             ; |583| 
     3721 000005a1 50404000         ldiu      *+ar0(ir0),r0         ; |583| 
     3722 000005a2 04e00000         cmpi      0,r0                  ; |583| 
     3723 000005a3 6a05001a         beq       L161                  ; |583| 
     3724                   ;*      Branch Occurs to L161           ; |583| 
     3725 000005a4 50510301         ldiu      *+fp(1),ir0           ; |583| 
     3726 000005a5 08700000-        ldp       @CL34,DP
TMS320C3x/4x COFF AssemblerVersion 5.12     Wed Jul 24 11:03:43 2019
Copyright (c) 1987-1999 Texas Instruments Incorporatedasm30.exe -@_3JG.AAB 

G:\workspace\EEA\V615\APP\SOURCE\ASM\dac.asm                         PAGE   70

     3727 000005a6 0af101a3         mpyi      419,ir0               ; |583| 
     3728 000005a7 5028002e-        ldiu      @CL34,ar0             ; |583| 
     3729 000005a8 50404000         ldiu      *+ar0(ir0),r0         ; |583| 
     3730 000005a9 04e00000         cmpi      0,r0                  ; |583| 
     3731 000005aa 6a050013         beq       L161                  ; |583| 
     3732                   ;*      Branch Occurs to L161           ; |583| 
     3733                           .line   25
     3734                   ;----------------------------------------------------------------------
     3735                   ; 585 | PID_Init(loop);                                                        
     3736                   ;----------------------------------------------------------------------
     3737 000005ab 08700000-        ldp       @CL31,DP
     3738 000005ac 504a0301         ldiu      *+fp(1),ar2           ; |585| 
     3739 000005ad 5020002b-        ldiu      @CL31,r0              ; |585| 
     3740 000005ae 70000000         callu     r0                    ; far call to _PID_Init ; |585| 
     3741                                                           ; |585| Far Call Occurs
     3742                           .line   27
     3743                   ;----------------------------------------------------------------------
     3744                   ; 587 | if (AO[loop].REVERSE)                                                  
     3745                   ;----------------------------------------------------------------------
     3746 000005af 08700000-        ldp       @CL35,DP
     3747 000005b0 50510301         ldiu      *+fp(1),ir0           ; |587| 
     3748 000005b1 5028002f-        ldiu      @CL35,ar0             ; |587| 
     3749 000005b2 0af101a3         mpyi      419,ir0               ; |587| 
     3750 000005b3 50404000         ldiu      *+ar0(ir0),r0         ; |587| 
     3751 000005b4 04e00000         cmpi      0,r0                  ; |587| 
     3752 000005b5 6a050004         beq       L160                  ; |587| 
     3753                   ;*      Branch Occurs to L160           ; |587| 
     3754                           .line   28
     3755                   ;----------------------------------------------------------------------
     3756                   ; 588 | return 0.0;                                                            
     3757                   ; 589 | else                                                                   
     3758                   ;----------------------------------------------------------------------
     3759 000005b6 6a2000ff         bud       L186                  ; |588| 
     3760 000005b7 0c800000         nop
     3761 000005b8 0c800000         nop
     3762 000005b9 40608000         ldfu      0.0000000000e+00,f0   ; |588| 
     3763                   ;*      Branch Occurs to L186           ; |588| 
     3764 000005ba          L160:        
     3765                           .line   30
     3766                   ;----------------------------------------------------------------------
     3767                   ; 590 | return 100.0;                                                          
     3768                   ;----------------------------------------------------------------------
     3769 000005ba 6a2000fb         bud       L186                  ; |590| 
     3770 000005bb 0c800000         nop
     3771 000005bc 0c800000         nop
     3772 000005bd 40606480         ldfu      1.0000000000e+02,f0   ; |590| 
     3773                   ;*      Branch Occurs to L186           ; |590| 
     3774 000005be          L161:        
     3775                           .line   34
     3776                   ;----------------------------------------------------------------------
     3777                   ; 594 | c = *TMR1_CNT;                                                         
     3778                   ;----------------------------------------------------------------------
     3779 000005be 08700000-        ldp       @CL62,DP
     3780 000005bf 5028004c-        ldiu      @CL62,ar0             ; |594| 
TMS320C3x/4x COFF AssemblerVersion 5.12     Wed Jul 24 11:03:43 2019
Copyright (c) 1987-1999 Texas Instruments Incorporatedasm30.exe -@_3JG.AAB 

G:\workspace\EEA\V615\APP\SOURCE\ASM\dac.asm                         PAGE   71

     3781 000005c0 5040c000         ldiu      *ar0,r0               ; |594| 
     3782 000005c1 1540030c         sti       r0,*+fp(12)           ; |594| 
     3783                           .line   37
     3784                   ;----------------------------------------------------------------------
     3785                   ; 597 | if (c >= AO[loop].pid_lastcycle)                                       
     3786                   ;----------------------------------------------------------------------
     3787 000005c2 50510301         ldiu      *+fp(1),ir0           ; |597| 
     3788 000005c3 08700000-        ldp       @CL61,DP
     3789 000005c4 0af101a3         mpyi      419,ir0               ; |597| 
     3790 000005c5 5028004b-        ldiu      @CL61,ar0             ; |597| 
     3791 000005c6 23c00040         cmpi3     *+ar0(ir0),r0         ; |597| 
     3792 000005c7 6a070008         blt       L163                  ; |597| 
     3793                   ;*      Branch Occurs to L163           ; |597| 
     3794                           .line   38
     3795                   ;----------------------------------------------------------------------
     3796                   ; 598 | delta = c - AO[loop].pid_lastcycle;                                    
     3797                   ; 599 | else                                                                   
     3798                   ;----------------------------------------------------------------------
     3799 000005c8 50510301         ldiu      *+fp(1),ir0           ; |598| 
     3800 000005c9 08700000-        ldp       @CL61,DP
     3801 000005ca 0af101a3         mpyi      419,ir0               ; |598| 
     3802 000005cb 5028004b-        ldiu      @CL61,ar0             ; |598| 
     3803 000005cc 50404000         ldiu      *+ar0(ir0),r0         ; |598| 
     3804 000005cd 19c0030c         subri     *+fp(12),r0           ; |598| 
     3805 000005ce 1540030d         sti       r0,*+fp(13)           ; |598| 
     3806 000005cf 6a00000c         bu        L164                  ; |560| 
     3807                   ;*      Branch Occurs to L164           ; |560| 
     3808 000005d0          L163:        
     3809                           .line   41
     3810                   ;----------------------------------------------------------------------
     3811                   ; 601 | per       = *TMR1_PER;                                                 
     3812                   ;----------------------------------------------------------------------
     3813 000005d0 08700000-        ldp       @CL63,DP
     3814 000005d1 5028004d-        ldiu      @CL63,ar0             ; |601| 
     3815 000005d2 5040c000         ldiu      *ar0,r0               ; |601| 
     3816 000005d3 1540030e         sti       r0,*+fp(14)           ; |601| 
     3817                           .line   42
     3818                   ;----------------------------------------------------------------------
     3819                   ; 602 | delta = (per - AO[loop].pid_lastcycle) + c;                            
     3820                   ;----------------------------------------------------------------------
     3821 000005d4 50510301         ldiu      *+fp(1),ir0           ; |602| 
     3822 000005d5 08700000-        ldp       @CL61,DP
     3823 000005d6 0af101a3         mpyi      419,ir0               ; |602| 
     3824 000005d7 5028004b-        ldiu      @CL61,ar0             ; |602| 
     3825 000005d8 50404000         ldiu      *+ar0(ir0),r0         ; |602| 
     3826 000005d9 19c0030e         subri     *+fp(14),r0           ; |602| 
     3827 000005da 0240030c         addi      *+fp(12),r0           ; |602| 
     3828 000005db 1540030d         sti       r0,*+fp(13)           ; |602| 
     3829 000005dc          L164:        
     3830                           .line   45
     3831                   ;----------------------------------------------------------------------
     3832                   ; 605 | dt  = delta;                                                           
     3833                   ;----------------------------------------------------------------------
     3834 000005dc 05c0030d         float     *+fp(13),f0           ; |605| 
TMS320C3x/4x COFF AssemblerVersion 5.12     Wed Jul 24 11:03:43 2019
Copyright (c) 1987-1999 Texas Instruments Incorporatedasm30.exe -@_3JG.AAB 

G:\workspace\EEA\V615\APP\SOURCE\ASM\dac.asm                         PAGE   72

     3835 000005dd 1440030b         stf       f0,*+fp(11)           ; |605| 
     3836                           .line   46
     3837                   ;----------------------------------------------------------------------
     3838                   ; 606 | dt /= TMR1_FREQ;                                /* Clock/2 = 27648000 H
     3839                   ;     | z */                                                                   
     3840                   ;----------------------------------------------------------------------
     3841 000005de 08700000-        ldp       @CL64,DP
     3842 000005df 5028004e-        ldiu      @CL64,ar0             ; |606| 
     3843 000005e0 08700000-        ldp       @CL65,DP
     3844 000005e1 05c1c000         float     *ar0,f1               ; |606| 
     3845 000005e2 43a0004f-        ldflt     @CL65,f0              ; |606| 
     3846 000005e3 45608000         ldfge     0.0000000000e+00,f0   ; |606| 
     3847 000005e4 08700000-        ldp       @CL6,DP
     3848 000005e5 20810001         addf3     f1,f0,f1              ; |606| 
     3849 000005e6 4040030b         ldfu      *+fp(11),f0           ; |606| 
     3850 000005e7 0a210011-        mpyf      @CL6,f1               ; |606| 
     3851 000005e8 62000000!        call      DIV_F30               ; |606| 
     3852                                                           ; |606| Call Occurs
     3853 000005e9 1440030b         stf       f0,*+fp(11)           ; |606| 
     3854                           .line   47
     3855                   ;----------------------------------------------------------------------
     3856                   ; 607 | dt /= 60.0;                                             /* convert to m
     3857                   ;     | inutes */                                                              
     3858                   ;----------------------------------------------------------------------
     3859 000005ea 08700000-        ldp       @CL66,DP
     3860 000005eb 40200050-        ldfu      @CL66,f0              ; |607| 
     3861 000005ec 0a40030b         mpyf      *+fp(11),f0           ; |607| 
     3862 000005ed 1440030b         stf       f0,*+fp(11)           ; |607| 
     3863                           .line   49
     3864                   ;----------------------------------------------------------------------
     3865                   ; 609 | if (dt <= 0.0)                                      /* check for underf
     3866                   ;     | low on dt */                                                           
     3867                   ;----------------------------------------------------------------------
     3868 000005ee 04608000         cmpf      0.0000000000e+00,f0   ; |609| 
     3869 000005ef 6a090006         bgt       L166                  ; |609| 
     3870                   ;*      Branch Occurs to L166           ; |609| 
     3871                           .line   50
     3872                   ;----------------------------------------------------------------------
     3873                   ; 610 | return AO[loop].pid_output;                                            
     3874                   ;----------------------------------------------------------------------
     3875 000005f0 50510301         ldiu      *+fp(1),ir0           ; |610| 
     3876 000005f1 08700000-        ldp       @CL57,DP
     3877 000005f2 6a2000c3         bud       L186                  ; |610| 
     3878 000005f3 0af101a3         mpyi      419,ir0               ; |610| 
     3879 000005f4 50280047-        ldiu      @CL57,ar0             ; |610| 
     3880 000005f5 40404000         ldfu      *+ar0(ir0),f0         ; |610| 
     3881                   ;*      Branch Occurs to L186           ; |610| 
     3882 000005f6          L166:        
     3883                           .line   52
     3884                   ;----------------------------------------------------------------------
     3885                   ; 612 | AO[loop].pid_lastcycle  = c;    /* cycle count for next pass */        
     3886                   ; 615 |         //kd                                            = AO[loop].P.va
     3887                   ;     | l;       /* P input */                                                 
     3888                   ; 616 |         //AO[loop].pid_propband = 1.0/(MIN_CYCLE*kd);   /* proportional
TMS320C3x/4x COFF AssemblerVersion 5.12     Wed Jul 24 11:03:43 2019
Copyright (c) 1987-1999 Texas Instruments Incorporatedasm30.exe -@_3JG.AAB 

G:\workspace\EEA\V615\APP\SOURCE\ASM\dac.asm                         PAGE   73

     3889                   ;     |  band = 1/(.1*kd)  */                                                  
     3890                   ;----------------------------------------------------------------------
     3891 000005f6 50510301         ldiu      *+fp(1),ir0           ; |612| 
     3892 000005f7 08700000-        ldp       @CL61,DP
     3893 000005f8 0af101a3         mpyi      419,ir0               ; |612| 
     3894 000005f9 5028004b-        ldiu      @CL61,ar0             ; |612| 
     3895 000005fa 5040030c         ldiu      *+fp(12),r0           ; |612| 
     3896 000005fb 15404000         sti       r0,*+ar0(ir0)         ; |612| 
     3897                           .line   58
     3898                   ;----------------------------------------------------------------------
     3899                   ; 618 | AO[loop].pid_propband   = AO[loop].P.val;       //new PID 9/29/2015    
     3900                   ;----------------------------------------------------------------------
     3901 000005fc 08700000-        ldp       @CL68,DP
     3902 000005fd 50520301         ldiu      *+fp(1),ir1           ; |618| 
     3903 000005fe 50290052-        ldiu      @CL68,ar1             ; |618| 
     3904 000005ff 50110012         ldiu      ir1,ir0               ; |618| 
     3905 00000600 08700000-        ldp       @CL67,DP
     3906 00000601 0af201a3         mpyi      419,ir1               ; |618| 
     3907 00000602 0af101a3         mpyi      419,ir0               ; |618| 
     3908 00000603 50280051-        ldiu      @CL67,ar0             ; |618| 
     3909 00000604 40408100         ldfu      *+ar1(ir1),f0         ; |618| 
     3910 00000605 14404000         stf       f0,*+ar0(ir0)         ; |618| 
     3911                           .line   60
     3912                   ;----------------------------------------------------------------------
     3913                   ; 620 | if (AO[loop].pid_propband > MAX_PBAND)                  /* Check if P >
     3914                   ;     |  1000 ? set to 1000 : do nothing */                                    
     3915                   ;----------------------------------------------------------------------
     3916 00000606 50280051-        ldiu      @CL67,ar0             ; |620| 
     3917 00000607 50510301         ldiu      *+fp(1),ir0           ; |620| 
     3918 00000608 08700000-        ldp       @CL69,DP
     3919 00000609 0af101a3         mpyi      419,ir0               ; |620| 
     3920 0000060a 40200053-        ldfu      @CL69,f0              ; |620| 
     3921 0000060b 23204000         cmpf3     f0,*+ar0(ir0)         ; |620| 
     3922 0000060c 6a080007         ble       L168                  ; |620| 
     3923                   ;*      Branch Occurs to L168           ; |620| 
     3924                           .line   61
     3925                   ;----------------------------------------------------------------------
     3926                   ; 621 | AO[loop].pid_propband = MAX_PBAND;                                     
     3927                   ;----------------------------------------------------------------------
     3928 0000060d 08700000-        ldp       @CL67,DP
     3929 0000060e 50510301         ldiu      *+fp(1),ir0           ; |621| 
     3930 0000060f 50280051-        ldiu      @CL67,ar0             ; |621| 
     3931 00000610 08700000-        ldp       @CL69,DP
     3932 00000611 0af101a3         mpyi      419,ir0               ; |621| 
     3933 00000612 40200053-        ldfu      @CL69,f0              ; |621| 
     3934 00000613 14404000         stf       f0,*+ar0(ir0)         ; |621| 
     3935 00000614          L168:        
     3936                           .line   63
     3937                   ;----------------------------------------------------------------------
     3938                   ; 623 | P = AO[loop].pid_propband;          /*** P ***/                        
     3939                   ;----------------------------------------------------------------------
     3940 00000614 50510301         ldiu      *+fp(1),ir0           ; |623| 
     3941 00000615 08700000-        ldp       @CL67,DP
     3942 00000616 0af101a3         mpyi      419,ir0               ; |623| 
TMS320C3x/4x COFF AssemblerVersion 5.12     Wed Jul 24 11:03:43 2019
Copyright (c) 1987-1999 Texas Instruments Incorporatedasm30.exe -@_3JG.AAB 

G:\workspace\EEA\V615\APP\SOURCE\ASM\dac.asm                         PAGE   74

     3943 00000617 50280051-        ldiu      @CL67,ar0             ; |623| 
     3944 00000618 40404000         ldfu      *+ar0(ir0),f0         ; |623| 
     3945 00000619 14400302         stf       f0,*+fp(2)            ; |623| 
     3946                           .line   70
     3947                   ;----------------------------------------------------------------------
     3948                   ; 630 | if (AO[loop].I.val <= 0.0)          /* Check if I < 0 ? set to 1000 : d
     3949                   ;     | o nothing*/                                                            
     3950                   ;----------------------------------------------------------------------
     3951 0000061a 50510301         ldiu      *+fp(1),ir0           ; |630| 
     3952 0000061b 08700000-        ldp       @CL70,DP
     3953 0000061c 0af101a3         mpyi      419,ir0               ; |630| 
     3954 0000061d 50280054-        ldiu      @CL70,ar0             ; |630| 
     3955 0000061e 40608000         ldfu      0.0000000000e+00,f0   ; |630| 
     3956 0000061f 23204000         cmpf3     f0,*+ar0(ir0)         ; |630| 
     3957 00000620 6a090007         bgt       L170                  ; |630| 
     3958                   ;*      Branch Occurs to L170           ; |630| 
     3959                           .line   71
     3960                   ;----------------------------------------------------------------------
     3961                   ; 631 | AO[loop].I.val  = 10000.0;      /* should set to 10x10^6 */            
     3962                   ;----------------------------------------------------------------------
     3963 00000621 08700000-        ldp       @CL70,DP
     3964 00000622 50510301         ldiu      *+fp(1),ir0           ; |631| 
     3965 00000623 50280054-        ldiu      @CL70,ar0             ; |631| 
     3966 00000624 08700000-        ldp       @CL71,DP
     3967 00000625 0af101a3         mpyi      419,ir0               ; |631| 
     3968 00000626 40200055-        ldfu      @CL71,f0              ; |631| 
     3969 00000627 14404000         stf       f0,*+ar0(ir0)         ; |631| 
     3970 00000628          L170:        
     3971                           .line   73
     3972                   ;----------------------------------------------------------------------
     3973                   ; 633 | I = AO[loop].I.val;                             /*** I ***/            
     3974                   ;----------------------------------------------------------------------
     3975 00000628 50510301         ldiu      *+fp(1),ir0           ; |633| 
     3976 00000629 08700000-        ldp       @CL70,DP
     3977 0000062a 0af101a3         mpyi      419,ir0               ; |633| 
     3978 0000062b 50280054-        ldiu      @CL70,ar0             ; |633| 
     3979 0000062c 40404000         ldfu      *+ar0(ir0),f0         ; |633| 
     3980 0000062d 14400303         stf       f0,*+fp(3)            ; |633| 
     3981                           .line   75
     3982                   ;----------------------------------------------------------------------
     3983                   ; 635 | if (AO[loop].D.val < 0.0)           /* Check D < 0 ? set to 0 : do noth
     3984                   ;     | ing */                                                                 
     3985                   ;----------------------------------------------------------------------
     3986 0000062e 50510301         ldiu      *+fp(1),ir0           ; |635| 
     3987 0000062f 08700000-        ldp       @CL72,DP
     3988 00000630 0af101a3         mpyi      419,ir0               ; |635| 
     3989 00000631 50280056-        ldiu      @CL72,ar0             ; |635| 
     3990 00000632 40608000         ldfu      0.0000000000e+00,f0   ; |635| 
     3991 00000633 23204000         cmpf3     f0,*+ar0(ir0)         ; |635| 
     3992 00000634 6a0a0006         bge       L172                  ; |635| 
     3993                   ;*      Branch Occurs to L172           ; |635| 
     3994                           .line   76
     3995                   ;----------------------------------------------------------------------
     3996                   ; 636 | AO[loop].D.val = 0.0;                                                  
TMS320C3x/4x COFF AssemblerVersion 5.12     Wed Jul 24 11:03:43 2019
Copyright (c) 1987-1999 Texas Instruments Incorporatedasm30.exe -@_3JG.AAB 

G:\workspace\EEA\V615\APP\SOURCE\ASM\dac.asm                         PAGE   75

     3997                   ;----------------------------------------------------------------------
     3998 00000635 50510301         ldiu      *+fp(1),ir0           ; |636| 
     3999 00000636 08700000-        ldp       @CL72,DP
     4000 00000637 0af101a3         mpyi      419,ir0               ; |636| 
     4001 00000638 50280056-        ldiu      @CL72,ar0             ; |636| 
     4002 00000639 40608000         ldfu      0.0000000000e+00,f0   ; |636| 
     4003 0000063a 14404000         stf       f0,*+ar0(ir0)         ; |636| 
     4004 0000063b          L172:        
     4005                           .line   78
     4006                   ;----------------------------------------------------------------------
     4007                   ; 638 | D  = AO[loop].D.val;                    /*** D ***/                    
     4008                   ;----------------------------------------------------------------------
     4009 0000063b 50510301         ldiu      *+fp(1),ir0           ; |638| 
     4010 0000063c 08700000-        ldp       @CL72,DP
     4011 0000063d 0af101a3         mpyi      419,ir0               ; |638| 
     4012 0000063e 50280056-        ldiu      @CL72,ar0             ; |638| 
     4013 0000063f 40404000         ldfu      *+ar0(ir0),f0         ; |638| 
     4014 00000640 14400304         stf       f0,*+fp(4)            ; |638| 
     4015                           .line   80
     4016                   ;----------------------------------------------------------------------
     4017                   ; 640 | last_e  = AO[loop].pid_error;   // get last error                      
     4018                   ; 641 | //last_out = AO[loop].pid_output; // get last output <-- not needed for
     4019                   ;     |  this PID scheme 10/16/2015                                            
     4020                   ;----------------------------------------------------------------------
     4021 00000641 50510301         ldiu      *+fp(1),ir0           ; |640| 
     4022 00000642 08700000-        ldp       @CL58,DP
     4023 00000643 0af101a3         mpyi      419,ir0               ; |640| 
     4024 00000644 50280048-        ldiu      @CL58,ar0             ; |640| 
     4025 00000645 40404000         ldfu      *+ar0(ir0),f0         ; |640| 
     4026 00000646 14400309         stf       f0,*+fp(9)            ; |640| 
     4027                           .line   83
     4028                   ;----------------------------------------------------------------------
     4029                   ; 643 | sp = AO[loop].PID_setpoint;             //setpoint                     
     4030                   ;----------------------------------------------------------------------
     4031 00000647 08700000-        ldp       @CL73,DP
     4032 00000648 50510301         ldiu      *+fp(1),ir0           ; |643| 
     4033 00000649 0af101a3         mpyi      419,ir0               ; |643| 
     4034 0000064a 50280057-        ldiu      @CL73,ar0             ; |643| 
     4035 0000064b 40404000         ldfu      *+ar0(ir0),f0         ; |643| 
     4036 0000064c 14400305         stf       f0,*+fp(5)            ; |643| 
     4037                           .line   85
     4038                   ;----------------------------------------------------------------------
     4039                   ; 645 | e = AO[loop].PID_input - sp;    //current error                        
     4040                   ;----------------------------------------------------------------------
     4041 0000064d 08700000-        ldp       @CL59,DP
     4042 0000064e 50510301         ldiu      *+fp(1),ir0           ; |645| 
     4043 0000064f 0af101a3         mpyi      419,ir0               ; |645| 
     4044 00000650 50280049-        ldiu      @CL59,ar0             ; |645| 
     4045 00000651 26a04000         subf3     f0,*+ar0(ir0),f0      ; |645| 
     4046 00000652 14400308         stf       f0,*+fp(8)            ; |645| 
     4047                           .line   87
     4048                   ;----------------------------------------------------------------------
     4049                   ; 647 | delta_e = e - last_e;                                                  
     4050                   ;----------------------------------------------------------------------
TMS320C3x/4x COFF AssemblerVersion 5.12     Wed Jul 24 11:03:43 2019
Copyright (c) 1987-1999 Texas Instruments Incorporatedasm30.exe -@_3JG.AAB 

G:\workspace\EEA\V615\APP\SOURCE\ASM\dac.asm                         PAGE   76

     4051 00000653 40400309         ldfu      *+fp(9),f0            ; |647| 
     4052 00000654 19400308         subrf     *+fp(8),f0            ; |647| 
     4053 00000655 1440030a         stf       f0,*+fp(10)           ; |647| 
     4054                           .line   89
     4055                   ;----------------------------------------------------------------------
     4056                   ; 649 | delta_bias = e * dt/I;                                                 
     4057                   ;----------------------------------------------------------------------
     4058 00000656 40410303         ldfu      *+fp(3),f1            ; |649| 
     4059 00000657 4040030b         ldfu      *+fp(11),f0           ; |649| 
     4060 00000658 0a400308         mpyf      *+fp(8),f0            ; |649| 
     4061 00000659 62000000!        call      DIV_F30               ; |649| 
     4062                                                           ; |649| Call Occurs
     4063 0000065a 14400307         stf       f0,*+fp(7)            ; |649| 
     4064                           .line   91
     4065                   ;----------------------------------------------------------------------
     4066                   ; 651 | AO[loop].pid_bias += delta_bias;                                       
     4067                   ; 653 | //enforce bias limits                                                  
     4068                   ;----------------------------------------------------------------------
     4069 0000065b 08700000-        ldp       @CL13,DP
     4070 0000065c 50510301         ldiu      *+fp(1),ir0           ; |651| 
     4071 0000065d 0af101a3         mpyi      419,ir0               ; |651| 
     4072 0000065e 5068019f         ldiu      415,ar0               ; |651| 
     4073 0000065f 02310018-        addi      @CL13,ir0             ; |651| Unsigned
     4074 00000660 20a04000         addf3     f0,*+ar0(ir0),f0      ; |651| 
     4075 00000661 14404000         stf       f0,*+ar0(ir0)         ; |651| 
     4076                           .line   94
     4077                   ;----------------------------------------------------------------------
     4078                   ; 654 | if (AO[loop].pid_bias > 100)                                           
     4079                   ;----------------------------------------------------------------------
     4080 00000662 08700000-        ldp       @CL60,DP
     4081 00000663 50510301         ldiu      *+fp(1),ir0           ; |654| 
     4082 00000664 5028004a-        ldiu      @CL60,ar0             ; |654| 
     4083 00000665 0af101a3         mpyi      419,ir0               ; |654| 
     4084 00000666 40606480         ldfu      1.0000000000e+02,f0   ; |654| 
     4085 00000667 23204000         cmpf3     f0,*+ar0(ir0)         ; |654| 
     4086 00000668 6a080006         ble       L174                  ; |654| 
     4087                   ;*      Branch Occurs to L174           ; |654| 
     4088                           .line   95
     4089                   ;----------------------------------------------------------------------
     4090                   ; 655 | AO[loop].pid_bias = 100;                                               
     4091                   ;----------------------------------------------------------------------
     4092 00000669 50510301         ldiu      *+fp(1),ir0           ; |655| 
     4093 0000066a 08700000-        ldp       @CL60,DP
     4094 0000066b 0af101a3         mpyi      419,ir0               ; |655| 
     4095 0000066c 5028004a-        ldiu      @CL60,ar0             ; |655| 
     4096 0000066d 40606480         ldfu      1.0000000000e+02,f0   ; |655| 
     4097 0000066e 14404000         stf       f0,*+ar0(ir0)         ; |655| 
     4098 0000066f          L174:        
     4099                           .line   96
     4100                   ;----------------------------------------------------------------------
     4101                   ; 656 | if (AO[loop].pid_bias < -100)                                          
     4102                   ;----------------------------------------------------------------------
     4103 0000066f 08700000-        ldp       @CL60,DP
     4104 00000670 50510301         ldiu      *+fp(1),ir0           ; |656| 
TMS320C3x/4x COFF AssemblerVersion 5.12     Wed Jul 24 11:03:43 2019
Copyright (c) 1987-1999 Texas Instruments Incorporatedasm30.exe -@_3JG.AAB 

G:\workspace\EEA\V615\APP\SOURCE\ASM\dac.asm                         PAGE   77

     4105 00000671 5028004a-        ldiu      @CL60,ar0             ; |656| 
     4106 00000672 08700000-        ldp       @CL74,DP
     4107 00000673 0af101a3         mpyi      419,ir0               ; |656| 
     4108 00000674 40200058-        ldfu      @CL74,f0              ; |656| 
     4109 00000675 23204000         cmpf3     f0,*+ar0(ir0)         ; |656| 
     4110 00000676 6a0a0007         bge       L176                  ; |656| 
     4111                   ;*      Branch Occurs to L176           ; |656| 
     4112                           .line   97
     4113                   ;----------------------------------------------------------------------
     4114                   ; 657 | AO[loop].pid_bias = -100;                                              
     4115                   ; 660 | // we multiply output by 10 to keep customer PID values roughly in the
     4116                   ;     | same range as the old PID                                              
     4117                   ;----------------------------------------------------------------------
     4118 00000677 08700000-        ldp       @CL60,DP
     4119 00000678 50510301         ldiu      *+fp(1),ir0           ; |657| 
     4120 00000679 5028004a-        ldiu      @CL60,ar0             ; |657| 
     4121 0000067a 08700000-        ldp       @CL74,DP
     4122 0000067b 0af101a3         mpyi      419,ir0               ; |657| 
     4123 0000067c 40200058-        ldfu      @CL74,f0              ; |657| 
     4124 0000067d 14404000         stf       f0,*+ar0(ir0)         ; |657| 
     4125 0000067e          L176:        
     4126                           .line   101
     4127                   ;----------------------------------------------------------------------
     4128                   ; 661 | new_out = 10*P*(e + AO[loop].pid_bias + (D*delta_e)/dt);               
     4129                   ; 663 | //Don't further accumulate the bias if the output hits 100% or 0%      
     4130                   ;----------------------------------------------------------------------
     4131 0000067e 4040030a         ldfu      *+fp(10),f0           ; |661| 
     4132 0000067f 4041030b         ldfu      *+fp(11),f1           ; |661| 
     4133 00000680 0a400304         mpyf      *+fp(4),f0            ; |661| 
     4134 00000681 62000000!        call      DIV_F30               ; |661| 
     4135                                                           ; |661| Call Occurs
     4136 00000682 08700000-        ldp       @CL60,DP
     4137 00000683 50510301         ldiu      *+fp(1),ir0           ; |661| 
     4138 00000684 0af101a3         mpyi      419,ir0               ; |661| 
     4139 00000685 5028004a-        ldiu      @CL60,ar0             ; |661| 
     4140 00000686 40424000         ldfu      *+ar0(ir0),f2         ; |661| 
     4141 00000687 40410302         ldfu      *+fp(2),f1            ; |661| 
     4142 00000688 01c20308         addf      *+fp(8),f2            ; |661| 
     4143 00000689 0a613200         mpyf      1.0000000000e+01,f1   ; |661| 
     4144 0000068a 20800002         addf3     f2,f0,f0              ; |661| 
     4145 0000068b 24800100         mpyf3     f0,f1,f0              ; |661| 
     4146 0000068c 14400306         stf       f0,*+fp(6)            ; |661| 
     4147                           .line   104
     4148                   ;----------------------------------------------------------------------
     4149                   ; 664 | if ( ((new_out > 100.0) && (delta_bias > 0)) || ((new_out < 0) && (delt
     4150                   ;     | a_bias < 0)) )                                                         
     4151                   ;----------------------------------------------------------------------
     4152 0000068d 04606480         cmpf      1.0000000000e+02,f0   ; |664| 
     4153 0000068e 6a080003         ble       L178                  ; |664| 
     4154                   ;*      Branch Occurs to L178           ; |664| 
     4155 0000068f 40400307         ldfu      *+fp(7),f0            ; |664| 
     4156 00000690 04608000         cmpf      0.0000000000e+00,f0   ; |664| 
     4157 00000691 6a090006         bgt       L180                  ; |664| 
     4158                   ;*      Branch Occurs to L180           ; |664| 
TMS320C3x/4x COFF AssemblerVersion 5.12     Wed Jul 24 11:03:43 2019
Copyright (c) 1987-1999 Texas Instruments Incorporatedasm30.exe -@_3JG.AAB 

G:\workspace\EEA\V615\APP\SOURCE\ASM\dac.asm                         PAGE   78

     4159 00000692          L178:        
     4160 00000692 40400306         ldfu      *+fp(6),f0            ; |664| 
     4161 00000693 04608000         cmpf      0.0000000000e+00,f0   ; |664| 
     4162 00000694 6a0a000b         bge       L181                  ; |664| 
     4163                   ;*      Branch Occurs to L181           ; |664| 
     4164 00000695 40400307         ldfu      *+fp(7),f0            ; |664| 
     4165 00000696 04608000         cmpf      0.0000000000e+00,f0   ; |664| 
     4166 00000697 6a0a0008         bge       L181                  ; |664| 
     4167                   ;*      Branch Occurs to L181           ; |664| 
     4168 00000698          L180:        
     4169                           .line   105
     4170                   ;----------------------------------------------------------------------
     4171                   ; 665 | AO[loop].pid_bias -= delta_bias; //undo the accumulate from earlier    
     4172                   ;----------------------------------------------------------------------
     4173 00000698 50510301         ldiu      *+fp(1),ir0           ; |665| 
     4174 00000699 08700000-        ldp       @CL13,DP
     4175 0000069a 0af101a3         mpyi      419,ir0               ; |665| 
     4176 0000069b 5068019f         ldiu      415,ar0               ; |665| 
     4177 0000069c 02310018-        addi      @CL13,ir0             ; |665| Unsigned
     4178 0000069d 40400307         ldfu      *+fp(7),f0            ; |665| 
     4179 0000069e 26a04000         subf3     f0,*+ar0(ir0),f0      ; |665| 
     4180 0000069f 14404000         stf       f0,*+ar0(ir0)         ; |665| 
     4181 000006a0          L181:        
     4182                           .line   108
     4183                   ;----------------------------------------------------------------------
     4184                   ; 668 | if (new_out > 100.0)        // Limit output to between 0 and 100%      
     4185                   ;----------------------------------------------------------------------
     4186 000006a0 40400306         ldfu      *+fp(6),f0            ; |668| 
     4187 000006a1 04606480         cmpf      1.0000000000e+02,f0   ; |668| 
     4188 000006a2 6a080003         ble       L183                  ; |668| 
     4189                   ;*      Branch Occurs to L183           ; |668| 
     4190                           .line   109
     4191                   ;----------------------------------------------------------------------
     4192                   ; 669 | new_out = 100.0;                                                       
     4193                   ;----------------------------------------------------------------------
     4194 000006a3 40606480         ldfu      1.0000000000e+02,f0   ; |669| 
     4195 000006a4 14400306         stf       f0,*+fp(6)            ; |669| 
     4196 000006a5 6a000005         bu        L185                  ; |560| 
     4197                   ;*      Branch Occurs to L185           ; |560| 
     4198 000006a6          L183:        
     4199                           .line   110
     4200                   ;----------------------------------------------------------------------
     4201                   ; 670 | else if (new_out < 0.0)                                                
     4202                   ;----------------------------------------------------------------------
     4203 000006a6 40400306         ldfu      *+fp(6),f0            ; |670| 
     4204 000006a7 04608000         cmpf      0.0000000000e+00,f0   ; |670| 
     4205 000006a8 6a0a0002         bge       L185                  ; |670| 
     4206                   ;*      Branch Occurs to L185           ; |670| 
     4207                           .line   111
     4208                   ;----------------------------------------------------------------------
     4209                   ; 671 | new_out = 0.0;                                                         
     4210                   ;----------------------------------------------------------------------
     4211 000006a9 40608000         ldfu      0.0000000000e+00,f0   ; |671| 
     4212 000006aa 14400306         stf       f0,*+fp(6)            ; |671| 
TMS320C3x/4x COFF AssemblerVersion 5.12     Wed Jul 24 11:03:43 2019
Copyright (c) 1987-1999 Texas Instruments Incorporatedasm30.exe -@_3JG.AAB 

G:\workspace\EEA\V615\APP\SOURCE\ASM\dac.asm                         PAGE   79

     4213 000006ab          L185:        
     4214                           .line   113
     4215                   ;----------------------------------------------------------------------
     4216                   ; 673 | AO[loop].pid_output  = new_out;                                        
     4217                   ;----------------------------------------------------------------------
     4218 000006ab 50510301         ldiu      *+fp(1),ir0           ; |673| 
     4219 000006ac 08700000-        ldp       @CL57,DP
     4220 000006ad 0af101a3         mpyi      419,ir0               ; |673| 
     4221 000006ae 50280047-        ldiu      @CL57,ar0             ; |673| 
     4222 000006af 40400306         ldfu      *+fp(6),f0            ; |673| 
     4223 000006b0 14404000         stf       f0,*+ar0(ir0)         ; |673| 
     4224                           .line   114
     4225                   ;----------------------------------------------------------------------
     4226                   ; 674 | AO[loop].pid_error   = e;                                              
     4227                   ;----------------------------------------------------------------------
     4228 000006b1 08700000-        ldp       @CL58,DP
     4229 000006b2 50510301         ldiu      *+fp(1),ir0           ; |674| 
     4230 000006b3 50280048-        ldiu      @CL58,ar0             ; |674| 
     4231 000006b4 0af101a3         mpyi      419,ir0               ; |674| 
     4232 000006b5 40400308         ldfu      *+fp(8),f0            ; |674| 
     4233 000006b6 14404000         stf       f0,*+ar0(ir0)         ; |674| 
     4234                           .line   116
     4235                   ;----------------------------------------------------------------------
     4236                   ; 676 | return new_out;                                                        
     4237                   ;----------------------------------------------------------------------
     4238 000006b7 40400306         ldfu      *+fp(6),f0            ; |676| 
     4239 000006b8          L186:        
     4240                           .line   117
     4241                                                           ; Begin Epilog Code
     4242 000006b8 50410b01         ldiu      *-fp(1),r1            ; |677| 
     4243 000006b9 504bc300         ldiu      *fp,fp                ; |677| 
     4244                                                           ; Unallocate the Frame
     4245 000006ba 18740010         subi      16,sp                 ; |677| 
     4246 000006bb 68000001         bu        r1
     4247                   ;*      Branch Occurs to r1 
     4248                           .endfunc        677,000000000h,14
     4249                   
     4250                   
     4251                   
     4252                           .global _AO
     4253 00000000          _AO:    .usect  "CFG",3771,1
     4254                           .sym    _AO,_AO,56,2,120672,.fake16,9
     4255                   
     4256                           .global _DAC_INT
     4257 00000000                  .bss    _DAC_INT,12
     4258                           .sym    _DAC_INT,_DAC_INT,52,2,384,,12
     4259                   ;******************************************************************************
     4260                   ;* CONSTANT TABLE                                                             *
     4261                   ;******************************************************************************
     4262 00000000                  .sect   ".const"
     4263 0000000c                  .bss    CL1,1
     4264 0000000d                  .bss    CL2,1
     4265 0000000e                  .bss    CL3,1
     4266 0000000f                  .bss    CL4,1
TMS320C3x/4x COFF AssemblerVersion 5.12     Wed Jul 24 11:03:43 2019
Copyright (c) 1987-1999 Texas Instruments Incorporatedasm30.exe -@_3JG.AAB 

G:\workspace\EEA\V615\APP\SOURCE\ASM\dac.asm                         PAGE   80

     4267 00000010                  .bss    CL5,1
     4268 00000011                  .bss    CL6,1
     4269 00000012                  .bss    CL7,1
     4270 00000013                  .bss    CL8,1
     4271 00000014                  .bss    CL9,1
     4272 00000015                  .bss    CL10,1
     4273 00000016                  .bss    CL11,1
     4274 00000017                  .bss    CL12,1
     4275 00000018                  .bss    CL13,1
     4276 00000019                  .bss    CL14,1
     4277 0000001a                  .bss    CL15,1
     4278 0000001b                  .bss    CL16,1
     4279 0000001c                  .bss    CL17,1
     4280 0000001d                  .bss    CL18,1
     4281 0000001e                  .bss    CL19,1
     4282 0000001f                  .bss    CL20,1
     4283 00000020                  .bss    CL21,1
     4284 00000021                  .bss    CL22,2
     4285 00000023                  .bss    CL23,1
     4286 00000024                  .bss    CL24,1
     4287 00000025                  .bss    CL25,1
     4288 00000026                  .bss    CL26,1
     4289 00000027                  .bss    CL27,1
     4290 00000028                  .bss    CL28,1
     4291 00000029                  .bss    CL29,1
     4292 0000002a                  .bss    CL30,1
     4293 0000002b                  .bss    CL31,1
     4294 0000002c                  .bss    CL32,1
     4295 0000002d                  .bss    CL33,1
     4296 0000002e                  .bss    CL34,1
     4297 0000002f                  .bss    CL35,1
     4298 00000030                  .bss    CL36,2
     4299 00000032                  .bss    CL37,2
     4300 00000034                  .bss    CL38,1
     4301 00000035                  .bss    CL39,1
     4302 00000036                  .bss    CL40,1
     4303 00000037                  .bss    CL41,1
     4304 00000038                  .bss    CL42,1
     4305 00000039                  .bss    CL43,1
     4306 0000003a                  .bss    CL44,1
     4307 0000003b                  .bss    CL45,1
     4308 0000003c                  .bss    CL46,1
     4309 0000003d                  .bss    CL47,1
     4310 0000003e                  .bss    CL48,1
     4311 0000003f                  .bss    CL49,1
     4312 00000040                  .bss    CL50,1
     4313 00000041                  .bss    CL51,1
     4314 00000042                  .bss    CL52,1
     4315 00000043                  .bss    CL53,1
     4316 00000044                  .bss    CL54,1
     4317 00000045                  .bss    CL55,1
     4318 00000046                  .bss    CL56,1
     4319 00000047                  .bss    CL57,1
     4320 00000048                  .bss    CL58,1
TMS320C3x/4x COFF AssemblerVersion 5.12     Wed Jul 24 11:03:43 2019
Copyright (c) 1987-1999 Texas Instruments Incorporatedasm30.exe -@_3JG.AAB 

G:\workspace\EEA\V615\APP\SOURCE\ASM\dac.asm                         PAGE   81

     4321 00000049                  .bss    CL59,1
     4322 0000004a                  .bss    CL60,1
     4323 0000004b                  .bss    CL61,1
     4324 0000004c                  .bss    CL62,1
     4325 0000004d                  .bss    CL63,1
     4326 0000004e                  .bss    CL64,1
     4327 0000004f                  .bss    CL65,1
     4328 00000050                  .bss    CL66,1
     4329 00000051                  .bss    CL67,1
     4330 00000052                  .bss    CL68,1
     4331 00000053                  .bss    CL69,1
     4332 00000054                  .bss    CL70,1
     4333 00000055                  .bss    CL71,1
     4334 00000056                  .bss    CL72,1
     4335 00000057                  .bss    CL73,1
     4336 00000058                  .bss    CL74,1
     4337                   
     4338 00000000                  .sect   ".cinit"
     4339 00000000 0000004d         .field          77,32
     4340 00000001 0000000c-        .field          CL1+0,32
     4341 00000002 00000000!        .field          _REG_DAC,32
     4342 00000003 00000000!        .field          _SA,32
     4343 00000004 00000000!        .field          _VAR_NaN,32
     4344 00000005 00000000!        .field          _DAC_TRIM_I_1,32
     4345 00000006 00000000!        .field          _DAC_TRIM_F_1,32
     4346 00000007 ff000000         .word           0FF000000H ; double  5.000000000000000e-01
     4347 00000008 00000000!        .field          _VAR_Update,32
     4348 00000009 00000000-        .field          _DAC_INT,32
     4349 0000000a 00808048         .field          8421448,32
     4350 0000000b 00000000!        .field          _SP0_RX_DATA,32
     4351 0000000c 0080804c         .field          8421452,32
     4352 0000000d 00000003!        .field          _REG_DAC+3,32
     4353 0000000e 00000000-        .field          _AO,32
     4354 0000000f 0000002c-        .field          _AO+44,32
     4355 00000010 000001a0-        .field          _AO+416,32
     4356 00000011 00000129'        .field          SW0,32
     4357 00000012 00000000!        .field          _Write_ADC_DAC,32
     4358 00000013 00000046!        .field          _PORT+70,32
     4359 00000014 000001b6'        .field          _MB_RX_DAC_Aout,32
     4360 00000015 00009001         .field          36865,32
     4361 00000016 00900013         .field          9437203,32
     4362 00000017 80000000         .word           080000000H ; ldouble 0.000000000000000e+00
     4363 00000018 00000000         .word           000000000H ; ldouble
     4364 00000019 00000000'        .field          _Write_DAC,32
     4365 0000001a 0000010c-        .field          _AO+268,32
     4366 0000001b 00060000         .field          393216,32
     4367 0000001c 00000000!        .field          _VAR_Get_Unit_Param,32
     4368 0000001d 00050000         .field          327680,32
     4369 0000001e 000000b9-        .field          _AO+185,32
     4370 0000001f 000000e5-        .field          _AO+229,32
     4371 00000020 00000112-        .field          _AO+274,32
     4372 00000021 00000557'        .field          _PID_Init,32
     4373 00000022 00000113-        .field          _AO+275,32
     4374 00000023 000001a2-        .field          _AO+418,32
TMS320C3x/4x COFF AssemblerVersion 5.12     Wed Jul 24 11:03:43 2019
Copyright (c) 1987-1999 Texas Instruments Incorporatedasm30.exe -@_3JG.AAB 

G:\workspace\EEA\V615\APP\SOURCE\ASM\dac.asm                         PAGE   82

     4375 00000024 000001a1-        .field          _AO+417,32
     4376 00000025 00000114-        .field          _AO+276,32
     4377 00000026 06480000         .word           006480000H ; ldouble 1.000000000000000e+02
     4378 00000027 48000000         .word           048000000H ; ldouble
     4379 00000028 f923d70a         .word           0F923D70AH ; ldouble 1.000000000000000e-02
     4380 00000029 23d70a3d         .word           023D70A3DH ; ldouble
     4381 0000002a 00000585'        .field          _PID,32
     4382 0000002b 00000000!        .field          _HART_DV_Table,32
     4383 0000002c 00000000!        .field          _HART_Lookup,32
     4384 0000002d 0000011c!        .field          _PORT+284,32
     4385 0000002e 00000000!        .field          _DIO_HART_5,32
     4386 0000002f 00000000!        .field          _LOOP_ENABLED,32
     4387 00000030 00000000!        .field          _REG_DUMMY,32
     4388 00000031 0000010a-        .field          _AO+266,32
     4389 00000032 0000010e-        .field          _AO+270,32
     4390 00000033 00000065-        .field          _AO+101,32
     4391 00000034 00000110-        .field          _AO+272,32
     4392 00000035 00000058-        .field          _AO+88,32
     4393 00000036 0000005e-        .field          _AO+94,32
     4394 00000037 00000000!        .field          _Convert,32
     4395 00000038 00000091-        .field          _AO+145,32
     4396 00000039 00000084-        .field          _AO+132,32
     4397 0000003a 0000008a-        .field          _AO+138,32
     4398 0000003b 00000109-        .field          _AO+265,32
     4399 0000003c 00000108-        .field          _AO+264,32
     4400 0000003d 0000019c-        .field          _AO+412,32
     4401 0000003e 0000019e-        .field          _AO+414,32
     4402 0000003f 00000115-        .field          _AO+277,32
     4403 00000040 0000019f-        .field          _AO+415,32
     4404 00000041 0000019b-        .field          _AO+411,32
     4405 00000042 00808034         .field          8421428,32
     4406 00000043 00808038         .field          8421432,32
     4407 00000044 00000000!        .field          _CLOCK,32
     4408 00000045 20000000         .word           020000000H ; float   4.294967296000000e+09
     4409 00000046 fa088889         .word           0FA088889H ; double  1.666666666666667e-02
     4410 00000047 0000019d-        .field          _AO+413,32
     4411 00000048 00000117-        .field          _AO+279,32
     4412 00000049 097a0000         .word           0097A0000H ; double  1.000000000000000e+03
     4413 0000004a 00000143-        .field          _AO+323,32
     4414 0000004b 0d1c4000         .word           00D1C4000H ; double  1.000000000000000e+04
     4415 0000004c 0000016f-        .field          _AO+367,32
     4416 0000004d 00000116-        .field          _AO+278,32
     4417 0000004e 06b80000         .word           006B80000H ; float   -1.000000000000000e+02
     4418                   
     4419 000006bc                  .sect   ".text"
     4420                   ;******************************************************************************
     4421                   ;* UNDEFINED EXTERNAL REFERENCES                                              *
     4422                   ;******************************************************************************
     4423                   
     4424                           .global _VAR_Get_Unit_Param
     4425                   
     4426                           .global _VAR_NaN
     4427                   
     4428                           .global _VAR_Update
TMS320C3x/4x COFF AssemblerVersion 5.12     Wed Jul 24 11:03:43 2019
Copyright (c) 1987-1999 Texas Instruments Incorporatedasm30.exe -@_3JG.AAB 

G:\workspace\EEA\V615\APP\SOURCE\ASM\dac.asm                         PAGE   83

     4429                   
     4430                           .global _Convert
     4431                   
     4432                           .global _SP0_RX_DATA
     4433                   
     4434                           .global _PORT
     4435                   
     4436                           .global _Write_ADC_DAC
     4437                   
     4438                           .global _CLOCK
     4439                   
     4440                           .global _SA
     4441                   
     4442                           .global _LOOP_ENABLED
     4443                   
     4444                           .global _DIO_HART_5
     4445                   
     4446                           .global _REG_DUMMY
     4447                   
     4448                           .global _REG_DAC
     4449                   
     4450                           .global _DAC_TRIM_F_1
     4451                   
     4452                           .global _DAC_TRIM_I_1
     4453                   
     4454                           .global _HART_Lookup
     4455                   
     4456                           .global _HART_DV_Table
     4457                           .global DIV_F30
     4458                           .global DIV_LD
     4459                           .global MPY_LD

 No Errors,  No Warnings
TMS320C3x/4x COFF AssemblerVersion 5.12     Wed Jul 24 11:03:43 2019
Copyright (c) 1987-1999 Texas Instruments Incorporatedasm30.exe -@_3JG.AAB 

G:\workspace\EEA\V615\APP\SOURCE\ASM\dac.asm                         PAGE   84

LABEL                            VALUE       DEFN    REF

.BIGMODEL                        00000001       0 
.C30                             00000000       0 
.C30INTERRUPT                    00000000       0 
.C31                             00000000       0 
.C32                             00000000       0 
.C33                             00000001       0 
.C3X                             00000001       0 
.C3x                             00000001       0 
.C40                             00000000       0 
.C44                             00000000       0 
.C4X                             00000000       0 
.C4x                             00000000       0 
.REGPARM                         00000001       0 
.TMS320C30                       00000001       0 
.TMS320C31                       00000000       0 
.TMS320C32                       00000000       0 
.TMS320C40                       00000000       0 
.TMS320C44                       00000000       0 
.TMS320xx                        00000021       0 
.tms320C30                       00000001       0 
.tms320C31                       00000000       0 
.tms320C32                       00000000       0 
.tms320C40                       00000000       0 
.tms320C44                       00000000       0 
.tms320xx                        00000021       0 
.tmx320C40                       00000000       0 
CL1                              0000000c-   4263    774    776    819    821 
                                                     954    956   1569   1571 
                                                    1584   1586   1708   1710 
                                                    1733   1735   1957   1959 
                                                    2114   2116   3320   3323 
                                                    4340 
CL10                             00000015-   4272    994    995   1005   1006 
                                                    1038   1040   1049   1050 
                                                    1999   2001   2010   2011 
                                                    2064   2065   2075   2076 
CL11                             00000016-   4273    992    993   1003   1004 
                                                    1036   1037   1047   1048 
                                                    1997   1998   2008   2009 
                                                    2062   2063   2073   2074 
CL12                             00000017-   4274   1075   1077   1596   1598 
CL13                             00000018-   4275   1091   1093   1612   1614 
                                                    1744   1747   2274   2276 
                                                    2294   2296   2707   2709 
                                                    2815   2816   2825   2827 
                                                    2854   2856   2889   2891 
                                                    2927   2929   2992   2994 
                                                    3011   3013   3039   3041 
                                                    3068   3070   3252   3254 
                                                    3294   3295   3358   3361 
                                                    4069   4073   4174   4177 
TMS320C3x/4x COFF AssemblerVersion 5.12     Wed Jul 24 11:03:43 2019
Copyright (c) 1987-1999 Texas Instruments Incorporatedasm30.exe -@_3JG.AAB 

G:\workspace\EEA\V615\APP\SOURCE\ASM\dac.asm                         PAGE   85

LABEL                            VALUE       DEFN    REF

CL14                             00000019-   4276   1102   1105   1623   1626 
                                                    1756   1759   3464   3466 
CL15                             0000001a-   4277   1218   1221   1250   1253 
                                                    1282   1285   1314   1317 
                                                    1346   1349   1635   1637 
                                                    1719   1722   1769   1771 
                                                    1946   1948   2038   2040 
                                                    2225   2227   3696   3698 
CL16                             0000001b-   4278   1394   1395 
CL17                             0000001c-   4279   1548   1552 
CL18                             0000001d-   4280   1696   1698 
CL19                             0000001e-   4281   1818   1820   1827   1828 
                                                    1876   1878   1885   1886 
CL2                              0000000d-   4264    797    798   1970   1971 
                                                    2776   2777 
CL20                             0000001f-   4282   1990   1991   2054   2055 
CL21                             00000020-   4283   2027   2028 
CL22                             00000021-   4284   2117   2118   2119   2121 
                                                    2541   2542   2543   2544 
                                                    3402   3404   3405   3407 
                                                    3417   3418   3419   3420 
CL23                             00000023-   4285   2129   2130   3332   3333 
CL24                             00000024-   4286   2249   2251   2261   2263 
                                                    2370   2372   2402   2404 
                                                    2721   2723   2745   2747 
                                                    2756   2759   3429   3431 
CL25                             00000025-   4287   2277   2279   2819   2821 
CL26                             00000026-   4288   2271   2273   2291   2293 
                                                    2817   2818 
CL27                             00000027-   4289   2297   2299 
CL28                             00000028-   4290   2317   2319 
CL29                             00000029-   4291   2347   2349 
CL3                              0000000e-   4265    822    823   1094   1095 
                                                    1106   1107   1572   1573 
                                                    1615   1616   1627   1628 
                                                    1736   1737   1748   1749 
                                                    1760   1761   1960   1961 
CL30                             0000002a-   4292   2378   2380   2414   2416 
                                                    2733   2735   2806   2807 
                                                    2842   2844 
CL31                             0000002b-   4293   2391   2393   2506   2508 
                                                    3737   3739 
CL32                             0000002c-   4294   2426   2428   2438   2440 
                                                    2451   2453   2463   2465 
                                                    2474   2476 
CL33                             0000002d-   4295   2487   2489   3718   3720 
CL34                             0000002e-   4296   2495   2497   3726   3728 
CL35                             0000002f-   4297   2515   2517   2553   2555 
                                                    2635   2637   3437   3439 
                                                    3746   3748 
TMS320C3x/4x COFF AssemblerVersion 5.12     Wed Jul 24 11:03:43 2019
Copyright (c) 1987-1999 Texas Instruments Incorporatedasm30.exe -@_3JG.AAB 

G:\workspace\EEA\V615\APP\SOURCE\ASM\dac.asm                         PAGE   86

LABEL                            VALUE       DEFN    REF

CL36                             00000030-   4298   2528   2529   2530   2531 
                                                    3341   3342   3345   3347 
                                                    3378   3379   3381   3382 
                                                    3391   3392   3393   3394 
CL37                             00000032-   4299   2575   2576   2577   2578 
                                                    2603   2604   2605   2606 
                                                    2657   2658   2659   2660 
                                                    2685   2686   2687   2688 
CL38                             00000034-   4300   2622   2624 
CL39                             00000035-   4301   2764   2766 
CL4                              0000000f-   4266    842    844    863    864 
                                                     898    900    909    910 
                                                     940    942   1419   1421 
                                                    1440   1441   1475   1477 
                                                    1486   1487   2327   2328 
                                                    2356   2358 
CL40                             00000036-   4302   2761   2763 
CL41                             00000037-   4303   2782   2783 
CL42                             00000038-   4304   2789   2790 
CL43                             00000039-   4305   2795   2796 
CL44                             0000003a-   4306   2947   2949   2963   2965 
CL45                             0000003b-   4307   2974   2976 
CL46                             0000003c-   4308   3095   3096   3141   3142 
                                                    3202   3204 
CL47                             0000003d-   4309   3098   3100 
CL48                             0000003e-   4310   3088   3090   3137   3138 
                                                    3199   3200 
CL49                             0000003f-   4311   3086   3087   3228   3230 
CL5                              00000010-   4267    845    847    866    868 
                                                     936    938   1422   1424 
                                                    1443   1445   2312   2313 
                                                    2341   2343 
CL50                             00000040-   4312   3091   3093 
CL51                             00000041-   4313   3111   3118   3164   3170 
                                                    3205   3208 
CL52                             00000042-   4314   3143   3145 
CL53                             00000043-   4315   3135   3136 
CL54                             00000044-   4316   3139   3140 
CL55                             00000045-   4317   3277   3280 
CL56                             00000046-   4318   3268   3273   3292   3293 
CL57                             00000047-   4319   3550   3552   3876   3879 
                                                    4219   4221 
CL58                             00000048-   4320   3559   3561   4022   4024 
                                                    4228   4230 
CL59                             00000049-   4321   3569   3571   4041   4044 
CL6                              00000011-   4268    881    883   1458   1460 
                                                    3847   3850 
CL60                             0000004a-   4322   3579   3581   4080   4082 
                                                    4093   4095   4103   4105 
                                                    4118   4120   4136   4139 
TMS320C3x/4x COFF AssemblerVersion 5.12     Wed Jul 24 11:03:43 2019
Copyright (c) 1987-1999 Texas Instruments Incorporatedasm30.exe -@_3JG.AAB 

G:\workspace\EEA\V615\APP\SOURCE\ASM\dac.asm                         PAGE   87

LABEL                            VALUE       DEFN    REF

CL61                             0000004b-   4323   3591   3593   3788   3790 
                                                    3800   3802   3822   3824 
                                                    3892   3894 
CL62                             0000004c-   4324   3589   3590   3779   3780 
CL63                             0000004d-   4325   3813   3814 
CL64                             0000004e-   4326   3841   3842 
CL65                             0000004f-   4327   3843   3845 
CL66                             00000050-   4328   3859   3860 
CL67                             00000051-   4329   3905   3908   3916   3928 
                                                    3930   3941   3943 
CL68                             00000052-   4330   3901   3903 
CL69                             00000053-   4331   3918   3920   3931   3933 
CL7                              00000012-   4269    948    952   2111   2113 
                                                    2701   2705   2829   2831 
                                                    2885   2887   2923   2925 
                                                    2986   2990   3005   3009 
                                                    3033   3037   3062   3066 
                                                    3256   3258   3317   3318 
                                                    3458   3462 
CL70                             00000054-   4332   3952   3954   3963   3965 
                                                    3976   3978 
CL71                             00000055-   4333   3966   3968 
CL72                             00000056-   4334   3987   3989   3999   4001 
                                                    4010   4012 
CL73                             00000057-   4335   4031   4034 
CL74                             00000058-   4336   4106   4108   4121   4123 
CL8                              00000013-   4270    966    968   1512   1514 
CL9                              00000014-   4271    983    985   1027   1029 
                                                    1988   1989   2052   2053 
DIV_F30                          REF                 851    872    945   1428 
                                                    1449   3851   4061   4134 
                                                    4457 
DIV_LD                           REF                2332   2361   3190   3284 
                                                    3350   4458 
FP                               0000000b       7 
L101                             00000305'   2588   2558 
L102                             00000318'   2616   2419 
L104                             0000033a'   2670   2641 
L105                             0000034d'   2696   2586   2614   2668 
L106                             00000359'   2715   2407 
L108                             00000366'   2738   2713   2726 
L11                              00000052'    915    903 
L111                             00000384'   2788   2780 
L113                             0000038e'   2801   2786 
L114                             000003a5'   2836   2793   2799 
L117                             000003ca'   2898   2871 
L119                             000003e0'   2936   2847 
L121                             000003e8'   2952   2945 
L123                             000003f0'   2968   2961 
L125                             00000403'   3000   2979 
L126                             0000040f'   3019   2966 
TMS320C3x/4x COFF AssemblerVersion 5.12     Wed Jul 24 11:03:43 2019
Copyright (c) 1987-1999 Texas Instruments Incorporatedasm30.exe -@_3JG.AAB 

G:\workspace\EEA\V615\APP\SOURCE\ASM\dac.asm                         PAGE   88

LABEL                            VALUE       DEFN    REF

L128                             0000041f'   3047   3027 
L13                              00000057'    930    913    922 
L130                             0000042f'   3076   2950 
L131                             000004c0'   3263   2750   2896   2908   2934 
                                                    2998   3017   3045   3055 
                                                    3074 
L133                             0000051e'   3397   3385 
L135                             0000052c'   3423   3409 
L138                             0000053f'   3453   3434   3442 
L139                             0000054a'   3470   2230 
L14                              00000073'    973   1067 
L140                             0000054f'   3478   2217 
L147                             00000561'   3544   3536 
L148                             00000581'   3597   3533   3538 
L15                              0000008c'   1017   1064 
L152                             0000058e'   3680   3675 
L153                             00000592'   3690   3678 
L155                             0000059d'   3712   3701 
L160                             000005ba'   3764   3752 
L161                             000005be'   3774   3723   3731 
L163                             000005d0'   3808   3792 
L164                             000005dc'   3829   3806 
L166                             000005f6'   3882   3869 
L168                             00000614'   3935   3922 
L17                              000000a5'   1060    971 
L170                             00000628'   3970   3957 
L172                             0000063b'   4004   3992 
L174                             0000066f'   4098   4086 
L176                             0000067e'   4125   4110 
L178                             00000692'   4159   4153 
L180                             00000698'   4168   4157 
L181                             000006a0'   4181   4162   4166 
L183                             000006a6'   4198   4188 
L185                             000006ab'   4213   4196   4205 
L186                             000006b8'   4239   3685   3707   3759   3769 
                                                    3877 
L19                              000000aa'   1069   1015   1058 
L22                              000000c2'   1110   1080   1084 
L23                              000000c4'   1122    801 
L24                              000000c7'   1133   1409 
L25                              000000ce'   1155   1410 
L26                              000000d5'   1177   1411 
L27                              000000dc'   1199   1400 
L28                              000000e9'   1231   1401 
L29                              000000f6'   1263   1402 
L3                               00000010'    792    784 
L30                              00000103'   1295   1403 
L31                              00000110'   1327   1404 
L32                              0000011d'   1362   1405   1406   1407   1408 
L33                              00000120'   1376   1392 
L35                              00000122'   1388   1131 
TMS320C3x/4x COFF AssemblerVersion 5.12     Wed Jul 24 11:03:43 2019
Copyright (c) 1987-1999 Texas Instruments Incorporatedasm30.exe -@_3JG.AAB 

G:\workspace\EEA\V615\APP\SOURCE\ASM\dac.asm                         PAGE   89

LABEL                            VALUE       DEFN    REF

L37                              00000135'   1414   1153   1175   1197   1229 
                                                    1261   1293   1325   1360 
                                                    1374 
L39                              00000159'   1470   1461 
L41                              00000164'   1492   1480 
L43                              00000169'   1507   1490   1499 
L46                              0000018c'   1578   1561 
L47                              00000193'   1590   1576 
L50                              000001b1'   1641   1523   1601   1605 
L51                              000001b2'   1647    835   1120   1386 
L55                              000001d0'   1727   1701 
L56                              000001eb'   1774   1725 
L67                              0000000f+   1951   1936   1939 
L69                              0000001c+   1978   2102 
L7                               00000023'    837    809    812 
L70                              00000035+   2022   2099 
L73                              00000059+   2095   1976 
L76                              0000005f+   2106   1974   2020   2080 
L77                              00000070+   2134   2031   2104 
L80                              0000021d'   2219   3476 
L85                              00000236'   2266   2243   2246   2254 
L87                              0000028e'   2385   2375 
L88                              00000292'   2396   2383 
L9                               00000047'    893    884 
L92                              000002ae'   2445   2431 
L94                              000002bb'   2468   2443   2456 
L98                              000002e4'   2536   2521 
L99                              000002ea'   2547   2492   2500   2534 
MPY_LD                           REF                2325   2354   2573   2579 
                                                    2601   2607   2655   2661 
                                                    2683   2689   3239   3306 
                                                    3370   4459 
SW0                              00000129'   1400   4356 
_AO                              00000000-   4253   4252   4254   4254   4353 
                                                    4354   4355   4365   4369 
                                                    4370   4371   4373   4374 
                                                    4375   4376   4388   4389 
                                                    4390   4391   4392   4393 
                                                    4395   4396   4397   4398 
                                                    4399   4400   4401   4402 
                                                    4403   4404   4410   4411 
                                                    4413   4415   4416 
_CLOCK                           REF                4407   4438 
_Convert                         REF                4394   4430 
_DAC_INT                         00000000-   4257   4256   4258   4258   4348 
_DAC_TRIM_F_1                    REF                4345   4450 
_DAC_TRIM_I_1                    REF                4344   4452 
_DIO_HART_5                      REF                4385   4444 
_HART_DV_Table                   REF                4382   4456 
_HART_Lookup                     REF                4383   4454 
_LOOP_ENABLED                    REF                4386   4442 
TMS320C3x/4x COFF AssemblerVersion 5.12     Wed Jul 24 11:03:43 2019
Copyright (c) 1987-1999 Texas Instruments Incorporatedasm30.exe -@_3JG.AAB 

G:\workspace\EEA\V615\APP\SOURCE\ASM\dac.asm                         PAGE   90

LABEL                            VALUE       DEFN    REF

_MB_RX_DAC_Aout                  000001b6'   1674   1661   1662   1662   4359 
_MB_RX_DAC_Aout6_7               000001ef'   1801   1788   1789   1789 
_MB_RX_DAC_Aout8_9               00000200'   1859   1846   1847   1847 
_PID                             00000585'   3624   3611   3612   3612   4381 
_PID_Init                        00000557'   3514   3501   3502   3502   4372 
_PORT                            REF                4358   4384   4434 
_REG_DAC                         REF                4341   4352   4448 
_REG_DUMMY                       REF                4387   4446 
_SA                              REF                4342   4440 
_SP0_RX_DATA                     REF                4350   4432 
_Set_Current                     00000211'   2162   2148   2149   2149 
_Setup_DAC                       00000000+   1917   1904   1905   1905 
_VAR_Get_Unit_Param              REF                4367   4424 
_VAR_NaN                         REF                4343   4426 
_VAR_Update                      REF                4347   4428 
_Write_ADC_DAC                   REF                4357   4436 
_Write_DAC                       00000000'    734    721    722    722   4364 
fp                               0000000b       6   3344   3346   3348   3352 
                                                    3353   3359   3365   3366 
                                                    3367   3368   3372   3373 
                                                    3380   3383   3395   3396 
                                                    3403   3406   3421   3422 
                                                    3428   3436   3448   3449 
                                                    3451   3452   3459   3460 
                                                    3465   3473   3474   3486 
                                                    3487   3487   3522   3523 
                                                    3526   3549   3560   3570 
                                                    3580   3592   3600   3601 
                                                    3601   3645   3646   3668 
                                                    3695   3717   3725   3738 
                                                    3747   3782   3787   3799 
                                                    3804   3805   3816   3821 
                                                    3826   3827   3828   3834 
                                                    3835   3849   3853   3861 
                                                    3862   3875   3891   3895 
                                                    3902   3917   3929   3940 
                                                    3945   3951   3964   3975 
                                                    3980   3986   3998   4009 
                                                    4014   4021   4026   4032 
                                                    4036   4042   4046   4051 
                                                    4052   4053   4058   4059 
                                                    4060   4063   4070   4081 
                                                    4092   4104   4119   4131 
                                                    4132   4133   4137   4141 
                                                    4142   4146   4155   4160 
                                                    4164   4173   4178   4186 
                                                    4195   4203   4212   4218 
                                                    4222   4229   4232   4238 
                                                    4242   4243   4243 
