TMS320C3x/4x COFF AssemblerVersion 5.12     Wed Feb 02 11:35:25 2022
Copyright (c) 1987-1999 Texas Instruments Incorporatedasm30.exe -@_C48.AAB 

Y:\workspace_eea\V615\APP\SOURCE\ASM\i2c.asm                         PAGE    1

        1                   ;******************************************************************************
        2                   ;* TMS320C3x/4x ANSI C Code Generator                            Version 5.11 *
        3                   ;* Date/Time created: Wed Feb  2 11:35:25 2022                                *
        4                   ;******************************************************************************
        5                           .regalias       ; enable floating point register aliases
        6          0000000b fp      .set    ar3
        7          0000000b FP      .set    ar3
        8                   ;******************************************************************************
        9                   ;* GLOBAL FILE PARAMETERS                                                     *
       10                   ;*                                                                            *
       11                   ;*   Optimization       : Always Choose Smaller Code Size                     *
       12                   ;*   Memory             : Big Memory Model                                    *
       13                   ;*   Float-to-Int       : Normal Conversions (round toward zero)              *
       14                   ;*   Multiply           : in Software (32 bits)                               *
       15                   ;*   Memory Info        : Unmapped Memory Exists                              *
       16                   ;*   Repeat Loops       : Use RPTS and/or RPTB                                *
       17                   ;*   Calls              : Normal Library ASM calls                            *
       18                   ;*   Debug Info         : Standard TI Debug Information                       *
       19                   ;******************************************************************************
       20                   ;       C:\tic3x4x\c3x4x\cgtools\bin\ac30.exe -@_C48.AAA 
       21                           .file   "i2c.c"
       22                           .file   "Y:\workspace_eea\V615\APP\SOURCE\INCLUDE\GLBLS.H"
       23                           .file   "Y:\workspace_eea\V615\INCLUDE\stdarg.h"
       24                           .sym    _va_list,0,18,13,32
       25                           .file   "Y:\workspace_eea\V615\INCLUDE\format.h"
       26                           .stag   .fake0,128
       27                           .member _flags,0,14,8,32
       28                           .member _fwidth,32,4,8,32
       29                           .member _precision,64,4,8,32
       30                           .member _conv,96,2,8,32
       31                           .eos
       32                           .sym    __PFIELD,0,8,13,128,.fake0
       33                           .stag   .fake1,3200
       34                           .member _flags,0,14,8,32
       35                           .member _fwidth,32,4,8,32
       36                           .member _precision,64,4,8,32
       37                           .member _scanset,96,50,8,3072,,96
       38                           .member _conv,3168,2,8,32
       39                           .eos
       40                           .sym    __SFIELD,0,8,13,3200,.fake1
       41                           .file   "Y:\workspace_eea\V615\INCLUDE\string.h"
       42                           .sym    _size_t,0,14,13,32
       43                           .file   "Y:\workspace_eea\V615\INCLUDE\stdio.h"
       44                           .stag   .fake2,224
       45                           .member _fd,0,4,8,32
       46                           .member _buf,32,28,8,32
       47                           .member _pos,64,28,8,32
       48                           .member _bufend,96,28,8,32
       49                           .member _buff_stop,128,28,8,32
       50                           .member _flags,160,14,8,32
       51                           .member _index,192,4,8,32
       52                           .eos
       53                           .sym    _FILE,0,8,13,224,.fake2
       54                           .sym    _fpos_t,0,5,13,32
TMS320C3x/4x COFF AssemblerVersion 5.12     Wed Feb 02 11:35:25 2022
Copyright (c) 1987-1999 Texas Instruments Incorporatedasm30.exe -@_C48.AAB 

Y:\workspace_eea\V615\APP\SOURCE\ASM\i2c.asm                         PAGE    2

       55                           .stag   .fake3,544
       56                           .member _name,0,50,8,288,,9
       57                           .member _flags,288,13,8,32
       58                           .member _OPEN,320,148,8,32
       59                           .member _CLOSE,352,148,8,32
       60                           .member _READ,384,148,8,32
       61                           .member _WRITE,416,148,8,32
       62                           .member _LSEEK,448,149,8,32
       63                           .member _UNLINK,480,148,8,32
       64                           .member _RENAME,512,148,8,32
       65                           .eos
       66                           .sym    __DEVICE,0,8,13,544,.fake3
       67                           .file   "Y:\workspace_eea\V615\INCLUDE\stdlib.h"
       68                           .sym    _wchar_t,0,2,13,32
       69                           .stag   __div_t,64
       70                           .member _quot,0,4,8,32
       71                           .member _rem,32,4,8,32
       72                           .eos
       73                           .sym    _div_t,0,8,13,64,__div_t
       74                           .sym    _ldiv_t,0,8,13,64,__div_t
       75                           .file   "Y:\workspace_eea\V615\INCLUDE\math.h"
       76                           .file   "Y:\workspace_eea\V615\INCLUDE\time.h"
       77                           .sym    _clock_t,0,15,13,32
       78                           .sym    _time_t,0,15,13,32
       79                           .stag   _tm,288
       80                           .member _tm_sec,0,4,8,32
       81                           .member _tm_min,32,4,8,32
       82                           .member _tm_hour,64,4,8,32
       83                           .member _tm_mday,96,4,8,32
       84                           .member _tm_mon,128,4,8,32
       85                           .member _tm_year,160,4,8,32
       86                           .member _tm_wday,192,4,8,32
       87                           .member _tm_yday,224,4,8,32
       88                           .member _tm_isdst,256,4,8,32
       89                           .eos
       90                           .stag   _tmzone,320
       91                           .member _daylight,0,3,8,32
       92                           .member _timezone,32,5,8,32
       93                           .member _tzname,64,50,8,128,,4
       94                           .member _dstname,192,50,8,128,,4
       95                           .eos
       96                           .file   "Y:\workspace_eea\V615\INCLUDE\ETC.H"
       97                           .sym    _BOOL,0,14,13,32
       98                           .file   "Y:\workspace_eea\V615\INCLUDE\LIST.H"
       99                           .stag   .fake4,96
      100                           .member _head,0,20,8,32
      101                           .member _tail,32,20,8,32
      102                           .member _n,64,4,8,32
      103                           .eos
      104                           .sym    _LIST,0,8,13,96,.fake4
      105                           .stag   .fake5,64
      106                           .member _prev,0,20,8,32
      107                           .member _next,32,20,8,32
      108                           .eos
TMS320C3x/4x COFF AssemblerVersion 5.12     Wed Feb 02 11:35:25 2022
Copyright (c) 1987-1999 Texas Instruments Incorporatedasm30.exe -@_C48.AAB 

Y:\workspace_eea\V615\APP\SOURCE\ASM\i2c.asm                         PAGE    3

      109                           .sym    _GENERIC,0,8,13,64,.fake5
      110                           .file   "Y:\workspace_eea\V615\APP\SOURCE\INCLUDE\VARIABLE.H"
      111                           .stag   .fake6,1408
      112                           .member _val,0,6,8,32
      113                           .member _vect1,32,20,8,32
      114                           .member _vect2,64,20,8,32
      115                           .member _STAT,96,4,8,32
      116                           .member _dampening,128,6,8,32
      117                           .member _damp_count,160,4,8,32
      118                           .member _aux,192,4,8,32
      119                           .member _val1,224,6,8,32
      120                           .member _val2,256,6,8,32
      121                           .member _calc_val,288,11,8,64
      122                           .member _base_val,352,11,8,64
      123                           .member _unit,416,4,8,32
      124                           .member _calc_unit,448,4,8,32
      125                           .member _class,480,4,8,32
      126                           .member _scale,512,6,8,32
      127                           .member _scale_long,544,6,8,32
      128                           .member _bound_hi_set,576,6,8,32
      129                           .member _bound_lo_set,608,6,8,32
      130                           .member _alarm_hi_set,640,6,8,32
      131                           .member _alarm_lo_set,672,6,8,32
      132                           .member _name,704,50,8,672,,21
      133                           .member _name_r,1376,4,8,32
      134                           .eos
      135                           .sym    _VAR,0,8,13,1408,.fake6
      136                           .stag   .fake7,96
      137                           .member _val,0,14,8,32
      138                           .member _vect,32,20,8,32
      139                           .member _vect2,64,20,8,32
      140                           .eos
      141                           .sym    _COIL,0,8,13,96,.fake7
      142                           .stag   .fake8,64
      143                           .member _val,0,4,8,32
      144                           .member _vect,32,20,8,32
      145                           .eos
      146                           .sym    _REGVECT,0,8,13,64,.fake8
      147                           .stag   .fake9,96
      148                           .member _prev,0,20,8,32
      149                           .member _next,32,20,8,32
      150                           .member _v,64,24,8,32,.fake6
      151                           .eos
      152                           .sym    _DPKT,0,8,13,96,.fake9
      153                           .file   "Y:\workspace_eea\V615\APP\SOURCE\INCLUDE\BUFFER.H"
      154                           .stag   .fake10,9824
      155                           .member _head,0,4,8,32
      156                           .member _tail,32,4,8,32
      157                           .member _n,64,4,8,32
      158                           .member _GSEED,96,14,8,32
      159                           .member _CRC16,128,14,8,32
      160                           .member _buff,160,62,8,9600,,300
      161                           .member _sum,9760,4,8,32
      162                           .member _locked,9792,14,8,32
TMS320C3x/4x COFF AssemblerVersion 5.12     Wed Feb 02 11:35:25 2022
Copyright (c) 1987-1999 Texas Instruments Incorporatedasm30.exe -@_C48.AAB 

Y:\workspace_eea\V615\APP\SOURCE\ASM\i2c.asm                         PAGE    4

      163                           .eos
      164                           .sym    _BFR,0,8,13,9824,.fake10
      165                           .file   "Y:\workspace_eea\V615\INCLUDE\UNITS.H"
      166                           .file   "Y:\workspace_eea\V615\APP\SOURCE\INCLUDE\TIMER.H"
      167                           .stag   .fake11,320
      168                           .member _prev,0,20,8,32
      169                           .member _next,32,20,8,32
      170                           .member _vect,64,20,8,32
      171                           .member _priority,96,4,8,32
      172                           .member _parent,128,20,8,32
      173                           .member _n,160,4,8,32
      174                           .member _prev_n,192,4,8,32
      175                           .member _countdown,224,4,8,32
      176                           .member _preset_time,256,4,8,32
      177                           .member _t,288,6,8,32
      178                           .eos
      179                           .sym    _TPKT,0,8,13,320,.fake11
      180                           .file   "Y:\workspace_eea\V615\INCLUDE\I2C.H"
      181                           .file   "Y:\workspace_eea\V615\APP\SOURCE\INCLUDE\ERRORS.H"
      182                           .file   "Y:\workspace_eea\V615\APP\SOURCE\INCLUDE\SERIAL.H"
      183                           .stag   .fake12,2272
      184                           .member _Slave,0,4,8,32
      185                           .member _SNUM,32,4,8,32
      186                           .member _PRESENT,64,14,8,32
      187                           .member _TX_complete,96,14,8,32
      188                           .member _RX_pending,128,14,8,32
      189                           .member _BUSY,160,14,8,32
      190                           .member _IGNORE_RX,192,14,8,32
      191                           .member _STAT,224,12,8,32
      192                           .member _DAT,256,12,8,32
      193                           .member _broadcast,288,14,8,32
      194                           .member _TMR_Network_WDOG,320,4,8,32
      195                           .member _TMR_EOT_Delay,352,4,8,32
      196                           .member _TMR_Prefix_Delay,384,4,8,32
      197                           .member _TMR_Suffix_Delay,416,4,8,32
      198                           .member _TMR_Char,448,4,8,32
      199                           .member _TMR_Poll,480,8,8,320,.fake11
      200                           .member _TMR_Retry,800,8,8,320,.fake11
      201                           .member _nr,1120,4,8,32
      202                           .member _Received_PKT,1152,14,8,32
      203                           .member _TMR_enabled,1184,14,8,32
      204                           .member _tvector,1216,20,8,32
      205                           .member _pvector,1248,20,8,32
      206                           .member _pvector_main,1280,20,8,32
      207                           .member _tvector_main,1312,20,8,32
      208                           .member _fvector,1344,20,8,32
      209                           .member _actual_baud_rate,1376,6,8,32
      210                           .member _c,1408,14,8,32
      211                           .member _r,1440,14,8,32
      212                           .member _n,1472,4,8,32
      213                           .member _n_exp,1504,4,8,32
      214                           .member _ai,1536,4,8,32
      215                           .member _start,1568,4,8,32
      216                           .member _i,1600,4,8,32
TMS320C3x/4x COFF AssemblerVersion 5.12     Wed Feb 02 11:35:25 2022
Copyright (c) 1987-1999 Texas Instruments Incorporatedasm30.exe -@_C48.AAB 

Y:\workspace_eea\V615\APP\SOURCE\ASM\i2c.asm                         PAGE    5

      217                           .member _i_main,1632,4,8,32
      218                           .member _func,1664,14,8,32
      219                           .member _ERROR_COUNT,1696,14,8,32
      220                           .member _WDOG_COUNT,1728,14,8,32
      221                           .member _INV_CMD_COUNT,1760,14,8,32
      222                           .member _INV_PKT_COUNT,1792,14,8,32
      223                           .member _SUCCESS,1824,14,8,32
      224                           .member _NUM_RETRIES,1856,14,8,32
      225                           .member _FLAG1,1888,14,8,32
      226                           .member _FLAG2,1920,14,8,32
      227                           .member _FLAG3,1952,14,8,32
      228                           .member _LONG_ADDRESS,1984,14,8,32
      229                           .member _MASTER,2016,8,8,96,.fake4
      230                           .member _p,2112,20,8,32
      231                           .member _data,2144,14,8,32
      232                           .member _f,2176,22,8,32
      233                           .member _l,2208,30,8,32
      234                           .member _failed,2240,14,8,32
      235                           .eos
      236                           .sym    _PORTV,0,8,13,2272,.fake12
      237                           .stag   .fake13,11488
      238                           .member _PREFIX,0,8,8,1408,.fake6
      239                           .member _SUFFIX,1408,8,8,1408,.fake6
      240                           .member _NETWDOG,2816,8,8,1408,.fake6
      241                           .member _Slave_ID,4224,8,8,1408,.fake6
      242                           .member _Baud_Rate,5632,8,8,1408,.fake6
      243                           .member _Parity,7040,4,8,32
      244                           .member _n_bits,7072,4,8,32
      245                           .member _STP,7104,4,8,32
      246                           .member _N,7136,4,8,32
      247                           .member _N_retry,7168,4,8,32
      248                           .member _EOT_Delay,7200,8,8,1408,.fake6
      249                           .member _Retry_Time,8608,8,8,1408,.fake6
      250                           .member _Num_Retry,10016,8,8,1408,.fake6
      251                           .member _poll_time,11424,4,8,32
      252                           .member _timeout,11456,4,8,32
      253                           .eos
      254                           .sym    _PORTC,0,8,13,11488,.fake13
      255                           .stag   .fake14,672
      256                           .member _prev,0,20,8,32
      257                           .member _next,32,20,8,32
      258                           .member _rxvect,64,20,8,32
      259                           .member _txvect,96,20,8,32
      260                           .member _n,128,4,8,32
      261                           .member _slave,160,4,8,32
      262                           .member _func,192,4,8,32
      263                           .member _addr,224,4,8,32
      264                           .member _num,256,4,8,32
      265                           .member _v,288,54,8,320,,10
      266                           .member _flt_ptr,608,22,8,32
      267                           .member _int_ptr,640,20,8,32
      268                           .eos
      269                           .sym    _MPKT,0,8,13,672,.fake14
      270                           .file   "Y:\workspace_eea\V615\APP\SOURCE\INCLUDE\ADC.H"
TMS320C3x/4x COFF AssemblerVersion 5.12     Wed Feb 02 11:35:25 2022
Copyright (c) 1987-1999 Texas Instruments Incorporatedasm30.exe -@_C48.AAB 

Y:\workspace_eea\V615\APP\SOURCE\ASM\i2c.asm                         PAGE    6

      271                           .stag   .fake15,10176
      272                           .member _CURRENT,0,8,8,1408,.fake6
      273                           .member _CURRENT_PERCENT_OF_RANGE,1408,8,8,1408,.fake6
      274                           .member _LRV,2816,8,8,1408,.fake6
      275                           .member _URV,4224,8,8,1408,.fake6
      276                           .member _TRIM_MIN,5632,8,8,1408,.fake6
      277                           .member _TRIM_MAX,7040,8,8,1408,.fake6
      278                           .member _VALUE,8448,8,8,1408,.fake6
      279                           .member _TRIM_MIN_C,9856,6,8,32
      280                           .member _TRIM_MAX_C,9888,6,8,32
      281                           .member _v,9920,8,8,64,.fake8
      282                           .member _class,9984,8,8,64,.fake8
      283                           .member _unit,10048,8,8,64,.fake8
      284                           .member _present,10112,14,8,32
      285                           .member _val,10144,6,8,32
      286                           .eos
      287                           .sym    _LOOPDATA_I,0,8,13,10176,.fake15
      288                           .file   "Y:\workspace_eea\V615\APP\SOURCE\INCLUDE\DAC.H"
      289                           .stag   .fake16,13408
      290                           .member _CURRENT,0,8,8,1408,.fake6
      291                           .member _CURRENT_PERCENT_OF_RANGE,1408,8,8,1408,.fake6
      292                           .member _LRV,2816,8,8,1408,.fake6
      293                           .member _URV,4224,8,8,1408,.fake6
      294                           .member _TRIM_MIN,5632,8,8,1408,.fake6
      295                           .member _TRIM_MAX,7040,8,8,1408,.fake6
      296                           .member _TRIM_MIN_C,8448,6,8,32
      297                           .member _TRIM_MAX_C,8480,6,8,32
      298                           .member _ALARM_SELECT,8512,4,8,32
      299                           .member _MINSPAN,8544,6,8,32
      300                           .member _v,8576,8,8,64,.fake8
      301                           .member _class,8640,8,8,64,.fake8
      302                           .member _unit,8704,8,8,64,.fake8
      303                           .member _MANUAL,8768,4,8,32
      304                           .member _MANUAL_PERCENT,8800,6,8,32
      305                           .member _REVERSE,8832,4,8,32
      306                           .member _PID_input,8864,6,8,32
      307                           .member _PID_setpoint,8896,6,8,32
      308                           .member _P,8928,8,8,1408,.fake6
      309                           .member _I,10336,8,8,1408,.fake6
      310                           .member _D,11744,8,8,1408,.fake6
      311                           .member _pid_lastcycle,13152,4,8,32
      312                           .member _pid_output,13184,6,8,32
      313                           .member _pid_propband,13216,6,8,32
      314                           .member _pid_error,13248,6,8,32
      315                           .member _pid_bias,13280,6,8,32
      316                           .member _present,13312,14,8,32
      317                           .member _PID_fail,13344,14,8,32
      318                           .member _PID_enable_failsafe,13376,14,8,32
      319                           .eos
      320                           .sym    _LOOPDATA_O,0,8,13,13408,.fake16
      321                           .file   "Y:\workspace_eea\V615\APP\SOURCE\INCLUDE\EXECUTE.H"
      322                           .stag   .fake17,128
      323                           .member _prev,0,20,8,32
      324                           .member _next,32,20,8,32
TMS320C3x/4x COFF AssemblerVersion 5.12     Wed Feb 02 11:35:25 2022
Copyright (c) 1987-1999 Texas Instruments Incorporatedasm30.exe -@_C48.AAB 

Y:\workspace_eea\V615\APP\SOURCE\ASM\i2c.asm                         PAGE    7

      325                           .member _vect,64,20,8,32
      326                           .member _priority,96,4,8,32
      327                           .eos
      328                           .sym    _EPKT,0,8,13,128,.fake17
      329                           .file   "Y:\workspace_eea\V615\INCLUDE\FLASH.H"
      330                           .file   "Y:\workspace_eea\V615\APP\SOURCE\INCLUDE\LOG.H"
      331                           .stag   .fake18,384
      332                           .member _log_len,0,14,8,32
      333                           .member _log_n_sectors,32,14,8,32
      334                           .member _log_n_max_per_sector,64,14,8,32
      335                           .member _log_n,96,14,8,32
      336                           .member _log_current_sector,128,14,8,32
      337                           .member _log_absolute_index,160,14,8,32
      338                           .member _log_start,192,30,8,32
      339                           .member _log_sector_size,224,14,8,32
      340                           .member _log_record_size,256,14,8,32
      341                           .member _log_end,288,14,8,32
      342                           .member _LOG_ERASE,320,14,8,32
      343                           .member _erased_sector,352,14,8,32
      344                           .eos
      345                           .sym    _LOG,0,8,13,384,.fake18
      346                           .file   "Y:\workspace_eea\V615\APP\SOURCE\INCLUDE\DEMO.H"
      347                           .file   "Y:\workspace_eea\V615\APP\SOURCE\INCLUDE\SELFTEST.H"
      348                           .file   "Y:\workspace_eea\V615\APP\SOURCE\INCLUDE\MENU.H"
      349                           .stag   .fake19,16288
      350                           .member _INIT,0,14,8,32
      351                           .member _FRESH,32,14,8,32
      352                           .member _MENU,64,14,8,32
      353                           .member _SELECT,96,14,8,32
      354                           .member _VALUE,128,14,8,32
      355                           .member _ENTER,160,14,8,32
      356                           .member _DIR,192,4,8,32
      357                           .member _DIR_CHANGE,224,14,8,32
      358                           .member _M,256,14,8,32
      359                           .member _S,288,14,8,32
      360                           .member _V,320,14,8,32
      361                           .member _E,352,14,8,32
      362                           .member _CURSOR_ENABLED,384,14,8,32
      363                           .member _CURSOR_ROW,416,4,8,32
      364                           .member _CURSOR_COL,448,4,8,32
      365                           .member _CNT,480,14,8,32
      366                           .member _MENU_CNT,512,14,8,32
      367                           .member _SELECT_CNT,544,14,8,32
      368                           .member _VALUE_CNT,576,14,8,32
      369                           .member _k,608,14,8,32
      370                           .member _MODE_LOCKDOWN,640,14,8,32
      371                           .member _MODE_WPROT,672,14,8,32
      372                           .member _MODE_DEFINE,704,14,8,32
      373                           .member _MODE_USER,736,14,8,32
      374                           .member _MODE_TECH,768,14,8,32
      375                           .member _MODE_NORMAL,800,14,8,32
      376                           .member _menu_list_top,832,14,8,32
      377                           .member _menu_list_operations,864,14,8,32
      378                           .member _menu_list_configurations,896,14,8,32
TMS320C3x/4x COFF AssemblerVersion 5.12     Wed Feb 02 11:35:25 2022
Copyright (c) 1987-1999 Texas Instruments Incorporatedasm30.exe -@_C48.AAB 

Y:\workspace_eea\V615\APP\SOURCE\ASM\i2c.asm                         PAGE    8

      379                           .member _menu_list_security_info,928,14,8,32
      380                           .member _menu_list_measurements,960,14,8,32
      381                           .member _menu_list_changed,992,14,8,32
      382                           .member _PAGE,1024,14,8,32
      383                           .member _SUBPAGE,1056,14,8,32
      384                           .member _MENU_TRAP,1088,14,8,32
      385                           .member _DIP,1120,62,8,128,,4
      386                           .member _tmpf,1248,54,8,320,,10
      387                           .member _tmpi,1568,52,8,320,,10
      388                           .member _str,1888,242,8,12928,,4,101
      389                           .member _tmpv,14816,8,8,1408,.fake6
      390                           .member _ptmpv,16224,24,8,32,.fake6
      391                           .member _tbl,16256,20,8,32
      392                           .eos
      393                           .sym    _MENU_STRUCT,0,8,13,16288,.fake19
      394                           .file   "Y:\workspace_eea\V615\APP\SOURCE\INCLUDE\FLOAT1.H"
      395                           .file   "Y:\workspace_eea\V615\APP\SOURCE\INCLUDE\GLBLS.H"
      396                           .stag   .fake20,480
      397                           .member _i,0,4,8,32
      398                           .member _Watercut,32,6,8,32
      399                           .member _Temperature,64,6,8,32
      400                           .member _Salinity,96,6,8,32
      401                           .member _Frequency_Oil,128,6,8,32
      402                           .member _Frequency_Water,160,6,8,32
      403                           .member _RefPower_Oil,192,6,8,32
      404                           .member _RefPower_Water,224,6,8,32
      405                           .member _Dadj,256,6,8,32
      406                           .member _Time_HH,288,4,8,32
      407                           .member _Time_MM,320,4,8,32
      408                           .member _Time_MONTH,352,4,8,32
      409                           .member _Time_DAY,384,4,8,32
      410                           .member _Time_DAY_OF_WEEK,416,4,8,32
      411                           .member _Time_YEAR,448,4,8,32
      412                           .eos
      413                           .sym    _CAPDATA,0,8,13,480,.fake20
      414                           .stag   .fake21,640
      415                           .member _Watercut,0,54,8,64,,2
      416                           .member _Temperature,64,54,8,64,,2
      417                           .member _Salinity,128,54,8,64,,2
      418                           .member _Frequency_Oil,192,54,8,64,,2
      419                           .member _Frequency_Water,256,54,8,64,,2
      420                           .member _RefPower_Oil,320,54,8,64,,2
      421                           .member _RefPower_Water,384,54,8,64,,2
      422                           .member _Dadj,448,54,8,64,,2
      423                           .member _Time_MONTH_DAY_HH_MM,512,52,8,64,,2
      424                           .member _CLRSTAT_Time_YEAR,576,52,8,64,,2
      425                           .eos
      426                           .sym    _CAPRECORD,0,8,13,640,.fake21
      427                           .stag   .fake22,800
      428                           .member _Start_HH,0,4,8,32
      429                           .member _Start_MM,32,4,8,32
      430                           .member _Start_SS,64,4,8,32
      431                           .member _Start_MONTH,96,4,8,32
      432                           .member _Start_DAY,128,4,8,32
TMS320C3x/4x COFF AssemblerVersion 5.12     Wed Feb 02 11:35:25 2022
Copyright (c) 1987-1999 Texas Instruments Incorporatedasm30.exe -@_C48.AAB 

Y:\workspace_eea\V615\APP\SOURCE\ASM\i2c.asm                         PAGE    9

      433                           .member _Start_YEAR,160,4,8,32
      434                           .member _Stop_HH,192,4,8,32
      435                           .member _Stop_MM,224,4,8,32
      436                           .member _Stop_SS,256,4,8,32
      437                           .member _Stop_MONTH,288,4,8,32
      438                           .member _Stop_DAY,320,4,8,32
      439                           .member _Stop_YEAR,352,4,8,32
      440                           .member _stream,384,6,8,32
      441                           .member _elapsed_s,416,6,8,32
      442                           .member _duration,448,6,8,32
      443                           .member _purge,480,6,8,32
      444                           .member _gross_gas,512,6,8,32
      445                           .member _gross_oil,544,6,8,32
      446                           .member _gross_water,576,6,8,32
      447                           .member _gross_total,608,6,8,32
      448                           .member _gas24,640,6,8,32
      449                           .member _oil24,672,6,8,32
      450                           .member _water24,704,6,8,32
      451                           .member _total24,736,6,8,32
      452                           .member _watercut,768,6,8,32
      453                           .eos
      454                           .sym    _CCMRECORD,0,8,13,800,.fake22
      455                           .stag   .fake23,224
      456                           .member _SNUM,0,4,8,32
      457                           .member _ADDR,32,4,8,32
      458                           .member _BNUM,64,4,8,32
      459                           .member _REV,96,4,8,32
      460                           .member _MONTH,128,4,8,32
      461                           .member _DAY,160,4,8,32
      462                           .member _YEAR,192,4,8,32
      463                           .eos
      464                           .sym    _BOARD,0,8,13,224,.fake23
      465                           .etag   _Pulse_Input_Type,32
      466                           .member _PULSE_GAS_TEMP,1,4,16,32
      467                           .member _PULSE_SALINITY,2,4,16,32
      468                           .member _PULSE_STREAM_SELECT,3,4,16,32
      469                           .member _PULSE_USER_TEMP,4,4,16,32
      470                           .member _PULSE_FC_WC,5,4,16,32
      471                           .member _PULSE_FC_TEMP,6,4,16,32
      472                           .member _PULSE_FC_TOTAL_FLOW,7,4,16,32
      473                           .member _PULSE_FC_PRESSURE,8,4,16,32
      474                           .member _PULSE_FC_DENSITY,9,4,16,32
      475                           .member _PULSE_FC_SALINITY,10,4,16,32
      476                           .member _PULSE_FC_OIL_DENSITY,11,4,16,32
      477                           .member _PULSE_FC_OIL_DENSITY_ST,12,4,16,32
      478                           .member _PULSE_FC_WATER_DENSITY,13,4,16,32
      479                           .member _PULSE_FC_WATER_DENSITY_ST,14,4,16,32
      480                           .member _PULSE_NONE,15,4,16,32
      481                           .eos
      482                           .stag   .fake24,64
      483                           .member _freq,0,6,8,32
      484                           .member _counter,32,4,8,32
      485                           .eos
      486                           .sym    _Boxcar_Var,0,8,13,64,.fake24
TMS320C3x/4x COFF AssemblerVersion 5.12     Wed Feb 02 11:35:25 2022
Copyright (c) 1987-1999 Texas Instruments Incorporatedasm30.exe -@_C48.AAB 

Y:\workspace_eea\V615\APP\SOURCE\ASM\i2c.asm                         PAGE   10

      487                           .stag   .fake25,1088
      488                           .member _data,0,54,8,960,,30
      489                           .member _head,960,4,8,32
      490                           .member _tail,992,4,8,32
      491                           .member _length,1024,4,8,32
      492                           .member _average,1056,6,8,32
      493                           .eos
      494                           .sym    _bubble_struct,0,8,13,1088,.fake25
      495                           .stag   .fake26,3008
      496                           .member _data,0,54,8,2880,,90
      497                           .member _head,2880,4,8,32
      498                           .member _tail,2912,4,8,32
      499                           .member _length,2944,4,8,32
      500                           .member _average,2976,6,8,32
      501                           .eos
      502                           .sym    _pattern_struct,0,8,13,3008,.fake26
      503                           .stag   .fake27,320
      504                           .member _MODE,0,4,8,32
      505                           .member _STATUS_MASK,32,4,8,32
      506                           .member _v,64,8,8,64,.fake8
      507                           .member _setpoint,128,6,8,32
      508                           .member _ON,160,8,8,96,.fake7
      509                           .member _class,256,4,8,32
      510                           .member _unit,288,4,8,32
      511                           .eos
      512                           .sym    _RELAYDATA,0,8,13,320,.fake27
      513                           .stag   .fake28,12224
      514                           .member _diag,0,6,8,32
      515                           .member _mfr,32,6,8,32
      516                           .member _u_mfr,64,4,8,32
      517                           .member _density,96,6,8,32
      518                           .member _u_density,128,4,8,32
      519                           .member _density_PDI_corrected,160,6,8,32
      520                           .member _density_corrected,192,6,8,32
      521                           .member _u_density_corrected,224,4,8,32
      522                           .member _T,256,6,8,32
      523                           .member _u_T,288,4,8,32
      524                           .member _vfr,320,6,8,32
      525                           .member _u_vfr,352,4,8,32
      526                           .member _visc,384,6,8,32
      527                           .member _u_visc,416,4,8,32
      528                           .member _press,448,6,8,32
      529                           .member _mass_total,480,6,8,32
      530                           .member _u_m,512,4,8,32
      531                           .member _volume_total,544,6,8,32
      532                           .member _u_v,576,4,8,32
      533                           .member _u_P,608,4,8,32
      534                           .member _P,640,6,8,32
      535                           .member _mass_inv,672,6,8,32
      536                           .member _volume_inv,704,6,8,32
      537                           .member _raw_tube_freq,736,6,8,32
      538                           .member _left_pickup_value,768,6,8,32
      539                           .member _right_pickup_value,800,6,8,32
      540                           .member _drive_gain,832,6,8,32
TMS320C3x/4x COFF AssemblerVersion 5.12     Wed Feb 02 11:35:25 2022
Copyright (c) 1987-1999 Texas Instruments Incorporatedasm30.exe -@_C48.AAB 

Y:\workspace_eea\V615\APP\SOURCE\ASM\i2c.asm                         PAGE   11

      541                           .member _damp_flow_rate,864,8,8,1408,.fake6
      542                           .member _damp_density,2272,8,8,1408,.fake6
      543                           .member _mfr_cutoff,3680,8,8,1408,.fake6
      544                           .member _vfr_cutoff,5088,8,8,1408,.fake6
      545                           .member _mcf,6496,8,8,1408,.fake6
      546                           .member _address,7904,8,8,1408,.fake6
      547                           .member _mass_unit,9312,8,8,1408,.fake6
      548                           .member _density_cutoff,10720,8,8,1408,.fake6
      549                           .member _Z,12128,8,8,96,.fake7
      550                           .eos
      551                           .sym    _CORIOLIS,0,8,13,12224,.fake28
      552                           .stag   .fake29,288
      553                           .member _p_delta,0,6,8,32
      554                           .member _p_static,32,6,8,32
      555                           .member _T,64,6,8,32
      556                           .member _diag0,96,6,8,32
      557                           .member _diag1,128,6,8,32
      558                           .member _diag2,160,6,8,32
      559                           .member _u_DP,192,4,8,32
      560                           .member _u_SP,224,4,8,32
      561                           .member _u_PT,256,4,8,32
      562                           .eos
      563                           .sym    _PRESSURE,0,8,13,288,.fake29
      564                           .stag   .fake30,192
      565                           .member _T,0,6,8,32
      566                           .member _etc0,32,6,8,32
      567                           .member _etc1,64,6,8,32
      568                           .member _etc2,96,6,8,32
      569                           .member _etc3,128,6,8,32
      570                           .member _etc4,160,6,8,32
      571                           .eos
      572                           .sym    _TMPT,0,8,13,192,.fake30
      573                           .stag   .fake31,42752
      574                           .member _watercut,0,8,8,1408,.fake6
      575                           .member _T,1408,8,8,1408,.fake6
      576                           .member _pressure,2816,8,8,1408,.fake6
      577                           .member _density,4224,8,8,1408,.fake6
      578                           .member _density_PDI_corrected,5632,6,8,32
      579                           .member _density_adj,5664,6,8,32
      580                           .member _density_oilST,5696,8,8,1408,.fake6
      581                           .member _density_oil,7104,8,8,1408,.fake6
      582                           .member _density_waterST,8512,8,8,1408,.fake6
      583                           .member _density_water,9920,8,8,1408,.fake6
      584                           .member _salinity,11328,8,8,1408,.fake6
      585                           .member _API_TABLE,12736,4,8,32
      586                           .member _a,12768,6,8,32
      587                           .member _Meter_Factor,12800,8,8,1408,.fake6
      588                           .member _Shrinkage,14208,8,8,1408,.fake6
      589                           .member _VCFo,15616,6,8,32
      590                           .member _VCFw,15648,6,8,32
      591                           .member _net_watercut,15680,6,8,32
      592                           .member _net_watercut_mass,15712,6,8,32
      593                           .member _Dadj,15744,6,8,32
      594                           .member _NET_FLOW_OIL,15776,8,8,1408,.fake6
TMS320C3x/4x COFF AssemblerVersion 5.12     Wed Feb 02 11:35:25 2022
Copyright (c) 1987-1999 Texas Instruments Incorporatedasm30.exe -@_C48.AAB 

Y:\workspace_eea\V615\APP\SOURCE\ASM\i2c.asm                         PAGE   12

      595                           .member _NET_FLOW_WATER,17184,8,8,1408,.fake6
      596                           .member _NET_FLOW_TOTAL,18592,8,8,1408,.fake6
      597                           .member _NET_OIL,20000,8,8,1408,.fake6
      598                           .member _NET_WATER,21408,8,8,1408,.fake6
      599                           .member _NET_TOTAL,22816,8,8,1408,.fake6
      600                           .member _AVG_NET_TOTAL,24224,8,8,1408,.fake6
      601                           .member _GROSS_OIL,25632,8,8,1408,.fake6
      602                           .member _gross_oil_whole_part,27040,11,8,64
      603                           .member _gross_oil_fract_part,27104,11,8,64
      604                           .member _GROSS_WATER,27168,8,8,1408,.fake6
      605                           .member _gross_water_whole_part,28576,11,8,64
      606                           .member _gross_water_fract_part,28640,11,8,64
      607                           .member _GROSS_TOTAL,28704,8,8,1408,.fake6
      608                           .member _AVG_GROSS_TOTAL,30112,8,8,1408,.fake6
      609                           .member _FLOW_OIL,31520,8,8,1408,.fake6
      610                           .member _FLOW_WATER,32928,8,8,1408,.fake6
      611                           .member _FLOW_TOTAL,34336,8,8,1408,.fake6
      612                           .member _PULSES_PER_ACCUM_UNIT,35744,14,8,32
      613                           .member _PULSE_TOTAL,35776,8,8,1408,.fake6
      614                           .member _PULSE_FLOW,37184,8,8,1408,.fake6
      615                           .member _PULSE_FREQ,38592,8,8,1408,.fake6
      616                           .member _PULSE_COUNTER,40000,14,8,32
      617                           .member _PULSE,40032,4,8,32
      618                           .member _CNT,40064,4,8,32
      619                           .member _PULSE_DELTA,40096,4,8,32
      620                           .member _PULSE_FACTOR,40128,6,8,32
      621                           .member _PULSE_STAT,40160,4,8,32
      622                           .member _enable_NET,40192,14,8,32
      623                           .member _enable_GROSS,40224,14,8,32
      624                           .member _enable_FLOW,40256,14,8,32
      625                           .member _enable_DENSITY,40288,14,8,32
      626                           .member _enable_PULSE,40320,14,8,32
      627                           .member _flow_class,40352,8,8,64,.fake8
      628                           .member _flow_unit,40416,8,8,64,.fake8
      629                           .member _accum_unit,40480,8,8,64,.fake8
      630                           .member _Z,40544,8,8,96,.fake7
      631                           .member _use_totalizer,40640,8,8,96,.fake7
      632                           .member _pulse_v,40736,8,8,64,.fake8
      633                           .member _pulse_class,40800,8,8,64,.fake8
      634                           .member _pulse_unit,40864,8,8,64,.fake8
      635                           .member _pulse_VALUE,40928,8,8,1408,.fake6
      636                           .member _USE_PDI_TEMP,42336,14,8,32
      637                           .member _USE_PDI_SALINITY,42368,14,8,32
      638                           .member _CALC_WC_DENSITY,42400,14,8,32
      639                           .member _MAN_TEMP,42432,14,8,32
      640                           .member _MAN_SALINITY,42464,14,8,32
      641                           .member _MAN_WATERCUT,42496,14,8,32
      642                           .member _MAN_DENSITY,42528,14,8,32
      643                           .member _MAN_PRESSURE,42560,14,8,32
      644                           .member _MAN_FLOW,42592,14,8,32
      645                           .member _AUTHORIZATION_CODE1,42624,14,8,32
      646                           .member _AUTHORIZATION_CODE2,42656,14,8,32
      647                           .member _AUTHORIZATION_CODE3,42688,14,8,32
      648                           .member _AUTHORIZATION_CODE4,42720,14,8,32
TMS320C3x/4x COFF AssemblerVersion 5.12     Wed Feb 02 11:35:25 2022
Copyright (c) 1987-1999 Texas Instruments Incorporatedasm30.exe -@_C48.AAB 

Y:\workspace_eea\V615\APP\SOURCE\ASM\i2c.asm                         PAGE   13

      649                           .eos
      650                           .sym    _FLOW_COMP,0,8,13,42752,.fake31
      651                           .stag   .fake32,2176
      652                           .member _WATERCUT,0,6,8,32
      653                           .member _FLOW_RATE,32,6,8,32
      654                           .member _TEMPERATURE,64,6,8,32
      655                           .member _DENSITY,96,6,8,32
      656                           .member _VISCOSITY,128,6,8,32
      657                           .member _iWATERCUTz,160,4,8,32
      658                           .member _iWATERCUT,192,4,8,32
      659                           .member _iFLOW_RATE,224,4,8,32
      660                           .member _iTEMPERATURE,256,4,8,32
      661                           .member _iDENSITY,288,4,8,32
      662                           .member _iVISCOSITY,320,4,8,32
      663                           .member _maxWATERCUTz,352,6,8,32
      664                           .member _maxWATERCUT,384,6,8,32
      665                           .member _maxFLOW_RATE,416,6,8,32
      666                           .member _maxTEMPERATURE,448,6,8,32
      667                           .member _maxDENSITY,480,6,8,32
      668                           .member _maxVISCOSITY,512,6,8,32
      669                           .member _minWATERCUTz,544,6,8,32
      670                           .member _minWATERCUT,576,6,8,32
      671                           .member _minFLOW_RATE,608,6,8,32
      672                           .member _minTEMPERATURE,640,6,8,32
      673                           .member _minDENSITY,672,6,8,32
      674                           .member _minVISCOSITY,704,6,8,32
      675                           .member _ENABLED,736,14,8,32
      676                           .member _DESTINATION_ADDRESS,768,8,8,1408,.fake6
      677                           .eos
      678                           .sym    _ALYESKA_STRUCT,0,8,13,2176,.fake32
      679                           .stag   .fake33,2464
      680                           .member _ENABLED,0,8,8,96,.fake7
      681                           .member _flow_threshold,96,8,8,1408,.fake6
      682                           .member _S3,1504,6,8,32
      683                           .member _S2,1536,6,8,32
      684                           .member _S1,1568,6,8,32
      685                           .member _S0,1600,6,8,32
      686                           .member _Fmin,1632,6,8,32
      687                           .member _Dmin,1664,6,8,32
      688                           .member _Dmax,1696,6,8,32
      689                           .member _CHANGED,1728,14,8,32
      690                           .member _PURGING,1760,14,8,32
      691                           .member _TEST_IN_PROGRESS,1792,14,8,32
      692                           .member _SP3A,1824,6,8,32
      693                           .member _SP2A,1856,6,8,32
      694                           .member _SP1A,1888,6,8,32
      695                           .member _SP0A,1920,6,8,32
      696                           .member _SPLOA,1952,6,8,32
      697                           .member _SPHIA,1984,6,8,32
      698                           .member _SP3B,2016,6,8,32
      699                           .member _SP2B,2048,6,8,32
      700                           .member _SP1B,2080,6,8,32
      701                           .member _SP0B,2112,6,8,32
      702                           .member _SPLOB,2144,6,8,32
TMS320C3x/4x COFF AssemblerVersion 5.12     Wed Feb 02 11:35:25 2022
Copyright (c) 1987-1999 Texas Instruments Incorporatedasm30.exe -@_C48.AAB 

Y:\workspace_eea\V615\APP\SOURCE\ASM\i2c.asm                         PAGE   14

      703                           .member _SPHIB,2176,6,8,32
      704                           .member _FBHI3,2208,6,8,32
      705                           .member _FBHI2,2240,6,8,32
      706                           .member _FBHI1,2272,6,8,32
      707                           .member _FBHI0,2304,6,8,32
      708                           .member _FBLO3,2336,6,8,32
      709                           .member _FBLO2,2368,6,8,32
      710                           .member _FBLO1,2400,6,8,32
      711                           .member _FBLO0,2432,6,8,32
      712                           .eos
      713                           .sym    _HS_STRUCT,0,8,13,2464,.fake33
      714                           .file   "Y:\workspace_eea\V615\APP\SOURCE\INCLUDE\HART.H"
      715                           .file   "Y:\workspace_eea\V615\APP\SOURCE\INCLUDE\MODBUSRTU.H"
      716                           .file   "Y:\workspace_eea\V615\APP\SOURCE\INCLUDE\MISC.H"
      717                           .file   "Y:\workspace_eea\V615\APP\SOURCE\INCLUDE\API.H"
      718                           .file   "i2c.c"
      719 00000000                  .sect    "internal_RAM"
      720                   
      721                           .global _I2C_TX_BYTE
      722                           .sym    _I2C_TX_BYTE,_I2C_TX_BYTE,46,2,0
      723                           .func   37
      724                   ;******************************************************************************
      725                   ;* FUNCTION NAME: _I2C_TX_BYTE                                                *
      726                   ;*                                                                            *
      727                   ;*   Architecture       : TMS320C33                                           *
      728                   ;*   Calling Convention : TI Standard Register Parameters                     *
      729                   ;*   Function Uses Regs : r0,ar0,ar2,st                                       *
      730                   ;*   Regs Saved         :                                                     *
      731                   ;*   Stack Frame        : Full (w/ debug)                                     *
      732                   ;*   Total Frame Size   : 2 Call + 0 Parm + 4 Auto + 0 SOE = 6 words          *
      733                   ;******************************************************************************
      734 00000000          _I2C_TX_BYTE:
      735                   ;* ar2   assigned to _b
      736                           .sym    _b,10,12,17,32
      737                           .sym    _b,1,12,1,32
      738                           .sym    _i,2,4,1,32
      739                           .sym    _dat,3,12,1,32
      740                           .sym    _ack,4,14,1,32
      741                           .line   1
      742                   ;----------------------------------------------------------------------
      743                   ;  37 | BOOL I2C_TX_BYTE(unsigned char b)                                      
      744                   ;----------------------------------------------------------------------
      745 00000000 0f2b0000         push      fp
      746 00000001 500b0014         ldiu      sp,fp
      747 00000002 02740004         addi      4,sp
      748                           .line   2
      749                   ;----------------------------------------------------------------------
      750                   ;  39 | int i;                          /* bit counter          */             
      751                   ;  40 | unsigned char dat;      /* copy of b            */                     
      752                   ;  41 | BOOL ack;                       /* acknowledgement      */             
      753                   ;----------------------------------------------------------------------
      754 00000003 154a0301         sti       ar2,*+fp(1)           ; |38| 
      755                           .line   7
      756                   ;----------------------------------------------------------------------
TMS320C3x/4x COFF AssemblerVersion 5.12     Wed Feb 02 11:35:25 2022
Copyright (c) 1987-1999 Texas Instruments Incorporatedasm30.exe -@_C48.AAB 

Y:\workspace_eea\V615\APP\SOURCE\ASM\i2c.asm                         PAGE   15

      757                   ;  43 | dat = b;                                                               
      758                   ;----------------------------------------------------------------------
      759 00000004 5000000a         ldiu      ar2,r0
      760 00000005 15400303         sti       r0,*+fp(3)            ; |43| 
      761                           .line   9
      762                   ;----------------------------------------------------------------------
      763                   ;  45 | for (i=0;i<8;i++)                                                      
      764                   ;----------------------------------------------------------------------
      765 00000006 50600000         ldiu      0,r0                  ; |45| 
      766 00000007 15400302         sti       r0,*+fp(2)            ; |45| 
      767 00000008 04e00008         cmpi      8,r0                  ; |45| 
      768 00000009 6a0a0026         bge       L6                    ; |45| 
      769                   ;*      Branch Occurs to L6             ; |45| 
      770 0000000a          L2:        
      771                           .line   11
      772                   ;----------------------------------------------------------------------
      773                   ;  47 | if (dat&0x80)                                                          
      774                   ;----------------------------------------------------------------------
      775 0000000a 50600080         ldiu      128,r0                ; |47| 
      776 0000000b 1a400303         tstb      *+fp(3),r0            ; |47| 
      777 0000000c 6a050006         beq       L4                    ; |47| 
      778                   ;*      Branch Occurs to L4             ; |47| 
      779                           .line   13
      780                   ;----------------------------------------------------------------------
      781                   ;  49 | SDA_TX_HI;                                                             
      782                   ;  51 | else                                                                   
      783                   ;----------------------------------------------------------------------
      784 0000000d 08700000-        ldp       @CL1,DP
      785 0000000e 502801cc-        ldiu      @CL1,ar0              ; |49| 
      786 0000000f 50600001         ldiu      1,r0                  ; |49| 
      787 00000010 25a0c000         or3       r0,*ar0,r0            ; |49| 
      788 00000011 1540c000         sti       r0,*ar0               ; |49| 
      789 00000012 6a000005         bu        L5                    ; |36| 
      790                   ;*      Branch Occurs to L5             ; |36| 
      791 00000013          L4:        
      792                           .line   17
      793                   ;----------------------------------------------------------------------
      794                   ;  53 | SDA_TX_LO;                                                             
      795                   ;----------------------------------------------------------------------
      796 00000013 08700000-        ldp       @CL1,DP
      797 00000014 502801cc-        ldiu      @CL1,ar0              ; |53| 
      798 00000015 506000fe         ldiu      254,r0                ; |53| 
      799 00000016 21a0c000         and3      r0,*ar0,r0            ; |53| 
      800 00000017 1540c000         sti       r0,*ar0               ; |53| 
      801 00000018          L5:        
      802                           .line   20
      803                   ;----------------------------------------------------------------------
      804                   ;  56 | I2C_PULSE;                                                             
      805                   ;----------------------------------------------------------------------
      806 00000018 08700000-        ldp       @CL1,DP
      807 00000019 502801cc-        ldiu      @CL1,ar0              ; |56| 
      808 0000001a 50600004         ldiu      4,r0                  ; |56| 
      809 0000001b 25a0c000         or3       r0,*ar0,r0            ; |56| 
      810 0000001c 1540c000         sti       r0,*ar0               ; |56| 
TMS320C3x/4x COFF AssemblerVersion 5.12     Wed Feb 02 11:35:25 2022
Copyright (c) 1987-1999 Texas Instruments Incorporatedasm30.exe -@_C48.AAB 

Y:\workspace_eea\V615\APP\SOURCE\ASM\i2c.asm                         PAGE   16

      811 0000001d 0f290000                 PUSH    AR1                     
      812 0000001e 08690019                 LDI             25,AR1          
      813 0000001f 6e46ffff                 .word   6E46FFFFh       
      814 00000020 0e290000                 POP             AR1                     
      815 00000021 506000fb         ldiu      251,r0                ; |56| 
      816 00000022 21a0c000         and3      r0,*ar0,r0            ; |56| 
      817 00000023 1540c000         sti       r0,*ar0               ; |56| 
      818 00000024 0f290000                 PUSH    AR1                     
      819 00000025 08690019                 LDI             25,AR1          
      820 00000026 6e46ffff                 .word   6E46FFFFh       
      821 00000027 0e290000                 POP             AR1                     
      822                           .line   21
      823                   ;----------------------------------------------------------------------
      824                   ;  57 | dat = dat<<1;                                                          
      825                   ;----------------------------------------------------------------------
      826 00000028 50400303         ldiu      *+fp(3),r0            ; |57| 
      827 00000029 03e00001         ash       1,r0                  ; |57| 
      828 0000002a 15400303         sti       r0,*+fp(3)            ; |57| 
      829                           .line   9
      830 0000002b 50600001         ldiu      1,r0                  ; |45| 
      831 0000002c 02400302         addi      *+fp(2),r0            ; |45| 
      832 0000002d 15400302         sti       r0,*+fp(2)            ; |45| 
      833 0000002e 04e00008         cmpi      8,r0                  ; |45| 
      834 0000002f 6a07ffda         blt       L2                    ; |45| 
      835                   ;*      Branch Occurs to L2             ; |45| 
      836 00000030          L6:        
      837                           .line   24
      838                   ;----------------------------------------------------------------------
      839                   ;  60 | DISABLE_SDA_TX;                                                        
      840                   ;----------------------------------------------------------------------
      841 00000030 08700000-        ldp       @CL1,DP
      842 00000031 502801cc-        ldiu      @CL1,ar0              ; |60| 
      843 00000032 506000fd         ldiu      253,r0                ; |60| 
      844 00000033 21a0c000         and3      r0,*ar0,r0            ; |60| 
      845 00000034 1540c000         sti       r0,*ar0               ; |60| 
      846                           .line   25
      847                   ;----------------------------------------------------------------------
      848                   ;  61 | SDA_TX_HI;                                                             
      849                   ;----------------------------------------------------------------------
      850 00000035 50600001         ldiu      1,r0                  ; |61| 
      851 00000036 25a0c000         or3       r0,*ar0,r0            ; |61| 
      852 00000037 1540c000         sti       r0,*ar0               ; |61| 
      853                           .line   26
      854                   ;----------------------------------------------------------------------
      855                   ;  62 | I2C_WAITF;                                                             
      856                   ;----------------------------------------------------------------------
      857 00000038 0f290000                 PUSH    AR1                     
      858 00000039 08690019                 LDI             25,AR1          
      859 0000003a 6e46ffff                 .word   6E46FFFFh       
      860 0000003b 0e290000                 POP             AR1                     
      861                           .line   27
      862                   ;----------------------------------------------------------------------
      863                   ;  63 | SCL_HI;                                                                
      864                   ;----------------------------------------------------------------------
TMS320C3x/4x COFF AssemblerVersion 5.12     Wed Feb 02 11:35:25 2022
Copyright (c) 1987-1999 Texas Instruments Incorporatedasm30.exe -@_C48.AAB 

Y:\workspace_eea\V615\APP\SOURCE\ASM\i2c.asm                         PAGE   17

      865 0000003c 50600004         ldiu      4,r0                  ; |63| 
      866 0000003d 25a0c000         or3       r0,*ar0,r0            ; |63| 
      867 0000003e 1540c000         sti       r0,*ar0               ; |63| 
      868                           .line   28
      869                   ;----------------------------------------------------------------------
      870                   ;  64 | I2C_WAITF;                                                             
      871                   ;----------------------------------------------------------------------
      872 0000003f 0f290000                 PUSH    AR1                     
      873 00000040 08690019                 LDI             25,AR1          
      874 00000041 6e46ffff                 .word   6E46FFFFh       
      875 00000042 0e290000                 POP             AR1                     
      876                           .line   30
      877                   ;----------------------------------------------------------------------
      878                   ;  66 | if (SDA_RX)                                                            
      879                   ;----------------------------------------------------------------------
      880 00000043 50600010         ldiu      16,r0                 ; |66| 
      881 00000044 27c000c0         tstb3     *ar0,r0               ; |66| 
      882 00000045 6a050003         beq       L8                    ; |66| 
      883                   ;*      Branch Occurs to L8             ; |66| 
      884                           .line   31
      885                   ;----------------------------------------------------------------------
      886                   ;  67 | ack = FALSE;                                                           
      887                   ;  68 | else                                                                   
      888                   ;----------------------------------------------------------------------
      889 00000046 50600000         ldiu      0,r0                  ; |67| 
      890 00000047 15400304         sti       r0,*+fp(4)            ; |67| 
      891 00000048 6a000002         bu        L9                    ; |36| 
      892                   ;*      Branch Occurs to L9             ; |36| 
      893 00000049          L8:        
      894                           .line   33
      895                   ;----------------------------------------------------------------------
      896                   ;  69 | ack     = TRUE;                                                        
      897                   ;----------------------------------------------------------------------
      898 00000049 50600001         ldiu      1,r0                  ; |69| 
      899 0000004a 15400304         sti       r0,*+fp(4)            ; |69| 
      900 0000004b          L9:        
      901                           .line   35
      902                   ;----------------------------------------------------------------------
      903                   ;  71 | SCL_LO;                                                                
      904                   ;----------------------------------------------------------------------
      905 0000004b 08700000-        ldp       @CL1,DP
      906 0000004c 502801cc-        ldiu      @CL1,ar0              ; |71| 
      907 0000004d 506000fb         ldiu      251,r0                ; |71| 
      908 0000004e 21a0c000         and3      r0,*ar0,r0            ; |71| 
      909 0000004f 1540c000         sti       r0,*ar0               ; |71| 
      910                           .line   36
      911                   ;----------------------------------------------------------------------
      912                   ;  72 | I2C_WAITF;                                                             
      913                   ;----------------------------------------------------------------------
      914 00000050 0f290000                 PUSH    AR1                     
      915 00000051 08690019                 LDI             25,AR1          
      916 00000052 6e46ffff                 .word   6E46FFFFh       
      917 00000053 0e290000                 POP             AR1                     
      918                           .line   37
TMS320C3x/4x COFF AssemblerVersion 5.12     Wed Feb 02 11:35:25 2022
Copyright (c) 1987-1999 Texas Instruments Incorporatedasm30.exe -@_C48.AAB 

Y:\workspace_eea\V615\APP\SOURCE\ASM\i2c.asm                         PAGE   18

      919                   ;----------------------------------------------------------------------
      920                   ;  73 | ENABLE_SDA_TX;                                                         
      921                   ;----------------------------------------------------------------------
      922 00000054 50600002         ldiu      2,r0                  ; |73| 
      923 00000055 25a0c000         or3       r0,*ar0,r0            ; |73| 
      924 00000056 1540c000         sti       r0,*ar0               ; |73| 
      925                           .line   39
      926                   ;----------------------------------------------------------------------
      927                   ;  75 | return ack;                                                            
      928                   ;----------------------------------------------------------------------
      929 00000057 50400304         ldiu      *+fp(4),r0            ; |75| 
      930                           .line   40
      931                                                           ; Begin Epilog Code
      932 00000058 50410b01         ldiu      *-fp(1),r1            ; |76| 
      933 00000059 504bc300         ldiu      *fp,fp                ; |76| 
      934                                                           ; Unallocate the Frame
      935 0000005a 18740006         subi      6,sp                  ; |76| 
      936 0000005b 68000001         bu        r1
      937                   ;*      Branch Occurs to r1 
      938                           .endfunc        76,000000000h,4
      939                   
      940                   
      941 0000005c                  .sect    "internal_RAM"
      942                   
      943                           .global _I2C_RX_BYTE
      944                           .sym    _I2C_RX_BYTE,_I2C_RX_BYTE,32,2,0
      945                           .func   91
      946                   ;******************************************************************************
      947                   ;* FUNCTION NAME: _I2C_RX_BYTE                                                *
      948                   ;*                                                                            *
      949                   ;*   Architecture       : TMS320C33                                           *
      950                   ;*   Calling Convention : TI Standard Register Parameters                     *
      951                   ;*   Function Uses Regs : r0,r2,ar0,ar2,st                                    *
      952                   ;*   Regs Saved         :                                                     *
      953                   ;*   Stack Frame        : Full (w/ debug)                                     *
      954                   ;*   Total Frame Size   : 2 Call + 0 Parm + 4 Auto + 0 SOE = 6 words          *
      955                   ;******************************************************************************
      956 0000005c          _I2C_RX_BYTE:
      957                   ;* ar2   assigned to _b
      958                           .sym    _b,10,28,17,32
      959                   ;* r2    assigned to _ack
      960                           .sym    _ack,2,14,17,32
      961                           .sym    _b,1,28,1,32
      962                           .sym    _ack,2,14,1,32
      963                           .sym    _i,3,4,1,32
      964                           .sym    _dat,4,12,1,32
      965                           .line   1
      966                   ;----------------------------------------------------------------------
      967                   ;  91 | void I2C_RX_BYTE(unsigned char* b, BOOL ack)                           
      968                   ;----------------------------------------------------------------------
      969 0000005c 0f2b0000         push      fp
      970 0000005d 500b0014         ldiu      sp,fp
      971 0000005e 02740004         addi      4,sp
      972                           .line   2
TMS320C3x/4x COFF AssemblerVersion 5.12     Wed Feb 02 11:35:25 2022
Copyright (c) 1987-1999 Texas Instruments Incorporatedasm30.exe -@_C48.AAB 

Y:\workspace_eea\V615\APP\SOURCE\ASM\i2c.asm                         PAGE   19

      973                   ;----------------------------------------------------------------------
      974                   ;  93 | int i;                          /* bit counter   */                    
      975                   ;  94 | unsigned char dat;      /* recieved data */                            
      976                   ;----------------------------------------------------------------------
      977 0000005f 15420302         sti       r2,*+fp(2)            ; |92| 
      978 00000060 154a0301         sti       ar2,*+fp(1)           ; |92| 
      979                           .line   6
      980                   ;----------------------------------------------------------------------
      981                   ;  96 | dat = 0;                                                               
      982                   ;----------------------------------------------------------------------
      983 00000061 50600000         ldiu      0,r0                  ; |96| 
      984 00000062 15400304         sti       r0,*+fp(4)            ; |96| 
      985                           .line   7
      986                   ;----------------------------------------------------------------------
      987                   ;  97 | DISABLE_SDA_TX;                                                        
      988                   ;----------------------------------------------------------------------
      989 00000063 08700000-        ldp       @CL1,DP
      990 00000064 502801cc-        ldiu      @CL1,ar0              ; |97| 
      991 00000065 506000fd         ldiu      253,r0                ; |97| 
      992 00000066 21a0c000         and3      r0,*ar0,r0            ; |97| 
      993 00000067 1540c000         sti       r0,*ar0               ; |97| 
      994                           .line   9
      995                   ;----------------------------------------------------------------------
      996                   ;  99 | for (i=0;i<8;i++)                                                      
      997                   ;----------------------------------------------------------------------
      998 00000068 50600000         ldiu      0,r0                  ; |99| 
      999 00000069 15400303         sti       r0,*+fp(3)            ; |99| 
     1000 0000006a 04e00008         cmpi      8,r0                  ; |99| 
     1001 0000006b 6a0a0020         bge       L16                   ; |99| 
     1002                   ;*      Branch Occurs to L16            ; |99| 
     1003 0000006c          L13:        
     1004                           .line   11
     1005                   ;----------------------------------------------------------------------
     1006                   ; 101 | SCL_HI;                                                                
     1007                   ;----------------------------------------------------------------------
     1008 0000006c 08700000-        ldp       @CL1,DP
     1009 0000006d 502801cc-        ldiu      @CL1,ar0              ; |101| 
     1010 0000006e 50600004         ldiu      4,r0                  ; |101| 
     1011 0000006f 25a0c000         or3       r0,*ar0,r0            ; |101| 
     1012 00000070 1540c000         sti       r0,*ar0               ; |101| 
     1013                           .line   12
     1014                   ;----------------------------------------------------------------------
     1015                   ; 102 | I2C_WAITF;                                                             
     1016                   ;----------------------------------------------------------------------
     1017 00000071 0f290000                 PUSH    AR1                     
     1018 00000072 08690019                 LDI             25,AR1          
     1019 00000073 6e46ffff                 .word   6E46FFFFh       
     1020 00000074 0e290000                 POP             AR1                     
     1021                           .line   14
     1022                   ;----------------------------------------------------------------------
     1023                   ; 104 | if (SDA_RX)                                                            
     1024                   ;----------------------------------------------------------------------
     1025 00000075 50600010         ldiu      16,r0                 ; |104| 
     1026 00000076 27c000c0         tstb3     *ar0,r0               ; |104| 
TMS320C3x/4x COFF AssemblerVersion 5.12     Wed Feb 02 11:35:25 2022
Copyright (c) 1987-1999 Texas Instruments Incorporatedasm30.exe -@_C48.AAB 

Y:\workspace_eea\V615\APP\SOURCE\ASM\i2c.asm                         PAGE   20

     1027 00000077 6a050003         beq       L15                   ; |104| 
     1028                   ;*      Branch Occurs to L15            ; |104| 
     1029                           .line   15
     1030                   ;----------------------------------------------------------------------
     1031                   ; 105 | dat |= 0x01;                                                           
     1032                   ;----------------------------------------------------------------------
     1033 00000078 50600001         ldiu      1,r0                  ; |105| 
     1034 00000079 10400304         or        *+fp(4),r0            ; |105| 
     1035 0000007a 15400304         sti       r0,*+fp(4)            ; |105| 
     1036 0000007b          L15:        
     1037                           .line   17
     1038                   ;----------------------------------------------------------------------
     1039                   ; 107 | SCL_LO;                                                                
     1040                   ;----------------------------------------------------------------------
     1041 0000007b 08700000-        ldp       @CL1,DP
     1042 0000007c 502801cc-        ldiu      @CL1,ar0              ; |107| 
     1043 0000007d 506000fb         ldiu      251,r0                ; |107| 
     1044 0000007e 21a0c000         and3      r0,*ar0,r0            ; |107| 
     1045 0000007f 1540c000         sti       r0,*ar0               ; |107| 
     1046                           .line   18
     1047                   ;----------------------------------------------------------------------
     1048                   ; 108 | I2C_WAITF;                                                             
     1049                   ;----------------------------------------------------------------------
     1050 00000080 0f290000                 PUSH    AR1                     
     1051 00000081 08690019                 LDI             25,AR1          
     1052 00000082 6e46ffff                 .word   6E46FFFFh       
     1053 00000083 0e290000                 POP             AR1                     
     1054                           .line   19
     1055                   ;----------------------------------------------------------------------
     1056                   ; 109 | dat = dat<<1;                                                          
     1057                   ;----------------------------------------------------------------------
     1058 00000084 50400304         ldiu      *+fp(4),r0            ; |109| 
     1059 00000085 03e00001         ash       1,r0                  ; |109| 
     1060 00000086 15400304         sti       r0,*+fp(4)            ; |109| 
     1061                           .line   9
     1062 00000087 50600001         ldiu      1,r0                  ; |99| 
     1063 00000088 02400303         addi      *+fp(3),r0            ; |99| 
     1064 00000089 15400303         sti       r0,*+fp(3)            ; |99| 
     1065 0000008a 04e00008         cmpi      8,r0                  ; |99| 
     1066 0000008b 6a07ffe0         blt       L13                   ; |99| 
     1067                   ;*      Branch Occurs to L13            ; |99| 
     1068 0000008c          L16:        
     1069                           .line   22
     1070                   ;----------------------------------------------------------------------
     1071                   ; 112 | dat = dat>>1;                                                          
     1072                   ;----------------------------------------------------------------------
     1073 0000008c 50400304         ldiu      *+fp(4),r0            ; |112| 
     1074 0000008d 09e0ffff         lsh       -1,r0                 ; |112| 
     1075 0000008e 15400304         sti       r0,*+fp(4)            ; |112| 
     1076                           .line   23
     1077                   ;----------------------------------------------------------------------
     1078                   ; 113 | ENABLE_SDA_TX;                                                         
     1079                   ;----------------------------------------------------------------------
     1080 0000008f 08700000-        ldp       @CL1,DP
TMS320C3x/4x COFF AssemblerVersion 5.12     Wed Feb 02 11:35:25 2022
Copyright (c) 1987-1999 Texas Instruments Incorporatedasm30.exe -@_C48.AAB 

Y:\workspace_eea\V615\APP\SOURCE\ASM\i2c.asm                         PAGE   21

     1081 00000090 502801cc-        ldiu      @CL1,ar0              ; |113| 
     1082 00000091 50600002         ldiu      2,r0                  ; |113| 
     1083 00000092 25a0c000         or3       r0,*ar0,r0            ; |113| 
     1084 00000093 1540c000         sti       r0,*ar0               ; |113| 
     1085                           .line   25
     1086                   ;----------------------------------------------------------------------
     1087                   ; 115 | if (ack)                                                               
     1088                   ;----------------------------------------------------------------------
     1089 00000094 50400302         ldiu      *+fp(2),r0            ; |115| 
     1090 00000095 04e00000         cmpi      0,r0                  ; |115| 
     1091 00000096 6a050006         beq       L18                   ; |115| 
     1092                   ;*      Branch Occurs to L18            ; |115| 
     1093                           .line   27
     1094                   ;----------------------------------------------------------------------
     1095                   ; 117 | SDA_TX_LO;                                                             
     1096                   ; 119 | else                                                                   
     1097                   ;----------------------------------------------------------------------
     1098 00000097 08700000-        ldp       @CL1,DP
     1099 00000098 502801cc-        ldiu      @CL1,ar0              ; |117| 
     1100 00000099 506000fe         ldiu      254,r0                ; |117| 
     1101 0000009a 21a0c000         and3      r0,*ar0,r0            ; |117| 
     1102 0000009b 1540c000         sti       r0,*ar0               ; |117| 
     1103 0000009c 6a000005         bu        L19                   ; |90| 
     1104                   ;*      Branch Occurs to L19            ; |90| 
     1105 0000009d          L18:        
     1106                           .line   31
     1107                   ;----------------------------------------------------------------------
     1108                   ; 121 | SDA_TX_HI;                                                             
     1109                   ;----------------------------------------------------------------------
     1110 0000009d 08700000-        ldp       @CL1,DP
     1111 0000009e 502801cc-        ldiu      @CL1,ar0              ; |121| 
     1112 0000009f 50600001         ldiu      1,r0                  ; |121| 
     1113 000000a0 25a0c000         or3       r0,*ar0,r0            ; |121| 
     1114 000000a1 1540c000         sti       r0,*ar0               ; |121| 
     1115 000000a2          L19:        
     1116                           .line   34
     1117                   ;----------------------------------------------------------------------
     1118                   ; 124 | I2C_PULSE;                                                             
     1119                   ;----------------------------------------------------------------------
     1120 000000a2 08700000-        ldp       @CL1,DP
     1121 000000a3 502801cc-        ldiu      @CL1,ar0              ; |124| 
     1122 000000a4 50600004         ldiu      4,r0                  ; |124| 
     1123 000000a5 25a0c000         or3       r0,*ar0,r0            ; |124| 
     1124 000000a6 1540c000         sti       r0,*ar0               ; |124| 
     1125 000000a7 0f290000                 PUSH    AR1                     
     1126 000000a8 08690019                 LDI             25,AR1          
     1127 000000a9 6e46ffff                 .word   6E46FFFFh       
     1128 000000aa 0e290000                 POP             AR1                     
     1129 000000ab 506000fb         ldiu      251,r0                ; |124| 
     1130 000000ac 21a0c000         and3      r0,*ar0,r0            ; |124| 
     1131 000000ad 1540c000         sti       r0,*ar0               ; |124| 
     1132 000000ae 0f290000                 PUSH    AR1                     
     1133 000000af 08690019                 LDI             25,AR1          
     1134 000000b0 6e46ffff                 .word   6E46FFFFh       
TMS320C3x/4x COFF AssemblerVersion 5.12     Wed Feb 02 11:35:25 2022
Copyright (c) 1987-1999 Texas Instruments Incorporatedasm30.exe -@_C48.AAB 

Y:\workspace_eea\V615\APP\SOURCE\ASM\i2c.asm                         PAGE   22

     1135 000000b1 0e290000                 POP             AR1                     
     1136                           .line   35
     1137                   ;----------------------------------------------------------------------
     1138                   ; 125 | b[0] = dat;                                                            
     1139                   ;----------------------------------------------------------------------
     1140 000000b2 50480301         ldiu      *+fp(1),ar0           ; |125| 
     1141 000000b3 50400304         ldiu      *+fp(4),r0            ; |125| 
     1142 000000b4 1540c000         sti       r0,*ar0               ; |125| 
     1143                           .line   36
     1144                                                           ; Begin Epilog Code
     1145 000000b5 50410b01         ldiu      *-fp(1),r1
     1146 000000b6 504bc300         ldiu      *fp,fp
     1147                                                           ; Unallocate the Frame
     1148 000000b7 18740006         subi      6,sp
     1149 000000b8 68000001         bu        r1
     1150                   ;*      Branch Occurs to r1 
     1151                           .endfunc        126,000000000h,4
     1152                   
     1153                   
     1154 000000b9                  .sect    "internal_RAM"
     1155                   
     1156                           .global _Write_I2C
     1157                           .sym    _Write_I2C,_Write_I2C,46,2,0
     1158                           .func   142
     1159                   ;******************************************************************************
     1160                   ;* FUNCTION NAME: _Write_I2C                                                  *
     1161                   ;*                                                                            *
     1162                   ;*   Architecture       : TMS320C33                                           *
     1163                   ;*   Calling Convention : TI Standard Register Parameters                     *
     1164                   ;*   Function Uses Regs : r0,r2,r3,ar0,ar2,ir0,st                             *
     1165                   ;*   Regs Saved         :                                                     *
     1166                   ;*   Stack Frame        : Full (w/ debug)                                     *
     1167                   ;*   Total Frame Size   : 2 Call + 0 Parm + 7 Auto + 0 SOE = 9 words          *
     1168                   ;******************************************************************************
     1169 000000b9          _Write_I2C:
     1170                   ;* ar2   assigned to _addr
     1171                           .sym    _addr,10,4,17,32
     1172                   ;* r2    assigned to _n
     1173                           .sym    _n,2,4,17,32
     1174                   ;* r3    assigned to _p
     1175                           .sym    _p,3,28,17,32
     1176                           .sym    _addr,1,4,1,32
     1177                           .sym    _n,2,4,1,32
     1178                           .sym    _p,3,28,1,32
     1179                           .sym    _i,4,4,1,32
     1180                           .sym    _dat,5,12,1,32
     1181                           .sym    _ack,6,14,1,32
     1182                           .sym    _r,7,14,1,32
     1183                           .line   1
     1184                   ;----------------------------------------------------------------------
     1185                   ; 142 | BOOL Write_I2C(int addr, int n, unsigned char* p)                      
     1186                   ;----------------------------------------------------------------------
     1187 000000b9 0f2b0000         push      fp
     1188 000000ba 500b0014         ldiu      sp,fp
TMS320C3x/4x COFF AssemblerVersion 5.12     Wed Feb 02 11:35:25 2022
Copyright (c) 1987-1999 Texas Instruments Incorporatedasm30.exe -@_C48.AAB 

Y:\workspace_eea\V615\APP\SOURCE\ASM\i2c.asm                         PAGE   23

     1189 000000bb 02740007         addi      7,sp
     1190                           .line   2
     1191                   ;----------------------------------------------------------------------
     1192                   ; 144 | int i;                          /* byte counter          */            
     1193                   ; 145 | unsigned char dat;      /* write address         */                    
     1194                   ; 146 | BOOL ack;                       /* successful write? */                
     1195                   ; 147 | BOOL r;                         /* successful return?*/                
     1196                   ;----------------------------------------------------------------------
     1197 000000bc 15430303         sti       r3,*+fp(3)            ; |143| 
     1198 000000bd 15420302         sti       r2,*+fp(2)            ; |143| 
     1199 000000be 154a0301         sti       ar2,*+fp(1)           ; |143| 
     1200                           .line   8
     1201                   ;----------------------------------------------------------------------
     1202                   ; 149 | r = TRUE;                                                              
     1203                   ;----------------------------------------------------------------------
     1204 000000bf 50600001         ldiu      1,r0                  ; |149| 
     1205 000000c0 15400307         sti       r0,*+fp(7)            ; |149| 
     1206                           .line   9
     1207                   ;----------------------------------------------------------------------
     1208                   ; 150 | I2C_START;                                                             
     1209                   ; 152 | while(TRUE)                                                            
     1210                   ;----------------------------------------------------------------------
     1211 000000c1 08700000-        ldp       @CL1,DP
     1212 000000c2 502801cc-        ldiu      @CL1,ar0              ; |150| 
     1213 000000c3 50600004         ldiu      4,r0                  ; |150| 
     1214 000000c4 25a0c000         or3       r0,*ar0,r0            ; |150| 
     1215 000000c5 1540c000         sti       r0,*ar0               ; |150| 
     1216 000000c6 50600001         ldiu      1,r0                  ; |150| 
     1217 000000c7 25a0c000         or3       r0,*ar0,r0            ; |150| 
     1218 000000c8 1540c000         sti       r0,*ar0               ; |150| 
     1219 000000c9 50600008         ldiu      8,r0                  ; |150| 
     1220 000000ca 25a0c000         or3       r0,*ar0,r0            ; |150| 
     1221 000000cb 1540c000         sti       r0,*ar0               ; |150| 
     1222 000000cc 50600002         ldiu      2,r0                  ; |150| 
     1223 000000cd 25a0c000         or3       r0,*ar0,r0            ; |150| 
     1224 000000ce 1540c000         sti       r0,*ar0               ; |150| 
     1225 000000cf 0f290000                 PUSH    AR1                     
     1226 000000d0 08690032                 LDI             50,AR1          
     1227 000000d1 6e46ffff                 .word   6E46FFFFh       
     1228 000000d2 0e290000                 POP             AR1                     
     1229 000000d3 506000fe         ldiu      254,r0                ; |150| 
     1230 000000d4 21a0c000         and3      r0,*ar0,r0            ; |150| 
     1231 000000d5 1540c000         sti       r0,*ar0               ; |150| 
     1232 000000d6 0f290000                 PUSH    AR1                     
     1233 000000d7 08690032                 LDI             50,AR1          
     1234 000000d8 6e46ffff                 .word   6E46FFFFh       
     1235 000000d9 0e290000                 POP             AR1                     
     1236 000000da 506000fb         ldiu      251,r0                ; |150| 
     1237 000000db 21a0c000         and3      r0,*ar0,r0            ; |150| 
     1238 000000dc 1540c000         sti       r0,*ar0               ; |150| 
     1239 000000dd 0f290000                 PUSH    AR1                     
     1240 000000de 08690032                 LDI             50,AR1          
     1241 000000df 6e46ffff                 .word   6E46FFFFh       
     1242 000000e0 0e290000                 POP             AR1                     
TMS320C3x/4x COFF AssemblerVersion 5.12     Wed Feb 02 11:35:25 2022
Copyright (c) 1987-1999 Texas Instruments Incorporatedasm30.exe -@_C48.AAB 

Y:\workspace_eea\V615\APP\SOURCE\ASM\i2c.asm                         PAGE   24

     1243                           .line   13
     1244                   ;----------------------------------------------------------------------
     1245                   ; 154 | dat = addr;                                             /* address with
     1246                   ;     | out read bit set */                                                    
     1247                   ;----------------------------------------------------------------------
     1248 000000e1 50400301         ldiu      *+fp(1),r0            ; |154| 
     1249 000000e2 15400305         sti       r0,*+fp(5)            ; |154| 
     1250                           .line   14
     1251                   ;----------------------------------------------------------------------
     1252                   ; 155 | ack = I2C_TX_BYTE(dat);                                                
     1253                   ;----------------------------------------------------------------------
     1254 000000e3 08700000-        ldp       @CL2,DP
     1255 000000e4 500a0000         ldiu      r0,ar2
     1256 000000e5 502001cd-        ldiu      @CL2,r0               ; |155| 
     1257 000000e6 70000000         callu     r0                    ; far call to _I2C_TX_BYTE      ; |155| 
     1258                                                           ; |155| Far Call Occurs
     1259 000000e7 15400306         sti       r0,*+fp(6)            ; |155| 
     1260                           .line   16
     1261                   ;----------------------------------------------------------------------
     1262                   ; 157 | if (!ack)                                                              
     1263                   ;----------------------------------------------------------------------
     1264 000000e8 04e00000         cmpi      0,r0                  ; |157| 
     1265 000000e9 6a060003         bne       L24                   ; |157| 
     1266                   ;*      Branch Occurs to L24            ; |157| 
     1267                           .line   18
     1268                   ;----------------------------------------------------------------------
     1269                   ; 159 | r = FALSE;                                                             
     1270                   ;----------------------------------------------------------------------
     1271 000000ea 50600000         ldiu      0,r0                  ; |159| 
     1272 000000eb 15400307         sti       r0,*+fp(7)            ; |159| 
     1273                           .line   19
     1274                   ;----------------------------------------------------------------------
     1275                   ; 160 | break;                                                                 
     1276                   ;----------------------------------------------------------------------
     1277 000000ec 6a000020         bu        L32                   ; |160| 
     1278                   ;*      Branch Occurs to L32            ; |160| 
     1279 000000ed          L24:        
     1280                           .line   22
     1281                   ;----------------------------------------------------------------------
     1282                   ; 163 | ack = I2C_TX_BYTE(n);                   /* the number of bytes to write
     1283                   ;     |  */                                                                    
     1284                   ;----------------------------------------------------------------------
     1285 000000ed 08700000-        ldp       @CL2,DP
     1286 000000ee 504a0302         ldiu      *+fp(2),ar2           ; |163| 
     1287 000000ef 502001cd-        ldiu      @CL2,r0               ; |163| 
     1288 000000f0 70000000         callu     r0                    ; far call to _I2C_TX_BYTE      ; |163| 
     1289                                                           ; |163| Far Call Occurs
     1290 000000f1 15400306         sti       r0,*+fp(6)            ; |163| 
     1291                           .line   24
     1292                   ;----------------------------------------------------------------------
     1293                   ; 165 | if (!ack)                                                              
     1294                   ;----------------------------------------------------------------------
     1295 000000f2 04e00000         cmpi      0,r0                  ; |165| 
     1296 000000f3 6a060003         bne       L26                   ; |165| 
TMS320C3x/4x COFF AssemblerVersion 5.12     Wed Feb 02 11:35:25 2022
Copyright (c) 1987-1999 Texas Instruments Incorporatedasm30.exe -@_C48.AAB 

Y:\workspace_eea\V615\APP\SOURCE\ASM\i2c.asm                         PAGE   25

     1297                   ;*      Branch Occurs to L26            ; |165| 
     1298                           .line   26
     1299                   ;----------------------------------------------------------------------
     1300                   ; 167 | r = FALSE;                                                             
     1301                   ;----------------------------------------------------------------------
     1302 000000f4 50600000         ldiu      0,r0                  ; |167| 
     1303 000000f5 15400307         sti       r0,*+fp(7)            ; |167| 
     1304                           .line   27
     1305                   ;----------------------------------------------------------------------
     1306                   ; 168 | break;                                                                 
     1307                   ;----------------------------------------------------------------------
     1308 000000f6 6a000016         bu        L32                   ; |168| 
     1309                   ;*      Branch Occurs to L32            ; |168| 
     1310 000000f7          L26:        
     1311                           .line   30
     1312                   ;----------------------------------------------------------------------
     1313                   ; 171 | for (i=0;i<n;i++)                                                      
     1314                   ;----------------------------------------------------------------------
     1315 000000f7 50600000         ldiu      0,r0                  ; |171| 
     1316 000000f8 15400304         sti       r0,*+fp(4)            ; |171| 
     1317 000000f9 04c00302         cmpi      *+fp(2),r0            ; |171| 
     1318 000000fa 6a0a0012         bge       L32                   ; |171| 
     1319                   ;*      Branch Occurs to L32            ; |171| 
     1320 000000fb          L27:        
     1321                           .line   32
     1322                   ;----------------------------------------------------------------------
     1323                   ; 173 | ack = I2C_TX_BYTE(p[i]);        /* write the bytes */                  
     1324                   ;----------------------------------------------------------------------
     1325 000000fb 08700000-        ldp       @CL2,DP
     1326 000000fc 50510303         ldiu      *+fp(3),ir0           ; |173| 
     1327 000000fd 50480304         ldiu      *+fp(4),ar0           ; |173| 
     1328 000000fe 502001cd-        ldiu      @CL2,r0               ; |173| 
     1329 000000ff 504a4000         ldiu      *+ar0(ir0),ar2        ; |173| 
     1330 00000100 70000000         callu     r0                    ; far call to _I2C_TX_BYTE      ; |173| 
     1331                                                           ; |173| Far Call Occurs
     1332 00000101 15400306         sti       r0,*+fp(6)            ; |173| 
     1333                           .line   34
     1334                   ;----------------------------------------------------------------------
     1335                   ; 175 | if (!ack)                                                              
     1336                   ;----------------------------------------------------------------------
     1337 00000102 04e00000         cmpi      0,r0                  ; |175| 
     1338 00000103 6a060003         bne       L29                   ; |175| 
     1339                   ;*      Branch Occurs to L29            ; |175| 
     1340                           .line   36
     1341                   ;----------------------------------------------------------------------
     1342                   ; 177 | r = FALSE;                                                             
     1343                   ;----------------------------------------------------------------------
     1344 00000104 50600000         ldiu      0,r0                  ; |177| 
     1345 00000105 15400307         sti       r0,*+fp(7)            ; |177| 
     1346                           .line   37
     1347                   ;----------------------------------------------------------------------
     1348                   ; 178 | break;                                                                 
     1349                   ;----------------------------------------------------------------------
     1350 00000106 6a000006         bu        L32                   ; |178| 
TMS320C3x/4x COFF AssemblerVersion 5.12     Wed Feb 02 11:35:25 2022
Copyright (c) 1987-1999 Texas Instruments Incorporatedasm30.exe -@_C48.AAB 

Y:\workspace_eea\V615\APP\SOURCE\ASM\i2c.asm                         PAGE   26

     1351                   ;*      Branch Occurs to L32            ; |178| 
     1352 00000107          L29:        
     1353                           .line   30
     1354 00000107 50600001         ldiu      1,r0                  ; |171| 
     1355 00000108 02400304         addi      *+fp(4),r0            ; |171| 
     1356 00000109 15400304         sti       r0,*+fp(4)            ; |171| 
     1357 0000010a 04c00302         cmpi      *+fp(2),r0            ; |171| 
     1358 0000010b 6a07ffef         blt       L27                   ; |171| 
     1359                   ;*      Branch Occurs to L27            ; |171| 
     1360                           .line   41
     1361                   ;----------------------------------------------------------------------
     1362                   ; 182 | break;                                                                 
     1363                   ;----------------------------------------------------------------------
     1364 0000010c 6a000000         bu        L32                   ; |182| 
     1365                   ;*      Branch Occurs to L32            ; |182| 
     1366                           .line   42
     1367 0000010d          L32:        
     1368                           .line   44
     1369                   ;----------------------------------------------------------------------
     1370                   ; 185 | I2C_STOP;                                                              
     1371                   ;----------------------------------------------------------------------
     1372 0000010d 08700000-        ldp       @CL1,DP
     1373 0000010e 502801cc-        ldiu      @CL1,ar0              ; |185| 
     1374 0000010f 50600002         ldiu      2,r0                  ; |185| 
     1375 00000110 25a0c000         or3       r0,*ar0,r0            ; |185| 
     1376 00000111 1540c000         sti       r0,*ar0               ; |185| 
     1377 00000112 506000fe         ldiu      254,r0                ; |185| 
     1378 00000113 21a0c000         and3      r0,*ar0,r0            ; |185| 
     1379 00000114 1540c000         sti       r0,*ar0               ; |185| 
     1380 00000115 0f290000                 PUSH    AR1                     
     1381 00000116 08690032                 LDI             50,AR1          
     1382 00000117 6e46ffff                 .word   6E46FFFFh       
     1383 00000118 0e290000                 POP             AR1                     
     1384 00000119 50600004         ldiu      4,r0                  ; |185| 
     1385 0000011a 25a0c000         or3       r0,*ar0,r0            ; |185| 
     1386 0000011b 1540c000         sti       r0,*ar0               ; |185| 
     1387 0000011c 506000f7         ldiu      247,r0                ; |185| 
     1388 0000011d 21a0c000         and3      r0,*ar0,r0            ; |185| 
     1389 0000011e 1540c000         sti       r0,*ar0               ; |185| 
     1390 0000011f 0f290000                 PUSH    AR1                     
     1391 00000120 08690032                 LDI             50,AR1          
     1392 00000121 6e46ffff                 .word   6E46FFFFh       
     1393 00000122 0e290000                 POP             AR1                     
     1394 00000123 50600001         ldiu      1,r0                  ; |185| 
     1395 00000124 25a0c000         or3       r0,*ar0,r0            ; |185| 
     1396 00000125 1540c000         sti       r0,*ar0               ; |185| 
     1397 00000126 506000fd         ldiu      253,r0                ; |185| 
     1398 00000127 21a0c000         and3      r0,*ar0,r0            ; |185| 
     1399 00000128 1540c000         sti       r0,*ar0               ; |185| 
     1400 00000129 0f290000                 PUSH    AR1                     
     1401 0000012a 08690032                 LDI             50,AR1          
     1402 0000012b 6e46ffff                 .word   6E46FFFFh       
     1403 0000012c 0e290000                 POP             AR1                     
     1404                           .line   46
TMS320C3x/4x COFF AssemblerVersion 5.12     Wed Feb 02 11:35:25 2022
Copyright (c) 1987-1999 Texas Instruments Incorporatedasm30.exe -@_C48.AAB 

Y:\workspace_eea\V615\APP\SOURCE\ASM\i2c.asm                         PAGE   27

     1405                   ;----------------------------------------------------------------------
     1406                   ; 187 | return r;                                                              
     1407                   ;----------------------------------------------------------------------
     1408 0000012d 50400307         ldiu      *+fp(7),r0            ; |187| 
     1409                           .line   47
     1410                                                           ; Begin Epilog Code
     1411 0000012e 50410b01         ldiu      *-fp(1),r1            ; |188| 
     1412 0000012f 504bc300         ldiu      *fp,fp                ; |188| 
     1413                                                           ; Unallocate the Frame
     1414 00000130 18740009         subi      9,sp                  ; |188| 
     1415 00000131 68000001         bu        r1
     1416                   ;*      Branch Occurs to r1 
     1417                           .endfunc        188,000000000h,7
     1418                   
     1419                   
     1420 00000132                  .sect    "internal_RAM"
     1421                   
     1422                           .global _Read_I2C
     1423                           .sym    _Read_I2C,_Read_I2C,46,2,0
     1424                           .func   204
     1425                   ;******************************************************************************
     1426                   ;* FUNCTION NAME: _Read_I2C                                                   *
     1427                   ;*                                                                            *
     1428                   ;*   Architecture       : TMS320C33                                           *
     1429                   ;*   Calling Convention : TI Standard Register Parameters                     *
     1430                   ;*   Function Uses Regs : r0,r1,r2,r3,ar0,ar2,st                              *
     1431                   ;*   Regs Saved         :                                                     *
     1432                   ;*   Stack Frame        : Full (w/ debug)                                     *
     1433                   ;*   Total Frame Size   : 2 Call + 0 Parm + 8 Auto + 0 SOE = 10 words         *
     1434                   ;******************************************************************************
     1435 00000132          _Read_I2C:
     1436                   ;* ar2   assigned to _addr
     1437                           .sym    _addr,10,4,17,32
     1438                   ;* r2    assigned to _n
     1439                           .sym    _n,2,4,17,32
     1440                   ;* r3    assigned to _p
     1441                           .sym    _p,3,28,17,32
     1442                           .sym    _addr,1,4,1,32
     1443                           .sym    _n,2,4,1,32
     1444                           .sym    _p,3,28,1,32
     1445                           .sym    _i,4,4,1,32
     1446                           .sym    _j,5,4,1,32
     1447                           .sym    _dat,6,12,1,32
     1448                           .sym    _ack,7,14,1,32
     1449                           .sym    _r,8,14,1,32
     1450                           .line   1
     1451                   ;----------------------------------------------------------------------
     1452                   ; 204 | BOOL Read_I2C(int addr, int n, unsigned char* p)                       
     1453                   ;----------------------------------------------------------------------
     1454 00000132 0f2b0000         push      fp
     1455 00000133 500b0014         ldiu      sp,fp
     1456 00000134 02740008         addi      8,sp
     1457                           .line   2
     1458                   ;----------------------------------------------------------------------
TMS320C3x/4x COFF AssemblerVersion 5.12     Wed Feb 02 11:35:25 2022
Copyright (c) 1987-1999 Texas Instruments Incorporatedasm30.exe -@_C48.AAB 

Y:\workspace_eea\V615\APP\SOURCE\ASM\i2c.asm                         PAGE   28

     1459                   ; 206 | int i,j;                        /* byte counter; not used */           
     1460                   ; 207 | unsigned char dat;      /* address source                 */           
     1461                   ; 208 | BOOL ack;                       /* successful ack?                */   
     1462                   ; 209 | BOOL r;                         /* successful read?               */   
     1463                   ;----------------------------------------------------------------------
     1464 00000135 15430303         sti       r3,*+fp(3)            ; |205| 
     1465 00000136 15420302         sti       r2,*+fp(2)            ; |205| 
     1466 00000137 154a0301         sti       ar2,*+fp(1)           ; |205| 
     1467                           .line   8
     1468                   ;----------------------------------------------------------------------
     1469                   ; 211 | r = TRUE;                                                              
     1470                   ;----------------------------------------------------------------------
     1471 00000138 50600001         ldiu      1,r0                  ; |211| 
     1472 00000139 15400308         sti       r0,*+fp(8)            ; |211| 
     1473                           .line   9
     1474                   ;----------------------------------------------------------------------
     1475                   ; 212 | I2C_START;                                                             
     1476                   ; 214 | while(TRUE)                                                            
     1477                   ;----------------------------------------------------------------------
     1478 0000013a 08700000-        ldp       @CL1,DP
     1479 0000013b 502801cc-        ldiu      @CL1,ar0              ; |212| 
     1480 0000013c 50600004         ldiu      4,r0                  ; |212| 
     1481 0000013d 25a0c000         or3       r0,*ar0,r0            ; |212| 
     1482 0000013e 1540c000         sti       r0,*ar0               ; |212| 
     1483 0000013f 50600001         ldiu      1,r0                  ; |212| 
     1484 00000140 25a0c000         or3       r0,*ar0,r0            ; |212| 
     1485 00000141 1540c000         sti       r0,*ar0               ; |212| 
     1486 00000142 50600008         ldiu      8,r0                  ; |212| 
     1487 00000143 25a0c000         or3       r0,*ar0,r0            ; |212| 
     1488 00000144 1540c000         sti       r0,*ar0               ; |212| 
     1489 00000145 50600002         ldiu      2,r0                  ; |212| 
     1490 00000146 25a0c000         or3       r0,*ar0,r0            ; |212| 
     1491 00000147 1540c000         sti       r0,*ar0               ; |212| 
     1492 00000148 0f290000                 PUSH    AR1                     
     1493 00000149 08690032                 LDI             50,AR1          
     1494 0000014a 6e46ffff                 .word   6E46FFFFh       
     1495 0000014b 0e290000                 POP             AR1                     
     1496 0000014c 506000fe         ldiu      254,r0                ; |212| 
     1497 0000014d 21a0c000         and3      r0,*ar0,r0            ; |212| 
     1498 0000014e 1540c000         sti       r0,*ar0               ; |212| 
     1499 0000014f 0f290000                 PUSH    AR1                     
     1500 00000150 08690032                 LDI             50,AR1          
     1501 00000151 6e46ffff                 .word   6E46FFFFh       
     1502 00000152 0e290000                 POP             AR1                     
     1503 00000153 506000fb         ldiu      251,r0                ; |212| 
     1504 00000154 21a0c000         and3      r0,*ar0,r0            ; |212| 
     1505 00000155 1540c000         sti       r0,*ar0               ; |212| 
     1506 00000156 0f290000                 PUSH    AR1                     
     1507 00000157 08690032                 LDI             50,AR1          
     1508 00000158 6e46ffff                 .word   6E46FFFFh       
     1509 00000159 0e290000                 POP             AR1                     
     1510                           .line   13
     1511                   ;----------------------------------------------------------------------
     1512                   ; 216 | dat = addr | 0x01;                              /* address with read bi
TMS320C3x/4x COFF AssemblerVersion 5.12     Wed Feb 02 11:35:25 2022
Copyright (c) 1987-1999 Texas Instruments Incorporatedasm30.exe -@_C48.AAB 

Y:\workspace_eea\V615\APP\SOURCE\ASM\i2c.asm                         PAGE   29

     1513                   ;     | t set */                                                               
     1514                   ;----------------------------------------------------------------------
     1515 0000015a 50600001         ldiu      1,r0                  ; |216| 
     1516 0000015b 10400301         or        *+fp(1),r0            ; |216| 
     1517 0000015c 15400306         sti       r0,*+fp(6)            ; |216| 
     1518                           .line   14
     1519                   ;----------------------------------------------------------------------
     1520                   ; 217 | ack = I2C_TX_BYTE(dat);                                                
     1521                   ;----------------------------------------------------------------------
     1522 0000015d 08700000-        ldp       @CL2,DP
     1523 0000015e 500a0000         ldiu      r0,ar2
     1524 0000015f 502001cd-        ldiu      @CL2,r0               ; |217| 
     1525 00000160 70000000         callu     r0                    ; far call to _I2C_TX_BYTE      ; |217| 
     1526                                                           ; |217| Far Call Occurs
     1527 00000161 15400307         sti       r0,*+fp(7)            ; |217| 
     1528                           .line   16
     1529                   ;----------------------------------------------------------------------
     1530                   ; 219 | if (!ack)                                                              
     1531                   ;----------------------------------------------------------------------
     1532 00000162 04e00000         cmpi      0,r0                  ; |219| 
     1533 00000163 6a060003         bne       L37                   ; |219| 
     1534                   ;*      Branch Occurs to L37            ; |219| 
     1535                           .line   18
     1536                   ;----------------------------------------------------------------------
     1537                   ; 221 | r = FALSE;                                                             
     1538                   ;----------------------------------------------------------------------
     1539 00000164 50600000         ldiu      0,r0                  ; |221| 
     1540 00000165 15400308         sti       r0,*+fp(8)            ; |221| 
     1541                           .line   19
     1542                   ;----------------------------------------------------------------------
     1543                   ; 222 | break;                                                                 
     1544                   ;----------------------------------------------------------------------
     1545 00000166 6a000027         bu        L43                   ; |222| 
     1546                   ;*      Branch Occurs to L43            ; |222| 
     1547 00000167          L37:        
     1548                           .line   22
     1549                   ;----------------------------------------------------------------------
     1550                   ; 225 | ack = I2C_TX_BYTE(n);                   /* the number of bytes to read
     1551                   ;     | */                                                                     
     1552                   ;----------------------------------------------------------------------
     1553 00000167 08700000-        ldp       @CL2,DP
     1554 00000168 504a0302         ldiu      *+fp(2),ar2           ; |225| 
     1555 00000169 502001cd-        ldiu      @CL2,r0               ; |225| 
     1556 0000016a 70000000         callu     r0                    ; far call to _I2C_TX_BYTE      ; |225| 
     1557                                                           ; |225| Far Call Occurs
     1558 0000016b 15400307         sti       r0,*+fp(7)            ; |225| 
     1559                           .line   24
     1560                   ;----------------------------------------------------------------------
     1561                   ; 227 | if (!ack)                                                              
     1562                   ;----------------------------------------------------------------------
     1563 0000016c 04e00000         cmpi      0,r0                  ; |227| 
     1564 0000016d 6a060003         bne       L39                   ; |227| 
     1565                   ;*      Branch Occurs to L39            ; |227| 
     1566                           .line   26
TMS320C3x/4x COFF AssemblerVersion 5.12     Wed Feb 02 11:35:25 2022
Copyright (c) 1987-1999 Texas Instruments Incorporatedasm30.exe -@_C48.AAB 

Y:\workspace_eea\V615\APP\SOURCE\ASM\i2c.asm                         PAGE   30

     1567                   ;----------------------------------------------------------------------
     1568                   ; 229 | r = FALSE;                                                             
     1569                   ;----------------------------------------------------------------------
     1570 0000016e 50600000         ldiu      0,r0                  ; |229| 
     1571 0000016f 15400308         sti       r0,*+fp(8)            ; |229| 
     1572                           .line   27
     1573                   ;----------------------------------------------------------------------
     1574                   ; 230 | break;                                                                 
     1575                   ;----------------------------------------------------------------------
     1576 00000170 6a00001d         bu        L43                   ; |230| 
     1577                   ;*      Branch Occurs to L43            ; |230| 
     1578 00000171          L39:        
     1579                           .line   30
     1580                   ;----------------------------------------------------------------------
     1581                   ; 233 | for (i=0;i<(n-1);i++)                                                  
     1582                   ;----------------------------------------------------------------------
     1583 00000171 50600000         ldiu      0,r0                  ; |233| 
     1584 00000172 15400304         sti       r0,*+fp(4)            ; |233| 
     1585 00000173 50600001         ldiu      1,r0                  ; |233| 
     1586 00000174 50410304         ldiu      *+fp(4),r1            ; |233| 
     1587 00000175 19c00302         subri     *+fp(2),r0            ; |233| 
     1588 00000176 23800100         cmpi3     r0,r1                 ; |233| 
     1589 00000177 6a0a000e         bge       L41                   ; |233| 
     1590                   ;*      Branch Occurs to L41            ; |233| 
     1591 00000178          L40:        
     1592                           .line   31
     1593                   ;----------------------------------------------------------------------
     1594                   ; 234 | I2C_RX_BYTE(&p[i],1);           /* read the bytes */                   
     1595                   ;----------------------------------------------------------------------
     1596 00000178 504a0304         ldiu      *+fp(4),ar2           ; |234| 
     1597 00000179 08700000-        ldp       @CL3,DP
     1598 0000017a 024a0303         addi      *+fp(3),ar2           ; |234| Unsigned
     1599 0000017b 502001ce-        ldiu      @CL3,r0               ; |234| 
     1600 0000017c 50620001         ldiu      1,r2                  ; |234| 
     1601 0000017d 70000000         callu     r0                    ; far call to _I2C_RX_BYTE      ; |234| 
     1602                                                           ; |234| Far Call Occurs
     1603                           .line   30
     1604 0000017e 50600001         ldiu      1,r0                  ; |233| 
     1605 0000017f 02400304         addi      *+fp(4),r0            ; |233| 
     1606 00000180 15400304         sti       r0,*+fp(4)            ; |233| 
     1607 00000181 50600001         ldiu      1,r0                  ; |233| 
     1608 00000182 50410304         ldiu      *+fp(4),r1            ; |233| 
     1609 00000183 19c00302         subri     *+fp(2),r0            ; |233| 
     1610 00000184 23800100         cmpi3     r0,r1                 ; |233| 
     1611 00000185 6a07fff2         blt       L40                   ; |233| 
     1612                   ;*      Branch Occurs to L40            ; |233| 
     1613 00000186          L41:        
     1614                           .line   33
     1615                   ;----------------------------------------------------------------------
     1616                   ; 236 | I2C_RX_BYTE(&p[n-1],0);                 /* the final byte to read */   
     1617                   ;----------------------------------------------------------------------
     1618 00000186 504a0302         ldiu      *+fp(2),ar2           ; |236| 
     1619 00000187 08700000-        ldp       @CL3,DP
     1620 00000188 024a0303         addi      *+fp(3),ar2           ; |236| Unsigned
TMS320C3x/4x COFF AssemblerVersion 5.12     Wed Feb 02 11:35:25 2022
Copyright (c) 1987-1999 Texas Instruments Incorporatedasm30.exe -@_C48.AAB 

Y:\workspace_eea\V615\APP\SOURCE\ASM\i2c.asm                         PAGE   31

     1621 00000189 502001ce-        ldiu      @CL3,r0               ; |236| 
     1622 0000018a 186a0001         subi      1,ar2                 ; |236| Unsigned
     1623 0000018b 50620000         ldiu      0,r2                  ; |236| 
     1624 0000018c 70000000         callu     r0                    ; far call to _I2C_RX_BYTE      ; |236| 
     1625                                                           ; |236| Far Call Occurs
     1626                           .line   35
     1627                   ;----------------------------------------------------------------------
     1628                   ; 238 | break;                                                                 
     1629                   ;----------------------------------------------------------------------
     1630 0000018d 6a000000         bu        L43                   ; |238| 
     1631                   ;*      Branch Occurs to L43            ; |238| 
     1632                           .line   36
     1633 0000018e          L43:        
     1634                           .line   38
     1635                   ;----------------------------------------------------------------------
     1636                   ; 241 | I2C_STOP;                                                              
     1637                   ;----------------------------------------------------------------------
     1638 0000018e 08700000-        ldp       @CL1,DP
     1639 0000018f 502801cc-        ldiu      @CL1,ar0              ; |241| 
     1640 00000190 50600002         ldiu      2,r0                  ; |241| 
     1641 00000191 25a0c000         or3       r0,*ar0,r0            ; |241| 
     1642 00000192 1540c000         sti       r0,*ar0               ; |241| 
     1643 00000193 506000fe         ldiu      254,r0                ; |241| 
     1644 00000194 21a0c000         and3      r0,*ar0,r0            ; |241| 
     1645 00000195 1540c000         sti       r0,*ar0               ; |241| 
     1646 00000196 0f290000                 PUSH    AR1                     
     1647 00000197 08690032                 LDI             50,AR1          
     1648 00000198 6e46ffff                 .word   6E46FFFFh       
     1649 00000199 0e290000                 POP             AR1                     
     1650 0000019a 50600004         ldiu      4,r0                  ; |241| 
     1651 0000019b 25a0c000         or3       r0,*ar0,r0            ; |241| 
     1652 0000019c 1540c000         sti       r0,*ar0               ; |241| 
     1653 0000019d 506000f7         ldiu      247,r0                ; |241| 
     1654 0000019e 21a0c000         and3      r0,*ar0,r0            ; |241| 
     1655 0000019f 1540c000         sti       r0,*ar0               ; |241| 
     1656 000001a0 0f290000                 PUSH    AR1                     
     1657 000001a1 08690032                 LDI             50,AR1          
     1658 000001a2 6e46ffff                 .word   6E46FFFFh       
     1659 000001a3 0e290000                 POP             AR1                     
     1660 000001a4 50600001         ldiu      1,r0                  ; |241| 
     1661 000001a5 25a0c000         or3       r0,*ar0,r0            ; |241| 
     1662 000001a6 1540c000         sti       r0,*ar0               ; |241| 
     1663 000001a7 506000fd         ldiu      253,r0                ; |241| 
     1664 000001a8 21a0c000         and3      r0,*ar0,r0            ; |241| 
     1665 000001a9 1540c000         sti       r0,*ar0               ; |241| 
     1666 000001aa 0f290000                 PUSH    AR1                     
     1667 000001ab 08690032                 LDI             50,AR1          
     1668 000001ac 6e46ffff                 .word   6E46FFFFh       
     1669 000001ad 0e290000                 POP             AR1                     
     1670                           .line   40
     1671                   ;----------------------------------------------------------------------
     1672                   ; 243 | return r;                                                              
     1673                   ;----------------------------------------------------------------------
     1674 000001ae 50400308         ldiu      *+fp(8),r0            ; |243| 
TMS320C3x/4x COFF AssemblerVersion 5.12     Wed Feb 02 11:35:25 2022
Copyright (c) 1987-1999 Texas Instruments Incorporatedasm30.exe -@_C48.AAB 

Y:\workspace_eea\V615\APP\SOURCE\ASM\i2c.asm                         PAGE   32

     1675                           .line   41
     1676                                                           ; Begin Epilog Code
     1677 000001af 50410b01         ldiu      *-fp(1),r1            ; |244| 
     1678 000001b0 504bc300         ldiu      *fp,fp                ; |244| 
     1679                                                           ; Unallocate the Frame
     1680 000001b1 1874000a         subi      10,sp                 ; |244| 
     1681 000001b2 68000001         bu        r1
     1682                   ;*      Branch Occurs to r1 
     1683                           .endfunc        244,000000000h,8
     1684                   
     1685                   
     1686 00000000                  .sect    ".text"
     1687                   
     1688                           .global _Write_DS1340
     1689                           .sym    _Write_DS1340,_Write_DS1340,46,2,0
     1690                           .func   260
     1691                   ;******************************************************************************
     1692                   ;* FUNCTION NAME: _Write_DS1340                                               *
     1693                   ;*                                                                            *
     1694                   ;*   Architecture       : TMS320C33                                           *
     1695                   ;*   Calling Convention : TI Standard Register Parameters                     *
     1696                   ;*   Function Uses Regs : r0,r2,r3,ar0,ar2,ir0,st                             *
     1697                   ;*   Regs Saved         :                                                     *
     1698                   ;*   Stack Frame        : Full (w/ debug)                                     *
     1699                   ;*   Total Frame Size   : 2 Call + 0 Parm + 7 Auto + 0 SOE = 9 words          *
     1700                   ;******************************************************************************
     1701 00000000          _Write_DS1340:
     1702                   ;* ar2   assigned to _addr
     1703                           .sym    _addr,10,4,17,32
     1704                   ;* r2    assigned to _n
     1705                           .sym    _n,2,4,17,32
     1706                   ;* r3    assigned to _p
     1707                           .sym    _p,3,28,17,32
     1708                           .sym    _addr,1,4,1,32
     1709                           .sym    _n,2,4,1,32
     1710                           .sym    _p,3,28,1,32
     1711                           .sym    _i,4,4,1,32
     1712                           .sym    _dat,5,12,1,32
     1713                           .sym    _ack,6,14,1,32
     1714                           .sym    _r,7,14,1,32
     1715                           .line   1
     1716                   ;----------------------------------------------------------------------
     1717                   ; 260 | BOOL Write_DS1340(int addr, int n, unsigned char* p)                   
     1718                   ;----------------------------------------------------------------------
     1719 00000000 0f2b0000         push      fp
     1720 00000001 500b0014         ldiu      sp,fp
     1721 00000002 02740007         addi      7,sp
     1722                           .line   2
     1723                   ;----------------------------------------------------------------------
     1724                   ; 262 | int i;                          /* byte counter */                     
     1725                   ; 263 | unsigned char dat;      /* RTC Address  */                             
     1726                   ; 264 | BOOL ack;                       /* Error checks */                     
     1727                   ; 265 | BOOL r;                         /* Write success*/                     
     1728                   ;----------------------------------------------------------------------
TMS320C3x/4x COFF AssemblerVersion 5.12     Wed Feb 02 11:35:25 2022
Copyright (c) 1987-1999 Texas Instruments Incorporatedasm30.exe -@_C48.AAB 

Y:\workspace_eea\V615\APP\SOURCE\ASM\i2c.asm                         PAGE   33

     1729 00000003 15430303         sti       r3,*+fp(3)            ; |261| 
     1730 00000004 15420302         sti       r2,*+fp(2)            ; |261| 
     1731 00000005 154a0301         sti       ar2,*+fp(1)           ; |261| 
     1732                           .line   8
     1733                   ;----------------------------------------------------------------------
     1734                   ; 267 | _GIEP;                                                                 
     1735                   ;----------------------------------------------------------------------
     1736 00000006 0f350000         push    ST                      
     1737 00000007 03752000         andn    2000h, ST       
     1738                           .line   9
     1739                   ;----------------------------------------------------------------------
     1740                   ; 268 | r = TRUE;                                                              
     1741                   ;----------------------------------------------------------------------
     1742 00000008 50600001         ldiu      1,r0                  ; |268| 
     1743 00000009 15400307         sti       r0,*+fp(7)            ; |268| 
     1744                           .line   10
     1745                   ;----------------------------------------------------------------------
     1746                   ; 269 | I2C_START;                                                             
     1747                   ; 271 | while(TRUE)                                                            
     1748                   ;----------------------------------------------------------------------
     1749 0000000a 08700000-        ldp       @CL1,DP
     1750 0000000b 502801cc-        ldiu      @CL1,ar0              ; |269| 
     1751 0000000c 50600004         ldiu      4,r0                  ; |269| 
     1752 0000000d 25a0c000         or3       r0,*ar0,r0            ; |269| 
     1753 0000000e 1540c000         sti       r0,*ar0               ; |269| 
     1754 0000000f 50600001         ldiu      1,r0                  ; |269| 
     1755 00000010 25a0c000         or3       r0,*ar0,r0            ; |269| 
     1756 00000011 1540c000         sti       r0,*ar0               ; |269| 
     1757 00000012 50600008         ldiu      8,r0                  ; |269| 
     1758 00000013 25a0c000         or3       r0,*ar0,r0            ; |269| 
     1759 00000014 1540c000         sti       r0,*ar0               ; |269| 
     1760 00000015 50600002         ldiu      2,r0                  ; |269| 
     1761 00000016 25a0c000         or3       r0,*ar0,r0            ; |269| 
     1762 00000017 1540c000         sti       r0,*ar0               ; |269| 
     1763 00000018 0f290000                 PUSH    AR1                     
     1764 00000019 08690032                 LDI             50,AR1          
     1765 0000001a 6e46ffff                 .word   6E46FFFFh       
     1766 0000001b 0e290000                 POP             AR1                     
     1767 0000001c 506000fe         ldiu      254,r0                ; |269| 
     1768 0000001d 21a0c000         and3      r0,*ar0,r0            ; |269| 
     1769 0000001e 1540c000         sti       r0,*ar0               ; |269| 
     1770 0000001f 0f290000                 PUSH    AR1                     
     1771 00000020 08690032                 LDI             50,AR1          
     1772 00000021 6e46ffff                 .word   6E46FFFFh       
     1773 00000022 0e290000                 POP             AR1                     
     1774 00000023 506000fb         ldiu      251,r0                ; |269| 
     1775 00000024 21a0c000         and3      r0,*ar0,r0            ; |269| 
     1776 00000025 1540c000         sti       r0,*ar0               ; |269| 
     1777 00000026 0f290000                 PUSH    AR1                     
     1778 00000027 08690032                 LDI             50,AR1          
     1779 00000028 6e46ffff                 .word   6E46FFFFh       
     1780 00000029 0e290000                 POP             AR1                     
     1781                           .line   14
     1782                   ;----------------------------------------------------------------------
TMS320C3x/4x COFF AssemblerVersion 5.12     Wed Feb 02 11:35:25 2022
Copyright (c) 1987-1999 Texas Instruments Incorporatedasm30.exe -@_C48.AAB 

Y:\workspace_eea\V615\APP\SOURCE\ASM\i2c.asm                         PAGE   34

     1783                   ; 273 | dat = RTC_ADDR;                                         /* address with
     1784                   ;     | out read bit set */                                                    
     1785                   ;----------------------------------------------------------------------
     1786 0000002a 506000d0         ldiu      208,r0                ; |273| 
     1787 0000002b 15400305         sti       r0,*+fp(5)            ; |273| 
     1788                           .line   15
     1789                   ;----------------------------------------------------------------------
     1790                   ; 274 | ack = I2C_TX_BYTE(dat);                                                
     1791                   ;----------------------------------------------------------------------
     1792 0000002c 08700000-        ldp       @CL2,DP
     1793 0000002d 500a0000         ldiu      r0,ar2
     1794 0000002e 502001cd-        ldiu      @CL2,r0               ; |274| 
     1795 0000002f 70000000         callu     r0                    ; far call to _I2C_TX_BYTE      ; |274| 
     1796                                                           ; |274| Far Call Occurs
     1797 00000030 15400306         sti       r0,*+fp(6)            ; |274| 
     1798                           .line   17
     1799                   ;----------------------------------------------------------------------
     1800                   ; 276 | if (!ack)                                                              
     1801                   ;----------------------------------------------------------------------
     1802 00000031 04e00000         cmpi      0,r0                  ; |276| 
     1803 00000032 6a060003         bne       L48                   ; |276| 
     1804                   ;*      Branch Occurs to L48            ; |276| 
     1805                           .line   19
     1806                   ;----------------------------------------------------------------------
     1807                   ; 278 | r = FALSE;                                                             
     1808                   ;----------------------------------------------------------------------
     1809 00000033 50600000         ldiu      0,r0                  ; |278| 
     1810 00000034 15400307         sti       r0,*+fp(7)            ; |278| 
     1811                           .line   20
     1812                   ;----------------------------------------------------------------------
     1813                   ; 279 | break;                                                                 
     1814                   ;----------------------------------------------------------------------
     1815 00000035 6a000020         bu        L56                   ; |279| 
     1816                   ;*      Branch Occurs to L56            ; |279| 
     1817 00000036          L48:        
     1818                           .line   23
     1819                   ;----------------------------------------------------------------------
     1820                   ; 282 | ack = I2C_TX_BYTE(addr);                        /* set the pointer */  
     1821                   ;----------------------------------------------------------------------
     1822 00000036 08700000-        ldp       @CL2,DP
     1823 00000037 504a0301         ldiu      *+fp(1),ar2           ; |282| 
     1824 00000038 502001cd-        ldiu      @CL2,r0               ; |282| 
     1825 00000039 70000000         callu     r0                    ; far call to _I2C_TX_BYTE      ; |282| 
     1826                                                           ; |282| Far Call Occurs
     1827 0000003a 15400306         sti       r0,*+fp(6)            ; |282| 
     1828                           .line   25
     1829                   ;----------------------------------------------------------------------
     1830                   ; 284 | if (!ack)                                                              
     1831                   ;----------------------------------------------------------------------
     1832 0000003b 04e00000         cmpi      0,r0                  ; |284| 
     1833 0000003c 6a060003         bne       L50                   ; |284| 
     1834                   ;*      Branch Occurs to L50            ; |284| 
     1835                           .line   27
     1836                   ;----------------------------------------------------------------------
TMS320C3x/4x COFF AssemblerVersion 5.12     Wed Feb 02 11:35:25 2022
Copyright (c) 1987-1999 Texas Instruments Incorporatedasm30.exe -@_C48.AAB 

Y:\workspace_eea\V615\APP\SOURCE\ASM\i2c.asm                         PAGE   35

     1837                   ; 286 | r = FALSE;                                                             
     1838                   ;----------------------------------------------------------------------
     1839 0000003d 50600000         ldiu      0,r0                  ; |286| 
     1840 0000003e 15400307         sti       r0,*+fp(7)            ; |286| 
     1841                           .line   28
     1842                   ;----------------------------------------------------------------------
     1843                   ; 287 | break;                                                                 
     1844                   ;----------------------------------------------------------------------
     1845 0000003f 6a000016         bu        L56                   ; |287| 
     1846                   ;*      Branch Occurs to L56            ; |287| 
     1847 00000040          L50:        
     1848                           .line   31
     1849                   ;----------------------------------------------------------------------
     1850                   ; 290 | for (i=0;i<n;i++)                                                      
     1851                   ;----------------------------------------------------------------------
     1852 00000040 50600000         ldiu      0,r0                  ; |290| 
     1853 00000041 15400304         sti       r0,*+fp(4)            ; |290| 
     1854 00000042 04c00302         cmpi      *+fp(2),r0            ; |290| 
     1855 00000043 6a0a0012         bge       L56                   ; |290| 
     1856                   ;*      Branch Occurs to L56            ; |290| 
     1857 00000044          L51:        
     1858                           .line   33
     1859                   ;----------------------------------------------------------------------
     1860                   ; 292 | ack = I2C_TX_BYTE(p[i]);                /* write the bytes */          
     1861                   ;----------------------------------------------------------------------
     1862 00000044 08700000-        ldp       @CL2,DP
     1863 00000045 50510303         ldiu      *+fp(3),ir0           ; |292| 
     1864 00000046 50480304         ldiu      *+fp(4),ar0           ; |292| 
     1865 00000047 502001cd-        ldiu      @CL2,r0               ; |292| 
     1866 00000048 504a4000         ldiu      *+ar0(ir0),ar2        ; |292| 
     1867 00000049 70000000         callu     r0                    ; far call to _I2C_TX_BYTE      ; |292| 
     1868                                                           ; |292| Far Call Occurs
     1869 0000004a 15400306         sti       r0,*+fp(6)            ; |292| 
     1870                           .line   35
     1871                   ;----------------------------------------------------------------------
     1872                   ; 294 | if (!ack)                                                              
     1873                   ;----------------------------------------------------------------------
     1874 0000004b 04e00000         cmpi      0,r0                  ; |294| 
     1875 0000004c 6a060003         bne       L53                   ; |294| 
     1876                   ;*      Branch Occurs to L53            ; |294| 
     1877                           .line   37
     1878                   ;----------------------------------------------------------------------
     1879                   ; 296 | r = FALSE;                                                             
     1880                   ;----------------------------------------------------------------------
     1881 0000004d 50600000         ldiu      0,r0                  ; |296| 
     1882 0000004e 15400307         sti       r0,*+fp(7)            ; |296| 
     1883                           .line   38
     1884                   ;----------------------------------------------------------------------
     1885                   ; 297 | break;                                                                 
     1886                   ;----------------------------------------------------------------------
     1887 0000004f 6a000006         bu        L56                   ; |297| 
     1888                   ;*      Branch Occurs to L56            ; |297| 
     1889 00000050          L53:        
     1890                           .line   31
TMS320C3x/4x COFF AssemblerVersion 5.12     Wed Feb 02 11:35:25 2022
Copyright (c) 1987-1999 Texas Instruments Incorporatedasm30.exe -@_C48.AAB 

Y:\workspace_eea\V615\APP\SOURCE\ASM\i2c.asm                         PAGE   36

     1891 00000050 50600001         ldiu      1,r0                  ; |290| 
     1892 00000051 02400304         addi      *+fp(4),r0            ; |290| 
     1893 00000052 15400304         sti       r0,*+fp(4)            ; |290| 
     1894 00000053 04c00302         cmpi      *+fp(2),r0            ; |290| 
     1895 00000054 6a07ffef         blt       L51                   ; |290| 
     1896                   ;*      Branch Occurs to L51            ; |290| 
     1897                           .line   42
     1898                   ;----------------------------------------------------------------------
     1899                   ; 301 | break;                                                                 
     1900                   ;----------------------------------------------------------------------
     1901 00000055 6a000000         bu        L56                   ; |301| 
     1902                   ;*      Branch Occurs to L56            ; |301| 
     1903                           .line   43
     1904 00000056          L56:        
     1905                           .line   45
     1906                   ;----------------------------------------------------------------------
     1907                   ; 304 | I2C_STOP;                                                              
     1908                   ;----------------------------------------------------------------------
     1909 00000056 08700000-        ldp       @CL1,DP
     1910 00000057 502801cc-        ldiu      @CL1,ar0              ; |304| 
     1911 00000058 50600002         ldiu      2,r0                  ; |304| 
     1912 00000059 25a0c000         or3       r0,*ar0,r0            ; |304| 
     1913 0000005a 1540c000         sti       r0,*ar0               ; |304| 
     1914 0000005b 506000fe         ldiu      254,r0                ; |304| 
     1915 0000005c 21a0c000         and3      r0,*ar0,r0            ; |304| 
     1916 0000005d 1540c000         sti       r0,*ar0               ; |304| 
     1917 0000005e 0f290000                 PUSH    AR1                     
     1918 0000005f 08690032                 LDI             50,AR1          
     1919 00000060 6e46ffff                 .word   6E46FFFFh       
     1920 00000061 0e290000                 POP             AR1                     
     1921 00000062 50600004         ldiu      4,r0                  ; |304| 
     1922 00000063 25a0c000         or3       r0,*ar0,r0            ; |304| 
     1923 00000064 1540c000         sti       r0,*ar0               ; |304| 
     1924 00000065 506000f7         ldiu      247,r0                ; |304| 
     1925 00000066 21a0c000         and3      r0,*ar0,r0            ; |304| 
     1926 00000067 1540c000         sti       r0,*ar0               ; |304| 
     1927 00000068 0f290000                 PUSH    AR1                     
     1928 00000069 08690032                 LDI             50,AR1          
     1929 0000006a 6e46ffff                 .word   6E46FFFFh       
     1930 0000006b 0e290000                 POP             AR1                     
     1931 0000006c 50600001         ldiu      1,r0                  ; |304| 
     1932 0000006d 25a0c000         or3       r0,*ar0,r0            ; |304| 
     1933 0000006e 1540c000         sti       r0,*ar0               ; |304| 
     1934 0000006f 506000fd         ldiu      253,r0                ; |304| 
     1935 00000070 21a0c000         and3      r0,*ar0,r0            ; |304| 
     1936 00000071 1540c000         sti       r0,*ar0               ; |304| 
     1937 00000072 0f290000                 PUSH    AR1                     
     1938 00000073 08690032                 LDI             50,AR1          
     1939 00000074 6e46ffff                 .word   6E46FFFFh       
     1940 00000075 0e290000                 POP             AR1                     
     1941                           .line   47
     1942                   ;----------------------------------------------------------------------
     1943                   ; 306 | GIEP;                                                                  
     1944                   ;----------------------------------------------------------------------
TMS320C3x/4x COFF AssemblerVersion 5.12     Wed Feb 02 11:35:25 2022
Copyright (c) 1987-1999 Texas Instruments Incorporatedasm30.exe -@_C48.AAB 

Y:\workspace_eea\V615\APP\SOURCE\ASM\i2c.asm                         PAGE   37

     1945 00000076 0e350000         pop             ST                      
     1946                           .line   48
     1947                   ;----------------------------------------------------------------------
     1948                   ; 307 | return r;                                                              
     1949                   ;----------------------------------------------------------------------
     1950 00000077 50400307         ldiu      *+fp(7),r0            ; |307| 
     1951                           .line   49
     1952                                                           ; Begin Epilog Code
     1953 00000078 50410b01         ldiu      *-fp(1),r1            ; |308| 
     1954 00000079 504bc300         ldiu      *fp,fp                ; |308| 
     1955                                                           ; Unallocate the Frame
     1956 0000007a 18740009         subi      9,sp                  ; |308| 
     1957 0000007b 68000001         bu        r1
     1958                   ;*      Branch Occurs to r1 
     1959                           .endfunc        308,000000000h,7
     1960                   
     1961                   
     1962 0000007c                  .sect    ".text"
     1963                   
     1964                           .global _Read_DS1340
     1965                           .sym    _Read_DS1340,_Read_DS1340,46,2,0
     1966                           .func   324
     1967                   ;******************************************************************************
     1968                   ;* FUNCTION NAME: _Read_DS1340                                                *
     1969                   ;*                                                                            *
     1970                   ;*   Architecture       : TMS320C33                                           *
     1971                   ;*   Calling Convention : TI Standard Register Parameters                     *
     1972                   ;*   Function Uses Regs : r0,r1,r2,r3,ar0,ar2,st                              *
     1973                   ;*   Regs Saved         :                                                     *
     1974                   ;*   Stack Frame        : Full (w/ debug)                                     *
     1975                   ;*   Total Frame Size   : 2 Call + 0 Parm + 8 Auto + 0 SOE = 10 words         *
     1976                   ;******************************************************************************
     1977 0000007c          _Read_DS1340:
     1978                   ;* ar2   assigned to _addr
     1979                           .sym    _addr,10,4,17,32
     1980                   ;* r2    assigned to _n
     1981                           .sym    _n,2,4,17,32
     1982                   ;* r3    assigned to _p
     1983                           .sym    _p,3,28,17,32
     1984                           .sym    _addr,1,4,1,32
     1985                           .sym    _n,2,4,1,32
     1986                           .sym    _p,3,28,1,32
     1987                           .sym    _i,4,4,1,32
     1988                           .sym    _j,5,4,1,32
     1989                           .sym    _dat,6,12,1,32
     1990                           .sym    _ack,7,14,1,32
     1991                           .sym    _r,8,14,1,32
     1992                           .line   1
     1993                   ;----------------------------------------------------------------------
     1994                   ; 324 | BOOL Read_DS1340(int addr, int n, unsigned char* p)                    
     1995                   ;----------------------------------------------------------------------
     1996 0000007c 0f2b0000         push      fp
     1997 0000007d 500b0014         ldiu      sp,fp
     1998 0000007e 02740008         addi      8,sp
TMS320C3x/4x COFF AssemblerVersion 5.12     Wed Feb 02 11:35:25 2022
Copyright (c) 1987-1999 Texas Instruments Incorporatedasm30.exe -@_C48.AAB 

Y:\workspace_eea\V615\APP\SOURCE\ASM\i2c.asm                         PAGE   38

     1999                           .line   2
     2000                   ;----------------------------------------------------------------------
     2001                   ; 326 | int i,j;                        /* byte counter         */             
     2002                   ; 327 | unsigned char dat;      /* RTC address          */                     
     2003                   ; 328 | BOOL ack;                       /* Check errors         */             
     2004                   ; 329 | BOOL r;                         /* Check opperation */                 
     2005                   ;----------------------------------------------------------------------
     2006 0000007f 15430303         sti       r3,*+fp(3)            ; |325| 
     2007 00000080 15420302         sti       r2,*+fp(2)            ; |325| 
     2008 00000081 154a0301         sti       ar2,*+fp(1)           ; |325| 
     2009                           .line   8
     2010                   ;----------------------------------------------------------------------
     2011                   ; 331 | _GIEP;                                                                 
     2012                   ;----------------------------------------------------------------------
     2013 00000082 0f350000         push    ST                      
     2014 00000083 03752000         andn    2000h, ST       
     2015                           .line   9
     2016                   ;----------------------------------------------------------------------
     2017                   ; 332 | r = TRUE;                                                              
     2018                   ;----------------------------------------------------------------------
     2019 00000084 50600001         ldiu      1,r0                  ; |332| 
     2020 00000085 15400308         sti       r0,*+fp(8)            ; |332| 
     2021                           .line   11
     2022                   ;----------------------------------------------------------------------
     2023                   ; 334 | if (!Write_DS1340(addr, 0, p))                                         
     2024                   ;----------------------------------------------------------------------
     2025 00000086 08700000-        ldp       @CL4,DP
     2026 00000087 502001cf-        ldiu      @CL4,r0               ; |334| 
     2027 00000088 50620000         ldiu      0,r2                  ; |334| 
     2028 00000089 70000000         callu     r0                    ; far call to _Write_DS1340     ; |334| 
     2029                                                           ; |334| Far Call Occurs
     2030 0000008a 04e00000         cmpi      0,r0                  ; |334| 
     2031 0000008b 6a060005         bne       L61                   ; |334| 
     2032                   ;*      Branch Occurs to L61            ; |334| 
     2033                           .line   13
     2034                   ;----------------------------------------------------------------------
     2035                   ; 336 | GIEP;                                                                  
     2036                   ;----------------------------------------------------------------------
     2037 0000008c 0e350000         pop             ST                      
     2038                           .line   14
     2039                   ;----------------------------------------------------------------------
     2040                   ; 337 | return FALSE;                                                          
     2041                   ;----------------------------------------------------------------------
     2042 0000008d 6a200068         bud       L70                   ; |337| 
     2043 0000008e 0c800000         nop
     2044 0000008f 0c800000         nop
     2045 00000090 50600000         ldiu      0,r0                  ; |337| 
     2046                   ;*      Branch Occurs to L70            ; |337| 
     2047 00000091          L61:        
     2048                           .line   17
     2049                   ;----------------------------------------------------------------------
     2050                   ; 340 | I2C_START;                                                             
     2051                   ; 342 | while(TRUE)                                                            
     2052                   ;----------------------------------------------------------------------
TMS320C3x/4x COFF AssemblerVersion 5.12     Wed Feb 02 11:35:25 2022
Copyright (c) 1987-1999 Texas Instruments Incorporatedasm30.exe -@_C48.AAB 

Y:\workspace_eea\V615\APP\SOURCE\ASM\i2c.asm                         PAGE   39

     2053 00000091 08700000-        ldp       @CL1,DP
     2054 00000092 502801cc-        ldiu      @CL1,ar0              ; |340| 
     2055 00000093 50600004         ldiu      4,r0                  ; |340| 
     2056 00000094 25a0c000         or3       r0,*ar0,r0            ; |340| 
     2057 00000095 1540c000         sti       r0,*ar0               ; |340| 
     2058 00000096 50600001         ldiu      1,r0                  ; |340| 
     2059 00000097 25a0c000         or3       r0,*ar0,r0            ; |340| 
     2060 00000098 1540c000         sti       r0,*ar0               ; |340| 
     2061 00000099 50600008         ldiu      8,r0                  ; |340| 
     2062 0000009a 25a0c000         or3       r0,*ar0,r0            ; |340| 
     2063 0000009b 1540c000         sti       r0,*ar0               ; |340| 
     2064 0000009c 50600002         ldiu      2,r0                  ; |340| 
     2065 0000009d 25a0c000         or3       r0,*ar0,r0            ; |340| 
     2066 0000009e 1540c000         sti       r0,*ar0               ; |340| 
     2067 0000009f 0f290000                 PUSH    AR1                     
     2068 000000a0 08690032                 LDI             50,AR1          
     2069 000000a1 6e46ffff                 .word   6E46FFFFh       
     2070 000000a2 0e290000                 POP             AR1                     
     2071 000000a3 506000fe         ldiu      254,r0                ; |340| 
     2072 000000a4 21a0c000         and3      r0,*ar0,r0            ; |340| 
     2073 000000a5 1540c000         sti       r0,*ar0               ; |340| 
     2074 000000a6 0f290000                 PUSH    AR1                     
     2075 000000a7 08690032                 LDI             50,AR1          
     2076 000000a8 6e46ffff                 .word   6E46FFFFh       
     2077 000000a9 0e290000                 POP             AR1                     
     2078 000000aa 506000fb         ldiu      251,r0                ; |340| 
     2079 000000ab 21a0c000         and3      r0,*ar0,r0            ; |340| 
     2080 000000ac 1540c000         sti       r0,*ar0               ; |340| 
     2081 000000ad 0f290000                 PUSH    AR1                     
     2082 000000ae 08690032                 LDI             50,AR1          
     2083 000000af 6e46ffff                 .word   6E46FFFFh       
     2084 000000b0 0e290000                 POP             AR1                     
     2085                           .line   21
     2086                   ;----------------------------------------------------------------------
     2087                   ; 344 | dat = RTC_ADDR | 0x01;                          /* address with read bi
     2088                   ;     | t set */                                                               
     2089                   ;----------------------------------------------------------------------
     2090 000000b1 506000d1         ldiu      209,r0                ; |344| 
     2091 000000b2 15400306         sti       r0,*+fp(6)            ; |344| 
     2092                           .line   22
     2093                   ;----------------------------------------------------------------------
     2094                   ; 345 | ack = I2C_TX_BYTE(dat);                                                
     2095                   ;----------------------------------------------------------------------
     2096 000000b3 08700000-        ldp       @CL2,DP
     2097 000000b4 500a0000         ldiu      r0,ar2
     2098 000000b5 502001cd-        ldiu      @CL2,r0               ; |345| 
     2099 000000b6 70000000         callu     r0                    ; far call to _I2C_TX_BYTE      ; |345| 
     2100                                                           ; |345| Far Call Occurs
     2101 000000b7 15400307         sti       r0,*+fp(7)            ; |345| 
     2102                           .line   24
     2103                   ;----------------------------------------------------------------------
     2104                   ; 347 | if (!ack)                                                              
     2105                   ;----------------------------------------------------------------------
     2106 000000b8 04e00000         cmpi      0,r0                  ; |347| 
TMS320C3x/4x COFF AssemblerVersion 5.12     Wed Feb 02 11:35:25 2022
Copyright (c) 1987-1999 Texas Instruments Incorporatedasm30.exe -@_C48.AAB 

Y:\workspace_eea\V615\APP\SOURCE\ASM\i2c.asm                         PAGE   40

     2107 000000b9 6a060003         bne       L63                   ; |347| 
     2108                   ;*      Branch Occurs to L63            ; |347| 
     2109                           .line   26
     2110                   ;----------------------------------------------------------------------
     2111                   ; 349 | r = FALSE;                                                             
     2112                   ;----------------------------------------------------------------------
     2113 000000ba 50600000         ldiu      0,r0                  ; |349| 
     2114 000000bb 15400308         sti       r0,*+fp(8)            ; |349| 
     2115                           .line   27
     2116                   ;----------------------------------------------------------------------
     2117                   ; 350 | break;                                                                 
     2118                   ;----------------------------------------------------------------------
     2119 000000bc 6a000019         bu        L69                   ; |350| 
     2120                   ;*      Branch Occurs to L69            ; |350| 
     2121 000000bd          L63:        
     2122                           .line   30
     2123                   ;----------------------------------------------------------------------
     2124                   ; 353 | ack = TRUE;                                                            
     2125                   ;----------------------------------------------------------------------
     2126 000000bd 50600001         ldiu      1,r0                  ; |353| 
     2127 000000be 15400307         sti       r0,*+fp(7)            ; |353| 
     2128                           .line   32
     2129                   ;----------------------------------------------------------------------
     2130                   ; 355 | for (i=0;i<n;i++)                                                      
     2131                   ;----------------------------------------------------------------------
     2132 000000bf 50600000         ldiu      0,r0                  ; |355| 
     2133 000000c0 15400304         sti       r0,*+fp(4)            ; |355| 
     2134 000000c1 04c00302         cmpi      *+fp(2),r0            ; |355| 
     2135 000000c2 6a0a0013         bge       L69                   ; |355| 
     2136                   ;*      Branch Occurs to L69            ; |355| 
     2137 000000c3          L64:        
     2138                           .line   34
     2139                   ;----------------------------------------------------------------------
     2140                   ; 357 | if (i==(n-1))                           /* size error */               
     2141                   ;----------------------------------------------------------------------
     2142 000000c3 50600001         ldiu      1,r0                  ; |357| 
     2143 000000c4 50410304         ldiu      *+fp(4),r1            ; |357| 
     2144 000000c5 19c00302         subri     *+fp(2),r0            ; |357| 
     2145 000000c6 23800100         cmpi3     r0,r1                 ; |357| 
     2146 000000c7 6a060002         bne       L66                   ; |357| 
     2147                   ;*      Branch Occurs to L66            ; |357| 
     2148                           .line   35
     2149                   ;----------------------------------------------------------------------
     2150                   ; 358 | ack = FALSE;                                                           
     2151                   ;----------------------------------------------------------------------
     2152 000000c8 50600000         ldiu      0,r0                  ; |358| 
     2153 000000c9 15400307         sti       r0,*+fp(7)            ; |358| 
     2154 000000ca          L66:        
     2155                           .line   37
     2156                   ;----------------------------------------------------------------------
     2157                   ; 360 | I2C_RX_BYTE(&p[i],ack);         /* read the bytes */                   
     2158                   ;----------------------------------------------------------------------
     2159 000000ca 504a0304         ldiu      *+fp(4),ar2           ; |360| 
     2160 000000cb 08700000-        ldp       @CL3,DP
TMS320C3x/4x COFF AssemblerVersion 5.12     Wed Feb 02 11:35:25 2022
Copyright (c) 1987-1999 Texas Instruments Incorporatedasm30.exe -@_C48.AAB 

Y:\workspace_eea\V615\APP\SOURCE\ASM\i2c.asm                         PAGE   41

     2161 000000cc 50420307         ldiu      *+fp(7),r2            ; |360| 
     2162 000000cd 024a0303         addi      *+fp(3),ar2           ; |360| Unsigned
     2163 000000ce 502001ce-        ldiu      @CL3,r0               ; |360| 
     2164 000000cf 70000000         callu     r0                    ; far call to _I2C_RX_BYTE      ; |360| 
     2165                                                           ; |360| Far Call Occurs
     2166                           .line   32
     2167 000000d0 50600001         ldiu      1,r0                  ; |355| 
     2168 000000d1 02400304         addi      *+fp(4),r0            ; |355| 
     2169 000000d2 15400304         sti       r0,*+fp(4)            ; |355| 
     2170 000000d3 04c00302         cmpi      *+fp(2),r0            ; |355| 
     2171 000000d4 6a07ffee         blt       L64                   ; |355| 
     2172                   ;*      Branch Occurs to L64            ; |355| 
     2173                           .line   40
     2174                   ;----------------------------------------------------------------------
     2175                   ; 363 | break;                                                                 
     2176                   ;----------------------------------------------------------------------
     2177 000000d5 6a000000         bu        L69                   ; |363| 
     2178                   ;*      Branch Occurs to L69            ; |363| 
     2179                           .line   41
     2180 000000d6          L69:        
     2181                           .line   43
     2182                   ;----------------------------------------------------------------------
     2183                   ; 366 | I2C_STOP;                                                              
     2184                   ;----------------------------------------------------------------------
     2185 000000d6 08700000-        ldp       @CL1,DP
     2186 000000d7 502801cc-        ldiu      @CL1,ar0              ; |366| 
     2187 000000d8 50600002         ldiu      2,r0                  ; |366| 
     2188 000000d9 25a0c000         or3       r0,*ar0,r0            ; |366| 
     2189 000000da 1540c000         sti       r0,*ar0               ; |366| 
     2190 000000db 506000fe         ldiu      254,r0                ; |366| 
     2191 000000dc 21a0c000         and3      r0,*ar0,r0            ; |366| 
     2192 000000dd 1540c000         sti       r0,*ar0               ; |366| 
     2193 000000de 0f290000                 PUSH    AR1                     
     2194 000000df 08690032                 LDI             50,AR1          
     2195 000000e0 6e46ffff                 .word   6E46FFFFh       
     2196 000000e1 0e290000                 POP             AR1                     
     2197 000000e2 50600004         ldiu      4,r0                  ; |366| 
     2198 000000e3 25a0c000         or3       r0,*ar0,r0            ; |366| 
     2199 000000e4 1540c000         sti       r0,*ar0               ; |366| 
     2200 000000e5 506000f7         ldiu      247,r0                ; |366| 
     2201 000000e6 21a0c000         and3      r0,*ar0,r0            ; |366| 
     2202 000000e7 1540c000         sti       r0,*ar0               ; |366| 
     2203 000000e8 0f290000                 PUSH    AR1                     
     2204 000000e9 08690032                 LDI             50,AR1          
     2205 000000ea 6e46ffff                 .word   6E46FFFFh       
     2206 000000eb 0e290000                 POP             AR1                     
     2207 000000ec 50600001         ldiu      1,r0                  ; |366| 
     2208 000000ed 25a0c000         or3       r0,*ar0,r0            ; |366| 
     2209 000000ee 1540c000         sti       r0,*ar0               ; |366| 
     2210 000000ef 506000fd         ldiu      253,r0                ; |366| 
     2211 000000f0 21a0c000         and3      r0,*ar0,r0            ; |366| 
     2212 000000f1 1540c000         sti       r0,*ar0               ; |366| 
     2213 000000f2 0f290000                 PUSH    AR1                     
     2214 000000f3 08690032                 LDI             50,AR1          
TMS320C3x/4x COFF AssemblerVersion 5.12     Wed Feb 02 11:35:25 2022
Copyright (c) 1987-1999 Texas Instruments Incorporatedasm30.exe -@_C48.AAB 

Y:\workspace_eea\V615\APP\SOURCE\ASM\i2c.asm                         PAGE   42

     2215 000000f4 6e46ffff                 .word   6E46FFFFh       
     2216 000000f5 0e290000                 POP             AR1                     
     2217                           .line   44
     2218                   ;----------------------------------------------------------------------
     2219                   ; 367 | GIEP;                                                                  
     2220                   ;----------------------------------------------------------------------
     2221 000000f6 0e350000         pop             ST                      
     2222                           .line   46
     2223                   ;----------------------------------------------------------------------
     2224                   ; 369 | return r;                                                              
     2225                   ;----------------------------------------------------------------------
     2226 000000f7 50400308         ldiu      *+fp(8),r0            ; |369| 
     2227 000000f8          L70:        
     2228                           .line   47
     2229                                                           ; Begin Epilog Code
     2230 000000f8 50410b01         ldiu      *-fp(1),r1            ; |370| 
     2231 000000f9 504bc300         ldiu      *fp,fp                ; |370| 
     2232                                                           ; Unallocate the Frame
     2233 000000fa 1874000a         subi      10,sp                 ; |370| 
     2234 000000fb 68000001         bu        r1
     2235                   ;*      Branch Occurs to r1 
     2236                           .endfunc        370,000000000h,8
     2237                   
     2238                   
     2239 00000000                  .sect    "initialization"
     2240                   
     2241                           .global _RTC_setup
     2242                           .sym    _RTC_setup,_RTC_setup,46,2,0
     2243                           .func   384
     2244                   ;******************************************************************************
     2245                   ;* FUNCTION NAME: _RTC_setup                                                  *
     2246                   ;*                                                                            *
     2247                   ;*   Architecture       : TMS320C33                                           *
     2248                   ;*   Calling Convention : TI Standard Register Parameters                     *
     2249                   ;*   Function Uses Regs : r0,r2,r3,ar0,ar2,st                                 *
     2250                   ;*   Regs Saved         :                                                     *
     2251                   ;*   Stack Frame        : Full (w/ debug)                                     *
     2252                   ;*   Total Frame Size   : 2 Call + 0 Parm + 1 Auto + 0 SOE = 3 words          *
     2253                   ;******************************************************************************
     2254 00000000          _RTC_setup:
     2255                           .sym    _r,1,14,1,32
     2256                           .line   1
     2257                   ;----------------------------------------------------------------------
     2258                   ; 384 | BOOL RTC_setup(void)                                                   
     2259                   ; 386 | BOOL r;         /* check operation */                                  
     2260                   ;----------------------------------------------------------------------
     2261 00000000 0f2b0000         push      fp
     2262 00000001 500b0014         ldiu      sp,fp
     2263 00000002 02740001         addi      1,sp
     2264                           .line   5
     2265                   ;----------------------------------------------------------------------
     2266                   ; 388 | _GIEP;                                                                 
     2267                   ;----------------------------------------------------------------------
     2268 00000003 0f350000         push    ST                      
TMS320C3x/4x COFF AssemblerVersion 5.12     Wed Feb 02 11:35:25 2022
Copyright (c) 1987-1999 Texas Instruments Incorporatedasm30.exe -@_C48.AAB 

Y:\workspace_eea\V615\APP\SOURCE\ASM\i2c.asm                         PAGE   43

     2269 00000004 03752000         andn    2000h, ST       
     2270                           .line   6
     2271                   ;----------------------------------------------------------------------
     2272                   ; 389 | r = Read_DS1340(8,10,RTC);                                             
     2273                   ;----------------------------------------------------------------------
     2274 00000005 08700000-        ldp       @CL6,DP
     2275 00000006 502001d1-        ldiu      @CL6,r0               ; |389| 
     2276 00000007 506a0008         ldiu      8,ar2                 ; |389| 
     2277 00000008 08700000-        ldp       @CL5,DP
     2278 00000009 5062000a         ldiu      10,r2                 ; |389| 
     2279 0000000a 502301d0-        ldiu      @CL5,r3               ; |389| 
     2280 0000000b 70000000         callu     r0                    ; far call to _Read_DS1340      ; |389| 
     2281                                                           ; |389| Far Call Occurs
     2282 0000000c 15400301         sti       r0,*+fp(1)            ; |389| 
     2283                           .line   8
     2284                   ;----------------------------------------------------------------------
     2285                   ; 391 | if (!r)                                                                
     2286                   ;----------------------------------------------------------------------
     2287 0000000d 04e00000         cmpi      0,r0                  ; |391| 
     2288 0000000e 6a060009         bne       L74                   ; |391| 
     2289                   ;*      Branch Occurs to L74            ; |391| 
     2290                           .line   10
     2291                   ;----------------------------------------------------------------------
     2292                   ; 393 | RTC_PRESENT = FALSE;                                                   
     2293                   ;----------------------------------------------------------------------
     2294 0000000f 08700000-        ldp       @CL7,DP
     2295 00000010 502801d2-        ldiu      @CL7,ar0              ; |393| 
     2296 00000011 50600000         ldiu      0,r0                  ; |393| 
     2297 00000012 1540c000         sti       r0,*ar0               ; |393| 
     2298                           .line   11
     2299                   ;----------------------------------------------------------------------
     2300                   ; 394 | GIEP;                                                                  
     2301                   ;----------------------------------------------------------------------
     2302 00000013 0e350000         pop             ST                      
     2303                           .line   13
     2304                   ;----------------------------------------------------------------------
     2305                   ; 396 | return r;                                                              
     2306                   ;----------------------------------------------------------------------
     2307 00000014 6a20003a         bud       L80                   ; |396| 
     2308 00000015 0c800000         nop
     2309 00000016 0c800000         nop
     2310 00000017 50400301         ldiu      *+fp(1),r0            ; |396| 
     2311                   ;*      Branch Occurs to L80            ; |396| 
     2312 00000018          L74:        
     2313                           .line   16
     2314                   ;----------------------------------------------------------------------
     2315                   ; 399 | RTC_PRESENT = TRUE;                                                    
     2316                   ;----------------------------------------------------------------------
     2317 00000018 08700000-        ldp       @CL7,DP
     2318 00000019 502801d2-        ldiu      @CL7,ar0              ; |399| 
     2319 0000001a 50600001         ldiu      1,r0                  ; |399| 
     2320 0000001b 1540c000         sti       r0,*ar0               ; |399| 
     2321                           .line   18
     2322                   ;----------------------------------------------------------------------
TMS320C3x/4x COFF AssemblerVersion 5.12     Wed Feb 02 11:35:25 2022
Copyright (c) 1987-1999 Texas Instruments Incorporatedasm30.exe -@_C48.AAB 

Y:\workspace_eea\V615\APP\SOURCE\ASM\i2c.asm                         PAGE   44

     2323                   ; 401 | if (RTC[1] & 0x80)                                                     
     2324                   ;----------------------------------------------------------------------
     2325 0000001c 08700000-        ldp       @CL8,DP
     2326 0000001d 502801d3-        ldiu      @CL8,ar0              ; |401| 
     2327 0000001e 50600080         ldiu      128,r0                ; |401| 
     2328 0000001f 27c000c0         tstb3     *ar0,r0               ; |401| 
     2329 00000020 6a050006         beq       L76                   ; |401| 
     2330                   ;*      Branch Occurs to L76            ; |401| 
     2331                           .line   19
     2332                   ;----------------------------------------------------------------------
     2333                   ; 402 | DIAGNOSTICS[1] |= ERROR2_TIME_RESET;                                   
     2334                   ; 403 | else                                                                   
     2335                   ;----------------------------------------------------------------------
     2336 00000021 08700000-        ldp       @CL9,DP
     2337 00000022 502801d4-        ldiu      @CL9,ar0              ; |402| 
     2338 00000023 50600001         ldiu      1,r0                  ; |402| 
     2339 00000024 10400001         or        *+ar0(1),r0           ; |402| 
     2340 00000025 15400001         sti       r0,*+ar0(1)           ; |402| 
     2341 00000026 6a000005         bu        L77                   ; |383| 
     2342                   ;*      Branch Occurs to L77            ; |383| 
     2343 00000027          L76:        
     2344                           .line   21
     2345                   ;----------------------------------------------------------------------
     2346                   ; 404 | DIAGNOSTICS[1] &= 0xFFFFFFFF ^ ERROR2_TIME_RESET;                      
     2347                   ;----------------------------------------------------------------------
     2348 00000027 08700000-        ldp       @CL9,DP
     2349 00000028 502801d4-        ldiu      @CL9,ar0              ; |404| 
     2350 00000029 50400001         ldiu      *+ar0(1),r0           ; |404| 
     2351 0000002a 03600001         andn      1,r0                  ; |404| 
     2352 0000002b 15400001         sti       r0,*+ar0(1)           ; |404| 
     2353 0000002c          L77:        
     2354                           .line   23
     2355                   ;----------------------------------------------------------------------
     2356                   ; 406 | RTC[9] |= 0x40; /* enable FT output */                                 
     2357                   ;----------------------------------------------------------------------
     2358 0000002c 08700000-        ldp       @CL5,DP
     2359 0000002d 502801d0-        ldiu      @CL5,ar0              ; |406| 
     2360 0000002e 50600040         ldiu      64,r0                 ; |406| 
     2361 0000002f 10400009         or        *+ar0(9),r0           ; |406| 
     2362 00000030 15400009         sti       r0,*+ar0(9)           ; |406| 
     2363                           .line   25
     2364                   ;----------------------------------------------------------------------
     2365                   ; 408 | Write_DS1340(8, 2, &RTC[0]); // Trickle Charger 0x08                   
     2366                   ;----------------------------------------------------------------------
     2367 00000031 502301d0-        ldiu      @CL5,r3               ; |408| 
     2368 00000032 08700000-        ldp       @CL4,DP
     2369 00000033 506a0008         ldiu      8,ar2                 ; |408| 
     2370 00000034 502001cf-        ldiu      @CL4,r0               ; |408| 
     2371 00000035 50620002         ldiu      2,r2                  ; |408| 
     2372 00000036 70000000         callu     r0                    ; far call to _Write_DS1340     ; |408| 
     2373                                                           ; |408| Far Call Occurs
     2374                           .line   26
     2375                   ;----------------------------------------------------------------------
     2376                   ; 409 | Write_DS1340(7, 1, &RTC[9]); // FT Register     0x07                   
TMS320C3x/4x COFF AssemblerVersion 5.12     Wed Feb 02 11:35:25 2022
Copyright (c) 1987-1999 Texas Instruments Incorporatedasm30.exe -@_C48.AAB 

Y:\workspace_eea\V615\APP\SOURCE\ASM\i2c.asm                         PAGE   45

     2377                   ;----------------------------------------------------------------------
     2378 00000037 08700000-        ldp       @CL10,DP
     2379 00000038 502301d5-        ldiu      @CL10,r3              ; |409| 
     2380 00000039 08700000-        ldp       @CL4,DP
     2381 0000003a 506a0007         ldiu      7,ar2                 ; |409| 
     2382 0000003b 502001cf-        ldiu      @CL4,r0               ; |409| 
     2383 0000003c 50620001         ldiu      1,r2                  ; |409| 
     2384 0000003d 70000000         callu     r0                    ; far call to _Write_DS1340     ; |409| 
     2385                                                           ; |409| Far Call Occurs
     2386                           .line   28
     2387                   ;----------------------------------------------------------------------
     2388                   ; 411 | if (RTC[2]&0x80)                                                       
     2389                   ;----------------------------------------------------------------------
     2390 0000003e 08700000-        ldp       @CL11,DP
     2391 0000003f 502801d6-        ldiu      @CL11,ar0             ; |411| 
     2392 00000040 50600080         ldiu      128,r0                ; |411| 
     2393 00000041 27c000c0         tstb3     *ar0,r0               ; |411| 
     2394 00000042 6a05000c         beq       L79                   ; |411| 
     2395                   ;*      Branch Occurs to L79            ; |411| 
     2396                           .line   30
     2397                   ;----------------------------------------------------------------------
     2398                   ; 413 | RTC[2] &= 0x3F;                                                        
     2399                   ;----------------------------------------------------------------------
     2400 00000043 08700000-        ldp       @CL5,DP
     2401 00000044 502801d0-        ldiu      @CL5,ar0              ; |413| 
     2402 00000045 5060003f         ldiu      63,r0                 ; |413| 
     2403 00000046 02c00002         and       *+ar0(2),r0           ; |413| 
     2404 00000047 15400002         sti       r0,*+ar0(2)           ; |413| 
     2405                           .line   31
     2406                   ;----------------------------------------------------------------------
     2407                   ; 414 | Write_DS1340(0, 1, &RTC[2]);                                           
     2408                   ;----------------------------------------------------------------------
     2409 00000048 08700000-        ldp       @CL11,DP
     2410 00000049 502301d6-        ldiu      @CL11,r3              ; |414| 
     2411 0000004a 08700000-        ldp       @CL4,DP
     2412 0000004b 506a0000         ldiu      0,ar2                 ; |414| 
     2413 0000004c 502001cf-        ldiu      @CL4,r0               ; |414| 
     2414 0000004d 50620001         ldiu      1,r2                  ; |414| 
     2415 0000004e 70000000         callu     r0                    ; far call to _Write_DS1340     ; |414| 
     2416                                                           ; |414| Far Call Occurs
     2417 0000004f          L79:        
     2418                           .line   34
     2419                   ;----------------------------------------------------------------------
     2420                   ; 417 | GIEP;                                                                  
     2421                   ;----------------------------------------------------------------------
     2422 0000004f 0e350000         pop             ST                      
     2423                           .line   35
     2424                   ;----------------------------------------------------------------------
     2425                   ; 418 | return TRUE;                                                           
     2426                   ;----------------------------------------------------------------------
     2427 00000050 50600001         ldiu      1,r0                  ; |418| 
     2428 00000051          L80:        
     2429                           .line   36
     2430                                                           ; Begin Epilog Code
TMS320C3x/4x COFF AssemblerVersion 5.12     Wed Feb 02 11:35:25 2022
Copyright (c) 1987-1999 Texas Instruments Incorporatedasm30.exe -@_C48.AAB 

Y:\workspace_eea\V615\APP\SOURCE\ASM\i2c.asm                         PAGE   46

     2431 00000051 50410b01         ldiu      *-fp(1),r1            ; |419| 
     2432 00000052 504bc300         ldiu      *fp,fp                ; |419| 
     2433                                                           ; Unallocate the Frame
     2434 00000053 18740003         subi      3,sp                  ; |419| 
     2435 00000054 68000001         bu        r1
     2436                   ;*      Branch Occurs to r1 
     2437                           .endfunc        419,000000000h,1
     2438                   
     2439                   
     2440 000001b3                  .sect    "internal_RAM"
     2441                   
     2442                           .global _Write_MC24C02_Record
     2443                           .sym    _Write_MC24C02_Record,_Write_MC24C02_Record,46,2,0
     2444                           .func   434
     2445                   ;******************************************************************************
     2446                   ;* FUNCTION NAME: _Write_MC24C02_Record                                       *
     2447                   ;*                                                                            *
     2448                   ;*   Architecture       : TMS320C33                                           *
     2449                   ;*   Calling Convention : TI Standard Register Parameters                     *
     2450                   ;*   Function Uses Regs : r0,r1,r2,ar0,ar2,ir0,st                             *
     2451                   ;*   Regs Saved         :                                                     *
     2452                   ;*   Stack Frame        : Full (w/ debug)                                     *
     2453                   ;*   Total Frame Size   : 2 Call + 0 Parm + 7 Auto + 0 SOE = 9 words          *
     2454                   ;******************************************************************************
     2455 000001b3          _Write_MC24C02_Record:
     2456                   ;* ar2   assigned to _addr
     2457                           .sym    _addr,10,4,17,32
     2458                   ;* r2    assigned to _p
     2459                           .sym    _p,2,28,17,32
     2460                           .sym    _addr,1,4,1,32
     2461                           .sym    _p,2,28,1,32
     2462                           .sym    _i,3,4,1,32
     2463                           .sym    _j,4,4,1,32
     2464                           .sym    _k,5,4,1,32
     2465                           .sym    _r,6,4,1,32
     2466                           .sym    _ack,7,14,1,32
     2467                           .line   1
     2468                   ;----------------------------------------------------------------------
     2469                   ; 434 | BOOL Write_MC24C02_Record(int addr, unsigned char* p)                  
     2470                   ;----------------------------------------------------------------------
     2471 000001b3 0f2b0000         push      fp
     2472 000001b4 500b0014         ldiu      sp,fp
     2473 000001b5 02740007         addi      7,sp
     2474                           .line   2
     2475                   ;----------------------------------------------------------------------
     2476                   ; 436 | int i,j,k,r;    /* counter; counter; address error accumulator; return
     2477                   ;     |  */                                                                    
     2478                   ; 437 | BOOL ack;               /* transfer check
     2479                   ;     |                                                  */                    
     2480                   ;----------------------------------------------------------------------
     2481 000001b6 15420302         sti       r2,*+fp(2)            ; |435| 
     2482 000001b7 154a0301         sti       ar2,*+fp(1)           ; |435| 
     2483                           .line   6
     2484                   ;----------------------------------------------------------------------
TMS320C3x/4x COFF AssemblerVersion 5.12     Wed Feb 02 11:35:25 2022
Copyright (c) 1987-1999 Texas Instruments Incorporatedasm30.exe -@_C48.AAB 

Y:\workspace_eea\V615\APP\SOURCE\ASM\i2c.asm                         PAGE   47

     2485                   ; 439 | _GIEP;                                                                 
     2486                   ;----------------------------------------------------------------------
     2487 000001b8 0f350000         push    ST                      
     2488 000001b9 03752000         andn    2000h, ST       
     2489                           .line   8
     2490                   ;----------------------------------------------------------------------
     2491                   ; 441 | for (i=0;i<256;i++)                                                    
     2492                   ;----------------------------------------------------------------------
     2493 000001ba 50600000         ldiu      0,r0                  ; |441| 
     2494 000001bb 15400303         sti       r0,*+fp(3)            ; |441| 
     2495 000001bc 04e00100         cmpi      256,r0                ; |441| 
     2496 000001bd 506100ff         ldiu      255,r1                ; |442| 
     2497 000001be 6a0a0009         bge       L84                   ; |441| 
     2498                   ;*      Branch Occurs to L84            ; |441| 
     2499 000001bf          L83:        
     2500                           .line   9
     2501                   ;----------------------------------------------------------------------
     2502                   ; 442 | p[i] &= 0xFF;                                                          
     2503                   ;----------------------------------------------------------------------
     2504 000001bf 50510302         ldiu      *+fp(2),ir0           ; |442| 
     2505 000001c0 50480303         ldiu      *+fp(3),ar0           ; |442| 
     2506 000001c1 21a04001         and3      r1,*+ar0(ir0),r0      ; |442| 
     2507 000001c2 15404000         sti       r0,*+ar0(ir0)         ; |442| 
     2508                           .line   8
     2509 000001c3 50600001         ldiu      1,r0                  ; |441| 
     2510 000001c4 02400303         addi      *+fp(3),r0            ; |441| 
     2511 000001c5 15400303         sti       r0,*+fp(3)            ; |441| 
     2512 000001c6 04e00100         cmpi      256,r0                ; |441| 
     2513 000001c7 6a07fff7         blt       L83                   ; |441| 
     2514                   ;*      Branch Occurs to L83            ; |441| 
     2515 000001c8          L84:        
     2516                           .line   11
     2517                   ;----------------------------------------------------------------------
     2518                   ; 444 | r = TRUE;                                                              
     2519                   ;----------------------------------------------------------------------
     2520 000001c8 50600001         ldiu      1,r0                  ; |444| 
     2521 000001c9 15400306         sti       r0,*+fp(6)            ; |444| 
     2522                           .line   13
     2523                   ;----------------------------------------------------------------------
     2524                   ; 446 | for(j=0;j<16;j++)                                                      
     2525                   ;----------------------------------------------------------------------
     2526 000001ca 50600000         ldiu      0,r0                  ; |446| 
     2527 000001cb 15400304         sti       r0,*+fp(4)            ; |446| 
     2528 000001cc 04e00010         cmpi      16,r0                 ; |446| 
     2529 000001cd 6a0a00a1         bge       L101                  ; |446| 
     2530                   ;*      Branch Occurs to L101           ; |446| 
     2531 000001ce          L85:        
     2532                           .line   15
     2533                   ;----------------------------------------------------------------------
     2534                   ; 448 | k = 0;                                                                 
     2535                   ; 449 | while(1)                                                               
     2536                   ;----------------------------------------------------------------------
     2537 000001ce 50600000         ldiu      0,r0                  ; |448| 
     2538 000001cf 15400305         sti       r0,*+fp(5)            ; |448| 
TMS320C3x/4x COFF AssemblerVersion 5.12     Wed Feb 02 11:35:25 2022
Copyright (c) 1987-1999 Texas Instruments Incorporatedasm30.exe -@_C48.AAB 

Y:\workspace_eea\V615\APP\SOURCE\ASM\i2c.asm                         PAGE   48

     2539 000001d0          L86:        
     2540                           .line   18
     2541                   ;----------------------------------------------------------------------
     2542                   ; 451 | I2C_START;                                                             
     2543                   ;----------------------------------------------------------------------
     2544 000001d0 08700000-        ldp       @CL1,DP
     2545 000001d1 502801cc-        ldiu      @CL1,ar0              ; |451| 
     2546 000001d2 50600004         ldiu      4,r0                  ; |451| 
     2547 000001d3 25a0c000         or3       r0,*ar0,r0            ; |451| 
     2548 000001d4 1540c000         sti       r0,*ar0               ; |451| 
     2549 000001d5 50600001         ldiu      1,r0                  ; |451| 
     2550 000001d6 25a0c000         or3       r0,*ar0,r0            ; |451| 
     2551 000001d7 1540c000         sti       r0,*ar0               ; |451| 
     2552 000001d8 50600008         ldiu      8,r0                  ; |451| 
     2553 000001d9 25a0c000         or3       r0,*ar0,r0            ; |451| 
     2554 000001da 1540c000         sti       r0,*ar0               ; |451| 
     2555 000001db 50600002         ldiu      2,r0                  ; |451| 
     2556 000001dc 25a0c000         or3       r0,*ar0,r0            ; |451| 
     2557 000001dd 1540c000         sti       r0,*ar0               ; |451| 
     2558 000001de 0f290000                 PUSH    AR1                     
     2559 000001df 08690032                 LDI             50,AR1          
     2560 000001e0 6e46ffff                 .word   6E46FFFFh       
     2561 000001e1 0e290000                 POP             AR1                     
     2562 000001e2 506000fe         ldiu      254,r0                ; |451| 
     2563 000001e3 21a0c000         and3      r0,*ar0,r0            ; |451| 
     2564 000001e4 1540c000         sti       r0,*ar0               ; |451| 
     2565 000001e5 0f290000                 PUSH    AR1                     
     2566 000001e6 08690032                 LDI             50,AR1          
     2567 000001e7 6e46ffff                 .word   6E46FFFFh       
     2568 000001e8 0e290000                 POP             AR1                     
     2569 000001e9 506000fb         ldiu      251,r0                ; |451| 
     2570 000001ea 21a0c000         and3      r0,*ar0,r0            ; |451| 
     2571 000001eb 1540c000         sti       r0,*ar0               ; |451| 
     2572 000001ec 0f290000                 PUSH    AR1                     
     2573 000001ed 08690032                 LDI             50,AR1          
     2574 000001ee 6e46ffff                 .word   6E46FFFFh       
     2575 000001ef 0e290000                 POP             AR1                     
     2576                           .line   19
     2577                   ;----------------------------------------------------------------------
     2578                   ; 452 | ack = I2C_TX_BYTE(addr);                /* address without read bit set
     2579                   ;     |  */                                                                    
     2580                   ;----------------------------------------------------------------------
     2581 000001f0 08700000-        ldp       @CL2,DP
     2582 000001f1 502001cd-        ldiu      @CL2,r0               ; |452| 
     2583 000001f2 504a0301         ldiu      *+fp(1),ar2           ; |452| 
     2584 000001f3 70000000         callu     r0                    ; far call to _I2C_TX_BYTE      ; |452| 
     2585                                                           ; |452| Far Call Occurs
     2586 000001f4 15400307         sti       r0,*+fp(7)            ; |452| 
     2587                           .line   21
     2588                   ;----------------------------------------------------------------------
     2589                   ; 454 | if (!ack)                                               /* address erro
     2590                   ;     | r */                                                                   
     2591                   ;----------------------------------------------------------------------
     2592 000001f5 04e00000         cmpi      0,r0                  ; |454| 
TMS320C3x/4x COFF AssemblerVersion 5.12     Wed Feb 02 11:35:25 2022
Copyright (c) 1987-1999 Texas Instruments Incorporatedasm30.exe -@_C48.AAB 

Y:\workspace_eea\V615\APP\SOURCE\ASM\i2c.asm                         PAGE   49

     2593 000001f6 6a06002b         bne       L92                   ; |454| 
     2594                   ;*      Branch Occurs to L92            ; |454| 
     2595                           .line   22
     2596                   ;----------------------------------------------------------------------
     2597                   ; 455 | k++;                                                                   
     2598                   ; 456 | else                                                                   
     2599                   ;----------------------------------------------------------------------
     2600 000001f7 50600001         ldiu      1,r0                  ; |455| 
     2601 000001f8 02400305         addi      *+fp(5),r0            ; |455| 
     2602 000001f9 15400305         sti       r0,*+fp(5)            ; |455| 
     2603 000001fa 6a000000         bu        L89                   ; |433| 
     2604                   ;*      Branch Occurs to L89            ; |433| 
     2605                           .line   24
     2606                   ;----------------------------------------------------------------------
     2607                   ; 457 | break;                                          /* address OK, continue
     2608                   ;     |  */                                                                    
     2609                   ;----------------------------------------------------------------------
     2610 000001fb          L89:        
     2611                           .line   26
     2612                   ;----------------------------------------------------------------------
     2613                   ; 459 | if (k>=50)                                                             
     2614                   ;----------------------------------------------------------------------
     2615 000001fb 50400305         ldiu      *+fp(5),r0            ; |459| 
     2616 000001fc 04e00032         cmpi      50,r0                 ; |459| 
     2617 000001fd 6a070003         blt       L91                   ; |459| 
     2618                   ;*      Branch Occurs to L91            ; |459| 
     2619                           .line   28
     2620                   ;----------------------------------------------------------------------
     2621                   ; 461 | r = FALSE;                                                             
     2622                   ;----------------------------------------------------------------------
     2623 000001fe 50600000         ldiu      0,r0                  ; |461| 
     2624 000001ff 15400306         sti       r0,*+fp(6)            ; |461| 
     2625                           .line   29
     2626                   ;----------------------------------------------------------------------
     2627                   ; 462 | break;                                                                 
     2628                   ;----------------------------------------------------------------------
     2629 00000200 6a000021         bu        L92                   ; |462| 
     2630                   ;*      Branch Occurs to L92            ; |462| 
     2631 00000201          L91:        
     2632                           .line   32
     2633                   ;----------------------------------------------------------------------
     2634                   ; 465 | I2C_STOP;                                                              
     2635                   ;----------------------------------------------------------------------
     2636 00000201 08700000-        ldp       @CL1,DP
     2637 00000202 502801cc-        ldiu      @CL1,ar0              ; |465| 
     2638 00000203 50600002         ldiu      2,r0                  ; |465| 
     2639 00000204 25a0c000         or3       r0,*ar0,r0            ; |465| 
     2640 00000205 1540c000         sti       r0,*ar0               ; |465| 
     2641 00000206 506000fe         ldiu      254,r0                ; |465| 
     2642 00000207 21a0c000         and3      r0,*ar0,r0            ; |465| 
     2643 00000208 1540c000         sti       r0,*ar0               ; |465| 
     2644 00000209 0f290000                 PUSH    AR1                     
     2645 0000020a 08690032                 LDI             50,AR1          
     2646 0000020b 6e46ffff                 .word   6E46FFFFh       
TMS320C3x/4x COFF AssemblerVersion 5.12     Wed Feb 02 11:35:25 2022
Copyright (c) 1987-1999 Texas Instruments Incorporatedasm30.exe -@_C48.AAB 

Y:\workspace_eea\V615\APP\SOURCE\ASM\i2c.asm                         PAGE   50

     2647 0000020c 0e290000                 POP             AR1                     
     2648 0000020d 50600004         ldiu      4,r0                  ; |465| 
     2649 0000020e 25a0c000         or3       r0,*ar0,r0            ; |465| 
     2650 0000020f 1540c000         sti       r0,*ar0               ; |465| 
     2651 00000210 506000f7         ldiu      247,r0                ; |465| 
     2652 00000211 21a0c000         and3      r0,*ar0,r0            ; |465| 
     2653 00000212 1540c000         sti       r0,*ar0               ; |465| 
     2654 00000213 0f290000                 PUSH    AR1                     
     2655 00000214 08690032                 LDI             50,AR1          
     2656 00000215 6e46ffff                 .word   6E46FFFFh       
     2657 00000216 0e290000                 POP             AR1                     
     2658 00000217 50600001         ldiu      1,r0                  ; |465| 
     2659 00000218 25a0c000         or3       r0,*ar0,r0            ; |465| 
     2660 00000219 1540c000         sti       r0,*ar0               ; |465| 
     2661 0000021a 506000fd         ldiu      253,r0                ; |465| 
     2662 0000021b 21a0c000         and3      r0,*ar0,r0            ; |465| 
     2663 0000021c 1540c000         sti       r0,*ar0               ; |465| 
     2664 0000021d 0f290000                 PUSH    AR1                     
     2665 0000021e 08690032                 LDI             50,AR1          
     2666 0000021f 6e46ffff                 .word   6E46FFFFh       
     2667 00000220 0e290000                 POP             AR1                     
     2668                           .line   33
     2669 00000221 6a00ffae         bu        L86                   ; |466| 
     2670                   ;*      Branch Occurs to L86            ; |466| 
     2671 00000222          L92:        
     2672                           .line   35
     2673                   ;----------------------------------------------------------------------
     2674                   ; 468 | if (r==FALSE)                                           /* address fail
     2675                   ;     | ure, return */                                                         
     2676                   ;----------------------------------------------------------------------
     2677 00000222 50400306         ldiu      *+fp(6),r0            ; |468| 
     2678 00000223 04e00000         cmpi      0,r0                  ; |468| 
     2679 00000224 6a05004a         beq       L101                  ; |468| 
     2680                   ;*      Branch Occurs to L101           ; |468| 
     2681                           .line   36
     2682                   ;----------------------------------------------------------------------
     2683                   ; 469 | break;                                                                 
     2684                   ;----------------------------------------------------------------------
     2685                           .line   38
     2686                   ;----------------------------------------------------------------------
     2687                   ; 471 | ack = I2C_TX_BYTE(j*16);                        /* set the pointer */  
     2688                   ;----------------------------------------------------------------------
     2689 00000225 504a0304         ldiu      *+fp(4),ar2           ; |471| 
     2690 00000226 08700000-        ldp       @CL2,DP
     2691 00000227 03ea0004         ash       4,ar2                 ; |471| 
     2692 00000228 502001cd-        ldiu      @CL2,r0               ; |471| 
     2693 00000229 70000000         callu     r0                    ; far call to _I2C_TX_BYTE      ; |471| 
     2694                                                           ; |471| Far Call Occurs
     2695 0000022a 15400307         sti       r0,*+fp(7)            ; |471| 
     2696                           .line   40
     2697                   ;----------------------------------------------------------------------
     2698                   ; 473 | if (!ack)                                                              
     2699                   ;----------------------------------------------------------------------
     2700 0000022b 04e00000         cmpi      0,r0                  ; |473| 
TMS320C3x/4x COFF AssemblerVersion 5.12     Wed Feb 02 11:35:25 2022
Copyright (c) 1987-1999 Texas Instruments Incorporatedasm30.exe -@_C48.AAB 

Y:\workspace_eea\V615\APP\SOURCE\ASM\i2c.asm                         PAGE   51

     2701 0000022c 6a060003         bne       L95                   ; |473| 
     2702                   ;*      Branch Occurs to L95            ; |473| 
     2703                           .line   42
     2704                   ;----------------------------------------------------------------------
     2705                   ; 475 | r = FALSE;                                                             
     2706                   ;----------------------------------------------------------------------
     2707 0000022d 50600000         ldiu      0,r0                  ; |475| 
     2708 0000022e 15400306         sti       r0,*+fp(6)            ; |475| 
     2709                           .line   43
     2710                   ;----------------------------------------------------------------------
     2711                   ; 476 | break;                                                                 
     2712                   ;----------------------------------------------------------------------
     2713 0000022f 6a00003f         bu        L101                  ; |476| 
     2714                   ;*      Branch Occurs to L101           ; |476| 
     2715 00000230          L95:        
     2716                           .line   46
     2717                   ;----------------------------------------------------------------------
     2718                   ; 479 | for(i=0;i<16;i++)                                                      
     2719                   ;----------------------------------------------------------------------
     2720 00000230 50600000         ldiu      0,r0                  ; |479| 
     2721 00000231 15400303         sti       r0,*+fp(3)            ; |479| 
     2722 00000232 04e00010         cmpi      16,r0                 ; |479| 
     2723 00000233 6a0a0013         bge       L99                   ; |479| 
     2724                   ;*      Branch Occurs to L99            ; |479| 
     2725 00000234          L96:        
     2726                           .line   48
     2727                   ;----------------------------------------------------------------------
     2728                   ; 481 | ack = I2C_TX_BYTE(p[j*16+i]);                                          
     2729                   ;----------------------------------------------------------------------
     2730 00000234 50510304         ldiu      *+fp(4),ir0           ; |481| 
     2731 00000235 08700000-        ldp       @CL2,DP
     2732 00000236 03f10004         ash       4,ir0                 ; |481| 
     2733 00000237 50480303         ldiu      *+fp(3),ar0           ; |481| 
     2734 00000238 02510302         addi      *+fp(2),ir0           ; |481| Unsigned
     2735 00000239 502001cd-        ldiu      @CL2,r0               ; |481| 
     2736 0000023a 504a4000         ldiu      *+ar0(ir0),ar2        ; |481| 
     2737 0000023b 70000000         callu     r0                    ; far call to _I2C_TX_BYTE      ; |481| 
     2738                                                           ; |481| Far Call Occurs
     2739 0000023c 15400307         sti       r0,*+fp(7)            ; |481| 
     2740                           .line   50
     2741                   ;----------------------------------------------------------------------
     2742                   ; 483 | if (!ack)                                                              
     2743                   ;----------------------------------------------------------------------
     2744 0000023d 04e00000         cmpi      0,r0                  ; |483| 
     2745 0000023e 6a060003         bne       L98                   ; |483| 
     2746                   ;*      Branch Occurs to L98            ; |483| 
     2747                           .line   52
     2748                   ;----------------------------------------------------------------------
     2749                   ; 485 | r = FALSE;                                                             
     2750                   ;----------------------------------------------------------------------
     2751 0000023f 50600000         ldiu      0,r0                  ; |485| 
     2752 00000240 15400306         sti       r0,*+fp(6)            ; |485| 
     2753                           .line   53
     2754                   ;----------------------------------------------------------------------
TMS320C3x/4x COFF AssemblerVersion 5.12     Wed Feb 02 11:35:25 2022
Copyright (c) 1987-1999 Texas Instruments Incorporatedasm30.exe -@_C48.AAB 

Y:\workspace_eea\V615\APP\SOURCE\ASM\i2c.asm                         PAGE   52

     2755                   ; 486 | break;                                                                 
     2756                   ;----------------------------------------------------------------------
     2757 00000241 6a000005         bu        L99                   ; |486| 
     2758                   ;*      Branch Occurs to L99            ; |486| 
     2759 00000242          L98:        
     2760                           .line   46
     2761 00000242 50600001         ldiu      1,r0                  ; |479| 
     2762 00000243 02400303         addi      *+fp(3),r0            ; |479| 
     2763 00000244 15400303         sti       r0,*+fp(3)            ; |479| 
     2764 00000245 04e00010         cmpi      16,r0                 ; |479| 
     2765 00000246 6a07ffed         blt       L96                   ; |479| 
     2766                   ;*      Branch Occurs to L96            ; |479| 
     2767 00000247          L99:        
     2768                           .line   57
     2769                   ;----------------------------------------------------------------------
     2770                   ; 490 | if (r==FALSE)                                           /* transfer fai
     2771                   ;     | lure, return */                                                        
     2772                   ;----------------------------------------------------------------------
     2773 00000247 50400306         ldiu      *+fp(6),r0            ; |490| 
     2774 00000248 04e00000         cmpi      0,r0                  ; |490| 
     2775 00000249 6a050025         beq       L101                  ; |490| 
     2776                   ;*      Branch Occurs to L101           ; |490| 
     2777                           .line   58
     2778                   ;----------------------------------------------------------------------
     2779                   ; 491 | break;                                                                 
     2780                   ;----------------------------------------------------------------------
     2781                           .line   60
     2782                   ;----------------------------------------------------------------------
     2783                   ; 493 | I2C_STOP;                                                              
     2784                   ;----------------------------------------------------------------------
     2785 0000024a 08700000-        ldp       @CL1,DP
     2786 0000024b 502801cc-        ldiu      @CL1,ar0              ; |493| 
     2787 0000024c 50600002         ldiu      2,r0                  ; |493| 
     2788 0000024d 25a0c000         or3       r0,*ar0,r0            ; |493| 
     2789 0000024e 1540c000         sti       r0,*ar0               ; |493| 
     2790 0000024f 506000fe         ldiu      254,r0                ; |493| 
     2791 00000250 21a0c000         and3      r0,*ar0,r0            ; |493| 
     2792 00000251 1540c000         sti       r0,*ar0               ; |493| 
     2793 00000252 0f290000                 PUSH    AR1                     
     2794 00000253 08690032                 LDI             50,AR1          
     2795 00000254 6e46ffff                 .word   6E46FFFFh       
     2796 00000255 0e290000                 POP             AR1                     
     2797 00000256 50600004         ldiu      4,r0                  ; |493| 
     2798 00000257 25a0c000         or3       r0,*ar0,r0            ; |493| 
     2799 00000258 1540c000         sti       r0,*ar0               ; |493| 
     2800 00000259 506000f7         ldiu      247,r0                ; |493| 
     2801 0000025a 21a0c000         and3      r0,*ar0,r0            ; |493| 
     2802 0000025b 1540c000         sti       r0,*ar0               ; |493| 
     2803 0000025c 0f290000                 PUSH    AR1                     
     2804 0000025d 08690032                 LDI             50,AR1          
     2805 0000025e 6e46ffff                 .word   6E46FFFFh       
     2806 0000025f 0e290000                 POP             AR1                     
     2807 00000260 50600001         ldiu      1,r0                  ; |493| 
     2808 00000261 25a0c000         or3       r0,*ar0,r0            ; |493| 
TMS320C3x/4x COFF AssemblerVersion 5.12     Wed Feb 02 11:35:25 2022
Copyright (c) 1987-1999 Texas Instruments Incorporatedasm30.exe -@_C48.AAB 

Y:\workspace_eea\V615\APP\SOURCE\ASM\i2c.asm                         PAGE   53

     2809 00000262 1540c000         sti       r0,*ar0               ; |493| 
     2810 00000263 506000fd         ldiu      253,r0                ; |493| 
     2811 00000264 21a0c000         and3      r0,*ar0,r0            ; |493| 
     2812 00000265 1540c000         sti       r0,*ar0               ; |493| 
     2813 00000266 0f290000                 PUSH    AR1                     
     2814 00000267 08690032                 LDI             50,AR1          
     2815 00000268 6e46ffff                 .word   6E46FFFFh       
     2816 00000269 0e290000                 POP             AR1                     
     2817                           .line   13
     2818 0000026a 50600001         ldiu      1,r0                  ; |446| 
     2819 0000026b 02400304         addi      *+fp(4),r0            ; |446| 
     2820 0000026c 15400304         sti       r0,*+fp(4)            ; |446| 
     2821 0000026d 04e00010         cmpi      16,r0                 ; |446| 
     2822 0000026e 6a07ff5f         blt       L85                   ; |446| 
     2823                   ;*      Branch Occurs to L85            ; |446| 
     2824 0000026f          L101:        
     2825                           .line   63
     2826                   ;----------------------------------------------------------------------
     2827                   ; 496 | I2C_STOP;                                                              
     2828                   ;----------------------------------------------------------------------
     2829 0000026f 08700000-        ldp       @CL1,DP
     2830 00000270 502801cc-        ldiu      @CL1,ar0              ; |496| 
     2831 00000271 50600002         ldiu      2,r0                  ; |496| 
     2832 00000272 25a0c000         or3       r0,*ar0,r0            ; |496| 
     2833 00000273 1540c000         sti       r0,*ar0               ; |496| 
     2834 00000274 506000fe         ldiu      254,r0                ; |496| 
     2835 00000275 21a0c000         and3      r0,*ar0,r0            ; |496| 
     2836 00000276 1540c000         sti       r0,*ar0               ; |496| 
     2837 00000277 0f290000                 PUSH    AR1                     
     2838 00000278 08690032                 LDI             50,AR1          
     2839 00000279 6e46ffff                 .word   6E46FFFFh       
     2840 0000027a 0e290000                 POP             AR1                     
     2841 0000027b 50600004         ldiu      4,r0                  ; |496| 
     2842 0000027c 25a0c000         or3       r0,*ar0,r0            ; |496| 
     2843 0000027d 1540c000         sti       r0,*ar0               ; |496| 
     2844 0000027e 506000f7         ldiu      247,r0                ; |496| 
     2845 0000027f 21a0c000         and3      r0,*ar0,r0            ; |496| 
     2846 00000280 1540c000         sti       r0,*ar0               ; |496| 
     2847 00000281 0f290000                 PUSH    AR1                     
     2848 00000282 08690032                 LDI             50,AR1          
     2849 00000283 6e46ffff                 .word   6E46FFFFh       
     2850 00000284 0e290000                 POP             AR1                     
     2851 00000285 50600001         ldiu      1,r0                  ; |496| 
     2852 00000286 25a0c000         or3       r0,*ar0,r0            ; |496| 
     2853 00000287 1540c000         sti       r0,*ar0               ; |496| 
     2854 00000288 506000fd         ldiu      253,r0                ; |496| 
     2855 00000289 21a0c000         and3      r0,*ar0,r0            ; |496| 
     2856 0000028a 1540c000         sti       r0,*ar0               ; |496| 
     2857 0000028b 0f290000                 PUSH    AR1                     
     2858 0000028c 08690032                 LDI             50,AR1          
     2859 0000028d 6e46ffff                 .word   6E46FFFFh       
     2860 0000028e 0e290000                 POP             AR1                     
     2861                           .line   64
     2862                   ;----------------------------------------------------------------------
TMS320C3x/4x COFF AssemblerVersion 5.12     Wed Feb 02 11:35:25 2022
Copyright (c) 1987-1999 Texas Instruments Incorporatedasm30.exe -@_C48.AAB 

Y:\workspace_eea\V615\APP\SOURCE\ASM\i2c.asm                         PAGE   54

     2863                   ; 497 | GIEP;                                                                  
     2864                   ;----------------------------------------------------------------------
     2865 0000028f 0e350000         pop             ST                      
     2866                           .line   66
     2867                   ;----------------------------------------------------------------------
     2868                   ; 499 | return r;                                                              
     2869                   ;----------------------------------------------------------------------
     2870 00000290 50400306         ldiu      *+fp(6),r0            ; |499| 
     2871                           .line   67
     2872                                                           ; Begin Epilog Code
     2873 00000291 50410b01         ldiu      *-fp(1),r1            ; |500| 
     2874 00000292 504bc300         ldiu      *fp,fp                ; |500| 
     2875                                                           ; Unallocate the Frame
     2876 00000293 18740009         subi      9,sp                  ; |500| 
     2877 00000294 68000001         bu        r1
     2878                   ;*      Branch Occurs to r1 
     2879                           .endfunc        500,000000000h,7
     2880                   
     2881                   
     2882 00000295                  .sect    "internal_RAM"
     2883                   
     2884                           .global _Read_MC24C02_Record
     2885                           .sym    _Read_MC24C02_Record,_Read_MC24C02_Record,46,2,0
     2886                           .func   515
     2887                   ;******************************************************************************
     2888                   ;* FUNCTION NAME: _Read_MC24C02_Record                                        *
     2889                   ;*                                                                            *
     2890                   ;*   Architecture       : TMS320C33                                           *
     2891                   ;*   Calling Convention : TI Standard Register Parameters                     *
     2892                   ;*   Function Uses Regs : r0,r2,ar0,ar2,st                                    *
     2893                   ;*   Regs Saved         :                                                     *
     2894                   ;*   Stack Frame        : Full (w/ debug)                                     *
     2895                   ;*   Total Frame Size   : 2 Call + 0 Parm + 7 Auto + 0 SOE = 9 words          *
     2896                   ;******************************************************************************
     2897 00000295          _Read_MC24C02_Record:
     2898                   ;* ar2   assigned to _addr
     2899                           .sym    _addr,10,4,17,32
     2900                   ;* r2    assigned to _p
     2901                           .sym    _p,2,28,17,32
     2902                           .sym    _addr,1,4,1,32
     2903                           .sym    _p,2,28,1,32
     2904                           .sym    _i,3,4,1,32
     2905                           .sym    _j,4,4,1,32
     2906                           .sym    _k,5,4,1,32
     2907                           .sym    _r,6,4,1,32
     2908                           .sym    _ack,7,14,1,32
     2909                           .line   1
     2910                   ;----------------------------------------------------------------------
     2911                   ; 515 | BOOL Read_MC24C02_Record(int addr, unsigned char* p)                   
     2912                   ;----------------------------------------------------------------------
     2913 00000295 0f2b0000         push      fp
     2914 00000296 500b0014         ldiu      sp,fp
     2915 00000297 02740007         addi      7,sp
     2916                           .line   2
TMS320C3x/4x COFF AssemblerVersion 5.12     Wed Feb 02 11:35:25 2022
Copyright (c) 1987-1999 Texas Instruments Incorporatedasm30.exe -@_C48.AAB 

Y:\workspace_eea\V615\APP\SOURCE\ASM\i2c.asm                         PAGE   55

     2917                   ;----------------------------------------------------------------------
     2918                   ; 517 | int i,j,k,r;    /* byte counter; counter; address error accumulator; re
     2919                   ;     | turn */                                                                
     2920                   ; 518 | BOOL ack;               /* check I2C operations
     2921                   ;     |                                                  */                    
     2922                   ;----------------------------------------------------------------------
     2923 00000298 15420302         sti       r2,*+fp(2)            ; |516| 
     2924 00000299 154a0301         sti       ar2,*+fp(1)           ; |516| 
     2925                           .line   6
     2926                   ;----------------------------------------------------------------------
     2927                   ; 520 | _GIEP;                                                                 
     2928                   ;----------------------------------------------------------------------
     2929 0000029a 0f350000         push    ST                      
     2930 0000029b 03752000         andn    2000h, ST       
     2931                           .line   7
     2932                   ;----------------------------------------------------------------------
     2933                   ; 521 | r = TRUE;                                                              
     2934                   ;----------------------------------------------------------------------
     2935 0000029c 50600001         ldiu      1,r0                  ; |521| 
     2936 0000029d 15400306         sti       r0,*+fp(6)            ; |521| 
     2937                           .line   9
     2938                   ;----------------------------------------------------------------------
     2939                   ; 523 | for(j=0;j<16;j++)                                                      
     2940                   ;----------------------------------------------------------------------
     2941 0000029e 50600000         ldiu      0,r0                  ; |523| 
     2942 0000029f 15400304         sti       r0,*+fp(4)            ; |523| 
     2943 000002a0 04e00010         cmpi      16,r0                 ; |523| 
     2944 000002a1 6a0a00cb         bge       L120                  ; |523| 
     2945                   ;*      Branch Occurs to L120           ; |523| 
     2946 000002a2          L105:        
     2947                           .line   11
     2948                   ;----------------------------------------------------------------------
     2949                   ; 525 | k = 0;                                                                 
     2950                   ; 527 | while(1)                                                               
     2951                   ;----------------------------------------------------------------------
     2952 000002a2 50600000         ldiu      0,r0                  ; |525| 
     2953 000002a3 15400305         sti       r0,*+fp(5)            ; |525| 
     2954 000002a4          L106:        
     2955                           .line   15
     2956                   ;----------------------------------------------------------------------
     2957                   ; 529 | I2C_START;                                                             
     2958                   ;----------------------------------------------------------------------
     2959 000002a4 08700000-        ldp       @CL1,DP
     2960 000002a5 502801cc-        ldiu      @CL1,ar0              ; |529| 
     2961 000002a6 50600004         ldiu      4,r0                  ; |529| 
     2962 000002a7 25a0c000         or3       r0,*ar0,r0            ; |529| 
     2963 000002a8 1540c000         sti       r0,*ar0               ; |529| 
     2964 000002a9 50600001         ldiu      1,r0                  ; |529| 
     2965 000002aa 25a0c000         or3       r0,*ar0,r0            ; |529| 
     2966 000002ab 1540c000         sti       r0,*ar0               ; |529| 
     2967 000002ac 50600008         ldiu      8,r0                  ; |529| 
     2968 000002ad 25a0c000         or3       r0,*ar0,r0            ; |529| 
     2969 000002ae 1540c000         sti       r0,*ar0               ; |529| 
     2970 000002af 50600002         ldiu      2,r0                  ; |529| 
TMS320C3x/4x COFF AssemblerVersion 5.12     Wed Feb 02 11:35:25 2022
Copyright (c) 1987-1999 Texas Instruments Incorporatedasm30.exe -@_C48.AAB 

Y:\workspace_eea\V615\APP\SOURCE\ASM\i2c.asm                         PAGE   56

     2971 000002b0 25a0c000         or3       r0,*ar0,r0            ; |529| 
     2972 000002b1 1540c000         sti       r0,*ar0               ; |529| 
     2973 000002b2 0f290000                 PUSH    AR1                     
     2974 000002b3 08690032                 LDI             50,AR1          
     2975 000002b4 6e46ffff                 .word   6E46FFFFh       
     2976 000002b5 0e290000                 POP             AR1                     
     2977 000002b6 506000fe         ldiu      254,r0                ; |529| 
     2978 000002b7 21a0c000         and3      r0,*ar0,r0            ; |529| 
     2979 000002b8 1540c000         sti       r0,*ar0               ; |529| 
     2980 000002b9 0f290000                 PUSH    AR1                     
     2981 000002ba 08690032                 LDI             50,AR1          
     2982 000002bb 6e46ffff                 .word   6E46FFFFh       
     2983 000002bc 0e290000                 POP             AR1                     
     2984 000002bd 506000fb         ldiu      251,r0                ; |529| 
     2985 000002be 21a0c000         and3      r0,*ar0,r0            ; |529| 
     2986 000002bf 1540c000         sti       r0,*ar0               ; |529| 
     2987 000002c0 0f290000                 PUSH    AR1                     
     2988 000002c1 08690032                 LDI             50,AR1          
     2989 000002c2 6e46ffff                 .word   6E46FFFFh       
     2990 000002c3 0e290000                 POP             AR1                     
     2991                           .line   16
     2992                   ;----------------------------------------------------------------------
     2993                   ; 530 | ack = I2C_TX_BYTE(addr);                /* address without read bit set
     2994                   ;     |  */                                                                    
     2995                   ;----------------------------------------------------------------------
     2996 000002c4 08700000-        ldp       @CL2,DP
     2997 000002c5 502001cd-        ldiu      @CL2,r0               ; |530| 
     2998 000002c6 504a0301         ldiu      *+fp(1),ar2           ; |530| 
     2999 000002c7 70000000         callu     r0                    ; far call to _I2C_TX_BYTE      ; |530| 
     3000                                                           ; |530| Far Call Occurs
     3001 000002c8 15400307         sti       r0,*+fp(7)            ; |530| 
     3002                           .line   18
     3003                   ;----------------------------------------------------------------------
     3004                   ; 532 | if (!ack)                                               /* accumulate a
     3005                   ;     | ddress errrors   */                                                    
     3006                   ;----------------------------------------------------------------------
     3007 000002c9 04e00000         cmpi      0,r0                  ; |532| 
     3008 000002ca 6a06002b         bne       L112                  ; |532| 
     3009                   ;*      Branch Occurs to L112           ; |532| 
     3010                           .line   19
     3011                   ;----------------------------------------------------------------------
     3012                   ; 533 | k++;                                                                   
     3013                   ; 534 | else                                                                   
     3014                   ;----------------------------------------------------------------------
     3015 000002cb 50600001         ldiu      1,r0                  ; |533| 
     3016 000002cc 02400305         addi      *+fp(5),r0            ; |533| 
     3017 000002cd 15400305         sti       r0,*+fp(5)            ; |533| 
     3018 000002ce 6a000000         bu        L109                  ; |514| 
     3019                   ;*      Branch Occurs to L109           ; |514| 
     3020                           .line   21
     3021                   ;----------------------------------------------------------------------
     3022                   ; 535 | break;                                                                 
     3023                   ;----------------------------------------------------------------------
     3024 000002cf          L109:        
TMS320C3x/4x COFF AssemblerVersion 5.12     Wed Feb 02 11:35:25 2022
Copyright (c) 1987-1999 Texas Instruments Incorporatedasm30.exe -@_C48.AAB 

Y:\workspace_eea\V615\APP\SOURCE\ASM\i2c.asm                         PAGE   57

     3025                           .line   23
     3026                   ;----------------------------------------------------------------------
     3027                   ; 537 | if (k>=50)                                                             
     3028                   ;----------------------------------------------------------------------
     3029 000002cf 50400305         ldiu      *+fp(5),r0            ; |537| 
     3030 000002d0 04e00032         cmpi      50,r0                 ; |537| 
     3031 000002d1 6a070003         blt       L111                  ; |537| 
     3032                   ;*      Branch Occurs to L111           ; |537| 
     3033                           .line   25
     3034                   ;----------------------------------------------------------------------
     3035                   ; 539 | r = FALSE;                                                             
     3036                   ;----------------------------------------------------------------------
     3037 000002d2 50600000         ldiu      0,r0                  ; |539| 
     3038 000002d3 15400306         sti       r0,*+fp(6)            ; |539| 
     3039                           .line   26
     3040                   ;----------------------------------------------------------------------
     3041                   ; 540 | break;                                                                 
     3042                   ;----------------------------------------------------------------------
     3043 000002d4 6a000021         bu        L112                  ; |540| 
     3044                   ;*      Branch Occurs to L112           ; |540| 
     3045 000002d5          L111:        
     3046                           .line   29
     3047                   ;----------------------------------------------------------------------
     3048                   ; 543 | I2C_STOP;                                                              
     3049                   ;----------------------------------------------------------------------
     3050 000002d5 08700000-        ldp       @CL1,DP
     3051 000002d6 502801cc-        ldiu      @CL1,ar0              ; |543| 
     3052 000002d7 50600002         ldiu      2,r0                  ; |543| 
     3053 000002d8 25a0c000         or3       r0,*ar0,r0            ; |543| 
     3054 000002d9 1540c000         sti       r0,*ar0               ; |543| 
     3055 000002da 506000fe         ldiu      254,r0                ; |543| 
     3056 000002db 21a0c000         and3      r0,*ar0,r0            ; |543| 
     3057 000002dc 1540c000         sti       r0,*ar0               ; |543| 
     3058 000002dd 0f290000                 PUSH    AR1                     
     3059 000002de 08690032                 LDI             50,AR1          
     3060 000002df 6e46ffff                 .word   6E46FFFFh       
     3061 000002e0 0e290000                 POP             AR1                     
     3062 000002e1 50600004         ldiu      4,r0                  ; |543| 
     3063 000002e2 25a0c000         or3       r0,*ar0,r0            ; |543| 
     3064 000002e3 1540c000         sti       r0,*ar0               ; |543| 
     3065 000002e4 506000f7         ldiu      247,r0                ; |543| 
     3066 000002e5 21a0c000         and3      r0,*ar0,r0            ; |543| 
     3067 000002e6 1540c000         sti       r0,*ar0               ; |543| 
     3068 000002e7 0f290000                 PUSH    AR1                     
     3069 000002e8 08690032                 LDI             50,AR1          
     3070 000002e9 6e46ffff                 .word   6E46FFFFh       
     3071 000002ea 0e290000                 POP             AR1                     
     3072 000002eb 50600001         ldiu      1,r0                  ; |543| 
     3073 000002ec 25a0c000         or3       r0,*ar0,r0            ; |543| 
     3074 000002ed 1540c000         sti       r0,*ar0               ; |543| 
     3075 000002ee 506000fd         ldiu      253,r0                ; |543| 
     3076 000002ef 21a0c000         and3      r0,*ar0,r0            ; |543| 
     3077 000002f0 1540c000         sti       r0,*ar0               ; |543| 
     3078 000002f1 0f290000                 PUSH    AR1                     
TMS320C3x/4x COFF AssemblerVersion 5.12     Wed Feb 02 11:35:25 2022
Copyright (c) 1987-1999 Texas Instruments Incorporatedasm30.exe -@_C48.AAB 

Y:\workspace_eea\V615\APP\SOURCE\ASM\i2c.asm                         PAGE   58

     3079 000002f2 08690032                 LDI             50,AR1          
     3080 000002f3 6e46ffff                 .word   6E46FFFFh       
     3081 000002f4 0e290000                 POP             AR1                     
     3082                           .line   30
     3083 000002f5 6a00ffae         bu        L106                  ; |544| 
     3084                   ;*      Branch Occurs to L106           ; |544| 
     3085 000002f6          L112:        
     3086                           .line   32
     3087                   ;----------------------------------------------------------------------
     3088                   ; 546 | if (r==FALSE)                                           /* address fail
     3089                   ;     | ure, return */                                                         
     3090                   ;----------------------------------------------------------------------
     3091 000002f6 50400306         ldiu      *+fp(6),r0            ; |546| 
     3092 000002f7 04e00000         cmpi      0,r0                  ; |546| 
     3093 000002f8 6a050074         beq       L120                  ; |546| 
     3094                   ;*      Branch Occurs to L120           ; |546| 
     3095                           .line   33
     3096                   ;----------------------------------------------------------------------
     3097                   ; 547 | break;                                                                 
     3098                   ;----------------------------------------------------------------------
     3099                           .line   35
     3100                   ;----------------------------------------------------------------------
     3101                   ; 549 | ack = I2C_TX_BYTE(j*16);                        /* set the pointer */  
     3102                   ;----------------------------------------------------------------------
     3103 000002f9 504a0304         ldiu      *+fp(4),ar2           ; |549| 
     3104 000002fa 08700000-        ldp       @CL2,DP
     3105 000002fb 03ea0004         ash       4,ar2                 ; |549| 
     3106 000002fc 502001cd-        ldiu      @CL2,r0               ; |549| 
     3107 000002fd 70000000         callu     r0                    ; far call to _I2C_TX_BYTE      ; |549| 
     3108                                                           ; |549| Far Call Occurs
     3109 000002fe 15400307         sti       r0,*+fp(7)            ; |549| 
     3110                           .line   37
     3111                   ;----------------------------------------------------------------------
     3112                   ; 551 | if (!ack)                                                              
     3113                   ;----------------------------------------------------------------------
     3114 000002ff 04e00000         cmpi      0,r0                  ; |551| 
     3115 00000300 6a060003         bne       L115                  ; |551| 
     3116                   ;*      Branch Occurs to L115           ; |551| 
     3117                           .line   39
     3118                   ;----------------------------------------------------------------------
     3119                   ; 553 | r = FALSE;                                                             
     3120                   ;----------------------------------------------------------------------
     3121 00000301 50600000         ldiu      0,r0                  ; |553| 
     3122 00000302 15400306         sti       r0,*+fp(6)            ; |553| 
     3123                           .line   40
     3124                   ;----------------------------------------------------------------------
     3125                   ; 554 | break;                                                                 
     3126                   ;----------------------------------------------------------------------
     3127 00000303 6a000069         bu        L120                  ; |554| 
     3128                   ;*      Branch Occurs to L120           ; |554| 
     3129 00000304          L115:        
     3130                           .line   43
     3131                   ;----------------------------------------------------------------------
     3132                   ; 557 | I2C_START;                                                             
TMS320C3x/4x COFF AssemblerVersion 5.12     Wed Feb 02 11:35:25 2022
Copyright (c) 1987-1999 Texas Instruments Incorporatedasm30.exe -@_C48.AAB 

Y:\workspace_eea\V615\APP\SOURCE\ASM\i2c.asm                         PAGE   59

     3133                   ;----------------------------------------------------------------------
     3134 00000304 08700000-        ldp       @CL1,DP
     3135 00000305 502801cc-        ldiu      @CL1,ar0              ; |557| 
     3136 00000306 50600004         ldiu      4,r0                  ; |557| 
     3137 00000307 25a0c000         or3       r0,*ar0,r0            ; |557| 
     3138 00000308 1540c000         sti       r0,*ar0               ; |557| 
     3139 00000309 50600001         ldiu      1,r0                  ; |557| 
     3140 0000030a 25a0c000         or3       r0,*ar0,r0            ; |557| 
     3141 0000030b 1540c000         sti       r0,*ar0               ; |557| 
     3142 0000030c 50600008         ldiu      8,r0                  ; |557| 
     3143 0000030d 25a0c000         or3       r0,*ar0,r0            ; |557| 
     3144 0000030e 1540c000         sti       r0,*ar0               ; |557| 
     3145 0000030f 50600002         ldiu      2,r0                  ; |557| 
     3146 00000310 25a0c000         or3       r0,*ar0,r0            ; |557| 
     3147 00000311 1540c000         sti       r0,*ar0               ; |557| 
     3148 00000312 0f290000                 PUSH    AR1                     
     3149 00000313 08690032                 LDI             50,AR1          
     3150 00000314 6e46ffff                 .word   6E46FFFFh       
     3151 00000315 0e290000                 POP             AR1                     
     3152 00000316 506000fe         ldiu      254,r0                ; |557| 
     3153 00000317 21a0c000         and3      r0,*ar0,r0            ; |557| 
     3154 00000318 1540c000         sti       r0,*ar0               ; |557| 
     3155 00000319 0f290000                 PUSH    AR1                     
     3156 0000031a 08690032                 LDI             50,AR1          
     3157 0000031b 6e46ffff                 .word   6E46FFFFh       
     3158 0000031c 0e290000                 POP             AR1                     
     3159 0000031d 506000fb         ldiu      251,r0                ; |557| 
     3160 0000031e 21a0c000         and3      r0,*ar0,r0            ; |557| 
     3161 0000031f 1540c000         sti       r0,*ar0               ; |557| 
     3162 00000320 0f290000                 PUSH    AR1                     
     3163 00000321 08690032                 LDI             50,AR1          
     3164 00000322 6e46ffff                 .word   6E46FFFFh       
     3165 00000323 0e290000                 POP             AR1                     
     3166                           .line   44
     3167                   ;----------------------------------------------------------------------
     3168                   ; 558 | ack = I2C_TX_BYTE(addr|0x01);           /* address with read bit set */
     3169                   ;----------------------------------------------------------------------
     3170 00000324 08700000-        ldp       @CL2,DP
     3171 00000325 506a0001         ldiu      1,ar2                 ; |558| 
     3172 00000326 502001cd-        ldiu      @CL2,r0               ; |558| 
     3173 00000327 104a0301         or        *+fp(1),ar2           ; |558| 
     3174 00000328 70000000         callu     r0                    ; far call to _I2C_TX_BYTE      ; |558| 
     3175                                                           ; |558| Far Call Occurs
     3176 00000329 15400307         sti       r0,*+fp(7)            ; |558| 
     3177                           .line   46
     3178                   ;----------------------------------------------------------------------
     3179                   ; 560 | if (!ack)                                                              
     3180                   ;----------------------------------------------------------------------
     3181 0000032a 04e00000         cmpi      0,r0                  ; |560| 
     3182 0000032b 6a060003         bne       L117                  ; |560| 
     3183                   ;*      Branch Occurs to L117           ; |560| 
     3184                           .line   48
     3185                   ;----------------------------------------------------------------------
     3186                   ; 562 | r = FALSE;                                                             
TMS320C3x/4x COFF AssemblerVersion 5.12     Wed Feb 02 11:35:25 2022
Copyright (c) 1987-1999 Texas Instruments Incorporatedasm30.exe -@_C48.AAB 

Y:\workspace_eea\V615\APP\SOURCE\ASM\i2c.asm                         PAGE   60

     3187                   ;----------------------------------------------------------------------
     3188 0000032c 50600000         ldiu      0,r0                  ; |562| 
     3189 0000032d 15400306         sti       r0,*+fp(6)            ; |562| 
     3190                           .line   49
     3191                   ;----------------------------------------------------------------------
     3192                   ; 563 | break;                                                                 
     3193                   ;----------------------------------------------------------------------
     3194 0000032e 6a00003e         bu        L120                  ; |563| 
     3195                   ;*      Branch Occurs to L120           ; |563| 
     3196 0000032f          L117:        
     3197                           .line   52
     3198                   ;----------------------------------------------------------------------
     3199                   ; 566 | for (i=0;i<15;i++)                                                     
     3200                   ;----------------------------------------------------------------------
     3201 0000032f 50600000         ldiu      0,r0                  ; |566| 
     3202 00000330 15400303         sti       r0,*+fp(3)            ; |566| 
     3203 00000331 04e0000f         cmpi      15,r0                 ; |566| 
     3204 00000332 6a0a000d         bge       L119                  ; |566| 
     3205                   ;*      Branch Occurs to L119           ; |566| 
     3206 00000333          L118:        
     3207                           .line   53
     3208                   ;----------------------------------------------------------------------
     3209                   ; 567 | I2C_RX_BYTE(&p[j*16+i],1);              /* read the bytes , WITH ACK*/ 
     3210                   ;----------------------------------------------------------------------
     3211 00000333 504a0304         ldiu      *+fp(4),ar2           ; |567| 
     3212 00000334 08700000-        ldp       @CL3,DP
     3213 00000335 03ea0004         ash       4,ar2                 ; |567| 
     3214 00000336 024a0302         addi      *+fp(2),ar2           ; |567| Unsigned
     3215 00000337 502001ce-        ldiu      @CL3,r0               ; |567| 
     3216 00000338 024a0303         addi      *+fp(3),ar2           ; |567| Unsigned
     3217 00000339 50620001         ldiu      1,r2                  ; |567| 
     3218 0000033a 70000000         callu     r0                    ; far call to _I2C_RX_BYTE      ; |567| 
     3219                                                           ; |567| Far Call Occurs
     3220                           .line   52
     3221 0000033b 50600001         ldiu      1,r0                  ; |566| 
     3222 0000033c 02400303         addi      *+fp(3),r0            ; |566| 
     3223 0000033d 15400303         sti       r0,*+fp(3)            ; |566| 
     3224 0000033e 04e0000f         cmpi      15,r0                 ; |566| 
     3225 0000033f 6a07fff3         blt       L118                  ; |566| 
     3226                   ;*      Branch Occurs to L118           ; |566| 
     3227 00000340          L119:        
     3228                           .line   55
     3229                   ;----------------------------------------------------------------------
     3230                   ; 569 | I2C_RX_BYTE(&p[j*16+i],0);                      /* the final byte to re
     3231                   ;     | ad, WITH NO ACK */                                                     
     3232                   ;----------------------------------------------------------------------
     3233 00000340 504a0304         ldiu      *+fp(4),ar2           ; |569| 
     3234 00000341 08700000-        ldp       @CL3,DP
     3235 00000342 03ea0004         ash       4,ar2                 ; |569| 
     3236 00000343 024a0302         addi      *+fp(2),ar2           ; |569| Unsigned
     3237 00000344 502001ce-        ldiu      @CL3,r0               ; |569| 
     3238 00000345 024a0303         addi      *+fp(3),ar2           ; |569| Unsigned
     3239 00000346 50620000         ldiu      0,r2                  ; |569| 
     3240 00000347 70000000         callu     r0                    ; far call to _I2C_RX_BYTE      ; |569| 
TMS320C3x/4x COFF AssemblerVersion 5.12     Wed Feb 02 11:35:25 2022
Copyright (c) 1987-1999 Texas Instruments Incorporatedasm30.exe -@_C48.AAB 

Y:\workspace_eea\V615\APP\SOURCE\ASM\i2c.asm                         PAGE   61

     3241                                                           ; |569| Far Call Occurs
     3242                           .line   57
     3243                   ;----------------------------------------------------------------------
     3244                   ; 571 | I2C_STOP;                                                              
     3245                   ;----------------------------------------------------------------------
     3246 00000348 08700000-        ldp       @CL1,DP
     3247 00000349 502801cc-        ldiu      @CL1,ar0              ; |571| 
     3248 0000034a 50600002         ldiu      2,r0                  ; |571| 
     3249 0000034b 25a0c000         or3       r0,*ar0,r0            ; |571| 
     3250 0000034c 1540c000         sti       r0,*ar0               ; |571| 
     3251 0000034d 506000fe         ldiu      254,r0                ; |571| 
     3252 0000034e 21a0c000         and3      r0,*ar0,r0            ; |571| 
     3253 0000034f 1540c000         sti       r0,*ar0               ; |571| 
     3254 00000350 0f290000                 PUSH    AR1                     
     3255 00000351 08690032                 LDI             50,AR1          
     3256 00000352 6e46ffff                 .word   6E46FFFFh       
     3257 00000353 0e290000                 POP             AR1                     
     3258 00000354 50600004         ldiu      4,r0                  ; |571| 
     3259 00000355 25a0c000         or3       r0,*ar0,r0            ; |571| 
     3260 00000356 1540c000         sti       r0,*ar0               ; |571| 
     3261 00000357 506000f7         ldiu      247,r0                ; |571| 
     3262 00000358 21a0c000         and3      r0,*ar0,r0            ; |571| 
     3263 00000359 1540c000         sti       r0,*ar0               ; |571| 
     3264 0000035a 0f290000                 PUSH    AR1                     
     3265 0000035b 08690032                 LDI             50,AR1          
     3266 0000035c 6e46ffff                 .word   6E46FFFFh       
     3267 0000035d 0e290000                 POP             AR1                     
     3268 0000035e 50600001         ldiu      1,r0                  ; |571| 
     3269 0000035f 25a0c000         or3       r0,*ar0,r0            ; |571| 
     3270 00000360 1540c000         sti       r0,*ar0               ; |571| 
     3271 00000361 506000fd         ldiu      253,r0                ; |571| 
     3272 00000362 21a0c000         and3      r0,*ar0,r0            ; |571| 
     3273 00000363 1540c000         sti       r0,*ar0               ; |571| 
     3274 00000364 0f290000                 PUSH    AR1                     
     3275 00000365 08690032                 LDI             50,AR1          
     3276 00000366 6e46ffff                 .word   6E46FFFFh       
     3277 00000367 0e290000                 POP             AR1                     
     3278                           .line   9
     3279 00000368 50600001         ldiu      1,r0                  ; |523| 
     3280 00000369 02400304         addi      *+fp(4),r0            ; |523| 
     3281 0000036a 15400304         sti       r0,*+fp(4)            ; |523| 
     3282 0000036b 04e00010         cmpi      16,r0                 ; |523| 
     3283 0000036c 6a07ff35         blt       L105                  ; |523| 
     3284                   ;*      Branch Occurs to L105           ; |523| 
     3285 0000036d          L120:        
     3286                           .line   60
     3287                   ;----------------------------------------------------------------------
     3288                   ; 574 | I2C_STOP;                                                              
     3289                   ;----------------------------------------------------------------------
     3290 0000036d 08700000-        ldp       @CL1,DP
     3291 0000036e 502801cc-        ldiu      @CL1,ar0              ; |574| 
     3292 0000036f 50600002         ldiu      2,r0                  ; |574| 
     3293 00000370 25a0c000         or3       r0,*ar0,r0            ; |574| 
     3294 00000371 1540c000         sti       r0,*ar0               ; |574| 
TMS320C3x/4x COFF AssemblerVersion 5.12     Wed Feb 02 11:35:25 2022
Copyright (c) 1987-1999 Texas Instruments Incorporatedasm30.exe -@_C48.AAB 

Y:\workspace_eea\V615\APP\SOURCE\ASM\i2c.asm                         PAGE   62

     3295 00000372 506000fe         ldiu      254,r0                ; |574| 
     3296 00000373 21a0c000         and3      r0,*ar0,r0            ; |574| 
     3297 00000374 1540c000         sti       r0,*ar0               ; |574| 
     3298 00000375 0f290000                 PUSH    AR1                     
     3299 00000376 08690032                 LDI             50,AR1          
     3300 00000377 6e46ffff                 .word   6E46FFFFh       
     3301 00000378 0e290000                 POP             AR1                     
     3302 00000379 50600004         ldiu      4,r0                  ; |574| 
     3303 0000037a 25a0c000         or3       r0,*ar0,r0            ; |574| 
     3304 0000037b 1540c000         sti       r0,*ar0               ; |574| 
     3305 0000037c 506000f7         ldiu      247,r0                ; |574| 
     3306 0000037d 21a0c000         and3      r0,*ar0,r0            ; |574| 
     3307 0000037e 1540c000         sti       r0,*ar0               ; |574| 
     3308 0000037f 0f290000                 PUSH    AR1                     
     3309 00000380 08690032                 LDI             50,AR1          
     3310 00000381 6e46ffff                 .word   6E46FFFFh       
     3311 00000382 0e290000                 POP             AR1                     
     3312 00000383 50600001         ldiu      1,r0                  ; |574| 
     3313 00000384 25a0c000         or3       r0,*ar0,r0            ; |574| 
     3314 00000385 1540c000         sti       r0,*ar0               ; |574| 
     3315 00000386 506000fd         ldiu      253,r0                ; |574| 
     3316 00000387 21a0c000         and3      r0,*ar0,r0            ; |574| 
     3317 00000388 1540c000         sti       r0,*ar0               ; |574| 
     3318 00000389 0f290000                 PUSH    AR1                     
     3319 0000038a 08690032                 LDI             50,AR1          
     3320 0000038b 6e46ffff                 .word   6E46FFFFh       
     3321 0000038c 0e290000                 POP             AR1                     
     3322                           .line   61
     3323                   ;----------------------------------------------------------------------
     3324                   ; 575 | GIEP;                                                                  
     3325                   ;----------------------------------------------------------------------
     3326 0000038d 0e350000         pop             ST                      
     3327                           .line   63
     3328                   ;----------------------------------------------------------------------
     3329                   ; 577 | return r;                                                              
     3330                   ;----------------------------------------------------------------------
     3331 0000038e 50400306         ldiu      *+fp(6),r0            ; |577| 
     3332                           .line   64
     3333                                                           ; Begin Epilog Code
     3334 0000038f 50410b01         ldiu      *-fp(1),r1            ; |578| 
     3335 00000390 504bc300         ldiu      *fp,fp                ; |578| 
     3336                                                           ; Unallocate the Frame
     3337 00000391 18740009         subi      9,sp                  ; |578| 
     3338 00000392 68000001         bu        r1
     3339                   ;*      Branch Occurs to r1 
     3340                           .endfunc        578,000000000h,7
     3341                   
     3342                   
     3343                   
     3344                           .global _LCD_CNT
     3345 00000000                  .bss    _LCD_CNT,1
     3346                           .sym    _LCD_CNT,_LCD_CNT,14,2,32
     3347                   
     3348                           .global _RTC
TMS320C3x/4x COFF AssemblerVersion 5.12     Wed Feb 02 11:35:25 2022
Copyright (c) 1987-1999 Texas Instruments Incorporatedasm30.exe -@_C48.AAB 

Y:\workspace_eea\V615\APP\SOURCE\ASM\i2c.asm                         PAGE   63

     3349 00000001                  .bss    _RTC,10
     3350                           .sym    _RTC,_RTC,60,2,320,,10
     3351                   
     3352                           .global _LCD
     3353 0000000b                  .bss    _LCD,2
     3354                           .sym    _LCD,_LCD,60,2,64,,2
     3355                   
     3356                           .global _RTC_PRESENT
     3357 0000000d                  .bss    _RTC_PRESENT,1
     3358                           .sym    _RTC_PRESENT,_RTC_PRESENT,14,2,32
     3359                   
     3360                           .global _MB_LCD_DISPLAY
     3361 0000000e                  .bss    _MB_LCD_DISPLAY,40
     3362                           .sym    _MB_LCD_DISPLAY,_MB_LCD_DISPLAY,52,2,1280,,40
     3363                   
     3364                           .global _LCD_PRESENT
     3365 00000036                  .bss    _LCD_PRESENT,1
     3366                           .sym    _LCD_PRESENT,_LCD_PRESENT,14,2,32
     3367                   
     3368                           .global _LCD_DISPLAY
     3369 00000037                  .bss    _LCD_DISPLAY,404
     3370                           .sym    _LCD_DISPLAY,_LCD_DISPLAY,242,2,12928,,4,101
     3371                   
     3372                           .global _LCD_DIPSW
     3373 000001cb                  .bss    _LCD_DIPSW,1
     3374                           .sym    _LCD_DIPSW,_LCD_DIPSW,12,2,32
     3375                   ;******************************************************************************
     3376                   ;* CONSTANT TABLE                                                             *
     3377                   ;******************************************************************************
     3378 00000000                  .sect   ".const"
     3379 000001cc                  .bss    CL1,1
     3380 000001cd                  .bss    CL2,1
     3381 000001ce                  .bss    CL3,1
     3382 000001cf                  .bss    CL4,1
     3383 000001d0                  .bss    CL5,1
     3384 000001d1                  .bss    CL6,1
     3385 000001d2                  .bss    CL7,1
     3386 000001d3                  .bss    CL8,1
     3387 000001d4                  .bss    CL9,1
     3388 000001d5                  .bss    CL10,1
     3389 000001d6                  .bss    CL11,1
     3390                   
     3391 00000000                  .sect   ".cinit"
     3392 00000000 0000000b         .field          11,32
     3393 00000001 000001cc-        .field          CL1+0,32
     3394 00000002 00900002         .field          9437186,32
     3395 00000003 00000000+        .field          _I2C_TX_BYTE,32
     3396 00000004 0000005c+        .field          _I2C_RX_BYTE,32
     3397 00000005 00000000'        .field          _Write_DS1340,32
     3398 00000006 00000001-        .field          _RTC,32
     3399 00000007 0000007c'        .field          _Read_DS1340,32
     3400 00000008 0000000d-        .field          _RTC_PRESENT,32
     3401 00000009 00000002-        .field          _RTC+1,32
     3402 0000000a 00000000!        .field          _DIAGNOSTICS,32
TMS320C3x/4x COFF AssemblerVersion 5.12     Wed Feb 02 11:35:25 2022
Copyright (c) 1987-1999 Texas Instruments Incorporatedasm30.exe -@_C48.AAB 

Y:\workspace_eea\V615\APP\SOURCE\ASM\i2c.asm                         PAGE   64

     3403 0000000b 0000000a-        .field          _RTC+9,32
     3404 0000000c 00000003-        .field          _RTC+2,32
     3405                   
     3406 000000fc                  .sect   ".text"
     3407                   ;******************************************************************************
     3408                   ;* UNDEFINED EXTERNAL REFERENCES                                              *
     3409                   ;******************************************************************************
     3410                   
     3411                           .global _DIAGNOSTICS

 No Errors,  No Warnings
TMS320C3x/4x COFF AssemblerVersion 5.12     Wed Feb 02 11:35:25 2022
Copyright (c) 1987-1999 Texas Instruments Incorporatedasm30.exe -@_C48.AAB 

Y:\workspace_eea\V615\APP\SOURCE\ASM\i2c.asm                         PAGE   65

LABEL                            VALUE       DEFN    REF

.BIGMODEL                        00000001       0 
.C30                             00000000       0 
.C30INTERRUPT                    00000000       0 
.C31                             00000000       0 
.C32                             00000000       0 
.C33                             00000001       0 
.C3X                             00000001       0 
.C3x                             00000001       0 
.C40                             00000000       0 
.C44                             00000000       0 
.C4X                             00000000       0 
.C4x                             00000000       0 
.REGPARM                         00000001       0 
.TMS320C30                       00000001       0 
.TMS320C31                       00000000       0 
.TMS320C32                       00000000       0 
.TMS320C40                       00000000       0 
.TMS320C44                       00000000       0 
.TMS320xx                        00000021       0 
.tms320C30                       00000001       0 
.tms320C31                       00000000       0 
.tms320C32                       00000000       0 
.tms320C40                       00000000       0 
.tms320C44                       00000000       0 
.tms320xx                        00000021       0 
.tmx320C40                       00000000       0 
CL1                              000001cc-   3379    784    785    796    797 
                                                     806    807    841    842 
                                                     905    906    989    990 
                                                    1008   1009   1041   1042 
                                                    1080   1081   1098   1099 
                                                    1110   1111   1120   1121 
                                                    1211   1212   1372   1373 
                                                    1478   1479   1638   1639 
                                                    1749   1750   1909   1910 
                                                    2053   2054   2185   2186 
                                                    2544   2545   2636   2637 
                                                    2785   2786   2829   2830 
                                                    2959   2960   3050   3051 
                                                    3134   3135   3246   3247 
                                                    3290   3291   3393 
CL10                             000001d5-   3388   2378   2379 
CL11                             000001d6-   3389   2390   2391   2409   2410 
CL2                              000001cd-   3380   1254   1256   1285   1287 
                                                    1325   1328   1522   1524 
                                                    1553   1555   1792   1794 
                                                    1822   1824   1862   1865 
                                                    2096   2098   2581   2582 
                                                    2690   2692   2731   2735 
                                                    2996   2997   3104   3106 
                                                    3170   3172 
TMS320C3x/4x COFF AssemblerVersion 5.12     Wed Feb 02 11:35:25 2022
Copyright (c) 1987-1999 Texas Instruments Incorporatedasm30.exe -@_C48.AAB 

Y:\workspace_eea\V615\APP\SOURCE\ASM\i2c.asm                         PAGE   66

LABEL                            VALUE       DEFN    REF

CL3                              000001ce-   3381   1597   1599   1619   1621 
                                                    2160   2163   3212   3215 
                                                    3234   3237 
CL4                              000001cf-   3382   2025   2026   2368   2370 
                                                    2380   2382   2411   2413 
CL5                              000001d0-   3383   2277   2279   2358   2359 
                                                    2367   2400   2401 
CL6                              000001d1-   3384   2274   2275 
CL7                              000001d2-   3385   2294   2295   2317   2318 
CL8                              000001d3-   3386   2325   2326 
CL9                              000001d4-   3387   2336   2337   2348   2349 
FP                               0000000b       7 
L101                             0000026f+   2824   2529   2679   2713   2775 
L105                             000002a2+   2946   3283 
L106                             000002a4+   2954   3083 
L109                             000002cf+   3024   3018 
L111                             000002d5+   3045   3031 
L112                             000002f6+   3085   3008   3043 
L115                             00000304+   3129   3115 
L117                             0000032f+   3196   3182 
L118                             00000333+   3206   3225 
L119                             00000340+   3227   3204 
L120                             0000036d+   3285   2944   3093   3127   3194 
L13                              0000006c+   1003   1066 
L15                              0000007b+   1036   1027 
L16                              0000008c+   1068   1001 
L18                              0000009d+   1105   1091 
L19                              000000a2+   1115   1103 
L2                               0000000a+    770    834 
L24                              000000ed+   1279   1265 
L26                              000000f7+   1310   1296 
L27                              000000fb+   1320   1358 
L29                              00000107+   1352   1338 
L32                              0000010d+   1367   1277   1308   1318   1350 
                                                    1364 
L37                              00000167+   1547   1533 
L39                              00000171+   1578   1564 
L4                               00000013+    791    777 
L40                              00000178+   1591   1611 
L41                              00000186+   1613   1589 
L43                              0000018e+   1633   1545   1576   1630 
L48                              00000036'   1817   1803 
L5                               00000018+    801    789 
L50                              00000040'   1847   1833 
L51                              00000044'   1857   1895 
L53                              00000050'   1889   1875 
L56                              00000056'   1904   1815   1845   1855   1887 
                                                    1901 
L6                               00000030+    836    768 
L61                              00000091'   2047   2031 
L63                              000000bd'   2121   2107 
TMS320C3x/4x COFF AssemblerVersion 5.12     Wed Feb 02 11:35:25 2022
Copyright (c) 1987-1999 Texas Instruments Incorporatedasm30.exe -@_C48.AAB 

Y:\workspace_eea\V615\APP\SOURCE\ASM\i2c.asm                         PAGE   67

LABEL                            VALUE       DEFN    REF

L64                              000000c3'   2137   2171 
L66                              000000ca'   2154   2146 
L69                              000000d6'   2180   2119   2135   2177 
L70                              000000f8'   2227   2042 
L74                              00000018+   2312   2288 
L76                              00000027+   2343   2329 
L77                              0000002c+   2353   2341 
L79                              0000004f+   2417   2394 
L8                               00000049+    893    882 
L80                              00000051+   2428   2307 
L83                              000001bf+   2499   2513 
L84                              000001c8+   2515   2497 
L85                              000001ce+   2531   2822 
L86                              000001d0+   2539   2669 
L89                              000001fb+   2610   2603 
L9                               0000004b+    900    891 
L91                              00000201+   2631   2617 
L92                              00000222+   2671   2593   2629 
L95                              00000230+   2715   2701 
L96                              00000234+   2725   2765 
L98                              00000242+   2759   2745 
L99                              00000247+   2767   2723   2757 
_DIAGNOSTICS                     REF                3402   3411 
_I2C_RX_BYTE                     0000005c+    956    943    944    944   3396 
_I2C_TX_BYTE                     00000000+    734    721    722    722   3395 
_LCD                             0000000b-   3353   3352   3354   3354 
_LCD_CNT                         00000000-   3345   3344   3346   3346 
_LCD_DIPSW                       000001cb-   3373   3372   3374   3374 
_LCD_DISPLAY                     00000037-   3369   3368   3370   3370 
_LCD_PRESENT                     00000036-   3365   3364   3366   3366 
_MB_LCD_DISPLAY                  0000000e-   3361   3360   3362   3362 
_RTC                             00000001-   3349   3348   3350   3350   3398 
                                                    3401   3403   3404 
_RTC_PRESENT                     0000000d-   3357   3356   3358   3358   3400 
_RTC_setup                       00000000+   2254   2241   2242   2242 
_Read_DS1340                     0000007c'   1977   1964   1965   1965   3399 
_Read_I2C                        00000132+   1435   1422   1423   1423 
_Read_MC24C02_Record             00000295+   2897   2884   2885   2885 
_Write_DS1340                    00000000'   1701   1688   1689   1689   3397 
_Write_I2C                       000000b9+   1169   1156   1157   1157 
_Write_MC24C02_Record            000001b3+   2455   2442   2443   2443 
TMS320C3x/4x COFF AssemblerVersion 5.12     Wed Feb 02 11:35:25 2022
Copyright (c) 1987-1999 Texas Instruments Incorporatedasm30.exe -@_C48.AAB 

Y:\workspace_eea\V615\APP\SOURCE\ASM\i2c.asm                         PAGE   68

LABEL                            VALUE       DEFN    REF

fp                               0000000b       6   1729   1730   1731   1743 
                                                    1787   1797   1810   1823 
                                                    1827   1840   1853   1854 
                                                    1863   1864   1869   1882 
                                                    1892   1893   1894   1950 
                                                    1953   1954   1954   1996 
                                                    1997   2006   2007   2008 
                                                    2020   2091   2101   2114 
                                                    2127   2133   2134   2143 
                                                    2144   2153   2159   2161 
                                                    2162   2168   2169   2170 
                                                    2226   2230   2231   2231 
                                                    2261   2262   2282   2310 
                                                    2431   2432   2432   2471 
                                                    2472   2481   2482   2494 
                                                    2504   2505   2510   2511 
                                                    2521   2527   2538   2583 
                                                    2586   2601   2602   2615 
                                                    2624   2677   2689   2695 
                                                    2708   2721   2730   2733 
                                                    2734   2739   2752   2762 
                                                    2763   2773   2819   2820 
                                                    2870   2873   2874   2874 
                                                    2913   2914   2923   2924 
                                                    2936   2942   2953   2998 
                                                    3001   3016   3017   3029 
                                                    3038   3091   3103   3109 
                                                    3122   3173   3176   3189 
                                                    3202   3211   3214   3216 
                                                    3222   3223   3233   3236 
                                                    3238   3280   3281   3331 
                                                    3334   3335   3335 
