TMS320C3x/4x COFF AssemblerVersion 5.12     Wed Jul 24 11:03:43 2019
Copyright (c) 1987-1999 Texas Instruments Incorporatedasm30.exe -@_DJO.AAB 

G:\workspace\EEA\V615\APP\SOURCE\ASM\isr.asm                         PAGE    1

        1                   ;******************************************************************************
        2                   ;* TMS320C3x/4x ANSI C Code Generator                            Version 5.11 *
        3                   ;* Date/Time created: Wed Jul 24 11:03:44 2019                                *
        4                   ;******************************************************************************
        5                           .regalias       ; enable floating point register aliases
        6          0000000b fp      .set    ar3
        7          0000000b FP      .set    ar3
        8                   ;******************************************************************************
        9                   ;* GLOBAL FILE PARAMETERS                                                     *
       10                   ;*                                                                            *
       11                   ;*   Optimization       : Always Choose Smaller Code Size                     *
       12                   ;*   Memory             : Big Memory Model                                    *
       13                   ;*   Float-to-Int       : Normal Conversions (round toward zero)              *
       14                   ;*   Multiply           : in Software (32 bits)                               *
       15                   ;*   Memory Info        : Unmapped Memory Exists                              *
       16                   ;*   Repeat Loops       : Use RPTS and/or RPTB                                *
       17                   ;*   Calls              : Normal Library ASM calls                            *
       18                   ;*   Debug Info         : Standard TI Debug Information                       *
       19                   ;******************************************************************************
       20                   ;       C:\tic3x4x\c3x4x\cgtools\bin\ac30.exe -@_DJO.AAA 
       21                           .file   "isr.c"
       22                           .file   "G:\workspace\EEA\V615\APP\SOURCE\INCLUDE\GLBLS.H"
       23                           .file   "G:\workspace\EEA\V615\INCLUDE\stdarg.h"
       24                           .sym    _va_list,0,18,13,32
       25                           .file   "G:\workspace\EEA\V615\INCLUDE\format.h"
       26                           .stag   .fake0,128
       27                           .member _flags,0,14,8,32
       28                           .member _fwidth,32,4,8,32
       29                           .member _precision,64,4,8,32
       30                           .member _conv,96,2,8,32
       31                           .eos
       32                           .sym    __PFIELD,0,8,13,128,.fake0
       33                           .stag   .fake1,3200
       34                           .member _flags,0,14,8,32
       35                           .member _fwidth,32,4,8,32
       36                           .member _precision,64,4,8,32
       37                           .member _scanset,96,50,8,3072,,96
       38                           .member _conv,3168,2,8,32
       39                           .eos
       40                           .sym    __SFIELD,0,8,13,3200,.fake1
       41                           .file   "G:\workspace\EEA\V615\INCLUDE\string.h"
       42                           .sym    _size_t,0,14,13,32
       43                           .file   "G:\workspace\EEA\V615\INCLUDE\stdio.h"
       44                           .stag   .fake2,224
       45                           .member _fd,0,4,8,32
       46                           .member _buf,32,28,8,32
       47                           .member _pos,64,28,8,32
       48                           .member _bufend,96,28,8,32
       49                           .member _buff_stop,128,28,8,32
       50                           .member _flags,160,14,8,32
       51                           .member _index,192,4,8,32
       52                           .eos
       53                           .sym    _FILE,0,8,13,224,.fake2
       54                           .sym    _fpos_t,0,5,13,32
TMS320C3x/4x COFF AssemblerVersion 5.12     Wed Jul 24 11:03:43 2019
Copyright (c) 1987-1999 Texas Instruments Incorporatedasm30.exe -@_DJO.AAB 

G:\workspace\EEA\V615\APP\SOURCE\ASM\isr.asm                         PAGE    2

       55                           .stag   .fake3,544
       56                           .member _name,0,50,8,288,,9
       57                           .member _flags,288,13,8,32
       58                           .member _OPEN,320,148,8,32
       59                           .member _CLOSE,352,148,8,32
       60                           .member _READ,384,148,8,32
       61                           .member _WRITE,416,148,8,32
       62                           .member _LSEEK,448,149,8,32
       63                           .member _UNLINK,480,148,8,32
       64                           .member _RENAME,512,148,8,32
       65                           .eos
       66                           .sym    __DEVICE,0,8,13,544,.fake3
       67                           .file   "G:\workspace\EEA\V615\INCLUDE\stdlib.h"
       68                           .sym    _wchar_t,0,2,13,32
       69                           .stag   __div_t,64
       70                           .member _quot,0,4,8,32
       71                           .member _rem,32,4,8,32
       72                           .eos
       73                           .sym    _div_t,0,8,13,64,__div_t
       74                           .sym    _ldiv_t,0,8,13,64,__div_t
       75                           .file   "G:\workspace\EEA\V615\INCLUDE\math.h"
       76                           .file   "G:\workspace\EEA\V615\INCLUDE\time.h"
       77                           .sym    _clock_t,0,15,13,32
       78                           .sym    _time_t,0,15,13,32
       79                           .stag   _tm,288
       80                           .member _tm_sec,0,4,8,32
       81                           .member _tm_min,32,4,8,32
       82                           .member _tm_hour,64,4,8,32
       83                           .member _tm_mday,96,4,8,32
       84                           .member _tm_mon,128,4,8,32
       85                           .member _tm_year,160,4,8,32
       86                           .member _tm_wday,192,4,8,32
       87                           .member _tm_yday,224,4,8,32
       88                           .member _tm_isdst,256,4,8,32
       89                           .eos
       90                           .stag   _tmzone,320
       91                           .member _daylight,0,3,8,32
       92                           .member _timezone,32,5,8,32
       93                           .member _tzname,64,50,8,128,,4
       94                           .member _dstname,192,50,8,128,,4
       95                           .eos
       96                           .file   "G:\workspace\EEA\V615\INCLUDE\ETC.H"
       97                           .sym    _BOOL,0,14,13,32
       98                           .file   "G:\workspace\EEA\V615\INCLUDE\LIST.H"
       99                           .stag   .fake4,96
      100                           .member _head,0,20,8,32
      101                           .member _tail,32,20,8,32
      102                           .member _n,64,4,8,32
      103                           .eos
      104                           .sym    _LIST,0,8,13,96,.fake4
      105                           .stag   .fake5,64
      106                           .member _prev,0,20,8,32
      107                           .member _next,32,20,8,32
      108                           .eos
TMS320C3x/4x COFF AssemblerVersion 5.12     Wed Jul 24 11:03:43 2019
Copyright (c) 1987-1999 Texas Instruments Incorporatedasm30.exe -@_DJO.AAB 

G:\workspace\EEA\V615\APP\SOURCE\ASM\isr.asm                         PAGE    3

      109                           .sym    _GENERIC,0,8,13,64,.fake5
      110                           .file   "G:\workspace\EEA\V615\APP\SOURCE\INCLUDE\VARIABLE.H"
      111                           .stag   .fake6,1408
      112                           .member _val,0,6,8,32
      113                           .member _vect1,32,20,8,32
      114                           .member _vect2,64,20,8,32
      115                           .member _STAT,96,4,8,32
      116                           .member _dampening,128,6,8,32
      117                           .member _damp_count,160,4,8,32
      118                           .member _aux,192,4,8,32
      119                           .member _val1,224,6,8,32
      120                           .member _val2,256,6,8,32
      121                           .member _calc_val,288,11,8,64
      122                           .member _base_val,352,11,8,64
      123                           .member _unit,416,4,8,32
      124                           .member _calc_unit,448,4,8,32
      125                           .member _class,480,4,8,32
      126                           .member _scale,512,6,8,32
      127                           .member _scale_long,544,6,8,32
      128                           .member _bound_hi_set,576,6,8,32
      129                           .member _bound_lo_set,608,6,8,32
      130                           .member _alarm_hi_set,640,6,8,32
      131                           .member _alarm_lo_set,672,6,8,32
      132                           .member _name,704,50,8,672,,21
      133                           .member _name_r,1376,4,8,32
      134                           .eos
      135                           .sym    _VAR,0,8,13,1408,.fake6
      136                           .stag   .fake7,96
      137                           .member _val,0,14,8,32
      138                           .member _vect,32,20,8,32
      139                           .member _vect2,64,20,8,32
      140                           .eos
      141                           .sym    _COIL,0,8,13,96,.fake7
      142                           .stag   .fake8,64
      143                           .member _val,0,4,8,32
      144                           .member _vect,32,20,8,32
      145                           .eos
      146                           .sym    _REGVECT,0,8,13,64,.fake8
      147                           .stag   .fake9,96
      148                           .member _prev,0,20,8,32
      149                           .member _next,32,20,8,32
      150                           .member _v,64,24,8,32,.fake6
      151                           .eos
      152                           .sym    _DPKT,0,8,13,96,.fake9
      153                           .file   "G:\workspace\EEA\V615\APP\SOURCE\INCLUDE\BUFFER.H"
      154                           .stag   .fake10,9824
      155                           .member _head,0,4,8,32
      156                           .member _tail,32,4,8,32
      157                           .member _n,64,4,8,32
      158                           .member _GSEED,96,14,8,32
      159                           .member _CRC16,128,14,8,32
      160                           .member _buff,160,62,8,9600,,300
      161                           .member _sum,9760,4,8,32
      162                           .member _locked,9792,14,8,32
TMS320C3x/4x COFF AssemblerVersion 5.12     Wed Jul 24 11:03:43 2019
Copyright (c) 1987-1999 Texas Instruments Incorporatedasm30.exe -@_DJO.AAB 

G:\workspace\EEA\V615\APP\SOURCE\ASM\isr.asm                         PAGE    4

      163                           .eos
      164                           .sym    _BFR,0,8,13,9824,.fake10
      165                           .file   "G:\workspace\EEA\V615\INCLUDE\UNITS.H"
      166                           .file   "G:\workspace\EEA\V615\APP\SOURCE\INCLUDE\TIMER.H"
      167                           .stag   .fake11,320
      168                           .member _prev,0,20,8,32
      169                           .member _next,32,20,8,32
      170                           .member _vect,64,20,8,32
      171                           .member _priority,96,4,8,32
      172                           .member _parent,128,20,8,32
      173                           .member _n,160,4,8,32
      174                           .member _prev_n,192,4,8,32
      175                           .member _countdown,224,4,8,32
      176                           .member _preset_time,256,4,8,32
      177                           .member _t,288,6,8,32
      178                           .eos
      179                           .sym    _TPKT,0,8,13,320,.fake11
      180                           .file   "G:\workspace\EEA\V615\INCLUDE\I2C.H"
      181                           .file   "G:\workspace\EEA\V615\APP\SOURCE\INCLUDE\ERRORS.H"
      182                           .file   "G:\workspace\EEA\V615\APP\SOURCE\INCLUDE\SERIAL.H"
      183                           .stag   .fake12,2272
      184                           .member _Slave,0,4,8,32
      185                           .member _SNUM,32,4,8,32
      186                           .member _PRESENT,64,14,8,32
      187                           .member _TX_complete,96,14,8,32
      188                           .member _RX_pending,128,14,8,32
      189                           .member _BUSY,160,14,8,32
      190                           .member _IGNORE_RX,192,14,8,32
      191                           .member _STAT,224,12,8,32
      192                           .member _DAT,256,12,8,32
      193                           .member _broadcast,288,14,8,32
      194                           .member _TMR_Network_WDOG,320,4,8,32
      195                           .member _TMR_EOT_Delay,352,4,8,32
      196                           .member _TMR_Prefix_Delay,384,4,8,32
      197                           .member _TMR_Suffix_Delay,416,4,8,32
      198                           .member _TMR_Char,448,4,8,32
      199                           .member _TMR_Poll,480,8,8,320,.fake11
      200                           .member _TMR_Retry,800,8,8,320,.fake11
      201                           .member _nr,1120,4,8,32
      202                           .member _Received_PKT,1152,14,8,32
      203                           .member _TMR_enabled,1184,14,8,32
      204                           .member _tvector,1216,20,8,32
      205                           .member _pvector,1248,20,8,32
      206                           .member _pvector_main,1280,20,8,32
      207                           .member _tvector_main,1312,20,8,32
      208                           .member _fvector,1344,20,8,32
      209                           .member _actual_baud_rate,1376,6,8,32
      210                           .member _c,1408,14,8,32
      211                           .member _r,1440,14,8,32
      212                           .member _n,1472,4,8,32
      213                           .member _n_exp,1504,4,8,32
      214                           .member _ai,1536,4,8,32
      215                           .member _start,1568,4,8,32
      216                           .member _i,1600,4,8,32
TMS320C3x/4x COFF AssemblerVersion 5.12     Wed Jul 24 11:03:43 2019
Copyright (c) 1987-1999 Texas Instruments Incorporatedasm30.exe -@_DJO.AAB 

G:\workspace\EEA\V615\APP\SOURCE\ASM\isr.asm                         PAGE    5

      217                           .member _i_main,1632,4,8,32
      218                           .member _func,1664,14,8,32
      219                           .member _ERROR_COUNT,1696,14,8,32
      220                           .member _WDOG_COUNT,1728,14,8,32
      221                           .member _INV_CMD_COUNT,1760,14,8,32
      222                           .member _INV_PKT_COUNT,1792,14,8,32
      223                           .member _SUCCESS,1824,14,8,32
      224                           .member _NUM_RETRIES,1856,14,8,32
      225                           .member _FLAG1,1888,14,8,32
      226                           .member _FLAG2,1920,14,8,32
      227                           .member _FLAG3,1952,14,8,32
      228                           .member _LONG_ADDRESS,1984,14,8,32
      229                           .member _MASTER,2016,8,8,96,.fake4
      230                           .member _p,2112,20,8,32
      231                           .member _data,2144,14,8,32
      232                           .member _f,2176,22,8,32
      233                           .member _l,2208,30,8,32
      234                           .member _failed,2240,14,8,32
      235                           .eos
      236                           .sym    _PORTV,0,8,13,2272,.fake12
      237                           .stag   .fake13,11488
      238                           .member _PREFIX,0,8,8,1408,.fake6
      239                           .member _SUFFIX,1408,8,8,1408,.fake6
      240                           .member _NETWDOG,2816,8,8,1408,.fake6
      241                           .member _Slave_ID,4224,8,8,1408,.fake6
      242                           .member _Baud_Rate,5632,8,8,1408,.fake6
      243                           .member _Parity,7040,4,8,32
      244                           .member _n_bits,7072,4,8,32
      245                           .member _STP,7104,4,8,32
      246                           .member _N,7136,4,8,32
      247                           .member _N_retry,7168,4,8,32
      248                           .member _EOT_Delay,7200,8,8,1408,.fake6
      249                           .member _Retry_Time,8608,8,8,1408,.fake6
      250                           .member _Num_Retry,10016,8,8,1408,.fake6
      251                           .member _poll_time,11424,4,8,32
      252                           .member _timeout,11456,4,8,32
      253                           .eos
      254                           .sym    _PORTC,0,8,13,11488,.fake13
      255                           .stag   .fake14,672
      256                           .member _prev,0,20,8,32
      257                           .member _next,32,20,8,32
      258                           .member _rxvect,64,20,8,32
      259                           .member _txvect,96,20,8,32
      260                           .member _n,128,4,8,32
      261                           .member _slave,160,4,8,32
      262                           .member _func,192,4,8,32
      263                           .member _addr,224,4,8,32
      264                           .member _num,256,4,8,32
      265                           .member _v,288,54,8,320,,10
      266                           .member _flt_ptr,608,22,8,32
      267                           .member _int_ptr,640,20,8,32
      268                           .eos
      269                           .sym    _MPKT,0,8,13,672,.fake14
      270                           .file   "G:\workspace\EEA\V615\APP\SOURCE\INCLUDE\ADC.H"
TMS320C3x/4x COFF AssemblerVersion 5.12     Wed Jul 24 11:03:43 2019
Copyright (c) 1987-1999 Texas Instruments Incorporatedasm30.exe -@_DJO.AAB 

G:\workspace\EEA\V615\APP\SOURCE\ASM\isr.asm                         PAGE    6

      271                           .stag   .fake15,10176
      272                           .member _CURRENT,0,8,8,1408,.fake6
      273                           .member _CURRENT_PERCENT_OF_RANGE,1408,8,8,1408,.fake6
      274                           .member _LRV,2816,8,8,1408,.fake6
      275                           .member _URV,4224,8,8,1408,.fake6
      276                           .member _TRIM_MIN,5632,8,8,1408,.fake6
      277                           .member _TRIM_MAX,7040,8,8,1408,.fake6
      278                           .member _VALUE,8448,8,8,1408,.fake6
      279                           .member _TRIM_MIN_C,9856,6,8,32
      280                           .member _TRIM_MAX_C,9888,6,8,32
      281                           .member _v,9920,8,8,64,.fake8
      282                           .member _class,9984,8,8,64,.fake8
      283                           .member _unit,10048,8,8,64,.fake8
      284                           .member _present,10112,14,8,32
      285                           .member _val,10144,6,8,32
      286                           .eos
      287                           .sym    _LOOPDATA_I,0,8,13,10176,.fake15
      288                           .file   "G:\workspace\EEA\V615\APP\SOURCE\INCLUDE\DAC.H"
      289                           .stag   .fake16,13408
      290                           .member _CURRENT,0,8,8,1408,.fake6
      291                           .member _CURRENT_PERCENT_OF_RANGE,1408,8,8,1408,.fake6
      292                           .member _LRV,2816,8,8,1408,.fake6
      293                           .member _URV,4224,8,8,1408,.fake6
      294                           .member _TRIM_MIN,5632,8,8,1408,.fake6
      295                           .member _TRIM_MAX,7040,8,8,1408,.fake6
      296                           .member _TRIM_MIN_C,8448,6,8,32
      297                           .member _TRIM_MAX_C,8480,6,8,32
      298                           .member _ALARM_SELECT,8512,4,8,32
      299                           .member _MINSPAN,8544,6,8,32
      300                           .member _v,8576,8,8,64,.fake8
      301                           .member _class,8640,8,8,64,.fake8
      302                           .member _unit,8704,8,8,64,.fake8
      303                           .member _MANUAL,8768,4,8,32
      304                           .member _MANUAL_PERCENT,8800,6,8,32
      305                           .member _REVERSE,8832,4,8,32
      306                           .member _PID_input,8864,6,8,32
      307                           .member _PID_setpoint,8896,6,8,32
      308                           .member _P,8928,8,8,1408,.fake6
      309                           .member _I,10336,8,8,1408,.fake6
      310                           .member _D,11744,8,8,1408,.fake6
      311                           .member _pid_lastcycle,13152,4,8,32
      312                           .member _pid_output,13184,6,8,32
      313                           .member _pid_propband,13216,6,8,32
      314                           .member _pid_error,13248,6,8,32
      315                           .member _pid_bias,13280,6,8,32
      316                           .member _present,13312,14,8,32
      317                           .member _PID_fail,13344,14,8,32
      318                           .member _PID_enable_failsafe,13376,14,8,32
      319                           .eos
      320                           .sym    _LOOPDATA_O,0,8,13,13408,.fake16
      321                           .file   "G:\workspace\EEA\V615\APP\SOURCE\INCLUDE\EXECUTE.H"
      322                           .stag   .fake17,128
      323                           .member _prev,0,20,8,32
      324                           .member _next,32,20,8,32
TMS320C3x/4x COFF AssemblerVersion 5.12     Wed Jul 24 11:03:43 2019
Copyright (c) 1987-1999 Texas Instruments Incorporatedasm30.exe -@_DJO.AAB 

G:\workspace\EEA\V615\APP\SOURCE\ASM\isr.asm                         PAGE    7

      325                           .member _vect,64,20,8,32
      326                           .member _priority,96,4,8,32
      327                           .eos
      328                           .sym    _EPKT,0,8,13,128,.fake17
      329                           .file   "G:\workspace\EEA\V615\INCLUDE\FLASH.H"
      330                           .file   "G:\workspace\EEA\V615\APP\SOURCE\INCLUDE\LOG.H"
      331                           .stag   .fake18,384
      332                           .member _log_len,0,14,8,32
      333                           .member _log_n_sectors,32,14,8,32
      334                           .member _log_n_max_per_sector,64,14,8,32
      335                           .member _log_n,96,14,8,32
      336                           .member _log_current_sector,128,14,8,32
      337                           .member _log_absolute_index,160,14,8,32
      338                           .member _log_start,192,30,8,32
      339                           .member _log_sector_size,224,14,8,32
      340                           .member _log_record_size,256,14,8,32
      341                           .member _log_end,288,14,8,32
      342                           .member _LOG_ERASE,320,14,8,32
      343                           .member _erased_sector,352,14,8,32
      344                           .eos
      345                           .sym    _LOG,0,8,13,384,.fake18
      346                           .file   "G:\workspace\EEA\V615\APP\SOURCE\INCLUDE\DEMO.H"
      347                           .file   "G:\workspace\EEA\V615\APP\SOURCE\INCLUDE\SELFTEST.H"
      348                           .file   "G:\workspace\EEA\V615\APP\SOURCE\INCLUDE\MENU.H"
      349                           .stag   .fake19,16288
      350                           .member _INIT,0,14,8,32
      351                           .member _FRESH,32,14,8,32
      352                           .member _MENU,64,14,8,32
      353                           .member _SELECT,96,14,8,32
      354                           .member _VALUE,128,14,8,32
      355                           .member _ENTER,160,14,8,32
      356                           .member _DIR,192,4,8,32
      357                           .member _DIR_CHANGE,224,14,8,32
      358                           .member _M,256,14,8,32
      359                           .member _S,288,14,8,32
      360                           .member _V,320,14,8,32
      361                           .member _E,352,14,8,32
      362                           .member _CURSOR_ENABLED,384,14,8,32
      363                           .member _CURSOR_ROW,416,4,8,32
      364                           .member _CURSOR_COL,448,4,8,32
      365                           .member _CNT,480,14,8,32
      366                           .member _MENU_CNT,512,14,8,32
      367                           .member _SELECT_CNT,544,14,8,32
      368                           .member _VALUE_CNT,576,14,8,32
      369                           .member _k,608,14,8,32
      370                           .member _MODE_LOCKDOWN,640,14,8,32
      371                           .member _MODE_WPROT,672,14,8,32
      372                           .member _MODE_DEFINE,704,14,8,32
      373                           .member _MODE_USER,736,14,8,32
      374                           .member _MODE_TECH,768,14,8,32
      375                           .member _MODE_NORMAL,800,14,8,32
      376                           .member _menu_list_top,832,14,8,32
      377                           .member _menu_list_operations,864,14,8,32
      378                           .member _menu_list_configurations,896,14,8,32
TMS320C3x/4x COFF AssemblerVersion 5.12     Wed Jul 24 11:03:43 2019
Copyright (c) 1987-1999 Texas Instruments Incorporatedasm30.exe -@_DJO.AAB 

G:\workspace\EEA\V615\APP\SOURCE\ASM\isr.asm                         PAGE    8

      379                           .member _menu_list_security_info,928,14,8,32
      380                           .member _menu_list_measurements,960,14,8,32
      381                           .member _menu_list_changed,992,14,8,32
      382                           .member _PAGE,1024,14,8,32
      383                           .member _SUBPAGE,1056,14,8,32
      384                           .member _MENU_TRAP,1088,14,8,32
      385                           .member _DIP,1120,62,8,128,,4
      386                           .member _tmpf,1248,54,8,320,,10
      387                           .member _tmpi,1568,52,8,320,,10
      388                           .member _str,1888,242,8,12928,,4,101
      389                           .member _tmpv,14816,8,8,1408,.fake6
      390                           .member _ptmpv,16224,24,8,32,.fake6
      391                           .member _tbl,16256,20,8,32
      392                           .eos
      393                           .sym    _MENU_STRUCT,0,8,13,16288,.fake19
      394                           .file   "G:\workspace\EEA\V615\APP\SOURCE\INCLUDE\FLOAT1.H"
      395                           .file   "G:\workspace\EEA\V615\APP\SOURCE\INCLUDE\GLBLS.H"
      396                           .stag   .fake20,480
      397                           .member _i,0,4,8,32
      398                           .member _Watercut,32,6,8,32
      399                           .member _Temperature,64,6,8,32
      400                           .member _Salinity,96,6,8,32
      401                           .member _Frequency_Oil,128,6,8,32
      402                           .member _Frequency_Water,160,6,8,32
      403                           .member _RefPower_Oil,192,6,8,32
      404                           .member _RefPower_Water,224,6,8,32
      405                           .member _Dadj,256,6,8,32
      406                           .member _Time_HH,288,4,8,32
      407                           .member _Time_MM,320,4,8,32
      408                           .member _Time_MONTH,352,4,8,32
      409                           .member _Time_DAY,384,4,8,32
      410                           .member _Time_DAY_OF_WEEK,416,4,8,32
      411                           .member _Time_YEAR,448,4,8,32
      412                           .eos
      413                           .sym    _CAPDATA,0,8,13,480,.fake20
      414                           .stag   .fake21,640
      415                           .member _Watercut,0,54,8,64,,2
      416                           .member _Temperature,64,54,8,64,,2
      417                           .member _Salinity,128,54,8,64,,2
      418                           .member _Frequency_Oil,192,54,8,64,,2
      419                           .member _Frequency_Water,256,54,8,64,,2
      420                           .member _RefPower_Oil,320,54,8,64,,2
      421                           .member _RefPower_Water,384,54,8,64,,2
      422                           .member _Dadj,448,54,8,64,,2
      423                           .member _Time_MONTH_DAY_HH_MM,512,52,8,64,,2
      424                           .member _CLRSTAT_Time_YEAR,576,52,8,64,,2
      425                           .eos
      426                           .sym    _CAPRECORD,0,8,13,640,.fake21
      427                           .stag   .fake22,800
      428                           .member _Start_HH,0,4,8,32
      429                           .member _Start_MM,32,4,8,32
      430                           .member _Start_SS,64,4,8,32
      431                           .member _Start_MONTH,96,4,8,32
      432                           .member _Start_DAY,128,4,8,32
TMS320C3x/4x COFF AssemblerVersion 5.12     Wed Jul 24 11:03:43 2019
Copyright (c) 1987-1999 Texas Instruments Incorporatedasm30.exe -@_DJO.AAB 

G:\workspace\EEA\V615\APP\SOURCE\ASM\isr.asm                         PAGE    9

      433                           .member _Start_YEAR,160,4,8,32
      434                           .member _Stop_HH,192,4,8,32
      435                           .member _Stop_MM,224,4,8,32
      436                           .member _Stop_SS,256,4,8,32
      437                           .member _Stop_MONTH,288,4,8,32
      438                           .member _Stop_DAY,320,4,8,32
      439                           .member _Stop_YEAR,352,4,8,32
      440                           .member _stream,384,6,8,32
      441                           .member _elapsed_s,416,6,8,32
      442                           .member _duration,448,6,8,32
      443                           .member _purge,480,6,8,32
      444                           .member _gross_gas,512,6,8,32
      445                           .member _gross_oil,544,6,8,32
      446                           .member _gross_water,576,6,8,32
      447                           .member _gross_total,608,6,8,32
      448                           .member _gas24,640,6,8,32
      449                           .member _oil24,672,6,8,32
      450                           .member _water24,704,6,8,32
      451                           .member _total24,736,6,8,32
      452                           .member _watercut,768,6,8,32
      453                           .eos
      454                           .sym    _CCMRECORD,0,8,13,800,.fake22
      455                           .stag   .fake23,224
      456                           .member _SNUM,0,4,8,32
      457                           .member _ADDR,32,4,8,32
      458                           .member _BNUM,64,4,8,32
      459                           .member _REV,96,4,8,32
      460                           .member _MONTH,128,4,8,32
      461                           .member _DAY,160,4,8,32
      462                           .member _YEAR,192,4,8,32
      463                           .eos
      464                           .sym    _BOARD,0,8,13,224,.fake23
      465                           .etag   _Pulse_Input_Type,32
      466                           .member _PULSE_GAS_TEMP,1,4,16,32
      467                           .member _PULSE_SALINITY,2,4,16,32
      468                           .member _PULSE_STREAM_SELECT,3,4,16,32
      469                           .member _PULSE_USER_TEMP,4,4,16,32
      470                           .member _PULSE_FC_WC,5,4,16,32
      471                           .member _PULSE_FC_TEMP,6,4,16,32
      472                           .member _PULSE_FC_TOTAL_FLOW,7,4,16,32
      473                           .member _PULSE_FC_PRESSURE,8,4,16,32
      474                           .member _PULSE_FC_DENSITY,9,4,16,32
      475                           .member _PULSE_FC_SALINITY,10,4,16,32
      476                           .member _PULSE_FC_OIL_DENSITY,11,4,16,32
      477                           .member _PULSE_FC_OIL_DENSITY_ST,12,4,16,32
      478                           .member _PULSE_FC_WATER_DENSITY,13,4,16,32
      479                           .member _PULSE_FC_WATER_DENSITY_ST,14,4,16,32
      480                           .member _PULSE_NONE,15,4,16,32
      481                           .eos
      482                           .stag   .fake24,64
      483                           .member _freq,0,6,8,32
      484                           .member _counter,32,4,8,32
      485                           .eos
      486                           .sym    _Boxcar_Var,0,8,13,64,.fake24
TMS320C3x/4x COFF AssemblerVersion 5.12     Wed Jul 24 11:03:43 2019
Copyright (c) 1987-1999 Texas Instruments Incorporatedasm30.exe -@_DJO.AAB 

G:\workspace\EEA\V615\APP\SOURCE\ASM\isr.asm                         PAGE   10

      487                           .stag   .fake25,1088
      488                           .member _data,0,54,8,960,,30
      489                           .member _head,960,4,8,32
      490                           .member _tail,992,4,8,32
      491                           .member _length,1024,4,8,32
      492                           .member _average,1056,6,8,32
      493                           .eos
      494                           .sym    _bubble_struct,0,8,13,1088,.fake25
      495                           .stag   .fake26,3008
      496                           .member _data,0,54,8,2880,,90
      497                           .member _head,2880,4,8,32
      498                           .member _tail,2912,4,8,32
      499                           .member _length,2944,4,8,32
      500                           .member _average,2976,6,8,32
      501                           .eos
      502                           .sym    _pattern_struct,0,8,13,3008,.fake26
      503                           .stag   .fake27,320
      504                           .member _MODE,0,4,8,32
      505                           .member _STATUS_MASK,32,4,8,32
      506                           .member _v,64,8,8,64,.fake8
      507                           .member _setpoint,128,6,8,32
      508                           .member _ON,160,8,8,96,.fake7
      509                           .member _class,256,4,8,32
      510                           .member _unit,288,4,8,32
      511                           .eos
      512                           .sym    _RELAYDATA,0,8,13,320,.fake27
      513                           .stag   .fake28,12224
      514                           .member _diag,0,6,8,32
      515                           .member _mfr,32,6,8,32
      516                           .member _u_mfr,64,4,8,32
      517                           .member _density,96,6,8,32
      518                           .member _u_density,128,4,8,32
      519                           .member _density_PDI_corrected,160,6,8,32
      520                           .member _density_corrected,192,6,8,32
      521                           .member _u_density_corrected,224,4,8,32
      522                           .member _T,256,6,8,32
      523                           .member _u_T,288,4,8,32
      524                           .member _vfr,320,6,8,32
      525                           .member _u_vfr,352,4,8,32
      526                           .member _visc,384,6,8,32
      527                           .member _u_visc,416,4,8,32
      528                           .member _press,448,6,8,32
      529                           .member _mass_total,480,6,8,32
      530                           .member _u_m,512,4,8,32
      531                           .member _volume_total,544,6,8,32
      532                           .member _u_v,576,4,8,32
      533                           .member _u_P,608,4,8,32
      534                           .member _P,640,6,8,32
      535                           .member _mass_inv,672,6,8,32
      536                           .member _volume_inv,704,6,8,32
      537                           .member _raw_tube_freq,736,6,8,32
      538                           .member _left_pickup_value,768,6,8,32
      539                           .member _right_pickup_value,800,6,8,32
      540                           .member _drive_gain,832,6,8,32
TMS320C3x/4x COFF AssemblerVersion 5.12     Wed Jul 24 11:03:43 2019
Copyright (c) 1987-1999 Texas Instruments Incorporatedasm30.exe -@_DJO.AAB 

G:\workspace\EEA\V615\APP\SOURCE\ASM\isr.asm                         PAGE   11

      541                           .member _damp_flow_rate,864,8,8,1408,.fake6
      542                           .member _damp_density,2272,8,8,1408,.fake6
      543                           .member _mfr_cutoff,3680,8,8,1408,.fake6
      544                           .member _vfr_cutoff,5088,8,8,1408,.fake6
      545                           .member _mcf,6496,8,8,1408,.fake6
      546                           .member _address,7904,8,8,1408,.fake6
      547                           .member _mass_unit,9312,8,8,1408,.fake6
      548                           .member _density_cutoff,10720,8,8,1408,.fake6
      549                           .member _Z,12128,8,8,96,.fake7
      550                           .eos
      551                           .sym    _CORIOLIS,0,8,13,12224,.fake28
      552                           .stag   .fake29,288
      553                           .member _p_delta,0,6,8,32
      554                           .member _p_static,32,6,8,32
      555                           .member _T,64,6,8,32
      556                           .member _diag0,96,6,8,32
      557                           .member _diag1,128,6,8,32
      558                           .member _diag2,160,6,8,32
      559                           .member _u_DP,192,4,8,32
      560                           .member _u_SP,224,4,8,32
      561                           .member _u_PT,256,4,8,32
      562                           .eos
      563                           .sym    _PRESSURE,0,8,13,288,.fake29
      564                           .stag   .fake30,192
      565                           .member _T,0,6,8,32
      566                           .member _etc0,32,6,8,32
      567                           .member _etc1,64,6,8,32
      568                           .member _etc2,96,6,8,32
      569                           .member _etc3,128,6,8,32
      570                           .member _etc4,160,6,8,32
      571                           .eos
      572                           .sym    _TMPT,0,8,13,192,.fake30
      573                           .stag   .fake31,42752
      574                           .member _watercut,0,8,8,1408,.fake6
      575                           .member _T,1408,8,8,1408,.fake6
      576                           .member _pressure,2816,8,8,1408,.fake6
      577                           .member _density,4224,8,8,1408,.fake6
      578                           .member _density_PDI_corrected,5632,6,8,32
      579                           .member _density_adj,5664,6,8,32
      580                           .member _density_oilST,5696,8,8,1408,.fake6
      581                           .member _density_oil,7104,8,8,1408,.fake6
      582                           .member _density_waterST,8512,8,8,1408,.fake6
      583                           .member _density_water,9920,8,8,1408,.fake6
      584                           .member _salinity,11328,8,8,1408,.fake6
      585                           .member _API_TABLE,12736,4,8,32
      586                           .member _a,12768,6,8,32
      587                           .member _Meter_Factor,12800,8,8,1408,.fake6
      588                           .member _Shrinkage,14208,8,8,1408,.fake6
      589                           .member _VCFo,15616,6,8,32
      590                           .member _VCFw,15648,6,8,32
      591                           .member _net_watercut,15680,6,8,32
      592                           .member _net_watercut_mass,15712,6,8,32
      593                           .member _Dadj,15744,6,8,32
      594                           .member _NET_FLOW_OIL,15776,8,8,1408,.fake6
TMS320C3x/4x COFF AssemblerVersion 5.12     Wed Jul 24 11:03:43 2019
Copyright (c) 1987-1999 Texas Instruments Incorporatedasm30.exe -@_DJO.AAB 

G:\workspace\EEA\V615\APP\SOURCE\ASM\isr.asm                         PAGE   12

      595                           .member _NET_FLOW_WATER,17184,8,8,1408,.fake6
      596                           .member _NET_FLOW_TOTAL,18592,8,8,1408,.fake6
      597                           .member _NET_OIL,20000,8,8,1408,.fake6
      598                           .member _NET_WATER,21408,8,8,1408,.fake6
      599                           .member _NET_TOTAL,22816,8,8,1408,.fake6
      600                           .member _AVG_NET_TOTAL,24224,8,8,1408,.fake6
      601                           .member _GROSS_OIL,25632,8,8,1408,.fake6
      602                           .member _gross_oil_whole_part,27040,11,8,64
      603                           .member _gross_oil_fract_part,27104,11,8,64
      604                           .member _GROSS_WATER,27168,8,8,1408,.fake6
      605                           .member _gross_water_whole_part,28576,11,8,64
      606                           .member _gross_water_fract_part,28640,11,8,64
      607                           .member _GROSS_TOTAL,28704,8,8,1408,.fake6
      608                           .member _AVG_GROSS_TOTAL,30112,8,8,1408,.fake6
      609                           .member _FLOW_OIL,31520,8,8,1408,.fake6
      610                           .member _FLOW_WATER,32928,8,8,1408,.fake6
      611                           .member _FLOW_TOTAL,34336,8,8,1408,.fake6
      612                           .member _PULSES_PER_ACCUM_UNIT,35744,14,8,32
      613                           .member _PULSE_TOTAL,35776,8,8,1408,.fake6
      614                           .member _PULSE_FLOW,37184,8,8,1408,.fake6
      615                           .member _PULSE_FREQ,38592,8,8,1408,.fake6
      616                           .member _PULSE_COUNTER,40000,14,8,32
      617                           .member _PULSE,40032,4,8,32
      618                           .member _CNT,40064,4,8,32
      619                           .member _PULSE_DELTA,40096,4,8,32
      620                           .member _PULSE_FACTOR,40128,6,8,32
      621                           .member _PULSE_STAT,40160,4,8,32
      622                           .member _enable_NET,40192,14,8,32
      623                           .member _enable_GROSS,40224,14,8,32
      624                           .member _enable_FLOW,40256,14,8,32
      625                           .member _enable_DENSITY,40288,14,8,32
      626                           .member _enable_PULSE,40320,14,8,32
      627                           .member _flow_class,40352,8,8,64,.fake8
      628                           .member _flow_unit,40416,8,8,64,.fake8
      629                           .member _accum_unit,40480,8,8,64,.fake8
      630                           .member _Z,40544,8,8,96,.fake7
      631                           .member _use_totalizer,40640,8,8,96,.fake7
      632                           .member _pulse_v,40736,8,8,64,.fake8
      633                           .member _pulse_class,40800,8,8,64,.fake8
      634                           .member _pulse_unit,40864,8,8,64,.fake8
      635                           .member _pulse_VALUE,40928,8,8,1408,.fake6
      636                           .member _USE_PDI_TEMP,42336,14,8,32
      637                           .member _USE_PDI_SALINITY,42368,14,8,32
      638                           .member _CALC_WC_DENSITY,42400,14,8,32
      639                           .member _MAN_TEMP,42432,14,8,32
      640                           .member _MAN_SALINITY,42464,14,8,32
      641                           .member _MAN_WATERCUT,42496,14,8,32
      642                           .member _MAN_DENSITY,42528,14,8,32
      643                           .member _MAN_PRESSURE,42560,14,8,32
      644                           .member _MAN_FLOW,42592,14,8,32
      645                           .member _AUTHORIZATION_CODE1,42624,14,8,32
      646                           .member _AUTHORIZATION_CODE2,42656,14,8,32
      647                           .member _AUTHORIZATION_CODE3,42688,14,8,32
      648                           .member _AUTHORIZATION_CODE4,42720,14,8,32
TMS320C3x/4x COFF AssemblerVersion 5.12     Wed Jul 24 11:03:43 2019
Copyright (c) 1987-1999 Texas Instruments Incorporatedasm30.exe -@_DJO.AAB 

G:\workspace\EEA\V615\APP\SOURCE\ASM\isr.asm                         PAGE   13

      649                           .eos
      650                           .sym    _FLOW_COMP,0,8,13,42752,.fake31
      651                           .stag   .fake32,2176
      652                           .member _WATERCUT,0,6,8,32
      653                           .member _FLOW_RATE,32,6,8,32
      654                           .member _TEMPERATURE,64,6,8,32
      655                           .member _DENSITY,96,6,8,32
      656                           .member _VISCOSITY,128,6,8,32
      657                           .member _iWATERCUTz,160,4,8,32
      658                           .member _iWATERCUT,192,4,8,32
      659                           .member _iFLOW_RATE,224,4,8,32
      660                           .member _iTEMPERATURE,256,4,8,32
      661                           .member _iDENSITY,288,4,8,32
      662                           .member _iVISCOSITY,320,4,8,32
      663                           .member _maxWATERCUTz,352,6,8,32
      664                           .member _maxWATERCUT,384,6,8,32
      665                           .member _maxFLOW_RATE,416,6,8,32
      666                           .member _maxTEMPERATURE,448,6,8,32
      667                           .member _maxDENSITY,480,6,8,32
      668                           .member _maxVISCOSITY,512,6,8,32
      669                           .member _minWATERCUTz,544,6,8,32
      670                           .member _minWATERCUT,576,6,8,32
      671                           .member _minFLOW_RATE,608,6,8,32
      672                           .member _minTEMPERATURE,640,6,8,32
      673                           .member _minDENSITY,672,6,8,32
      674                           .member _minVISCOSITY,704,6,8,32
      675                           .member _ENABLED,736,14,8,32
      676                           .member _DESTINATION_ADDRESS,768,8,8,1408,.fake6
      677                           .eos
      678                           .sym    _ALYESKA_STRUCT,0,8,13,2176,.fake32
      679                           .stag   .fake33,2464
      680                           .member _ENABLED,0,8,8,96,.fake7
      681                           .member _flow_threshold,96,8,8,1408,.fake6
      682                           .member _S3,1504,6,8,32
      683                           .member _S2,1536,6,8,32
      684                           .member _S1,1568,6,8,32
      685                           .member _S0,1600,6,8,32
      686                           .member _Fmin,1632,6,8,32
      687                           .member _Dmin,1664,6,8,32
      688                           .member _Dmax,1696,6,8,32
      689                           .member _CHANGED,1728,14,8,32
      690                           .member _PURGING,1760,14,8,32
      691                           .member _TEST_IN_PROGRESS,1792,14,8,32
      692                           .member _SP3A,1824,6,8,32
      693                           .member _SP2A,1856,6,8,32
      694                           .member _SP1A,1888,6,8,32
      695                           .member _SP0A,1920,6,8,32
      696                           .member _SPLOA,1952,6,8,32
      697                           .member _SPHIA,1984,6,8,32
      698                           .member _SP3B,2016,6,8,32
      699                           .member _SP2B,2048,6,8,32
      700                           .member _SP1B,2080,6,8,32
      701                           .member _SP0B,2112,6,8,32
      702                           .member _SPLOB,2144,6,8,32
TMS320C3x/4x COFF AssemblerVersion 5.12     Wed Jul 24 11:03:43 2019
Copyright (c) 1987-1999 Texas Instruments Incorporatedasm30.exe -@_DJO.AAB 

G:\workspace\EEA\V615\APP\SOURCE\ASM\isr.asm                         PAGE   14

      703                           .member _SPHIB,2176,6,8,32
      704                           .member _FBHI3,2208,6,8,32
      705                           .member _FBHI2,2240,6,8,32
      706                           .member _FBHI1,2272,6,8,32
      707                           .member _FBHI0,2304,6,8,32
      708                           .member _FBLO3,2336,6,8,32
      709                           .member _FBLO2,2368,6,8,32
      710                           .member _FBLO1,2400,6,8,32
      711                           .member _FBLO0,2432,6,8,32
      712                           .eos
      713                           .sym    _HS_STRUCT,0,8,13,2464,.fake33
      714                           .file   "G:\workspace\EEA\V615\APP\SOURCE\INCLUDE\HART.H"
      715                           .file   "G:\workspace\EEA\V615\APP\SOURCE\INCLUDE\MODBUSRTU.H"
      716                           .file   "G:\workspace\EEA\V615\APP\SOURCE\INCLUDE\MISC.H"
      717                           .file   "G:\workspace\EEA\V615\APP\SOURCE\INCLUDE\API.H"
      718                           .file   "G:\workspace\EEA\V615\APP\SOURCE\INCLUDE\BRANCH.H"
      719 00000000                          .sect "branch_table"    
      720                                   .global _c_int00        
      721                                   .global _c_XINT0        
      722                                   .global _c_RINT0        
      723                                   .global _c_TINT0        
      724                                   .global _c_TINT1        
      725                                   .global _c_INT0         
      726                                   .global _c_INT1         
      727                                   .global _c_INT2         
      728                                   .global _c_INT3         
      729                                   .global _c_SPURINT      
      730                                   .global _XINT0          
      731                                   .global _RINT0          
      732                                   .global _TINT0          
      733                                   .global _TINT1          
      734                                   .global _INT0           
      735                                   .global _INT1           
      736                                   .global _INT2           
      737                                   .global _INT3           
      738 00000000 60000010+_INT0   BR _c_INT0                      
      739 00000001 60000089+_INT1   BR _c_INT1                      
      740 00000002 6000023b+_INT2   BR _c_INT2                      
      741 00000003 6000027f+_INT3   BR _c_INT3                      
      742 00000004 60000000+_XINT0  BR _c_XINT0                     
      743 00000005 60000008+_RINT0  BR _c_RINT0                     
      744 00000006 60000759+                BR _c_SPURINT           
      745 00000007 60000759+                BR _c_SPURINT           
      746 00000008 60000321+_TINT0  BR _c_TINT0                     
      747 00000009 60000751+_TINT1  BR _c_TINT1                     
      748 0000000a 60000759+_DINT   BR _c_SPURINT           
      749 0000000b 00000000                 .space  20                      
      750 0000001f          _TRAPO                                          
      751                                   .loop 28                        
      752                                   BR _c_SPURINT           
      753                                   .endloop                        
1         0000001f 60000759+                BR _c_SPURINT           
1         00000020 60000759+                BR _c_SPURINT           
1         00000021 60000759+                BR _c_SPURINT           
TMS320C3x/4x COFF AssemblerVersion 5.12     Wed Jul 24 11:03:43 2019
Copyright (c) 1987-1999 Texas Instruments Incorporatedasm30.exe -@_DJO.AAB 

G:\workspace\EEA\V615\APP\SOURCE\ASM\isr.asm                         PAGE   15

1         00000022 60000759+                BR _c_SPURINT           
1         00000023 60000759+                BR _c_SPURINT           
1         00000024 60000759+                BR _c_SPURINT           
1         00000025 60000759+                BR _c_SPURINT           
1         00000026 60000759+                BR _c_SPURINT           
1         00000027 60000759+                BR _c_SPURINT           
1         00000028 60000759+                BR _c_SPURINT           
1         00000029 60000759+                BR _c_SPURINT           
1         0000002a 60000759+                BR _c_SPURINT           
1         0000002b 60000759+                BR _c_SPURINT           
1         0000002c 60000759+                BR _c_SPURINT           
1         0000002d 60000759+                BR _c_SPURINT           
1         0000002e 60000759+                BR _c_SPURINT           
1         0000002f 60000759+                BR _c_SPURINT           
1         00000030 60000759+                BR _c_SPURINT           
1         00000031 60000759+                BR _c_SPURINT           
1         00000032 60000759+                BR _c_SPURINT           
1         00000033 60000759+                BR _c_SPURINT           
1         00000034 60000759+                BR _c_SPURINT           
1         00000035 60000759+                BR _c_SPURINT           
1         00000036 60000759+                BR _c_SPURINT           
1         00000037 60000759+                BR _c_SPURINT           
1         00000038 60000759+                BR _c_SPURINT           
1         00000039 60000759+                BR _c_SPURINT           
1         0000003a 60000759+                BR _c_SPURINT           
      754 0000003b 00000000                 .space 4                        
      755 00000000                          .sect "application_vector"      
      756 00000000 00000000!                .word _c_int00          
      757                           .file   "isr.c"
      758 00000000                  .sect    "interrupt_routines"
      759                   
      760                           .global _c_XINT0
      761                           .sym    _c_XINT0,_c_XINT0,32,2,0
      762                           .func   48
      763                   ;******************************************************************************
      764                   ;* FUNCTION NAME: _c_XINT0                                                    *
      765                   ;*                                                                            *
      766                   ;*   Architecture       : TMS320C33                                           *
      767                   ;*   Calling Convention : TI Standard Register Parameters                     *
      768                   ;*   Function Uses Regs :                                                     *
      769                   ;*   Regs Saved         :                                                     *
      770                   ;*   Stack Frame        : Full (w/ debug)                                     *
      771                   ;*   Total Frame Size   : 2 Call + 0 Parm + 0 Auto + 1 SOE = 3 words          *
      772                   ;******************************************************************************
      773 00000000          _c_XINT0:
      774                           .line   1
      775                   ;----------------------------------------------------------------------
      776                   ;  48 | void c_XINT0(void){}                                                   
      777                   ;----------------------------------------------------------------------
      778 00000000 0f350000         push      st
      779 00000001 0f2b0000         push      fp
      780 00000002 500b0014         ldiu      sp,fp
      781 00000003 0f300000         push      dp
      782                                                           ; Begin Epilog Code
TMS320C3x/4x COFF AssemblerVersion 5.12     Wed Jul 24 11:03:43 2019
Copyright (c) 1987-1999 Texas Instruments Incorporatedasm30.exe -@_DJO.AAB 

G:\workspace\EEA\V615\APP\SOURCE\ASM\isr.asm                         PAGE   16

      783                                                           ; Restore SOE Registers
      784 00000004 0e300000         pop       dp
      785                                                           ; Unallocate the Frame
      786 00000005 0e2b0000         pop       fp
      787 00000006 0e350000         pop       st
      788 00000007 78000000         reti
      789                                                                   ; Return From Interrupt
      790                           .endfunc        48,010000000h,0
      791                   
      792                   
      793 00000008                  .sect    "interrupt_routines"
      794                   
      795                           .global _c_RINT0
      796                           .sym    _c_RINT0,_c_RINT0,32,2,0
      797                           .func   64
      798                   ;******************************************************************************
      799                   ;* FUNCTION NAME: _c_RINT0                                                    *
      800                   ;*                                                                            *
      801                   ;*   Architecture       : TMS320C33                                           *
      802                   ;*   Calling Convention : TI Standard Register Parameters                     *
      803                   ;*   Function Uses Regs :                                                     *
      804                   ;*   Regs Saved         :                                                     *
      805                   ;*   Stack Frame        : Full (w/ debug)                                     *
      806                   ;*   Total Frame Size   : 2 Call + 0 Parm + 0 Auto + 1 SOE = 3 words          *
      807                   ;******************************************************************************
      808 00000008          _c_RINT0:
      809                           .line   1
      810                   ;----------------------------------------------------------------------
      811                   ;  64 | void c_RINT0(void){}                                                   
      812                   ;----------------------------------------------------------------------
      813 00000008 0f350000         push      st
      814 00000009 0f2b0000         push      fp
      815 0000000a 500b0014         ldiu      sp,fp
      816 0000000b 0f300000         push      dp
      817                                                           ; Begin Epilog Code
      818                                                           ; Restore SOE Registers
      819 0000000c 0e300000         pop       dp
      820                                                           ; Unallocate the Frame
      821 0000000d 0e2b0000         pop       fp
      822 0000000e 0e350000         pop       st
      823 0000000f 78000000         reti
      824                                                                   ; Return From Interrupt
      825                           .endfunc        64,010000000h,0
      826                   
      827                   
      828 00000010                  .sect    "interrupt_routines"
      829                   
      830                           .global _c_INT0
      831                           .sym    _c_INT0,_c_INT0,32,2,0
      832                           .func   94
      833                   ;******************************************************************************
      834                   ;* FUNCTION NAME: _c_INT0                                                     *
      835                   ;*                                                                            *
      836                   ;*   Architecture       : TMS320C33                                           *
TMS320C3x/4x COFF AssemblerVersion 5.12     Wed Jul 24 11:03:43 2019
Copyright (c) 1987-1999 Texas Instruments Incorporatedasm30.exe -@_DJO.AAB 

G:\workspace\EEA\V615\APP\SOURCE\ASM\isr.asm                         PAGE   17

      837                   ;*   Calling Convention : TI Standard Register Parameters                     *
      838                   ;*   Function Uses Regs : r0,ar0,ar2,st                                       *
      839                   ;*   Regs Saved         : f0,r0,f1,r1,f2,r2,f3,r3,f4,r4,f5,r5,f6,r6,f7,r7,ar0,*
      840                   ;*                        ar1,ar2,ir0,ir1,bk,rs,re,rc,pc                      *
      841                   ;*   Stack Frame        : Full (w/ debug)                                     *
      842                   ;*   Total Frame Size   : 2 Call + 0 Parm + 0 Auto + 26 SOE = 28 words        *
      843                   ;******************************************************************************
      844 00000010          _c_INT0:
      845                           .line   1
      846                   ;----------------------------------------------------------------------
      847                   ;  94 | void c_INT0(void)                                                      
      848                   ;----------------------------------------------------------------------
      849 00000010 0f350000         push      st
      850 00000011 0f2b0000         push      fp
      851 00000012 500b0014         ldiu      sp,fp
      852 00000013 0f300000         push      dp
      853 00000014 0f200000         push      r0
      854 00000015 0fa00000         pushf     f0
      855 00000016 0f210000         push      r1
      856 00000017 0fa10000         pushf     f1
      857 00000018 0f220000         push      r2
      858 00000019 0fa20000         pushf     f2
      859 0000001a 0f230000         push      r3
      860 0000001b 0fa30000         pushf     f3
      861 0000001c 0f280000         push      ar0
      862 0000001d 0f290000         push      ar1
      863 0000001e 0f2a0000         push      ar2
      864 0000001f 0f310000         push      ir0
      865 00000020 0f320000         push      ir1
      866 00000021 0f390000         push      rs
      867 00000022 0f3a0000         push      re
      868 00000023 0f3b0000         push      rc
      869 00000024 0f240000         push      r4
      870 00000025 0fa40000         pushf     f4
      871 00000026 0f250000         push      r5
      872 00000027 0fa50000         pushf     f5
      873 00000028 0f260000         push      r6
      874 00000029 0fa60000         pushf     f6
      875 0000002a 0f270000         push      r7
      876 0000002b 0fa70000         pushf     f7
      877 0000002c 0f330000         push      bk
      878 0000002d 03750100         andn      256,st                ; Disable any existing repeat loops
      879                           .line   3
      880                   ;----------------------------------------------------------------------
      881                   ;  96 | DISABLE_EXTINT0;                                                       
      882                   ;----------------------------------------------------------------------
      883 0000002e 0f350000         push    ST                      
      884 0000002f 03752000         andn    2000h, ST       
      885 00000030 08700000-        ldp       @CL1,DP
      886 00000031 50280000-        ldiu      @CL1,ar0              ; |96| 
      887 00000032 506000fe         ldiu      254,r0                ; |96| 
      888 00000033 21a0c000         and3      r0,*ar0,r0            ; |96| 
      889 00000034 1540c000         sti       r0,*ar0               ; |96| 
      890 00000035 0e350000         pop             ST                      
TMS320C3x/4x COFF AssemblerVersion 5.12     Wed Jul 24 11:03:43 2019
Copyright (c) 1987-1999 Texas Instruments Incorporatedasm30.exe -@_DJO.AAB 

G:\workspace\EEA\V615\APP\SOURCE\ASM\isr.asm                         PAGE   18

      891                           .line   5
      892                   ;----------------------------------------------------------------------
      893                   ;  98 | Process_UINT(1);        /* HANDLE COM2/OIT PORT - IDEC   */            
      894                   ;----------------------------------------------------------------------
      895 00000036 08700000-        ldp       @CL2,DP
      896 00000037 50200001-        ldiu      @CL2,r0               ; |98| 
      897 00000038 506a0001         ldiu      1,ar2                 ; |98| 
      898 00000039 70000000         callu     r0                    ; far call to _Process_UINT     ; |98| 
      899                                                           ; |98| Far Call Occurs
      900                           .line   6
      901                   ;----------------------------------------------------------------------
      902                   ;  99 | Process_UINT(0);        /* HANDLE COM1 PORT             - MODBUS */    
      903                   ;----------------------------------------------------------------------
      904 0000003a 08700000-        ldp       @CL2,DP
      905 0000003b 50200001-        ldiu      @CL2,r0               ; |99| 
      906 0000003c 506a0000         ldiu      0,ar2                 ; |99| 
      907 0000003d 70000000         callu     r0                    ; far call to _Process_UINT     ; |99| 
      908                                                           ; |99| Far Call Occurs
      909                           .line   8
      910                   ;----------------------------------------------------------------------
      911                   ; 101 | if (SA)                                                                
      912                   ;----------------------------------------------------------------------
      913 0000003e 08700000-        ldp       @CL3,DP
      914 0000003f 50280002-        ldiu      @CL3,ar0              ; |101| 
      915 00000040 5040c000         ldiu      *ar0,r0               ; |101| 
      916 00000041 04e00000         cmpi      0,r0                  ; |101| 
      917 00000042 6a050009         beq       L9                    ; |101| 
      918                   ;*      Branch Occurs to L9             ; |101| 
      919                           .line   10
      920                   ;----------------------------------------------------------------------
      921                   ; 103 | ENABLE_EXTINT0;                                                        
      922                   ;----------------------------------------------------------------------
      923 00000043 0f350000         push    ST                      
      924 00000044 03752000         andn    2000h, ST       
      925 00000045 08700000-        ldp       @CL1,DP
      926 00000046 50280000-        ldiu      @CL1,ar0              ; |103| 
      927 00000047 50600001         ldiu      1,r0                  ; |103| 
      928 00000048 25a0c000         or3       r0,*ar0,r0            ; |103| 
      929 00000049 1540c000         sti       r0,*ar0               ; |103| 
      930 0000004a 0e350000         pop             ST                      
      931                           .line   12
      932                   ;----------------------------------------------------------------------
      933                   ; 105 | return;                                                                
      934                   ;----------------------------------------------------------------------
      935 0000004b 6a000020         bu        L10                   ; |105| 
      936                   ;*      Branch Occurs to L10            ; |105| 
      937 0000004c          L9:        
      938                           .line   15
      939                   ;----------------------------------------------------------------------
      940                   ; 108 | Process_UINT(6);        /* HANDLE OIT PORT                      */     
      941                   ;----------------------------------------------------------------------
      942 0000004c 08700000-        ldp       @CL2,DP
      943 0000004d 506a0006         ldiu      6,ar2                 ; |108| 
      944 0000004e 50200001-        ldiu      @CL2,r0               ; |108| 
TMS320C3x/4x COFF AssemblerVersion 5.12     Wed Jul 24 11:03:43 2019
Copyright (c) 1987-1999 Texas Instruments Incorporatedasm30.exe -@_DJO.AAB 

G:\workspace\EEA\V615\APP\SOURCE\ASM\isr.asm                         PAGE   19

      945 0000004f 70000000         callu     r0                    ; far call to _Process_UINT     ; |108| 
      946                                                           ; |108| Far Call Occurs
      947                           .line   16
      948                   ;----------------------------------------------------------------------
      949                   ; 109 | Process_UINT(7);        /* HANDLE PDI PORT                      */     
      950                   ;----------------------------------------------------------------------
      951 00000050 08700000-        ldp       @CL2,DP
      952 00000051 50200001-        ldiu      @CL2,r0               ; |109| 
      953 00000052 506a0007         ldiu      7,ar2                 ; |109| 
      954 00000053 70000000         callu     r0                    ; far call to _Process_UINT     ; |109| 
      955                                                           ; |109| Far Call Occurs
      956                           .line   17
      957                   ;----------------------------------------------------------------------
      958                   ; 110 | Process_UINT(3);        /* HANDLE COM4 PORT                     */     
      959                   ;----------------------------------------------------------------------
      960 00000054 08700000-        ldp       @CL2,DP
      961 00000055 50200001-        ldiu      @CL2,r0               ; |110| 
      962 00000056 506a0003         ldiu      3,ar2                 ; |110| 
      963 00000057 70000000         callu     r0                    ; far call to _Process_UINT     ; |110| 
      964                                                           ; |110| Far Call Occurs
      965                           .line   18
      966                   ;----------------------------------------------------------------------
      967                   ; 111 | Process_UINT(2);        /* HANDLE COM3 PORT                     */     
      968                   ;----------------------------------------------------------------------
      969 00000058 08700000-        ldp       @CL2,DP
      970 00000059 50200001-        ldiu      @CL2,r0               ; |111| 
      971 0000005a 506a0002         ldiu      2,ar2                 ; |111| 
      972 0000005b 70000000         callu     r0                    ; far call to _Process_UINT     ; |111| 
      973                                                           ; |111| Far Call Occurs
      974                           .line   19
      975                   ;----------------------------------------------------------------------
      976                   ; 112 | Process_UINT(5);        /* HANDLE IRDA (USB) PORT       */             
      977                   ;----------------------------------------------------------------------
      978 0000005c 08700000-        ldp       @CL2,DP
      979 0000005d 50200001-        ldiu      @CL2,r0               ; |112| 
      980 0000005e 506a0005         ldiu      5,ar2                 ; |112| 
      981 0000005f 70000000         callu     r0                    ; far call to _Process_UINT     ; |112| 
      982                                                           ; |112| Far Call Occurs
      983                           .line   20
      984                   ;----------------------------------------------------------------------
      985                   ; 113 | Process_UINT(4);        /* HANDLE HART PORT                     */     
      986                   ;----------------------------------------------------------------------
      987 00000060 08700000-        ldp       @CL2,DP
      988 00000061 506a0004         ldiu      4,ar2                 ; |113| 
      989 00000062 50200001-        ldiu      @CL2,r0               ; |113| 
      990 00000063 70000000         callu     r0                    ; far call to _Process_UINT     ; |113| 
      991                                                           ; |113| Far Call Occurs
      992                           .line   22
      993                   ;----------------------------------------------------------------------
      994                   ; 115 | ENABLE_EXTINT0;                                                        
      995                   ;----------------------------------------------------------------------
      996 00000064 0f350000         push    ST                      
      997 00000065 03752000         andn    2000h, ST       
      998 00000066 08700000-        ldp       @CL1,DP
TMS320C3x/4x COFF AssemblerVersion 5.12     Wed Jul 24 11:03:43 2019
Copyright (c) 1987-1999 Texas Instruments Incorporatedasm30.exe -@_DJO.AAB 

G:\workspace\EEA\V615\APP\SOURCE\ASM\isr.asm                         PAGE   20

      999 00000067 50280000-        ldiu      @CL1,ar0              ; |115| 
     1000 00000068 50600001         ldiu      1,r0                  ; |115| 
     1001 00000069 25a0c000         or3       r0,*ar0,r0            ; |115| 
     1002 0000006a 1540c000         sti       r0,*ar0               ; |115| 
     1003 0000006b 0e350000         pop             ST                      
     1004 0000006c          L10:        
     1005                           .line   23
     1006                                                           ; Begin Epilog Code
     1007                                                           ; Restore SOE Registers
     1008 0000006c 0e330000         pop       bk
     1009 0000006d 0ea70000         popf      f7
     1010 0000006e 0e270000         pop       r7
     1011 0000006f 0ea60000         popf      f6
     1012 00000070 0e260000         pop       r6
     1013 00000071 0ea50000         popf      f5
     1014 00000072 0e250000         pop       r5
     1015 00000073 0ea40000         popf      f4
     1016 00000074 0e240000         pop       r4
     1017 00000075 0e3b0000         pop       rc
     1018 00000076 0e3a0000         pop       re
     1019 00000077 0e390000         pop       rs
     1020 00000078 0e320000         pop       ir1
     1021 00000079 0e310000         pop       ir0
     1022 0000007a 0e2a0000         pop       ar2
     1023 0000007b 0e290000         pop       ar1
     1024 0000007c 0e280000         pop       ar0
     1025 0000007d 0ea30000         popf      f3
     1026 0000007e 0e230000         pop       r3
     1027 0000007f 0ea20000         popf      f2
     1028 00000080 0e220000         pop       r2
     1029 00000081 0ea10000         popf      f1
     1030 00000082 0e210000         pop       r1
     1031 00000083 0ea00000         popf      f0
     1032 00000084 0e200000         pop       r0
     1033 00000085 0e300000         pop       dp
     1034                                                           ; Unallocate the Frame
     1035 00000086 0e2b0000         pop       fp
     1036 00000087 0e350000         pop       st
     1037 00000088 78000000         reti
     1038                                                                   ; Return From Interrupt
     1039                           .endfunc        116,0103f07ffh,0
     1040                   
     1041                   
     1042 00000089                  .sect    "interrupt_routines"
     1043                   
     1044                           .global _c_INT1
     1045                           .sym    _c_INT1,_c_INT1,32,2,0
     1046                           .func   132
     1047                   ;******************************************************************************
     1048                   ;* FUNCTION NAME: _c_INT1                                                     *
     1049                   ;*                                                                            *
     1050                   ;*   Architecture       : TMS320C33                                           *
     1051                   ;*   Calling Convention : TI Standard Register Parameters                     *
     1052                   ;*   Function Uses Regs : f0,r0,f1,r1,f2,r2,r3,ar0,ar1,ar2,fp,ar4,ar5,ir0,ir1,*
TMS320C3x/4x COFF AssemblerVersion 5.12     Wed Jul 24 11:03:43 2019
Copyright (c) 1987-1999 Texas Instruments Incorporatedasm30.exe -@_DJO.AAB 

G:\workspace\EEA\V615\APP\SOURCE\ASM\isr.asm                         PAGE   21

     1053                   ;*                        st,rs,re,rc                                         *
     1054                   ;*   Regs Saved         : f0,r0,f1,r1,f2,r2,f3,r3,f4,r4,f5,r5,f6,r6,f7,r7,ar0,*
     1055                   ;*                        ar1,ar2,ar4,ar5,ir0,ir1,bk,sp,rs,re,rc,pc           *
     1056                   ;*   Stack Frame        : Full (w/ debug)                                     *
     1057                   ;*   Total Frame Size   : 2 Call + 0 Parm + 8 Auto + 28 SOE = 38 words        *
     1058                   ;******************************************************************************
     1059 00000089          _c_INT1:
     1060                           .sym    _i,1,4,1,32
     1061                           .sym    _p,2,52,1,96,,3
     1062                           .sym    _r,5,11,1,64
     1063                           .sym    _v,7,24,1,32,.fake6
     1064                           .sym    _ui,8,14,1,32
     1065                           .line   1
     1066                   ;----------------------------------------------------------------------
     1067                   ; 132 | void c_INT1(void)                                                      
     1068                   ; 137 | int i;                  /* flow computer index */                      
     1069                   ; 138 | int p[FCMAX];   /* pulse data */                                       
     1070                   ; 139 | long double r;  /* pulses per unit */   //INCORRECT, this variable is r
     1071                   ;     | eused...                                                               
     1072                   ; 140 | VAR* v;                                                                
     1073                   ; 141 | unsigned int ui;                                                       
     1074                   ;----------------------------------------------------------------------
     1075 00000089 0f350000         push      st
     1076 0000008a 0f2b0000         push      fp
     1077 0000008b 500b0014         ldiu      sp,fp
     1078 0000008c 02740008         addi      8,sp
     1079 0000008d 0f300000         push      dp
     1080 0000008e 0f200000         push      r0
     1081 0000008f 0fa00000         pushf     f0
     1082 00000090 0f210000         push      r1
     1083 00000091 0fa10000         pushf     f1
     1084 00000092 0f220000         push      r2
     1085 00000093 0fa20000         pushf     f2
     1086 00000094 0f230000         push      r3
     1087 00000095 0fa30000         pushf     f3
     1088 00000096 0f280000         push      ar0
     1089 00000097 0f290000         push      ar1
     1090 00000098 0f2a0000         push      ar2
     1091 00000099 0f310000         push      ir0
     1092 0000009a 0f320000         push      ir1
     1093 0000009b 0f390000         push      rs
     1094 0000009c 0f3a0000         push      re
     1095 0000009d 0f3b0000         push      rc
     1096 0000009e 0f240000         push      r4
     1097 0000009f 0fa40000         pushf     f4
     1098 000000a0 0f250000         push      r5
     1099 000000a1 0fa50000         pushf     f5
     1100 000000a2 0f260000         push      r6
     1101 000000a3 0fa60000         pushf     f6
     1102 000000a4 0f270000         push      r7
     1103 000000a5 0fa70000         pushf     f7
     1104 000000a6 0f2c0000         push      ar4
     1105 000000a7 0f2d0000         push      ar5
     1106 000000a8 0f330000         push      bk
TMS320C3x/4x COFF AssemblerVersion 5.12     Wed Jul 24 11:03:43 2019
Copyright (c) 1987-1999 Texas Instruments Incorporatedasm30.exe -@_DJO.AAB 

G:\workspace\EEA\V615\APP\SOURCE\ASM\isr.asm                         PAGE   22

     1107 000000a9 03750100         andn      256,st                ; Disable any existing repeat loops
     1108                           .line   12
     1109                   ;----------------------------------------------------------------------
     1110                   ; 143 | if (SA) return;                                                        
     1111                   ;----------------------------------------------------------------------
     1112 000000aa 08700000-        ldp       @CL3,DP
     1113 000000ab 50280002-        ldiu      @CL3,ar0              ; |143| 
     1114 000000ac 5040c000         ldiu      *ar0,r0               ; |143| 
     1115 000000ad 04e00000         cmpi      0,r0                  ; |143| 
     1116 000000ae 6a06016c         bne       L28                   ; |143| 
     1117                   ;*      Branch Occurs to L28            ; |143| 
     1118                           .line   14
     1119                   ;----------------------------------------------------------------------
     1120                   ; 145 | _GIEP;                                                                 
     1121                   ; 146 | //Xilinx registers?                                                    
     1122                   ;----------------------------------------------------------------------
     1123 000000af 0f350000         push    ST                      
     1124 000000b0 03752000         andn    2000h, ST       
     1125                           .line   16
     1126                   ;----------------------------------------------------------------------
     1127                   ; 147 | p[0] = ((*XREG12 & 0xFF)<<8) | (*XREG11 & 0xFF);                       
     1128                   ;----------------------------------------------------------------------
     1129 000000b1 08700000-        ldp       @CL5,DP
     1130 000000b2 5008000b         ldiu      fp,ar0                ; |147| 
     1131 000000b3 506000ff         ldiu      255,r0                ; |147| 
     1132 000000b4 50290004-        ldiu      @CL5,ar1              ; |147| 
     1133 000000b5 506100ff         ldiu      255,r1                ; |147| 
     1134 000000b6 08700000-        ldp       @CL4,DP
     1135 000000b7 02680002         addi      2,ar0                 ; |147| 
     1136 000000b8 21a0c100         and3      r0,*ar1,r0            ; |147| 
     1137 000000b9 502a0003-        ldiu      @CL4,ar2              ; |147| 
     1138 000000ba 03e00008         ash       8,r0                  ; |147| 
     1139 000000bb 21a1c201         and3      r1,*ar2,r1            ; |147| 
     1140 000000bc 25800100         or3       r0,r1,r0              ; |147| 
     1141 000000bd 1540c000         sti       r0,*ar0               ; |147| 
     1142                           .line   17
     1143                   ;----------------------------------------------------------------------
     1144                   ; 148 | p[1] = ((*XREG14 & 0xFF)<<8) | (*XREG13 & 0xFF);                       
     1145                   ;----------------------------------------------------------------------
     1146 000000be 08700000-        ldp       @CL7,DP
     1147 000000bf 502a0006-        ldiu      @CL7,ar2              ; |148| 
     1148 000000c0 08700000-        ldp       @CL6,DP
     1149 000000c1 50290005-        ldiu      @CL6,ar1              ; |148| 
     1150 000000c2 5008000b         ldiu      fp,ar0                ; |148| 
     1151 000000c3 506100ff         ldiu      255,r1                ; |148| 
     1152 000000c4 506000ff         ldiu      255,r0                ; |148| 
     1153 000000c5 02680003         addi      3,ar0                 ; |148| 
     1154 000000c6 21a0c200         and3      r0,*ar2,r0            ; |148| 
     1155 000000c7 21a1c101         and3      r1,*ar1,r1            ; |148| 
     1156 000000c8 03e00008         ash       8,r0                  ; |148| 
     1157 000000c9 25800100         or3       r0,r1,r0              ; |148| 
     1158 000000ca 1540c000         sti       r0,*ar0               ; |148| 
     1159                           .line   18
     1160                   ;----------------------------------------------------------------------
TMS320C3x/4x COFF AssemblerVersion 5.12     Wed Jul 24 11:03:43 2019
Copyright (c) 1987-1999 Texas Instruments Incorporatedasm30.exe -@_DJO.AAB 

G:\workspace\EEA\V615\APP\SOURCE\ASM\isr.asm                         PAGE   23

     1161                   ; 149 | p[2] = ((*XREG16 & 0xFF)<<8) | (*XREG15 & 0xFF);                       
     1162                   ;----------------------------------------------------------------------
     1163 000000cb 08700000-        ldp       @CL9,DP
     1164 000000cc 502a0008-        ldiu      @CL9,ar2              ; |149| 
     1165 000000cd 08700000-        ldp       @CL8,DP
     1166 000000ce 50290007-        ldiu      @CL8,ar1              ; |149| 
     1167 000000cf 506000ff         ldiu      255,r0                ; |149| 
     1168 000000d0 21a0c200         and3      r0,*ar2,r0            ; |149| 
     1169 000000d1 506100ff         ldiu      255,r1                ; |149| 
     1170 000000d2 5008000b         ldiu      fp,ar0                ; |149| 
     1171 000000d3 03e00008         ash       8,r0                  ; |149| 
     1172 000000d4 21a1c101         and3      r1,*ar1,r1            ; |149| 
     1173 000000d5 02680004         addi      4,ar0                 ; |149| 
     1174 000000d6 25800100         or3       r0,r1,r0              ; |149| 
     1175 000000d7 1540c000         sti       r0,*ar0               ; |149| 
     1176                           .line   19
     1177                   ;----------------------------------------------------------------------
     1178                   ; 150 | GIEP;                                                                  
     1179                   ;----------------------------------------------------------------------
     1180 000000d8 0e350000         pop             ST                      
     1181                           .line   21
     1182                   ;----------------------------------------------------------------------
     1183                   ; 152 | for (i=0;i<FCMAX;i++)                                                  
     1184                   ; 155 |         //This part calculates how many pulses since the last routine c
     1185                   ;     | all                                                                    
     1186                   ;----------------------------------------------------------------------
     1187 000000d9 50600000         ldiu      0,r0                  ; |152| 
     1188 000000da 15400301         sti       r0,*+fp(1)            ; |152| 
     1189 000000db 04e00003         cmpi      3,r0                  ; |152| 
     1190 000000dc 6a0a013e         bge       L28                   ; |152| 
     1191                   ;*      Branch Occurs to L28            ; |152| 
     1192 000000dd          L14:        
     1193                           .line   25
     1194                   ;----------------------------------------------------------------------
     1195                   ; 156 | if (p[i] >= FC[i].PULSE)                                               
     1196                   ;----------------------------------------------------------------------
     1197 000000dd 50510301         ldiu      *+fp(1),ir0           ; |156| 
     1198 000000de 5008000b         ldiu      fp,ar0                ; |156| 
     1199 000000df 08700000-        ldp       @CL10,DP
     1200 000000e0 50120011         ldiu      ir0,ir1               ; |156| 
     1201 000000e1 02680002         addi      2,ar0                 ; |156| 
     1202 000000e2 50290009-        ldiu      @CL10,ar1             ; |156| 
     1203 000000e3 0af10538         mpyi      1336,ir0              ; |156| 
     1204 000000e4 23e08041         cmpi3     *+ar1(ir0),*+ar0(ir1) ; |156| 
     1205 000000e5 6a070015         blt       L16                   ; |156| 
     1206                   ;*      Branch Occurs to L16            ; |156| 
     1207                           .line   26
     1208                   ;----------------------------------------------------------------------
     1209                   ; 157 | r = (p[i] - FC[i].PULSE) * FC[i].PULSE_FACTOR;                         
     1210                   ; 158 | else                                                                   
     1211                   ;----------------------------------------------------------------------
     1212 000000e6 50110012         ldiu      ir1,ir0
     1213 000000e7 5008000b         ldiu      fp,ar0                ; |157| 
     1214 000000e8 50010011         ldiu      ir0,r1                ; |157| 
TMS320C3x/4x COFF AssemblerVersion 5.12     Wed Jul 24 11:03:43 2019
Copyright (c) 1987-1999 Texas Instruments Incorporatedasm30.exe -@_DJO.AAB 

G:\workspace\EEA\V615\APP\SOURCE\ASM\isr.asm                         PAGE   24

     1215 000000e9 08700000-        ldp       @CL10,DP
     1216 000000ea 50000001         ldiu      r1,r0                 ; |157| 
     1217 000000eb 50290009-        ldiu      @CL10,ar1             ; |157| 
     1218 000000ec 506200ff         ldiu      255,r2                ; |157| 
     1219 000000ed 08700000-        ldp       @CL11,DP
     1220 000000ee 02680002         addi      2,ar0                 ; |157| 
     1221 000000ef 0af10538         mpyi      1336,ir0              ; |157| 
     1222 000000f0 502a000a-        ldiu      @CL11,ar2             ; |157| 
     1223 000000f1 0ae10538         mpyi      1336,r1               ; |157| 
     1224 000000f2 50120000         ldiu      r0,ir1                ; |157| 
     1225 000000f3 27608041         subi3     *+ar1(ir0),*+ar0(ir1),r0 ; |157| 
     1226 000000f4 50110001         ldiu      r1,ir0                ; |157| 
     1227 000000f5 05800000         float     r0,f0                 ; |157| 
     1228 000000f6 24c00042         mpyf3     *+ar2(ir0),f0,f0      ; |157| 
     1229 000000f7 03000002         andn      r2,f0                 ; |157| Bit mask for F32/F40 conversion
     1230 000000f8 14400305         stf       f0,*+fp(5)            ; |157| Store high half
     1231 000000f9 15400306         sti       r0,*+fp(6)            ; |157| Store low half
     1232 000000fa 6a000016         bu        L17                   ; |131| 
     1233                   ;*      Branch Occurs to L17            ; |131| 
     1234 000000fb          L16:        
     1235                           .line   28
     1236                   ;----------------------------------------------------------------------
     1237                   ; 159 | r = ((65536.0 - FC[i].PULSE) + p[i]) * FC[i].PULSE_FACTOR;             
     1238                   ;----------------------------------------------------------------------
     1239 000000fb 50510301         ldiu      *+fp(1),ir0           ; |159| 
     1240 000000fc 08700000-        ldp       @CL10,DP
     1241 000000fd 5008000b         ldiu      fp,ar0                ; |159| 
     1242 000000fe 50000011         ldiu      ir0,r0                ; |159| 
     1243 000000ff 50120011         ldiu      ir0,ir1               ; |159| 
     1244 00000100 50290009-        ldiu      @CL10,ar1             ; |159| 
     1245 00000101 08700000-        ldp       @CL11,DP
     1246 00000102 0af10538         mpyi      1336,ir0              ; |159| 
     1247 00000103 02680002         addi      2,ar0                 ; |159| 
     1248 00000104 502a000a-        ldiu      @CL11,ar2             ; |159| 
     1249 00000105 506200ff         ldiu      255,r2                ; |159| 
     1250 00000106 05c14100         float     *+ar1(ir0),f1         ; |159| 
     1251 00000107 0af20538         mpyi      1336,ir1              ; |159| 
     1252 00000108 08700000-        ldp       @CL12,DP
     1253 00000109 50110000         ldiu      r0,ir0                ; |159| 
     1254 0000010a 1921000b-        subrf     @CL12,f1              ; |159| 
     1255 0000010b 05c04000         float     *+ar0(ir0),f0         ; |159| 
     1256 0000010c 20800001         addf3     f1,f0,f0              ; |159| 
     1257 0000010d 24c00082         mpyf3     *+ar2(ir1),f0,f0      ; |159| 
     1258 0000010e 03000002         andn      r2,f0                 ; |159| Bit mask for F32/F40 conversion
     1259 0000010f 14400305         stf       f0,*+fp(5)            ; |159| Store high half
     1260 00000110 15400306         sti       r0,*+fp(6)            ; |159| Store low half
     1261 00000111          L17:        
     1262                           .line   30
     1263                   ;----------------------------------------------------------------------
     1264                   ; 161 | FC[i].PULSE_DELTA = r;          //Number of pulses elapsed             
     1265                   ;----------------------------------------------------------------------
     1266 00000111 40400305         ldfu      *+fp(5),f0            ; |161| 40b float hi half
     1267 00000112 50510301         ldiu      *+fp(1),ir0           ; |161| 
     1268 00000113 08700000-        ldp       @CL13,DP
TMS320C3x/4x COFF AssemblerVersion 5.12     Wed Jul 24 11:03:43 2019
Copyright (c) 1987-1999 Texas Instruments Incorporatedasm30.exe -@_DJO.AAB 

G:\workspace\EEA\V615\APP\SOURCE\ASM\isr.asm                         PAGE   25

     1269 00000114 50400306         ldiu      *+fp(6),r0            ; |161| 40b float lo half
     1270 00000115 0af10538         mpyi      1336,ir0              ; |161| 
     1271 00000116 40010000         ldfu      f0,f1                 ; |161| 40b float hi half
     1272 00000117 5028000c-        ldiu      @CL13,ar0             ; |161| 
     1273 00000118 0b800001         negf      f1,f0                 ; |161| 
     1274 00000119 05000000         fix       f0,r0                 ; |161| 
     1275 0000011a 05010001         fix       f1,r1                 ; |161| 
     1276 0000011b 0c000000         negi      r0,r0                 ; |161| 
     1277 0000011c 54010000         ldile     r0,r1                 ; |161| 
     1278 0000011d 15414000         sti       r1,*+ar0(ir0)         ; |161| 
     1279                           .line   31
     1280                   ;----------------------------------------------------------------------
     1281                   ; 162 | FC[i].PULSE       = p[i];       //Like hitting "lap" on a stop watch   
     1282                   ;----------------------------------------------------------------------
     1283 0000011e 08700000-        ldp       @CL10,DP
     1284 0000011f 50290009-        ldiu      @CL10,ar1             ; |162| 
     1285 00000120 50510301         ldiu      *+fp(1),ir0           ; |162| 
     1286 00000121 5008000b         ldiu      fp,ar0                ; |162| 
     1287 00000122 50120011         ldiu      ir0,ir1               ; |162| 
     1288 00000123 02680002         addi      2,ar0                 ; |162| 
     1289 00000124 0af10538         mpyi      1336,ir0              ; |162| 
     1290 00000125 50408000         ldiu      *+ar0(ir1),r0         ; |162| 
     1291 00000126 15404100         sti       r0,*+ar1(ir0)         ; |162| 
     1292                           .line   33
     1293                   ;----------------------------------------------------------------------
     1294                   ; 164 | if (!FC[i].enable_PULSE)                                               
     1295                   ;----------------------------------------------------------------------
     1296 00000127 08700000-        ldp       @CL14,DP
     1297 00000128 5028000d-        ldiu      @CL14,ar0             ; |164| 
     1298 00000129 50510301         ldiu      *+fp(1),ir0           ; |164| 
     1299 0000012a 0af10538         mpyi      1336,ir0              ; |164| 
     1300 0000012b 50404000         ldiu      *+ar0(ir0),r0         ; |164| 
     1301 0000012c 04e00000         cmpi      0,r0                  ; |164| 
     1302 0000012d 6a0500e8         beq       L27                   ; |164| 
     1303                   ;*      Branch Occurs to L27            ; |164| 
     1304                           .line   34
     1305                   ;----------------------------------------------------------------------
     1306                   ; 165 | continue;                                                              
     1307                   ; 167 | //Note: Experimentally verified max frequency is between 25kHz-50kHz   
     1308                   ;----------------------------------------------------------------------
     1309                           .line   37
     1310                   ;----------------------------------------------------------------------
     1311                   ; 168 | r = ((long double)FC[i].PULSE_DELTA/(long double)FC[i].PULSES_PER_ACCUM
     1312                   ;     | _UNIT);                                                                
     1313                   ; 170 | //variable 'r' is now the quantity of accum units since last call      
     1314                   ;----------------------------------------------------------------------
     1315 0000012e 50520301         ldiu      *+fp(1),ir1           ; |168| 
     1316 0000012f 08700000-        ldp       @CL13,DP
     1317 00000130 50110012         ldiu      ir1,ir0               ; |168| 
     1318 00000131 5029000c-        ldiu      @CL13,ar1             ; |168| 
     1319 00000132 0af10538         mpyi      1336,ir0              ; |168| 
     1320 00000133 08700000-        ldp       @CL15,DP
     1321 00000134 0af20538         mpyi      1336,ir1              ; |168| 
     1322 00000135 5028000e-        ldiu      @CL15,ar0             ; |168| 
TMS320C3x/4x COFF AssemblerVersion 5.12     Wed Jul 24 11:03:43 2019
Copyright (c) 1987-1999 Texas Instruments Incorporatedasm30.exe -@_DJO.AAB 

G:\workspace\EEA\V615\APP\SOURCE\ASM\isr.asm                         PAGE   26

     1323                   
     1324 00000136 c6408140         ldiu      *+ar0(ir0),r1         ; |168| 
     1325                   ||      ldiu      *+ar1(ir1),r0         ; |168| 
     1326                   
     1327 00000137 05800000         float     r0,f0                 ; |168| 
     1328 00000138 08700000-        ldp       @CL16,DP
     1329 00000139 05810001         float     r1,f1                 ; |168| 
     1330 0000013a 43a2000f-        ldflt     @CL16,f2              ; |168| 
     1331 0000013b 53a20010-        ldilt     @CL16+1,r2            ; |168| 
     1332 0000013c 45628000         ldfge     0.0000000000e+00,f2   ; |168| 
     1333 0000013d 55620000         ldige     0,r2                  ; |168| 
     1334 0000013e 01810002         addf      f2,f1                 ; |168| High Precision ADD
     1335 0000013f 62000000!        call      DIV_LD                ; |168| 
     1336                                                           ; |168| Call Occurs
     1337 00000140 14400305         stf       f0,*+fp(5)            ; |168| Store high half
     1338 00000141 15400306         sti       r0,*+fp(6)            ; |168| Store low half
     1339                           .line   40
     1340                   ;----------------------------------------------------------------------
     1341                   ; 171 | if (r < 0)                                                             
     1342                   ;----------------------------------------------------------------------
     1343 00000142 08700000-        ldp       @CL17+0,DP
     1344 00000143 40200011-        ldfu      @CL17+0,f0            ; |171| 40b float hi half
     1345 00000144 40410305         ldfu      *+fp(5),f1            ; |171| 40b float hi half
     1346 00000145 08700000-        ldp       @CL17+1,DP
     1347 00000146 50200012-        ldiu      @CL17+1,r0            ; |171| 40b float lo half
     1348 00000147 50410306         ldiu      *+fp(6),r1            ; |171| 40b float lo half
     1349 00000148 04010000         cmpf      f0,f1                 ; |171| 
     1350 00000149 6a0a0006         bge       L20                   ; |171| 
     1351                   ;*      Branch Occurs to L20            ; |171| 
     1352                           .line   41
     1353                   ;----------------------------------------------------------------------
     1354                   ; 172 | r = 0;                                                                 
     1355                   ;----------------------------------------------------------------------
     1356 0000014a 08700000-        ldp       @CL17+0,DP
     1357 0000014b 40200011-        ldfu      @CL17+0,f0            ; |172| 40b float hi half
     1358 0000014c 08700000-        ldp       @CL17+1,DP
     1359 0000014d 50200012-        ldiu      @CL17+1,r0            ; |172| 40b float lo half
     1360 0000014e 14400305         stf       f0,*+fp(5)            ; |172| Store high half
     1361 0000014f 15400306         sti       r0,*+fp(6)            ; |172| Store low half
     1362 00000150          L20:        
     1363                           .line   47
     1364                   ;----------------------------------------------------------------------
     1365                   ; 178 | if (FC[i].use_totalizer.val)                                           
     1366                   ;----------------------------------------------------------------------
     1367 00000150 50510301         ldiu      *+fp(1),ir0           ; |178| 
     1368 00000151 08700000-        ldp       @CL18,DP
     1369 00000152 0af10538         mpyi      1336,ir0              ; |178| 
     1370 00000153 50280013-        ldiu      @CL18,ar0             ; |178| 
     1371 00000154 50404000         ldiu      *+ar0(ir0),r0         ; |178| 
     1372 00000155 04e00000         cmpi      0,r0                  ; |178| 
     1373 00000156 6a05007c         beq       L23                   ; |178| 
     1374                   ;*      Branch Occurs to L23            ; |178| 
     1375                           .line   49
     1376                   ;----------------------------------------------------------------------
TMS320C3x/4x COFF AssemblerVersion 5.12     Wed Jul 24 11:03:43 2019
Copyright (c) 1987-1999 Texas Instruments Incorporatedasm30.exe -@_DJO.AAB 

G:\workspace\EEA\V615\APP\SOURCE\ASM\isr.asm                         PAGE   27

     1377                   ; 180 | if (!FC[i].enable_FLOW)                                                
     1378                   ;----------------------------------------------------------------------
     1379 00000157 50510301         ldiu      *+fp(1),ir0           ; |180| 
     1380 00000158 08700000-        ldp       @CL19,DP
     1381 00000159 0af10538         mpyi      1336,ir0              ; |180| 
     1382 0000015a 50280014-        ldiu      @CL19,ar0             ; |180| 
     1383 0000015b 50404000         ldiu      *+ar0(ir0),r0         ; |180| 
     1384 0000015c 04e00000         cmpi      0,r0                  ; |180| 
     1385 0000015d 6a0500b8         beq       L27                   ; |180| 
     1386                   ;*      Branch Occurs to L27            ; |180| 
     1387                           .line   50
     1388                   ;----------------------------------------------------------------------
     1389                   ; 181 | continue;                                                              
     1390                   ; 183 | //store the number of pulses in PULSE_FREQ?? How is that a frequency?  
     1391                   ;----------------------------------------------------------------------
     1392                           .line   53
     1393                   ;----------------------------------------------------------------------
     1394                   ; 184 | VAR_Update(&FC[i].PULSE_FREQ, (long double)FC[i].PULSE_DELTA, 0, 0);   
     1395                   ; 186 | //add to total number of pulses? This variable isn't used anywhere else
     1396                   ;----------------------------------------------------------------------
     1397 0000015e 504a0301         ldiu      *+fp(1),ar2           ; |184| 
     1398 0000015f 08700000-        ldp       @CL13,DP
     1399 00000160 5011000a         ldiu      ar2,ir0               ; |184| 
     1400 00000161 5028000c-        ldiu      @CL13,ar0             ; |184| 
     1401 00000162 507b0000         ldiu      0,rc                  ; |184| 
     1402 00000163 0aea0538         mpyi      1336,ar2              ; |184| 
     1403 00000164 08700000-        ldp       @CL20,DP
     1404 00000165 0af10538         mpyi      1336,ir0              ; |184| 
     1405 00000166 022a0015-        addi      @CL20,ar2             ; |184| Unsigned
     1406 00000167 50414000         ldiu      *+ar0(ir0),r1         ; |184| 
     1407 00000168 08700000-        ldp       @CL21,DP
     1408 00000169 05820001         float     r1,f2                 ; |184| 
     1409 0000016a 50200016-        ldiu      @CL21,r0              ; |184| 
     1410 0000016b 50630000         ldiu      0,r3                  ; |184| 
     1411 0000016c 70000000         callu     r0                    ; far call to _VAR_Update       ; |184| 
     1412                                                           ; |184| Far Call Occurs
     1413                           .line   56
     1414                   ;----------------------------------------------------------------------
     1415                   ; 187 | FC[i].PULSE_COUNTER += FC[i].PULSE_DELTA;                              
     1416                   ; 189 | //wrong         // Update quantity of accum units (volume/mass) since l
     1417                   ;     | ast call                                                               
     1418                   ;----------------------------------------------------------------------
     1419 0000016d 08700000-        ldp       @CL13,DP
     1420 0000016e 5029000c-        ldiu      @CL13,ar1             ; |187| 
     1421 0000016f 50510301         ldiu      *+fp(1),ir0           ; |187| 
     1422 00000170 506804e2         ldiu      1250,ar0              ; |187| 
     1423 00000171 50120011         ldiu      ir0,ir1               ; |187| 
     1424 00000172 08700000-        ldp       @CL22,DP
     1425 00000173 0af10538         mpyi      1336,ir0              ; |187| 
     1426 00000174 0af20538         mpyi      1336,ir1              ; |187| 
     1427 00000175 02310017-        addi      @CL22,ir0             ; |187| Unsigned
     1428 00000176 21604081         addi3     *+ar1(ir1),*+ar0(ir0),r0 ; |187| Unsigned
     1429 00000177 15404000         sti       r0,*+ar0(ir0)         ; |187| 
     1430                           .line   59
TMS320C3x/4x COFF AssemblerVersion 5.12     Wed Jul 24 11:03:43 2019
Copyright (c) 1987-1999 Texas Instruments Incorporatedasm30.exe -@_DJO.AAB 

G:\workspace\EEA\V615\APP\SOURCE\ASM\isr.asm                         PAGE   28

     1431                   ;----------------------------------------------------------------------
     1432                   ; 190 | VAR_Update(&FC[i].PULSE_TOTAL, FC[i].PULSE_TOTAL.calc_val+r, 0, 0);    
     1433                   ; 191 | // PULSE_TOTAL = PULSE_TOTAL + r;                                      
     1434                   ; 193 | // Update mass/volume flow rate -- apparently uses a period of 1 second
     1435                   ;----------------------------------------------------------------------
     1436 00000178 50480301         ldiu      *+fp(1),ar0           ; |190| 
     1437 00000179 500a0008         ldiu      ar0,ar2               ; |190| 
     1438 0000017a 08700000-        ldp       @CL24,DP
     1439 0000017b 0ae80538         mpyi      1336,ar0              ; |190| 
     1440 0000017c 02280019-        addi      @CL24,ar0             ; |190| Unsigned
     1441 0000017d 0aea0538         mpyi      1336,ar2              ; |190| 
     1442 0000017e 08700000-        ldp       @CL23,DP
     1443 0000017f 507b0000         ldiu      0,rc                  ; |190| 
     1444 00000180 022a0018-        addi      @CL23,ar2             ; |190| Unsigned
     1445 00000181 40420305         ldfu      *+fp(5),f2            ; |190| 40b float hi half
     1446 00000182 4041c000         ldfu      *ar0,f1               ; |190| 40b float hi half
     1447 00000183 08700000-        ldp       @CL21,DP
     1448 00000184 50410001         ldiu      *+ar0,r1              ; |190| 40b float lo half
     1449 00000185 50420306         ldiu      *+fp(6),r2            ; |190| 40b float lo half
     1450 00000186 20820201         addf3     f1,f2,f2              ; |190| High Precision ADD
     1451 00000187 50200016-        ldiu      @CL21,r0              ; |190| 
     1452 00000188 50630000         ldiu      0,r3                  ; |190| 
     1453 00000189 70000000         callu     r0                    ; far call to _VAR_Update       ; |190| 
     1454                                                           ; |190| Far Call Occurs
     1455                           .line   63
     1456                   ;----------------------------------------------------------------------
     1457                   ; 194 | VAR_Update(&FC[i].PULSE_FLOW, Time_Scale_Flow(r, FC[i].PULSE_TOTAL.clas
     1458                   ;     | s, FC[i].PULSE_TOTAL.calc_unit, FC[i].PULSE_FLOW.calc_unit), 0, 0);    
     1459                   ;----------------------------------------------------------------------
     1460 0000018a 08700000-        ldp       @CL27,DP
     1461 0000018b 5028001c-        ldiu      @CL27,ar0             ; |194| 
     1462 0000018c 08700000-        ldp       @CL25,DP
     1463 0000018d 502a001a-        ldiu      @CL25,ar2             ; |194| 
     1464 0000018e 08700000-        ldp       @CL26,DP
     1465 0000018f 5029001b-        ldiu      @CL26,ar1             ; |194| 
     1466 00000190 50510301         ldiu      *+fp(1),ir0           ; |194| 
     1467 00000191 50000011         ldiu      ir0,r0                ; |194| 
     1468 00000192 50120000         ldiu      r0,ir1
     1469 00000193 0af10538         mpyi      1336,ir0              ; |194| 
     1470 00000194 0ae00538         mpyi      1336,r0               ; |194| 
     1471 00000195 40420305         ldfu      *+fp(5),f2            ; |194| 40b float hi half
     1472 00000196 0af20538         mpyi      1336,ir1              ; |194| 
     1473 00000197 08700000-        ldp       @CL29,DP
     1474 00000198 505b4000         ldiu      *+ar0(ir0),rc         ; |194| 
     1475 00000199 5021001e-        ldiu      @CL29,r1              ; |194| 
     1476 0000019a 50110000         ldiu      r0,ir0                ; |194| 
     1477 0000019b 50420306         ldiu      *+fp(6),r2            ; |194| 40b float lo half
     1478                   
     1479 0000019c c6188142         ldiu      *+ar2(ir0),r0         ; |194| 
     1480                   ||      ldiu      *+ar1(ir1),r3         ; |194| 
     1481                   
     1482 0000019d 500a0000         ldiu      r0,ar2                ; |194| 
     1483 0000019e 70000001         callu     r1                    ; far call to _Time_Scale_Flow  ; |194| 
     1484                                                           ; |194| Far Call Occurs
TMS320C3x/4x COFF AssemblerVersion 5.12     Wed Jul 24 11:03:43 2019
Copyright (c) 1987-1999 Texas Instruments Incorporatedasm30.exe -@_DJO.AAB 

G:\workspace\EEA\V615\APP\SOURCE\ASM\isr.asm                         PAGE   29

     1485 0000019f 40020000         ldfu      f0,f2                 ; |194| High precision move
     1486 000001a0 504a0301         ldiu      *+fp(1),ar2           ; |194| 
     1487 000001a1 08700000-        ldp       @CL21,DP
     1488 000001a2 50200016-        ldiu      @CL21,r0              ; |194| 
     1489 000001a3 08700000-        ldp       @CL28,DP
     1490 000001a4 0aea0538         mpyi      1336,ar2              ; |194| 
     1491 000001a5 022a001d-        addi      @CL28,ar2             ; |194| Unsigned
     1492 000001a6 507b0000         ldiu      0,rc                  ; |194| 
     1493 000001a7 50630000         ldiu      0,r3                  ; |194| 
     1494 000001a8 70000000         callu     r0                    ; far call to _VAR_Update       ; |194| 
     1495                                                           ; |194| Far Call Occurs
     1496                           .line   65
     1497                   ;----------------------------------------------------------------------
     1498                   ; 196 | _GIEP;                                                                 
     1499                   ; 198 | //Update the generalized "total flow" variable                         
     1500                   ;----------------------------------------------------------------------
     1501 000001a9 0f350000         push    ST                      
     1502 000001aa 03752000         andn    2000h, ST       
     1503                           .line   68
     1504                   ;----------------------------------------------------------------------
     1505                   ; 199 | VAR_Update(&FC[i].FLOW_TOTAL, Time_Scale_Flow(r, FC[i].PULSE_TOTAL.clas
     1506                   ;     | s, FC[i].PULSE_TOTAL.calc_unit, FC[i].FLOW_TOTAL.calc_unit), 0, 0);    
     1507                   ;----------------------------------------------------------------------
     1508 000001ab 08700000-        ldp       @CL30,DP
     1509 000001ac 5028001f-        ldiu      @CL30,ar0             ; |199| 
     1510 000001ad 50510301         ldiu      *+fp(1),ir0           ; |199| 
     1511 000001ae 08700000-        ldp       @CL25,DP
     1512 000001af 50000011         ldiu      ir0,r0                ; |199| 
     1513 000001b0 5029001a-        ldiu      @CL25,ar1             ; |199| 
     1514 000001b1 08700000-        ldp       @CL26,DP
     1515 000001b2 50120011         ldiu      ir0,ir1               ; |199| 
     1516 000001b3 502a001b-        ldiu      @CL26,ar2             ; |199| 
     1517 000001b4 0af10538         mpyi      1336,ir0              ; |199| 
     1518 000001b5 0af20538         mpyi      1336,ir1              ; |199| 
     1519 000001b6 0ae00538         mpyi      1336,r0               ; |199| 
     1520 000001b7 505b4000         ldiu      *+ar0(ir0),rc         ; |199| 
     1521 000001b8 08700000-        ldp       @CL29,DP
     1522 000001b9 40420305         ldfu      *+fp(5),f2            ; |199| 40b float hi half
     1523 000001ba 50110000         ldiu      r0,ir0                ; |199| 
     1524 000001bb 50420306         ldiu      *+fp(6),r2            ; |199| 40b float lo half
     1525                   
     1526 000001bc c6c08142         ldiu      *+ar2(ir0),r3         ; |199| 
     1527                   ||      ldiu      *+ar1(ir1),r0         ; |199| 
     1528                   
     1529 000001bd 5021001e-        ldiu      @CL29,r1              ; |199| 
     1530 000001be 500a0000         ldiu      r0,ar2                ; |199| 
     1531 000001bf 70000001         callu     r1                    ; far call to _Time_Scale_Flow  ; |199| 
     1532                                                           ; |199| Far Call Occurs
     1533 000001c0 504a0301         ldiu      *+fp(1),ar2           ; |199| 
     1534 000001c1 08700000-        ldp       @CL21,DP
     1535 000001c2 50210016-        ldiu      @CL21,r1              ; |199| 
     1536 000001c3 0aea0538         mpyi      1336,ar2              ; |199| 
     1537 000001c4 08700000-        ldp       @CL31,DP
     1538 000001c5 507b0000         ldiu      0,rc                  ; |199| 
TMS320C3x/4x COFF AssemblerVersion 5.12     Wed Jul 24 11:03:43 2019
Copyright (c) 1987-1999 Texas Instruments Incorporatedasm30.exe -@_DJO.AAB 

G:\workspace\EEA\V615\APP\SOURCE\ASM\isr.asm                         PAGE   30

     1539 000001c6 022a0020-        addi      @CL31,ar2             ; |199| Unsigned
     1540 000001c7 50630000         ldiu      0,r3                  ; |199| 
     1541 000001c8 40020000         ldfu      f0,f2                 ; |199| High precision move
     1542 000001c9 70000001         callu     r1                    ; far call to _VAR_Update       ; |199| 
     1543                                                           ; |199| Far Call Occurs
     1544                           .line   69
     1545                   ;----------------------------------------------------------------------
     1546                   ; 200 | Accumulate(&FC[i].FLOW_TOTAL);                                         
     1547                   ;----------------------------------------------------------------------
     1548 000001ca 504a0301         ldiu      *+fp(1),ar2           ; |200| 
     1549 000001cb 08700000-        ldp       @CL31,DP
     1550 000001cc 0aea0538         mpyi      1336,ar2              ; |200| 
     1551 000001cd 022a0020-        addi      @CL31,ar2             ; |200| Unsigned
     1552 000001ce 08700000-        ldp       @CL32,DP
     1553 000001cf 50200021-        ldiu      @CL32,r0              ; |200| 
     1554 000001d0 70000000         callu     r0                    ; far call to _Accumulate       ; |200| 
     1555                                                           ; |200| Far Call Occurs
     1556                           .line   71
     1557                   ;----------------------------------------------------------------------
     1558                   ; 202 | GIEP;                                                                  
     1559                   ; 204 | else //if pulse input is NOT total flow (no totalizer)                 
     1560                   ; 205 | {//new pulse code here!                                                
     1561                   ;----------------------------------------------------------------------
     1562 000001d1 0e350000         pop             ST                      
     1563 000001d2 6a000043         bu        L27                   ; |131| 
     1564                   ;*      Branch Occurs to L27            ; |131| 
     1565 000001d3          L23:        
     1566                           .line   76
     1567                   ;----------------------------------------------------------------------
     1568                   ; 207 | if (!FC[i].enable_PULSE)                                               
     1569                   ;----------------------------------------------------------------------
     1570 000001d3 50510301         ldiu      *+fp(1),ir0           ; |207| 
     1571 000001d4 08700000-        ldp       @CL14,DP
     1572 000001d5 0af10538         mpyi      1336,ir0              ; |207| 
     1573 000001d6 5028000d-        ldiu      @CL14,ar0             ; |207| 
     1574 000001d7 50404000         ldiu      *+ar0(ir0),r0         ; |207| 
     1575 000001d8 04e00000         cmpi      0,r0                  ; |207| 
     1576 000001d9 6a05003c         beq       L27                   ; |207| 
     1577                   ;*      Branch Occurs to L27            ; |207| 
     1578                           .line   77
     1579                   ;----------------------------------------------------------------------
     1580                   ; 208 | continue;                                                              
     1581                   ;----------------------------------------------------------------------
     1582                           .line   79
     1583                   ;----------------------------------------------------------------------
     1584                   ; 210 | v = HART_Lookup(FC[i].pulse_v.val, &ui, (int*)&HART_DVINPUT_Table);    
     1585                   ;----------------------------------------------------------------------
     1586 000001da 08700000-        ldp       @CL33,DP
     1587 000001db 50510301         ldiu      *+fp(1),ir0           ; |210| 
     1588 000001dc 5002000b         ldiu      fp,r2                 ; |210| 
     1589 000001dd 50280022-        ldiu      @CL33,ar0             ; |210| 
     1590 000001de 0af10538         mpyi      1336,ir0              ; |210| 
     1591 000001df 08700000-        ldp       @CL35,DP
     1592 000001e0 504a4000         ldiu      *+ar0(ir0),ar2        ; |210| 
TMS320C3x/4x COFF AssemblerVersion 5.12     Wed Jul 24 11:03:43 2019
Copyright (c) 1987-1999 Texas Instruments Incorporatedasm30.exe -@_DJO.AAB 

G:\workspace\EEA\V615\APP\SOURCE\ASM\isr.asm                         PAGE   31

     1593 000001e1 50200024-        ldiu      @CL35,r0              ; |210| 
     1594 000001e2 08700000-        ldp       @CL34,DP
     1595 000001e3 02620008         addi      8,r2                  ; |210| 
     1596 000001e4 50230023-        ldiu      @CL34,r3              ; |210| 
     1597 000001e5 70000000         callu     r0                    ; far call to _HART_Lookup      ; |210| 
     1598                                                           ; |210| Far Call Occurs
     1599 000001e6 15400307         sti       r0,*+fp(7)            ; |210| 
     1600                           .line   81
     1601                   ;----------------------------------------------------------------------
     1602                   ; 212 | if ((v!=(VAR*)0) && (v!=&REG_DUMMY))                                   
     1603                   ;----------------------------------------------------------------------
     1604 000001e7 04e00000         cmpi      0,r0                  ; |212| 
     1605 000001e8 6a05002d         beq       L27                   ; |212| 
     1606                   ;*      Branch Occurs to L27            ; |212| 
     1607 000001e9 08700000-        ldp       @CL36,DP
     1608 000001ea 04a00025-        cmpi      @CL36,r0              ; |212| 
     1609 000001eb 6a05002a         beq       L27                   ; |212| 
     1610                   ;*      Branch Occurs to L27            ; |212| 
     1611                           .line   83
     1612                   ;----------------------------------------------------------------------
     1613                   ; 214 | VAR_Update(&FC[i].pulse_VALUE,(float)r,0,0);                           
     1614                   ;----------------------------------------------------------------------
     1615 000001ec 504a0301         ldiu      *+fp(1),ar2           ; |214| 
     1616 000001ed 40400305         ldfu      *+fp(5),f0            ; |214| 40b float hi half
     1617 000001ee 08700000-        ldp       @CL37,DP
     1618 000001ef 506300ff         ldiu      255,r3                ; |214| 
     1619 000001f0 0aea0538         mpyi      1336,ar2              ; |214| 
     1620 000001f1 507b0000         ldiu      0,rc                  ; |214| 
     1621 000001f2 50400306         ldiu      *+fp(6),r0            ; |214| 40b float lo half
     1622 000001f3 022a0026-        addi      @CL37,ar2             ; |214| Unsigned
     1623 000001f4 11000000         rnd       f0,f0                 ; |214| Demote to low precision
     1624 000001f5 08700000-        ldp       @CL21,DP
     1625 000001f6 40020000         ldfu      f0,f2                 ; |214| Move F32 into F40 for CONV
     1626 000001f7 50210016-        ldiu      @CL21,r1              ; |214| 
     1627 000001f8 03020003         andn      r3,f2                 ; |214| Bit mask for F32/F40 conversion
     1628 000001f9 50630000         ldiu      0,r3                  ; |214| 
     1629 000001fa 70000001         callu     r1                    ; far call to _VAR_Update       ; |214| 
     1630                                                           ; |214| Far Call Occurs
     1631                           .line   84
     1632                   ;----------------------------------------------------------------------
     1633                   ; 215 | VAR_Update(v, Convert(v->class, FC[i].pulse_VALUE.unit, v->unit, FC[i].
     1634                   ;     | pulse_VALUE.calc_val, 0, v->aux), 0,1);                                
     1635                   ;----------------------------------------------------------------------
     1636 000001fb 08700000-        ldp       @CL38,DP
     1637 000001fc 502c0027-        ldiu      @CL38,ar4             ; |215| 
     1638 000001fd 08700000-        ldp       @CL39,DP
     1639 000001fe 50490301         ldiu      *+fp(1),ar1           ; |215| 
     1640 000001ff 504d0307         ldiu      *+fp(7),ar5           ; |215| 
     1641 00000200 50110009         ldiu      ar1,ir0               ; |215| 
     1642 00000201 5008000d         ldiu      ar5,ar0               ; |215| 
     1643 00000202 0ae90538         mpyi      1336,ar1              ; |215| 
     1644 00000203 02290028-        addi      @CL39,ar1             ; |215| Unsigned
     1645 00000204 500a0008         ldiu      ar0,ar2               ; |215| 
     1646 00000205 0af10538         mpyi      1336,ir0              ; |215| 
TMS320C3x/4x COFF AssemblerVersion 5.12     Wed Jul 24 11:03:43 2019
Copyright (c) 1987-1999 Texas Instruments Incorporatedasm30.exe -@_DJO.AAB 

G:\workspace\EEA\V615\APP\SOURCE\ASM\isr.asm                         PAGE   32

     1647 00000206 08700000-        ldp       @CL40,DP
     1648 00000207 505b050d         ldiu      *+ar5(13),rc          ; |215| 
     1649 00000208 505a0006         ldiu      *+ar0(6),re           ; |215| 
     1650 00000209 504a020f         ldiu      *+ar2(15),ar2         ; |215| 
     1651 0000020a 4042c100         ldfu      *ar1,f2               ; |215| 40b float hi half
     1652 0000020b 50200029-        ldiu      @CL40,r0              ; |215| 
     1653                   
     1654 0000020c c6984401         ldiu      *+ar1,r2              ; |215| 
     1655                   ||      ldiu      *+ar4(ir0),r3         ; |215| 
     1656                   
     1657 0000020d 50790000         ldiu      0,rs                  ; |215| 
     1658 0000020e 70000000         callu     r0                    ; far call to _Convert  ; |215| 
     1659                                                           ; |215| Far Call Occurs
     1660 0000020f 08700000-        ldp       @CL21,DP
     1661 00000210 50210016-        ldiu      @CL21,r1              ; |215| 
     1662 00000211 40020000         ldfu      f0,f2                 ; |215| High precision move
     1663 00000212 50630000         ldiu      0,r3                  ; |215| 
     1664 00000213 504a0307         ldiu      *+fp(7),ar2           ; |215| 
     1665 00000214 507b0001         ldiu      1,rc                  ; |215| 
     1666 00000215 70000001         callu     r1                    ; far call to _VAR_Update       ; |215| 
     1667                                                           ; |215| Far Call Occurs
     1668 00000216          L27:        
     1669                           .line   21
     1670 00000216 50600001         ldiu      1,r0                  ; |152| 
     1671 00000217 02400301         addi      *+fp(1),r0            ; |152| 
     1672 00000218 15400301         sti       r0,*+fp(1)            ; |152| 
     1673 00000219 04e00003         cmpi      3,r0                  ; |152| 
     1674 0000021a 6a07fec2         blt       L14                   ; |152| 
     1675                   ;*      Branch Occurs to L14            ; |152| 
     1676 0000021b          L28:        
     1677                           .line   89
     1678                                                           ; Begin Epilog Code
     1679                                                           ; Restore SOE Registers
     1680 0000021b 0e330000         pop       bk
     1681 0000021c 0e2d0000         pop       ar5
     1682 0000021d 0e2c0000         pop       ar4
     1683 0000021e 0ea70000         popf      f7
     1684 0000021f 0e270000         pop       r7
     1685 00000220 0ea60000         popf      f6
     1686 00000221 0e260000         pop       r6
     1687 00000222 0ea50000         popf      f5
     1688 00000223 0e250000         pop       r5
     1689 00000224 0ea40000         popf      f4
     1690 00000225 0e240000         pop       r4
     1691 00000226 0e3b0000         pop       rc
     1692 00000227 0e3a0000         pop       re
     1693 00000228 0e390000         pop       rs
     1694 00000229 0e320000         pop       ir1
     1695 0000022a 0e310000         pop       ir0
     1696 0000022b 0e2a0000         pop       ar2
     1697 0000022c 0e290000         pop       ar1
     1698 0000022d 0e280000         pop       ar0
     1699 0000022e 0ea30000         popf      f3
     1700 0000022f 0e230000         pop       r3
TMS320C3x/4x COFF AssemblerVersion 5.12     Wed Jul 24 11:03:43 2019
Copyright (c) 1987-1999 Texas Instruments Incorporatedasm30.exe -@_DJO.AAB 

G:\workspace\EEA\V615\APP\SOURCE\ASM\isr.asm                         PAGE   33

     1701 00000230 0ea20000         popf      f2
     1702 00000231 0e220000         pop       r2
     1703 00000232 0ea10000         popf      f1
     1704 00000233 0e210000         pop       r1
     1705 00000234 0ea00000         popf      f0
     1706 00000235 0e200000         pop       r0
     1707 00000236 0e300000         pop       dp
     1708                                                           ; Unallocate the Frame
     1709 00000237 18740008         subi      8,sp
     1710 00000238 0e2b0000         pop       fp
     1711 00000239 0e350000         pop       st
     1712 0000023a 78000000         reti
     1713                                                                   ; Return From Interrupt
     1714                           .endfunc        220,0103f37ffh,8
     1715                   
     1716                   
     1717 0000023b                  .sect    "interrupt_routines"
     1718                   
     1719                           .global _c_INT2
     1720                           .sym    _c_INT2,_c_INT2,32,2,0
     1721                           .func   237
     1722                   ;******************************************************************************
     1723                   ;* FUNCTION NAME: _c_INT2                                                     *
     1724                   ;*                                                                            *
     1725                   ;*   Architecture       : TMS320C33                                           *
     1726                   ;*   Calling Convention : TI Standard Register Parameters                     *
     1727                   ;*   Function Uses Regs : r0,ar0,st                                           *
     1728                   ;*   Regs Saved         : f0,r0,f1,r1,f2,r2,f3,r3,f4,r4,f5,r5,f6,r6,f7,r7,ar0,*
     1729                   ;*                        ar1,ar2,ir0,ir1,bk,rs,re,rc,pc                      *
     1730                   ;*   Stack Frame        : Full (w/ debug)                                     *
     1731                   ;*   Total Frame Size   : 2 Call + 0 Parm + 0 Auto + 26 SOE = 28 words        *
     1732                   ;******************************************************************************
     1733 0000023b          _c_INT2:
     1734                           .line   1
     1735                   ;----------------------------------------------------------------------
     1736                   ; 237 | void c_INT2(void)                                                      
     1737                   ;----------------------------------------------------------------------
     1738 0000023b 0f350000         push      st
     1739 0000023c 0f2b0000         push      fp
     1740 0000023d 500b0014         ldiu      sp,fp
     1741 0000023e 0f300000         push      dp
     1742 0000023f 0f200000         push      r0
     1743 00000240 0fa00000         pushf     f0
     1744 00000241 0f210000         push      r1
     1745 00000242 0fa10000         pushf     f1
     1746 00000243 0f220000         push      r2
     1747 00000244 0fa20000         pushf     f2
     1748 00000245 0f230000         push      r3
     1749 00000246 0fa30000         pushf     f3
     1750 00000247 0f280000         push      ar0
     1751 00000248 0f290000         push      ar1
     1752 00000249 0f2a0000         push      ar2
     1753 0000024a 0f310000         push      ir0
     1754 0000024b 0f320000         push      ir1
TMS320C3x/4x COFF AssemblerVersion 5.12     Wed Jul 24 11:03:43 2019
Copyright (c) 1987-1999 Texas Instruments Incorporatedasm30.exe -@_DJO.AAB 

G:\workspace\EEA\V615\APP\SOURCE\ASM\isr.asm                         PAGE   34

     1755 0000024c 0f390000         push      rs
     1756 0000024d 0f3a0000         push      re
     1757 0000024e 0f3b0000         push      rc
     1758 0000024f 0f240000         push      r4
     1759 00000250 0fa40000         pushf     f4
     1760 00000251 0f250000         push      r5
     1761 00000252 0fa50000         pushf     f5
     1762 00000253 0f260000         push      r6
     1763 00000254 0fa60000         pushf     f6
     1764 00000255 0f270000         push      r7
     1765 00000256 0fa70000         pushf     f7
     1766 00000257 0f330000         push      bk
     1767 00000258 03750100         andn      256,st                ; Disable any existing repeat loops
     1768                           .line   3
     1769                   ;----------------------------------------------------------------------
     1770                   ; 239 | if (!SA)                                                               
     1771                   ;----------------------------------------------------------------------
     1772 00000259 08700000-        ldp       @CL3,DP
     1773 0000025a 50280002-        ldiu      @CL3,ar0              ; |239| 
     1774 0000025b 5040c000         ldiu      *ar0,r0               ; |239| 
     1775 0000025c 04e00000         cmpi      0,r0                  ; |239| 
     1776 0000025d 6a050004         beq       L32                   ; |239| 
     1777                   ;*      Branch Occurs to L32            ; |239| 
     1778                           .line   4
     1779                   ;----------------------------------------------------------------------
     1780                   ; 240 | return;                                                                
     1781                   ;----------------------------------------------------------------------
     1782                           .line   6
     1783                   ;----------------------------------------------------------------------
     1784                   ; 242 | Read_ADC_FIFO();                                                       
     1785                   ;----------------------------------------------------------------------
     1786 0000025e 08700000-        ldp       @CL41,DP
     1787 0000025f 5020002a-        ldiu      @CL41,r0              ; |242| 
     1788 00000260 70000000         callu     r0                    ; far call to _Read_ADC_FIFO    ; |242| 
     1789                                                           ; |242| Far Call Occurs
     1790                           .line   8
     1791                   ;----------------------------------------------------------------------
     1792                   ; 244 | DISABLE_INT2;                                                          
     1793                   ;----------------------------------------------------------------------
     1794 00000261 03760004         andn    0004h, IE
     1795 00000262          L32:        
     1796                           .line   9
     1797                                                           ; Begin Epilog Code
     1798                                                           ; Restore SOE Registers
     1799 00000262 0e330000         pop       bk
     1800 00000263 0ea70000         popf      f7
     1801 00000264 0e270000         pop       r7
     1802 00000265 0ea60000         popf      f6
     1803 00000266 0e260000         pop       r6
     1804 00000267 0ea50000         popf      f5
     1805 00000268 0e250000         pop       r5
     1806 00000269 0ea40000         popf      f4
     1807 0000026a 0e240000         pop       r4
     1808 0000026b 0e3b0000         pop       rc
TMS320C3x/4x COFF AssemblerVersion 5.12     Wed Jul 24 11:03:43 2019
Copyright (c) 1987-1999 Texas Instruments Incorporatedasm30.exe -@_DJO.AAB 

G:\workspace\EEA\V615\APP\SOURCE\ASM\isr.asm                         PAGE   35

     1809 0000026c 0e3a0000         pop       re
     1810 0000026d 0e390000         pop       rs
     1811 0000026e 0e320000         pop       ir1
     1812 0000026f 0e310000         pop       ir0
     1813 00000270 0e2a0000         pop       ar2
     1814 00000271 0e290000         pop       ar1
     1815 00000272 0e280000         pop       ar0
     1816 00000273 0ea30000         popf      f3
     1817 00000274 0e230000         pop       r3
     1818 00000275 0ea20000         popf      f2
     1819 00000276 0e220000         pop       r2
     1820 00000277 0ea10000         popf      f1
     1821 00000278 0e210000         pop       r1
     1822 00000279 0ea00000         popf      f0
     1823 0000027a 0e200000         pop       r0
     1824 0000027b 0e300000         pop       dp
     1825                                                           ; Unallocate the Frame
     1826 0000027c 0e2b0000         pop       fp
     1827 0000027d 0e350000         pop       st
     1828 0000027e 78000000         reti
     1829                                                                   ; Return From Interrupt
     1830                           .endfunc        245,0103f07ffh,0
     1831                   
     1832                   
     1833 0000027f                  .sect    "interrupt_routines"
     1834                   
     1835                           .global _c_INT3
     1836                           .sym    _c_INT3,_c_INT3,32,2,0
     1837                           .func   261
     1838                   ;******************************************************************************
     1839                   ;* FUNCTION NAME: _c_INT3                                                     *
     1840                   ;*                                                                            *
     1841                   ;*   Architecture       : TMS320C33                                           *
     1842                   ;*   Calling Convention : TI Standard Register Parameters                     *
     1843                   ;*   Function Uses Regs : f0,r0,f1,r1,r2,ar0,st                               *
     1844                   ;*   Regs Saved         : f0,r0,f1,r1,f2,r2,f3,r3,f5,r5,ar0,bk,sp,rc,pc       *
     1845                   ;*   Stack Frame        : Full (w/ debug)                                     *
     1846                   ;*   Total Frame Size   : 2 Call + 0 Parm + 4 Auto + 14 SOE = 20 words        *
     1847                   ;******************************************************************************
     1848 0000027f          _c_INT3:
     1849                           .sym    _FREQ_COUNTER,1,14,1,32
     1850                           .sym    _tmp,2,14,1,32
     1851                           .sym    _FREQUENCY,3,11,1,64
     1852                           .line   1
     1853                   ;----------------------------------------------------------------------
     1854                   ; 261 | void c_INT3(void)                                                      
     1855                   ; 263 | unsigned int FREQ_COUNTER;      /* holds raw frequency */              
     1856                   ; 264 | unsigned int tmp;                       /* calculated aux frequency */ 
     1857                   ; 265 | long double FREQUENCY;          /* final frequency */                  
     1858                   ;----------------------------------------------------------------------
     1859 0000027f 0f350000         push      st
     1860 00000280 0f2b0000         push      fp
     1861 00000281 500b0014         ldiu      sp,fp
     1862 00000282 02740004         addi      4,sp
TMS320C3x/4x COFF AssemblerVersion 5.12     Wed Jul 24 11:03:43 2019
Copyright (c) 1987-1999 Texas Instruments Incorporatedasm30.exe -@_DJO.AAB 

G:\workspace\EEA\V615\APP\SOURCE\ASM\isr.asm                         PAGE   36

     1863 00000283 0f300000         push      dp
     1864 00000284 0f200000         push      r0
     1865 00000285 0fa00000         pushf     f0
     1866 00000286 0f210000         push      r1
     1867 00000287 0fa10000         pushf     f1
     1868 00000288 0f220000         push      r2
     1869 00000289 0fa20000         pushf     f2
     1870 0000028a 0f230000         push      r3
     1871 0000028b 0fa30000         pushf     f3
     1872 0000028c 0f280000         push      ar0
     1873 0000028d 0f3b0000         push      rc
     1874 0000028e 0f250000         push      r5
     1875 0000028f 0fa50000         pushf     f5
     1876 00000290 0f330000         push      bk
     1877 00000291 03750100         andn      256,st                ; Disable any existing repeat loops
     1878                           .line   7
     1879                   ;----------------------------------------------------------------------
     1880                   ; 267 | if ((VT_SELECT>=VTMAX) || (VT_SELECT<0))                               
     1881                   ;----------------------------------------------------------------------
     1882 00000292 08700000-        ldp       @CL42,DP
     1883 00000293 5028002b-        ldiu      @CL42,ar0             ; |267| 
     1884 00000294 5040c000         ldiu      *ar0,r0               ; |267| 
     1885 00000295 04e00004         cmpi      4,r0                  ; |267| 
     1886 00000296 6a0a0005         bge       L36                   ; |267| 
     1887                   ;*      Branch Occurs to L36            ; |267| 
     1888 00000297 08700000-        ldp       @CL42,DP
     1889 00000298 5028002b-        ldiu      @CL42,ar0             ; |267| 
     1890 00000299 5040c000         ldiu      *ar0,r0               ; |267| 
     1891 0000029a 04e00000         cmpi      0,r0                  ; |267| 
     1892 0000029b 6a0a0009         bge       L37                   ; |267| 
     1893                   ;*      Branch Occurs to L37            ; |267| 
     1894 0000029c          L36:        
     1895                           .line   9
     1896                   ;----------------------------------------------------------------------
     1897                   ; 269 | VT_SELECT        = 0;                                                  
     1898                   ;----------------------------------------------------------------------
     1899 0000029c 08700000-        ldp       @CL42,DP
     1900 0000029d 5028002b-        ldiu      @CL42,ar0             ; |269| 
     1901 0000029e 50600000         ldiu      0,r0                  ; |269| 
     1902 0000029f 1540c000         sti       r0,*ar0               ; |269| 
     1903                           .line   10
     1904                   ;----------------------------------------------------------------------
     1905                   ; 270 | GATE_TIMEOUT = TRUE;                                                   
     1906                   ;----------------------------------------------------------------------
     1907 000002a0 08700000-        ldp       @CL43,DP
     1908 000002a1 5028002c-        ldiu      @CL43,ar0             ; |270| 
     1909 000002a2 50600001         ldiu      1,r0                  ; |270| 
     1910 000002a3 1540c000         sti       r0,*ar0               ; |270| 
     1911                           .line   12
     1912                   ;----------------------------------------------------------------------
     1913                   ; 272 | return;                                                                
     1914                   ;----------------------------------------------------------------------
     1915 000002a4 6a00006a         bu        L41                   ; |272| 
     1916                   ;*      Branch Occurs to L41            ; |272| 
TMS320C3x/4x COFF AssemblerVersion 5.12     Wed Jul 24 11:03:43 2019
Copyright (c) 1987-1999 Texas Instruments Incorporatedasm30.exe -@_DJO.AAB 

G:\workspace\EEA\V615\APP\SOURCE\ASM\isr.asm                         PAGE   37

     1917 000002a5          L37:        
     1918                           .line   15
     1919                   ;----------------------------------------------------------------------
     1920                   ; 275 | _GIEP;                                                                 
     1921                   ;----------------------------------------------------------------------
     1922 000002a5 0f350000         push    ST                      
     1923 000002a6 03752000         andn    2000h, ST       
     1924                           .line   18
     1925                   ;----------------------------------------------------------------------
     1926                   ; 278 | FREQ_COUNTER  = *XREG10 & 0xFF;                                        
     1927                   ;----------------------------------------------------------------------
     1928 000002a7 08700000-        ldp       @CL44,DP
     1929 000002a8 5028002d-        ldiu      @CL44,ar0             ; |278| 
     1930 000002a9 506000ff         ldiu      255,r0                ; |278| 
     1931 000002aa 21a0c000         and3      r0,*ar0,r0            ; |278| 
     1932 000002ab 15400301         sti       r0,*+fp(1)            ; |278| 
     1933                           .line   19
     1934                   ;----------------------------------------------------------------------
     1935                   ; 279 | FREQ_COUNTER  = FREQ_COUNTER <<  8;                                    
     1936                   ;----------------------------------------------------------------------
     1937 000002ac 03e00008         ash       8,r0                  ; |279| 
     1938 000002ad 15400301         sti       r0,*+fp(1)            ; |279| 
     1939                           .line   20
     1940                   ;----------------------------------------------------------------------
     1941                   ; 280 | FREQ_COUNTER |= *XREG9 & 0xFF;                                         
     1942                   ;----------------------------------------------------------------------
     1943 000002ae 08700000-        ldp       @CL45,DP
     1944 000002af 5028002e-        ldiu      @CL45,ar0             ; |280| 
     1945 000002b0 506000ff         ldiu      255,r0                ; |280| 
     1946 000002b1 21a0c000         and3      r0,*ar0,r0            ; |280| 
     1947 000002b2 10400301         or        *+fp(1),r0            ; |280| 
     1948 000002b3 15400301         sti       r0,*+fp(1)            ; |280| 
     1949                           .line   21
     1950                   ;----------------------------------------------------------------------
     1951                   ; 281 | FREQ_COUNTER  = FREQ_COUNTER <<  8;                                    
     1952                   ;----------------------------------------------------------------------
     1953 000002b4 03e00008         ash       8,r0                  ; |281| 
     1954 000002b5 15400301         sti       r0,*+fp(1)            ; |281| 
     1955                           .line   22
     1956                   ;----------------------------------------------------------------------
     1957                   ; 282 | FREQ_COUNTER |= *XREG8 & 0xFF;                                         
     1958                   ;----------------------------------------------------------------------
     1959 000002b6 08700000-        ldp       @CL46,DP
     1960 000002b7 5028002f-        ldiu      @CL46,ar0             ; |282| 
     1961 000002b8 506000ff         ldiu      255,r0                ; |282| 
     1962 000002b9 21a0c000         and3      r0,*ar0,r0            ; |282| 
     1963 000002ba 10400301         or        *+fp(1),r0            ; |282| 
     1964 000002bb 15400301         sti       r0,*+fp(1)            ; |282| 
     1965                           .line   23
     1966                   ;----------------------------------------------------------------------
     1967                   ; 283 | FREQ_COUNTER  = FREQ_COUNTER <<  8;                                    
     1968                   ;----------------------------------------------------------------------
     1969 000002bc 03e00008         ash       8,r0                  ; |283| 
     1970 000002bd 15400301         sti       r0,*+fp(1)            ; |283| 
TMS320C3x/4x COFF AssemblerVersion 5.12     Wed Jul 24 11:03:43 2019
Copyright (c) 1987-1999 Texas Instruments Incorporatedasm30.exe -@_DJO.AAB 

G:\workspace\EEA\V615\APP\SOURCE\ASM\isr.asm                         PAGE   38

     1971                           .line   24
     1972                   ;----------------------------------------------------------------------
     1973                   ; 284 | FREQ_COUNTER |= *XREG7 & 0xFF;                                         
     1974                   ;----------------------------------------------------------------------
     1975 000002be 08700000-        ldp       @CL47,DP
     1976 000002bf 50280030-        ldiu      @CL47,ar0             ; |284| 
     1977 000002c0 506000ff         ldiu      255,r0                ; |284| 
     1978 000002c1 21a0c000         and3      r0,*ar0,r0            ; |284| 
     1979 000002c2 10400301         or        *+fp(1),r0            ; |284| 
     1980 000002c3 15400301         sti       r0,*+fp(1)            ; |284| 
     1981                           .line   27
     1982                   ;----------------------------------------------------------------------
     1983                   ; 287 | if (DIO_AUX_FREQ_MODE)                                                 
     1984                   ;----------------------------------------------------------------------
     1985 000002c4 08700000-        ldp       @CL48,DP
     1986 000002c5 50280031-        ldiu      @CL48,ar0             ; |287| 
     1987 000002c6 5040c000         ldiu      *ar0,r0               ; |287| 
     1988 000002c7 04e00000         cmpi      0,r0                  ; |287| 
     1989 000002c8 6a050004         beq       L39                   ; |287| 
     1990                   ;*      Branch Occurs to L39            ; |287| 
     1991                           .line   28
     1992                   ;----------------------------------------------------------------------
     1993                   ; 288 | tmp = FREQ_COUNTER * 4;                                                
     1994                   ; 289 | else                                                                   
     1995                   ;----------------------------------------------------------------------
     1996 000002c9 50400301         ldiu      *+fp(1),r0            ; |288| 
     1997 000002ca 03e00002         ash       2,r0                  ; |288| 
     1998 000002cb 15400302         sti       r0,*+fp(2)            ; |288| 
     1999 000002cc 6a000010         bu        L40                   ; |260| 
     2000                   ;*      Branch Occurs to L40            ; |260| 
     2001 000002cd          L39:        
     2002                           .line   30
     2003                   ;----------------------------------------------------------------------
     2004                   ; 290 | tmp = FREQ_COUNTER * PRESCALE;                                         
     2005                   ;----------------------------------------------------------------------
     2006 000002cd 08700000-        ldp       @CL49,DP
     2007 000002ce 50280032-        ldiu      @CL49,ar0             ; |290| 
     2008 000002cf 08700000-        ldp       @CL50,DP
     2009 000002d0 05c00301         float     *+fp(1),f0            ; |290| 
     2010 000002d1 43a10033-        ldflt     @CL50,f1              ; |290| 
     2011 000002d2 45618000         ldfge     0.0000000000e+00,f1   ; |290| 
     2012 000002d3 08700000-        ldp       @CL51,DP
     2013 000002d4 20800100         addf3     f0,f1,f0              ; |290| 
     2014 000002d5 24c100c0         mpyf3     *ar0,f0,f1            ; |290| 
     2015 000002d6 04210034-        cmpf      @CL51,f1              ; |290| 
     2016 000002d7 08700000-        ldp       @CL50,DP
     2017 000002d8 43e08000         ldflt     0.0000000000e+00,f0   ; |290| 
     2018 000002d9 45200033-        ldfge     @CL50,f0              ; |290| 
     2019 000002da 19000001         subrf     f1,f0                 ; |290| 
     2020 000002db 05000000         fix       f0,r0                 ; |290| 
     2021 000002dc 15400302         sti       r0,*+fp(2)            ; |290| 
     2022 000002dd          L40:        
     2023                           .line   32
     2024                   ;----------------------------------------------------------------------
TMS320C3x/4x COFF AssemblerVersion 5.12     Wed Jul 24 11:03:43 2019
Copyright (c) 1987-1999 Texas Instruments Incorporatedasm30.exe -@_DJO.AAB 

G:\workspace\EEA\V615\APP\SOURCE\ASM\isr.asm                         PAGE   39

     2025                   ; 292 | FREQUENCY                        = tmp;                                
     2026                   ;----------------------------------------------------------------------
     2027 000002dd 50400302         ldiu      *+fp(2),r0            ; |292| 
     2028 000002de 08700000-        ldp       @CL16,DP
     2029 000002df 05810000         float     r0,f1                 ; |292| 
     2030 000002e0 43a0000f-        ldflt     @CL16,f0              ; |292| 
     2031 000002e1 53a00010-        ldilt     @CL16+1,r0            ; |292| 
     2032 000002e2 45608000         ldfge     0.0000000000e+00,f0   ; |292| 
     2033 000002e3 55600000         ldige     0,r0                  ; |292| 
     2034 000002e4 01810000         addf      f0,f1                 ; |292| High Precision ADD
     2035 000002e5 14410303         stf       f1,*+fp(3)            ; |292| Store high half
     2036 000002e6 15410304         sti       r1,*+fp(4)            ; |292| Store low half
     2037                           .line   33
     2038                   ;----------------------------------------------------------------------
     2039                   ; 293 | FREQUENCY                       /= GATE_TIME;                          
     2040                   ;----------------------------------------------------------------------
     2041 000002e7 08700000-        ldp       @CL52,DP
     2042 000002e8 50280035-        ldiu      @CL52,ar0             ; |293| 
     2043 000002e9 506200ff         ldiu      255,r2                ; |293| 
     2044 000002ea 4040c000         ldfu      *ar0,f0               ; |293| 
     2045 000002eb 40010000         ldfu      f0,f1                 ; |293| Move F32 into F40 for CONV
     2046 000002ec 40400303         ldfu      *+fp(3),f0            ; |293| 40b float hi half
     2047 000002ed 03010002         andn      r2,f1                 ; |293| Bit mask for F32/F40 conversion
     2048 000002ee 50400304         ldiu      *+fp(4),r0            ; |293| 40b float lo half
     2049 000002ef 62000000!        call      DIV_LD                ; |293| 
     2050                                                           ; |293| Call Occurs
     2051 000002f0 14400303         stf       f0,*+fp(3)            ; |293| Store high half
     2052 000002f1 15400304         sti       r0,*+fp(4)            ; |293| Store low half
     2053                           .line   34
     2054                   ;----------------------------------------------------------------------
     2055                   ; 294 | FREQUENCY                       *= FREQ_FACTOR;                        
     2056                   ;----------------------------------------------------------------------
     2057 000002f2 08700000-        ldp       @CL53,DP
     2058 000002f3 50280036-        ldiu      @CL53,ar0             ; |294| 
     2059 000002f4 4040c000         ldfu      *ar0,f0               ; |294| 
     2060 000002f5 40010000         ldfu      f0,f1                 ; |294| Move F32 into F40 for CONV
     2061 000002f6 506200ff         ldiu      255,r2                ; |294| 
     2062 000002f7 40400303         ldfu      *+fp(3),f0            ; |294| 40b float hi half
     2063 000002f8 03010002         andn      r2,f1                 ; |294| Bit mask for F32/F40 conversion
     2064 000002f9 50400304         ldiu      *+fp(4),r0            ; |294| 40b float lo half
     2065 000002fa 62000000!        call      MPY_LD                ; |294| 
     2066                                                           ; |294| Call Occurs
     2067                           .line   35
     2068                   ;----------------------------------------------------------------------
     2069                   ; 295 | TMP_FREQ[VT_SELECT]  = FREQUENCY/1e6;                                  
     2070                   ;----------------------------------------------------------------------
     2071 000002fb 08700000-        ldp       @CL55+0,DP
     2072 000002fc 40210038-        ldfu      @CL55+0,f1            ; |295| 40b float hi half
     2073 000002fd 08700000-        ldp       @CL55+1,DP
     2074 000002fe 50210039-        ldiu      @CL55+1,r1            ; |295| 40b float lo half
     2075 000002ff 14400303         stf       f0,*+fp(3)            ; |295| Store high half
     2076 00000300 15400304         sti       r0,*+fp(4)            ; |295| Store low half
     2077 00000301 62000000!        call      MPY_LD                ; |295| 
     2078                                                           ; |295| Call Occurs
TMS320C3x/4x COFF AssemblerVersion 5.12     Wed Jul 24 11:03:43 2019
Copyright (c) 1987-1999 Texas Instruments Incorporatedasm30.exe -@_DJO.AAB 

G:\workspace\EEA\V615\APP\SOURCE\ASM\isr.asm                         PAGE   40

     2079 00000302 08700000-        ldp       @CL42,DP
     2080 00000303 50610001         ldiu      1,r1                  ; |295| 
     2081 00000304 5028002b-        ldiu      @CL42,ar0             ; |295| 
     2082 00000305 08700000-        ldp       @CL54,DP
     2083 00000306 22a8c001         ash3      r1,*ar0,ar0           ; |295| 
     2084 00000307 02280037-        addi      @CL54,ar0             ; |295| Unsigned
     2085 00000308 1440c000         stf       f0,*ar0               ; |295| Store high half
     2086 00000309 15400001         sti       r0,*+ar0              ; |295| Store low half
     2087                           .line   36
     2088                   ;----------------------------------------------------------------------
     2089                   ; 296 | GATE_TIMEOUT             = TRUE;                        /* GATE timed o
     2090                   ;     | ut and is ready for reading */                                         
     2091                   ;----------------------------------------------------------------------
     2092 0000030a 08700000-        ldp       @CL43,DP
     2093 0000030b 5028002c-        ldiu      @CL43,ar0             ; |296| 
     2094 0000030c 50600001         ldiu      1,r0                  ; |296| 
     2095 0000030d 1540c000         sti       r0,*ar0               ; |296| 
     2096                           .line   38
     2097                   ;----------------------------------------------------------------------
     2098                   ; 298 | GIEP;                                                                  
     2099                   ;----------------------------------------------------------------------
     2100 0000030e 0e350000         pop             ST                      
     2101 0000030f          L41:        
     2102                           .line   39
     2103                                                           ; Begin Epilog Code
     2104                                                           ; Restore SOE Registers
     2105 0000030f 0e330000         pop       bk
     2106 00000310 0ea50000         popf      f5
     2107 00000311 0e250000         pop       r5
     2108 00000312 0e3b0000         pop       rc
     2109 00000313 0e280000         pop       ar0
     2110 00000314 0ea30000         popf      f3
     2111 00000315 0e230000         pop       r3
     2112 00000316 0ea20000         popf      f2
     2113 00000317 0e220000         pop       r2
     2114 00000318 0ea10000         popf      f1
     2115 00000319 0e210000         pop       r1
     2116 0000031a 0ea00000         popf      f0
     2117 0000031b 0e200000         pop       r0
     2118 0000031c 0e300000         pop       dp
     2119                                                           ; Unallocate the Frame
     2120 0000031d 18740004         subi      4,sp
     2121 0000031e 0e2b0000         pop       fp
     2122 0000031f 0e350000         pop       st
     2123 00000320 78000000         reti
     2124                                                                   ; Return From Interrupt
     2125                           .endfunc        299,0100c012fh,4
     2126                   
     2127                   
     2128 00000321                  .sect    "interrupt_routines"
     2129                   
     2130                           .global _c_TINT0
     2131                           .sym    _c_TINT0,_c_TINT0,32,2,0
     2132                           .func   319
TMS320C3x/4x COFF AssemblerVersion 5.12     Wed Jul 24 11:03:43 2019
Copyright (c) 1987-1999 Texas Instruments Incorporatedasm30.exe -@_DJO.AAB 

G:\workspace\EEA\V615\APP\SOURCE\ASM\isr.asm                         PAGE   41

     2133                   ;******************************************************************************
     2134                   ;* FUNCTION NAME: _c_TINT0                                                    *
     2135                   ;*                                                                            *
     2136                   ;*   Architecture       : TMS320C33                                           *
     2137                   ;*   Calling Convention : TI Standard Register Parameters                     *
     2138                   ;*   Function Uses Regs : r0,r2,r3,ar0,ar1,ar2,st                             *
     2139                   ;*   Regs Saved         : f0,r0,f1,r1,f2,r2,f3,r3,f4,r4,f5,r5,f6,r6,f7,r7,ar0,*
     2140                   ;*                        ar1,ar2,ir0,ir1,bk,sp,rs,re,rc,pc                   *
     2141                   ;*   Stack Frame        : Full (w/ debug)                                     *
     2142                   ;*   Total Frame Size   : 2 Call + 0 Parm + 3 Auto + 26 SOE = 31 words        *
     2143                   ;******************************************************************************
     2144 00000321          _c_TINT0:
     2145                           .sym    _p,1,24,1,32,.fake11
     2146                           .sym    _tmp,2,20,1,32
     2147                           .sym    _exec,3,14,1,32
     2148                           .line   1
     2149                   ;----------------------------------------------------------------------
     2150                   ; 319 | void c_TINT0(void)                                                     
     2151                   ; 321 | TPKT*   p;                                                             
     2152                   ; 322 | int*    tmp;                                                           
     2153                   ; 323 | BOOL    exec;                                                          
     2154                   ;----------------------------------------------------------------------
     2155 00000321 0f350000         push      st
     2156 00000322 0f2b0000         push      fp
     2157 00000323 500b0014         ldiu      sp,fp
     2158 00000324 02740003         addi      3,sp
     2159 00000325 0f300000         push      dp
     2160 00000326 0f200000         push      r0
     2161 00000327 0fa00000         pushf     f0
     2162 00000328 0f210000         push      r1
     2163 00000329 0fa10000         pushf     f1
     2164 0000032a 0f220000         push      r2
     2165 0000032b 0fa20000         pushf     f2
     2166 0000032c 0f230000         push      r3
     2167 0000032d 0fa30000         pushf     f3
     2168 0000032e 0f280000         push      ar0
     2169 0000032f 0f290000         push      ar1
     2170 00000330 0f2a0000         push      ar2
     2171 00000331 0f310000         push      ir0
     2172 00000332 0f320000         push      ir1
     2173 00000333 0f390000         push      rs
     2174 00000334 0f3a0000         push      re
     2175 00000335 0f3b0000         push      rc
     2176 00000336 0f240000         push      r4
     2177 00000337 0fa40000         pushf     f4
     2178 00000338 0f250000         push      r5
     2179 00000339 0fa50000         pushf     f5
     2180 0000033a 0f260000         push      r6
     2181 0000033b 0fa60000         pushf     f6
     2182 0000033c 0f270000         push      r7
     2183 0000033d 0fa70000         pushf     f7
     2184 0000033e 0f330000         push      bk
     2185 0000033f 03750100         andn      256,st                ; Disable any existing repeat loops
     2186                           .line   7
TMS320C3x/4x COFF AssemblerVersion 5.12     Wed Jul 24 11:03:43 2019
Copyright (c) 1987-1999 Texas Instruments Incorporatedasm30.exe -@_DJO.AAB 

G:\workspace\EEA\V615\APP\SOURCE\ASM\isr.asm                         PAGE   42

     2187                   ;----------------------------------------------------------------------
     2188                   ; 325 | DISABLE_TINT0;                                                         
     2189                   ;----------------------------------------------------------------------
     2190 00000340 03760100         andn    0100h, IE
     2191                           .line   8
     2192                   ;----------------------------------------------------------------------
     2193                   ; 326 | GIE;                                                                   
     2194                   ; 328 | while(1)                                                               
     2195                   ;----------------------------------------------------------------------
     2196 00000341 10752000         or              2000h, ST       
     2197                           .line   12
     2198                   ;----------------------------------------------------------------------
     2199                   ; 330 | TIMER1_COUNTER[UART_MAX]++;                                            
     2200                   ;----------------------------------------------------------------------
     2201 00000342 08700000-        ldp       @CL56,DP
     2202 00000343 5028003a-        ldiu      @CL56,ar0             ; |330| 
     2203 00000344 50600001         ldiu      1,r0                  ; |330| 
     2204 00000345 02400008         addi      *+ar0(8),r0           ; |330| 
     2205 00000346 15400008         sti       r0,*+ar0(8)           ; |330| 
     2206                           .line   14
     2207                   ;----------------------------------------------------------------------
     2208                   ; 332 | if(PORT[0].TMR_enabled)                                                
     2209                   ;----------------------------------------------------------------------
     2210 00000347 08700000-        ldp       @CL57,DP
     2211 00000348 5028003b-        ldiu      @CL57,ar0             ; |332| 
     2212 00000349 5040c000         ldiu      *ar0,r0               ; |332| 
     2213 0000034a 04e00000         cmpi      0,r0                  ; |332| 
     2214 0000034b 6a05005d         beq       L47                   ; |332| 
     2215                   ;*      Branch Occurs to L47            ; |332| 
     2216                           .line   16
     2217                   ;----------------------------------------------------------------------
     2218                   ; 334 | if (TIMER1_COUNTER[0]<=0)                                              
     2219                   ;----------------------------------------------------------------------
     2220 0000034c 08700000-        ldp       @CL56,DP
     2221 0000034d 5028003a-        ldiu      @CL56,ar0             ; |334| 
     2222 0000034e 5040c000         ldiu      *ar0,r0               ; |334| 
     2223 0000034f 04e00000         cmpi      0,r0                  ; |334| 
     2224 00000350 6a090053         bgt       L46                   ; |334| 
     2225                   ;*      Branch Occurs to L46            ; |334| 
     2226                           .line   18
     2227                   ;----------------------------------------------------------------------
     2228                   ; 336 | PORT[0].TMR_enabled = FALSE;                                           
     2229                   ;----------------------------------------------------------------------
     2230 00000351 08700000-        ldp       @CL57,DP
     2231 00000352 5028003b-        ldiu      @CL57,ar0             ; |336| 
     2232 00000353 50600000         ldiu      0,r0                  ; |336| 
     2233 00000354 1540c000         sti       r0,*ar0               ; |336| 
     2234                           .line   19
     2235                   ;----------------------------------------------------------------------
     2236                   ; 337 | vect_pt0                        = PORT[0].tvector;                     
     2237                   ;----------------------------------------------------------------------
     2238 00000355 08700000-        ldp       @CL59,DP
     2239 00000356 5028003d-        ldiu      @CL59,ar0             ; |337| 
     2240 00000357 08700000-        ldp       @CL58,DP
TMS320C3x/4x COFF AssemblerVersion 5.12     Wed Jul 24 11:03:43 2019
Copyright (c) 1987-1999 Texas Instruments Incorporatedasm30.exe -@_DJO.AAB 

G:\workspace\EEA\V615\APP\SOURCE\ASM\isr.asm                         PAGE   43

     2241 00000358 5029003c-        ldiu      @CL58,ar1             ; |337| 
     2242 00000359 5040c000         ldiu      *ar0,r0               ; |337| 
     2243 0000035a 1540c100         sti       r0,*ar1               ; |337| 
     2244                           .line   21
     2245                   ;----------------------------------------------------------------------
     2246                   ; 339 | PUSH_ALL;                                                              
     2247                   ;----------------------------------------------------------------------
     2248 0000035b 0f350000         push    ST                      
     2249 0000035c 0f2b0000         push    FP                      
     2250 0000035d 080b0014         ldi             SP,FP           
     2251 0000035e 02740002         addi    2,SP            
     2252 0000035f 0f200000         push    R0                      
     2253 00000360 0fa00000         pushf   R0                      
     2254 00000361 0f210000         push    R1                      
     2255 00000362 0fa10000         pushf   R1                      
     2256 00000363 0f220000         push    R2                      
     2257 00000364 0fa20000         pushf   R2                      
     2258 00000365 0f230000         push    R3                      
     2259 00000366 0fa30000         pushf   R3                      
     2260 00000367 0f240000         push    R4                      
     2261 00000368 0fa40000         pushf   R4                      
     2262 00000369 0f250000         push    R5                      
     2263 0000036a 0fa50000         pushf   R5                      
     2264 0000036b 0f260000         push    R6                      
     2265 0000036c 0fa60000         pushf   R6                      
     2266 0000036d 0f270000         push    R7                      
     2267 0000036e 0fa70000         pushf   R7                      
     2268 0000036f 0f280000         push    AR0                     
     2269 00000370 0f290000         push    AR1                     
     2270 00000371 0f2a0000         push    AR2                     
     2271 00000372 0f2c0000         push    AR4                     
     2272 00000373 0f2d0000         push    AR5                     
     2273 00000374 0f2e0000         push    AR6                     
     2274 00000375 0f2f0000         push    AR7                     
     2275 00000376 0f300000         push    DP                      
     2276 00000377 0f310000         push    IR0                     
     2277 00000378 0f320000         push    IR1                     
     2278 00000379 0f330000         push    BK                      
     2279 0000037a 0f380000         push    IOF                     
     2280 0000037b 0f390000         push    RS                      
     2281 0000037c 0f3a0000         push    RE                      
     2282 0000037d 0f3b0000         push    RC                      
     2283                           .line   22
     2284                   ;----------------------------------------------------------------------
     2285                   ; 340 | asm("           .global _vect_pt0  ");                                 
     2286                   ;----------------------------------------------------------------------
     2287                                   .global _vect_pt0  
     2288                           .line   23
     2289                   ;----------------------------------------------------------------------
     2290                   ; 341 | asm("       ldp             _vect_pt0      ");                         
     2291                   ;----------------------------------------------------------------------
     2292 0000037e 08700000!        ldp             _vect_pt0      
     2293                           .line   24
     2294                   ;----------------------------------------------------------------------
TMS320C3x/4x COFF AssemblerVersion 5.12     Wed Jul 24 11:03:43 2019
Copyright (c) 1987-1999 Texas Instruments Incorporatedasm30.exe -@_DJO.AAB 

G:\workspace\EEA\V615\APP\SOURCE\ASM\isr.asm                         PAGE   44

     2295                   ; 342 | asm("       ldi             @_vect_pt0, R0 ");                         
     2296                   ;----------------------------------------------------------------------
     2297 0000037f 08200000!        ldi             @_vect_pt0, R0 
     2298                           .line   25
     2299                   ;----------------------------------------------------------------------
     2300                   ; 343 | asm("       ldi             0, AR2             ");  /* select the port
     2301                   ;     | */                                                                     
     2302                   ;----------------------------------------------------------------------
     2303 00000380 086a0000         ldi             0, AR2             
     2304                           .line   26
     2305                   ;----------------------------------------------------------------------
     2306                   ; 344 | asm("       callnz  R0                         ");  /* call if vect !=
     2307                   ;     | NULL */                                                                
     2308                   ;----------------------------------------------------------------------
     2309 00000381 70060000         callnz  R0                         
     2310                           .line   27
     2311                   ;----------------------------------------------------------------------
     2312                   ; 345 | POP_ALL;                                                               
     2313                   ;----------------------------------------------------------------------
     2314 00000382 0e3b0000         pop             RC                      
     2315 00000383 0e3a0000         pop             RE                      
     2316 00000384 0e390000         pop             RS                      
     2317 00000385 0e380000         pop             IOF                     
     2318 00000386 0e330000         pop             BK                      
     2319 00000387 0e320000         pop             IR1                     
     2320 00000388 0e310000         pop             IR0                     
     2321 00000389 0e300000         pop             DP                      
     2322 0000038a 0e2f0000         pop             AR7                     
     2323 0000038b 0e2e0000         pop             AR6                     
     2324 0000038c 0e2d0000         pop             AR5                     
     2325 0000038d 0e2c0000         pop             AR4                     
     2326 0000038e 0e2a0000         pop             AR2                     
     2327 0000038f 0e290000         pop             AR1                     
     2328 00000390 0e280000         pop             AR0                     
     2329 00000391 0ea70000         popf    R7                      
     2330 00000392 0e270000         pop     R7                      
     2331 00000393 0ea60000         popf    R6                      
     2332 00000394 0e260000         pop             R6                      
     2333 00000395 0ea50000         popf    R5                      
     2334 00000396 0e250000         pop             R5                      
     2335 00000397 0ea40000         popf    R4                      
     2336 00000398 0e240000         pop             R4                      
     2337 00000399 0ea30000         popf    R3                      
     2338 0000039a 0e230000         pop             R3                      
     2339 0000039b 0ea20000         popf    R2                      
     2340 0000039c 0e220000         pop             R2                      
     2341 0000039d 0ea10000         popf    R1                      
     2342 0000039e 0e210000         pop             R1                      
     2343 0000039f 0ea00000         popf    R0                      
     2344 000003a0 0e200000         pop     R0                      
     2345 000003a1 18740002         subi    2,SP            
     2346 000003a2 0e2b0000         pop     FP                      
     2347 000003a3 0e350000         pop     ST                      
     2348 000003a4          L46:        
TMS320C3x/4x COFF AssemblerVersion 5.12     Wed Jul 24 11:03:43 2019
Copyright (c) 1987-1999 Texas Instruments Incorporatedasm30.exe -@_DJO.AAB 

G:\workspace\EEA\V615\APP\SOURCE\ASM\isr.asm                         PAGE   45

     2349                           .line   30
     2350                   ;----------------------------------------------------------------------
     2351                   ; 348 | TIMER1_COUNTER[0]--;                                                   
     2352                   ;----------------------------------------------------------------------
     2353 000003a4 08700000-        ldp       @CL56,DP
     2354 000003a5 5028003a-        ldiu      @CL56,ar0             ; |348| 
     2355 000003a6 50600001         ldiu      1,r0                  ; |348| 
     2356 000003a7 2720c000         subi3     r0,*ar0,r0            ; |348| 
     2357 000003a8 1540c000         sti       r0,*ar0               ; |348| 
     2358 000003a9          L47:        
     2359                           .line   33
     2360                   ;----------------------------------------------------------------------
     2361                   ; 351 | if(PORT[1].TMR_enabled)                                                
     2362                   ;----------------------------------------------------------------------
     2363 000003a9 08700000-        ldp       @CL60,DP
     2364 000003aa 5028003e-        ldiu      @CL60,ar0             ; |351| 
     2365 000003ab 5040c000         ldiu      *ar0,r0               ; |351| 
     2366 000003ac 04e00000         cmpi      0,r0                  ; |351| 
     2367 000003ad 6a05005d         beq       L51                   ; |351| 
     2368                   ;*      Branch Occurs to L51            ; |351| 
     2369                           .line   35
     2370                   ;----------------------------------------------------------------------
     2371                   ; 353 | if (TIMER1_COUNTER[1]<=0)                                              
     2372                   ;----------------------------------------------------------------------
     2373 000003ae 08700000-        ldp       @CL61,DP
     2374 000003af 5028003f-        ldiu      @CL61,ar0             ; |353| 
     2375 000003b0 5040c000         ldiu      *ar0,r0               ; |353| 
     2376 000003b1 04e00000         cmpi      0,r0                  ; |353| 
     2377 000003b2 6a090053         bgt       L50                   ; |353| 
     2378                   ;*      Branch Occurs to L50            ; |353| 
     2379                           .line   37
     2380                   ;----------------------------------------------------------------------
     2381                   ; 355 | PORT[1].TMR_enabled = FALSE;                                           
     2382                   ;----------------------------------------------------------------------
     2383 000003b3 08700000-        ldp       @CL60,DP
     2384 000003b4 5028003e-        ldiu      @CL60,ar0             ; |355| 
     2385 000003b5 50600000         ldiu      0,r0                  ; |355| 
     2386 000003b6 1540c000         sti       r0,*ar0               ; |355| 
     2387                           .line   38
     2388                   ;----------------------------------------------------------------------
     2389                   ; 356 | vect_pt1                        = PORT[1].tvector;                     
     2390                   ;----------------------------------------------------------------------
     2391 000003b7 08700000-        ldp       @CL63,DP
     2392 000003b8 50280041-        ldiu      @CL63,ar0             ; |356| 
     2393 000003b9 08700000-        ldp       @CL62,DP
     2394 000003ba 50290040-        ldiu      @CL62,ar1             ; |356| 
     2395 000003bb 5040c000         ldiu      *ar0,r0               ; |356| 
     2396 000003bc 1540c100         sti       r0,*ar1               ; |356| 
     2397                           .line   40
     2398                   ;----------------------------------------------------------------------
     2399                   ; 358 | PUSH_ALL;                                                              
     2400                   ;----------------------------------------------------------------------
     2401 000003bd 0f350000         push    ST                      
     2402 000003be 0f2b0000         push    FP                      
TMS320C3x/4x COFF AssemblerVersion 5.12     Wed Jul 24 11:03:43 2019
Copyright (c) 1987-1999 Texas Instruments Incorporatedasm30.exe -@_DJO.AAB 

G:\workspace\EEA\V615\APP\SOURCE\ASM\isr.asm                         PAGE   46

     2403 000003bf 080b0014         ldi             SP,FP           
     2404 000003c0 02740002         addi    2,SP            
     2405 000003c1 0f200000         push    R0                      
     2406 000003c2 0fa00000         pushf   R0                      
     2407 000003c3 0f210000         push    R1                      
     2408 000003c4 0fa10000         pushf   R1                      
     2409 000003c5 0f220000         push    R2                      
     2410 000003c6 0fa20000         pushf   R2                      
     2411 000003c7 0f230000         push    R3                      
     2412 000003c8 0fa30000         pushf   R3                      
     2413 000003c9 0f240000         push    R4                      
     2414 000003ca 0fa40000         pushf   R4                      
     2415 000003cb 0f250000         push    R5                      
     2416 000003cc 0fa50000         pushf   R5                      
     2417 000003cd 0f260000         push    R6                      
     2418 000003ce 0fa60000         pushf   R6                      
     2419 000003cf 0f270000         push    R7                      
     2420 000003d0 0fa70000         pushf   R7                      
     2421 000003d1 0f280000         push    AR0                     
     2422 000003d2 0f290000         push    AR1                     
     2423 000003d3 0f2a0000         push    AR2                     
     2424 000003d4 0f2c0000         push    AR4                     
     2425 000003d5 0f2d0000         push    AR5                     
     2426 000003d6 0f2e0000         push    AR6                     
     2427 000003d7 0f2f0000         push    AR7                     
     2428 000003d8 0f300000         push    DP                      
     2429 000003d9 0f310000         push    IR0                     
     2430 000003da 0f320000         push    IR1                     
     2431 000003db 0f330000         push    BK                      
     2432 000003dc 0f380000         push    IOF                     
     2433 000003dd 0f390000         push    RS                      
     2434 000003de 0f3a0000         push    RE                      
     2435 000003df 0f3b0000         push    RC                      
     2436                           .line   41
     2437                   ;----------------------------------------------------------------------
     2438                   ; 359 | asm("           .global _vect_pt1  ");                                 
     2439                   ;----------------------------------------------------------------------
     2440                                   .global _vect_pt1  
     2441                           .line   42
     2442                   ;----------------------------------------------------------------------
     2443                   ; 360 | asm("       ldp             _vect_pt1      ");                         
     2444                   ;----------------------------------------------------------------------
     2445 000003e0 08700000!        ldp             _vect_pt1      
     2446                           .line   43
     2447                   ;----------------------------------------------------------------------
     2448                   ; 361 | asm("       ldi             @_vect_pt1, R0 ");                         
     2449                   ;----------------------------------------------------------------------
     2450 000003e1 08200000!        ldi             @_vect_pt1, R0 
     2451                           .line   44
     2452                   ;----------------------------------------------------------------------
     2453                   ; 362 | asm("       ldi             1, AR2             ");  /* select the port
     2454                   ;     | */                                                                     
     2455                   ;----------------------------------------------------------------------
     2456 000003e2 086a0001         ldi             1, AR2             
TMS320C3x/4x COFF AssemblerVersion 5.12     Wed Jul 24 11:03:43 2019
Copyright (c) 1987-1999 Texas Instruments Incorporatedasm30.exe -@_DJO.AAB 

G:\workspace\EEA\V615\APP\SOURCE\ASM\isr.asm                         PAGE   47

     2457                           .line   45
     2458                   ;----------------------------------------------------------------------
     2459                   ; 363 | asm("       callnz  R0                         ");  /* call if vect !=
     2460                   ;     | NULL */                                                                
     2461                   ;----------------------------------------------------------------------
     2462 000003e3 70060000         callnz  R0                         
     2463                           .line   46
     2464                   ;----------------------------------------------------------------------
     2465                   ; 364 | POP_ALL;                                                               
     2466                   ;----------------------------------------------------------------------
     2467 000003e4 0e3b0000         pop             RC                      
     2468 000003e5 0e3a0000         pop             RE                      
     2469 000003e6 0e390000         pop             RS                      
     2470 000003e7 0e380000         pop             IOF                     
     2471 000003e8 0e330000         pop             BK                      
     2472 000003e9 0e320000         pop             IR1                     
     2473 000003ea 0e310000         pop             IR0                     
     2474 000003eb 0e300000         pop             DP                      
     2475 000003ec 0e2f0000         pop             AR7                     
     2476 000003ed 0e2e0000         pop             AR6                     
     2477 000003ee 0e2d0000         pop             AR5                     
     2478 000003ef 0e2c0000         pop             AR4                     
     2479 000003f0 0e2a0000         pop             AR2                     
     2480 000003f1 0e290000         pop             AR1                     
     2481 000003f2 0e280000         pop             AR0                     
     2482 000003f3 0ea70000         popf    R7                      
     2483 000003f4 0e270000         pop     R7                      
     2484 000003f5 0ea60000         popf    R6                      
     2485 000003f6 0e260000         pop             R6                      
     2486 000003f7 0ea50000         popf    R5                      
     2487 000003f8 0e250000         pop             R5                      
     2488 000003f9 0ea40000         popf    R4                      
     2489 000003fa 0e240000         pop             R4                      
     2490 000003fb 0ea30000         popf    R3                      
     2491 000003fc 0e230000         pop             R3                      
     2492 000003fd 0ea20000         popf    R2                      
     2493 000003fe 0e220000         pop             R2                      
     2494 000003ff 0ea10000         popf    R1                      
     2495 00000400 0e210000         pop             R1                      
     2496 00000401 0ea00000         popf    R0                      
     2497 00000402 0e200000         pop     R0                      
     2498 00000403 18740002         subi    2,SP            
     2499 00000404 0e2b0000         pop     FP                      
     2500 00000405 0e350000         pop     ST                      
     2501 00000406          L50:        
     2502                           .line   49
     2503                   ;----------------------------------------------------------------------
     2504                   ; 367 | TIMER1_COUNTER[1]--;                                                   
     2505                   ;----------------------------------------------------------------------
     2506 00000406 08700000-        ldp       @CL56,DP
     2507 00000407 5028003a-        ldiu      @CL56,ar0             ; |367| 
     2508 00000408 50600001         ldiu      1,r0                  ; |367| 
     2509 00000409 19c00001         subri     *+ar0(1),r0           ; |367| 
     2510 0000040a 15400001         sti       r0,*+ar0(1)           ; |367| 
TMS320C3x/4x COFF AssemblerVersion 5.12     Wed Jul 24 11:03:43 2019
Copyright (c) 1987-1999 Texas Instruments Incorporatedasm30.exe -@_DJO.AAB 

G:\workspace\EEA\V615\APP\SOURCE\ASM\isr.asm                         PAGE   48

     2511 0000040b          L51:        
     2512                           .line   52
     2513                   ;----------------------------------------------------------------------
     2514                   ; 370 | if (SA)                                                                
     2515                   ;----------------------------------------------------------------------
     2516 0000040b 08700000-        ldp       @CL3,DP
     2517 0000040c 50280002-        ldiu      @CL3,ar0              ; |370| 
     2518 0000040d 5040c000         ldiu      *ar0,r0               ; |370| 
     2519 0000040e 04e00000         cmpi      0,r0                  ; |370| 
     2520 0000040f 6a060260         bne       L81                   ; |370| 
     2521                   ;*      Branch Occurs to L81            ; |370| 
     2522                           .line   53
     2523                   ;----------------------------------------------------------------------
     2524                   ; 371 | break;                                                                 
     2525                   ;----------------------------------------------------------------------
     2526                           .line   55
     2527                   ;----------------------------------------------------------------------
     2528                   ; 373 | if(PORT[2].TMR_enabled)                                                
     2529                   ;----------------------------------------------------------------------
     2530 00000410 08700000-        ldp       @CL64,DP
     2531 00000411 50280042-        ldiu      @CL64,ar0             ; |373| 
     2532 00000412 5040c000         ldiu      *ar0,r0               ; |373| 
     2533 00000413 04e00000         cmpi      0,r0                  ; |373| 
     2534 00000414 6a05005d         beq       L56                   ; |373| 
     2535                   ;*      Branch Occurs to L56            ; |373| 
     2536                           .line   57
     2537                   ;----------------------------------------------------------------------
     2538                   ; 375 | if (TIMER1_COUNTER[2]<=0)                                              
     2539                   ;----------------------------------------------------------------------
     2540 00000415 08700000-        ldp       @CL65,DP
     2541 00000416 50280043-        ldiu      @CL65,ar0             ; |375| 
     2542 00000417 5040c000         ldiu      *ar0,r0               ; |375| 
     2543 00000418 04e00000         cmpi      0,r0                  ; |375| 
     2544 00000419 6a090053         bgt       L55                   ; |375| 
     2545                   ;*      Branch Occurs to L55            ; |375| 
     2546                           .line   59
     2547                   ;----------------------------------------------------------------------
     2548                   ; 377 | PORT[2].TMR_enabled = FALSE;                                           
     2549                   ;----------------------------------------------------------------------
     2550 0000041a 08700000-        ldp       @CL64,DP
     2551 0000041b 50280042-        ldiu      @CL64,ar0             ; |377| 
     2552 0000041c 50600000         ldiu      0,r0                  ; |377| 
     2553 0000041d 1540c000         sti       r0,*ar0               ; |377| 
     2554                           .line   60
     2555                   ;----------------------------------------------------------------------
     2556                   ; 378 | vect_pt2                        = PORT[2].tvector;                     
     2557                   ;----------------------------------------------------------------------
     2558 0000041e 08700000-        ldp       @CL67,DP
     2559 0000041f 50280045-        ldiu      @CL67,ar0             ; |378| 
     2560 00000420 08700000-        ldp       @CL66,DP
     2561 00000421 50290044-        ldiu      @CL66,ar1             ; |378| 
     2562 00000422 5040c000         ldiu      *ar0,r0               ; |378| 
     2563 00000423 1540c100         sti       r0,*ar1               ; |378| 
     2564                           .line   62
TMS320C3x/4x COFF AssemblerVersion 5.12     Wed Jul 24 11:03:43 2019
Copyright (c) 1987-1999 Texas Instruments Incorporatedasm30.exe -@_DJO.AAB 

G:\workspace\EEA\V615\APP\SOURCE\ASM\isr.asm                         PAGE   49

     2565                   ;----------------------------------------------------------------------
     2566                   ; 380 | PUSH_ALL;                                                              
     2567                   ;----------------------------------------------------------------------
     2568 00000424 0f350000         push    ST                      
     2569 00000425 0f2b0000         push    FP                      
     2570 00000426 080b0014         ldi             SP,FP           
     2571 00000427 02740002         addi    2,SP            
     2572 00000428 0f200000         push    R0                      
     2573 00000429 0fa00000         pushf   R0                      
     2574 0000042a 0f210000         push    R1                      
     2575 0000042b 0fa10000         pushf   R1                      
     2576 0000042c 0f220000         push    R2                      
     2577 0000042d 0fa20000         pushf   R2                      
     2578 0000042e 0f230000         push    R3                      
     2579 0000042f 0fa30000         pushf   R3                      
     2580 00000430 0f240000         push    R4                      
     2581 00000431 0fa40000         pushf   R4                      
     2582 00000432 0f250000         push    R5                      
     2583 00000433 0fa50000         pushf   R5                      
     2584 00000434 0f260000         push    R6                      
     2585 00000435 0fa60000         pushf   R6                      
     2586 00000436 0f270000         push    R7                      
     2587 00000437 0fa70000         pushf   R7                      
     2588 00000438 0f280000         push    AR0                     
     2589 00000439 0f290000         push    AR1                     
     2590 0000043a 0f2a0000         push    AR2                     
     2591 0000043b 0f2c0000         push    AR4                     
     2592 0000043c 0f2d0000         push    AR5                     
     2593 0000043d 0f2e0000         push    AR6                     
     2594 0000043e 0f2f0000         push    AR7                     
     2595 0000043f 0f300000         push    DP                      
     2596 00000440 0f310000         push    IR0                     
     2597 00000441 0f320000         push    IR1                     
     2598 00000442 0f330000         push    BK                      
     2599 00000443 0f380000         push    IOF                     
     2600 00000444 0f390000         push    RS                      
     2601 00000445 0f3a0000         push    RE                      
     2602 00000446 0f3b0000         push    RC                      
     2603                           .line   63
     2604                   ;----------------------------------------------------------------------
     2605                   ; 381 | asm("           .global _vect_pt2  ");                                 
     2606                   ;----------------------------------------------------------------------
     2607                                   .global _vect_pt2  
     2608                           .line   64
     2609                   ;----------------------------------------------------------------------
     2610                   ; 382 | asm("       ldp             _vect_pt2      ");                         
     2611                   ;----------------------------------------------------------------------
     2612 00000447 08700000!        ldp             _vect_pt2      
     2613                           .line   65
     2614                   ;----------------------------------------------------------------------
     2615                   ; 383 | asm("       ldi             @_vect_pt2, R0 ");                         
     2616                   ;----------------------------------------------------------------------
     2617 00000448 08200000!        ldi             @_vect_pt2, R0 
     2618                           .line   66
TMS320C3x/4x COFF AssemblerVersion 5.12     Wed Jul 24 11:03:43 2019
Copyright (c) 1987-1999 Texas Instruments Incorporatedasm30.exe -@_DJO.AAB 

G:\workspace\EEA\V615\APP\SOURCE\ASM\isr.asm                         PAGE   50

     2619                   ;----------------------------------------------------------------------
     2620                   ; 384 | asm("       ldi             2, AR2             ");  /* select the port
     2621                   ;     | */                                                                     
     2622                   ;----------------------------------------------------------------------
     2623 00000449 086a0002         ldi             2, AR2             
     2624                           .line   67
     2625                   ;----------------------------------------------------------------------
     2626                   ; 385 | asm("       callnz  R0                         ");  /* call if vect !=
     2627                   ;     | NULL */                                                                
     2628                   ;----------------------------------------------------------------------
     2629 0000044a 70060000         callnz  R0                         
     2630                           .line   68
     2631                   ;----------------------------------------------------------------------
     2632                   ; 386 | POP_ALL;                                                               
     2633                   ;----------------------------------------------------------------------
     2634 0000044b 0e3b0000         pop             RC                      
     2635 0000044c 0e3a0000         pop             RE                      
     2636 0000044d 0e390000         pop             RS                      
     2637 0000044e 0e380000         pop             IOF                     
     2638 0000044f 0e330000         pop             BK                      
     2639 00000450 0e320000         pop             IR1                     
     2640 00000451 0e310000         pop             IR0                     
     2641 00000452 0e300000         pop             DP                      
     2642 00000453 0e2f0000         pop             AR7                     
     2643 00000454 0e2e0000         pop             AR6                     
     2644 00000455 0e2d0000         pop             AR5                     
     2645 00000456 0e2c0000         pop             AR4                     
     2646 00000457 0e2a0000         pop             AR2                     
     2647 00000458 0e290000         pop             AR1                     
     2648 00000459 0e280000         pop             AR0                     
     2649 0000045a 0ea70000         popf    R7                      
     2650 0000045b 0e270000         pop     R7                      
     2651 0000045c 0ea60000         popf    R6                      
     2652 0000045d 0e260000         pop             R6                      
     2653 0000045e 0ea50000         popf    R5                      
     2654 0000045f 0e250000         pop             R5                      
     2655 00000460 0ea40000         popf    R4                      
     2656 00000461 0e240000         pop             R4                      
     2657 00000462 0ea30000         popf    R3                      
     2658 00000463 0e230000         pop             R3                      
     2659 00000464 0ea20000         popf    R2                      
     2660 00000465 0e220000         pop             R2                      
     2661 00000466 0ea10000         popf    R1                      
     2662 00000467 0e210000         pop             R1                      
     2663 00000468 0ea00000         popf    R0                      
     2664 00000469 0e200000         pop     R0                      
     2665 0000046a 18740002         subi    2,SP            
     2666 0000046b 0e2b0000         pop     FP                      
     2667 0000046c 0e350000         pop     ST                      
     2668 0000046d          L55:        
     2669                           .line   71
     2670                   ;----------------------------------------------------------------------
     2671                   ; 389 | TIMER1_COUNTER[2]--;                                                   
     2672                   ;----------------------------------------------------------------------
TMS320C3x/4x COFF AssemblerVersion 5.12     Wed Jul 24 11:03:43 2019
Copyright (c) 1987-1999 Texas Instruments Incorporatedasm30.exe -@_DJO.AAB 

G:\workspace\EEA\V615\APP\SOURCE\ASM\isr.asm                         PAGE   51

     2673 0000046d 08700000-        ldp       @CL56,DP
     2674 0000046e 5028003a-        ldiu      @CL56,ar0             ; |389| 
     2675 0000046f 50600001         ldiu      1,r0                  ; |389| 
     2676 00000470 19c00002         subri     *+ar0(2),r0           ; |389| 
     2677 00000471 15400002         sti       r0,*+ar0(2)           ; |389| 
     2678 00000472          L56:        
     2679                           .line   74
     2680                   ;----------------------------------------------------------------------
     2681                   ; 392 | if(PORT[3].TMR_enabled)                                                
     2682                   ;----------------------------------------------------------------------
     2683 00000472 08700000-        ldp       @CL68,DP
     2684 00000473 50280046-        ldiu      @CL68,ar0             ; |392| 
     2685 00000474 5040c000         ldiu      *ar0,r0               ; |392| 
     2686 00000475 04e00000         cmpi      0,r0                  ; |392| 
     2687 00000476 6a05005d         beq       L60                   ; |392| 
     2688                   ;*      Branch Occurs to L60            ; |392| 
     2689                           .line   76
     2690                   ;----------------------------------------------------------------------
     2691                   ; 394 | if (TIMER1_COUNTER[3]<=0)                                              
     2692                   ;----------------------------------------------------------------------
     2693 00000477 08700000-        ldp       @CL69,DP
     2694 00000478 50280047-        ldiu      @CL69,ar0             ; |394| 
     2695 00000479 5040c000         ldiu      *ar0,r0               ; |394| 
     2696 0000047a 04e00000         cmpi      0,r0                  ; |394| 
     2697 0000047b 6a090053         bgt       L59                   ; |394| 
     2698                   ;*      Branch Occurs to L59            ; |394| 
     2699                           .line   78
     2700                   ;----------------------------------------------------------------------
     2701                   ; 396 | PORT[3].TMR_enabled = FALSE;                                           
     2702                   ;----------------------------------------------------------------------
     2703 0000047c 08700000-        ldp       @CL68,DP
     2704 0000047d 50280046-        ldiu      @CL68,ar0             ; |396| 
     2705 0000047e 50600000         ldiu      0,r0                  ; |396| 
     2706 0000047f 1540c000         sti       r0,*ar0               ; |396| 
     2707                           .line   79
     2708                   ;----------------------------------------------------------------------
     2709                   ; 397 | vect_pt3                        = PORT[3].tvector;                     
     2710                   ;----------------------------------------------------------------------
     2711 00000480 08700000-        ldp       @CL71,DP
     2712 00000481 50280049-        ldiu      @CL71,ar0             ; |397| 
     2713 00000482 08700000-        ldp       @CL70,DP
     2714 00000483 50290048-        ldiu      @CL70,ar1             ; |397| 
     2715 00000484 5040c000         ldiu      *ar0,r0               ; |397| 
     2716 00000485 1540c100         sti       r0,*ar1               ; |397| 
     2717                           .line   81
     2718                   ;----------------------------------------------------------------------
     2719                   ; 399 | PUSH_ALL;                                                              
     2720                   ;----------------------------------------------------------------------
     2721 00000486 0f350000         push    ST                      
     2722 00000487 0f2b0000         push    FP                      
     2723 00000488 080b0014         ldi             SP,FP           
     2724 00000489 02740002         addi    2,SP            
     2725 0000048a 0f200000         push    R0                      
     2726 0000048b 0fa00000         pushf   R0                      
TMS320C3x/4x COFF AssemblerVersion 5.12     Wed Jul 24 11:03:43 2019
Copyright (c) 1987-1999 Texas Instruments Incorporatedasm30.exe -@_DJO.AAB 

G:\workspace\EEA\V615\APP\SOURCE\ASM\isr.asm                         PAGE   52

     2727 0000048c 0f210000         push    R1                      
     2728 0000048d 0fa10000         pushf   R1                      
     2729 0000048e 0f220000         push    R2                      
     2730 0000048f 0fa20000         pushf   R2                      
     2731 00000490 0f230000         push    R3                      
     2732 00000491 0fa30000         pushf   R3                      
     2733 00000492 0f240000         push    R4                      
     2734 00000493 0fa40000         pushf   R4                      
     2735 00000494 0f250000         push    R5                      
     2736 00000495 0fa50000         pushf   R5                      
     2737 00000496 0f260000         push    R6                      
     2738 00000497 0fa60000         pushf   R6                      
     2739 00000498 0f270000         push    R7                      
     2740 00000499 0fa70000         pushf   R7                      
     2741 0000049a 0f280000         push    AR0                     
     2742 0000049b 0f290000         push    AR1                     
     2743 0000049c 0f2a0000         push    AR2                     
     2744 0000049d 0f2c0000         push    AR4                     
     2745 0000049e 0f2d0000         push    AR5                     
     2746 0000049f 0f2e0000         push    AR6                     
     2747 000004a0 0f2f0000         push    AR7                     
     2748 000004a1 0f300000         push    DP                      
     2749 000004a2 0f310000         push    IR0                     
     2750 000004a3 0f320000         push    IR1                     
     2751 000004a4 0f330000         push    BK                      
     2752 000004a5 0f380000         push    IOF                     
     2753 000004a6 0f390000         push    RS                      
     2754 000004a7 0f3a0000         push    RE                      
     2755 000004a8 0f3b0000         push    RC                      
     2756                           .line   82
     2757                   ;----------------------------------------------------------------------
     2758                   ; 400 | asm("           .global _vect_pt3  ");                                 
     2759                   ;----------------------------------------------------------------------
     2760                                   .global _vect_pt3  
     2761                           .line   83
     2762                   ;----------------------------------------------------------------------
     2763                   ; 401 | asm("       ldp             _vect_pt3      ");                         
     2764                   ;----------------------------------------------------------------------
     2765 000004a9 08700000!        ldp             _vect_pt3      
     2766                           .line   84
     2767                   ;----------------------------------------------------------------------
     2768                   ; 402 | asm("       ldi             @_vect_pt3, R0 ");                         
     2769                   ;----------------------------------------------------------------------
     2770 000004aa 08200000!        ldi             @_vect_pt3, R0 
     2771                           .line   85
     2772                   ;----------------------------------------------------------------------
     2773                   ; 403 | asm("       ldi             3, AR2             ");  /* select the port
     2774                   ;     | */                                                                     
     2775                   ;----------------------------------------------------------------------
     2776 000004ab 086a0003         ldi             3, AR2             
     2777                           .line   86
     2778                   ;----------------------------------------------------------------------
     2779                   ; 404 | asm("       callnz  R0                         ");  /* call if vect !=
     2780                   ;     | NULL */                                                                
TMS320C3x/4x COFF AssemblerVersion 5.12     Wed Jul 24 11:03:43 2019
Copyright (c) 1987-1999 Texas Instruments Incorporatedasm30.exe -@_DJO.AAB 

G:\workspace\EEA\V615\APP\SOURCE\ASM\isr.asm                         PAGE   53

     2781                   ;----------------------------------------------------------------------
     2782 000004ac 70060000         callnz  R0                         
     2783                           .line   87
     2784                   ;----------------------------------------------------------------------
     2785                   ; 405 | POP_ALL;                                                               
     2786                   ;----------------------------------------------------------------------
     2787 000004ad 0e3b0000         pop             RC                      
     2788 000004ae 0e3a0000         pop             RE                      
     2789 000004af 0e390000         pop             RS                      
     2790 000004b0 0e380000         pop             IOF                     
     2791 000004b1 0e330000         pop             BK                      
     2792 000004b2 0e320000         pop             IR1                     
     2793 000004b3 0e310000         pop             IR0                     
     2794 000004b4 0e300000         pop             DP                      
     2795 000004b5 0e2f0000         pop             AR7                     
     2796 000004b6 0e2e0000         pop             AR6                     
     2797 000004b7 0e2d0000         pop             AR5                     
     2798 000004b8 0e2c0000         pop             AR4                     
     2799 000004b9 0e2a0000         pop             AR2                     
     2800 000004ba 0e290000         pop             AR1                     
     2801 000004bb 0e280000         pop             AR0                     
     2802 000004bc 0ea70000         popf    R7                      
     2803 000004bd 0e270000         pop     R7                      
     2804 000004be 0ea60000         popf    R6                      
     2805 000004bf 0e260000         pop             R6                      
     2806 000004c0 0ea50000         popf    R5                      
     2807 000004c1 0e250000         pop             R5                      
     2808 000004c2 0ea40000         popf    R4                      
     2809 000004c3 0e240000         pop             R4                      
     2810 000004c4 0ea30000         popf    R3                      
     2811 000004c5 0e230000         pop             R3                      
     2812 000004c6 0ea20000         popf    R2                      
     2813 000004c7 0e220000         pop             R2                      
     2814 000004c8 0ea10000         popf    R1                      
     2815 000004c9 0e210000         pop             R1                      
     2816 000004ca 0ea00000         popf    R0                      
     2817 000004cb 0e200000         pop     R0                      
     2818 000004cc 18740002         subi    2,SP            
     2819 000004cd 0e2b0000         pop     FP                      
     2820 000004ce 0e350000         pop     ST                      
     2821 000004cf          L59:        
     2822                           .line   90
     2823                   ;----------------------------------------------------------------------
     2824                   ; 408 | TIMER1_COUNTER[3]--;                                                   
     2825                   ;----------------------------------------------------------------------
     2826 000004cf 08700000-        ldp       @CL56,DP
     2827 000004d0 5028003a-        ldiu      @CL56,ar0             ; |408| 
     2828 000004d1 50600001         ldiu      1,r0                  ; |408| 
     2829 000004d2 19c00003         subri     *+ar0(3),r0           ; |408| 
     2830 000004d3 15400003         sti       r0,*+ar0(3)           ; |408| 
     2831 000004d4          L60:        
     2832                           .line   93
     2833                   ;----------------------------------------------------------------------
     2834                   ; 411 | if(PORT[5].TMR_enabled)                                                
TMS320C3x/4x COFF AssemblerVersion 5.12     Wed Jul 24 11:03:43 2019
Copyright (c) 1987-1999 Texas Instruments Incorporatedasm30.exe -@_DJO.AAB 

G:\workspace\EEA\V615\APP\SOURCE\ASM\isr.asm                         PAGE   54

     2835                   ;----------------------------------------------------------------------
     2836 000004d4 08700000-        ldp       @CL72,DP
     2837 000004d5 5028004a-        ldiu      @CL72,ar0             ; |411| 
     2838 000004d6 5040c000         ldiu      *ar0,r0               ; |411| 
     2839 000004d7 04e00000         cmpi      0,r0                  ; |411| 
     2840 000004d8 6a05005d         beq       L64                   ; |411| 
     2841                   ;*      Branch Occurs to L64            ; |411| 
     2842                           .line   95
     2843                   ;----------------------------------------------------------------------
     2844                   ; 413 | if (TIMER1_COUNTER[5]<=0)                                              
     2845                   ;----------------------------------------------------------------------
     2846 000004d9 08700000-        ldp       @CL73,DP
     2847 000004da 5028004b-        ldiu      @CL73,ar0             ; |413| 
     2848 000004db 5040c000         ldiu      *ar0,r0               ; |413| 
     2849 000004dc 04e00000         cmpi      0,r0                  ; |413| 
     2850 000004dd 6a090053         bgt       L63                   ; |413| 
     2851                   ;*      Branch Occurs to L63            ; |413| 
     2852                           .line   97
     2853                   ;----------------------------------------------------------------------
     2854                   ; 415 | PORT[5].TMR_enabled = FALSE;                                           
     2855                   ;----------------------------------------------------------------------
     2856 000004de 08700000-        ldp       @CL72,DP
     2857 000004df 5028004a-        ldiu      @CL72,ar0             ; |415| 
     2858 000004e0 50600000         ldiu      0,r0                  ; |415| 
     2859 000004e1 1540c000         sti       r0,*ar0               ; |415| 
     2860                           .line   98
     2861                   ;----------------------------------------------------------------------
     2862                   ; 416 | vect_pt5                        = PORT[5].tvector;                     
     2863                   ;----------------------------------------------------------------------
     2864 000004e2 08700000-        ldp       @CL75,DP
     2865 000004e3 5028004d-        ldiu      @CL75,ar0             ; |416| 
     2866 000004e4 08700000-        ldp       @CL74,DP
     2867 000004e5 5029004c-        ldiu      @CL74,ar1             ; |416| 
     2868 000004e6 5040c000         ldiu      *ar0,r0               ; |416| 
     2869 000004e7 1540c100         sti       r0,*ar1               ; |416| 
     2870                           .line   100
     2871                   ;----------------------------------------------------------------------
     2872                   ; 418 | PUSH_ALL;                                                              
     2873                   ;----------------------------------------------------------------------
     2874 000004e8 0f350000         push    ST                      
     2875 000004e9 0f2b0000         push    FP                      
     2876 000004ea 080b0014         ldi             SP,FP           
     2877 000004eb 02740002         addi    2,SP            
     2878 000004ec 0f200000         push    R0                      
     2879 000004ed 0fa00000         pushf   R0                      
     2880 000004ee 0f210000         push    R1                      
     2881 000004ef 0fa10000         pushf   R1                      
     2882 000004f0 0f220000         push    R2                      
     2883 000004f1 0fa20000         pushf   R2                      
     2884 000004f2 0f230000         push    R3                      
     2885 000004f3 0fa30000         pushf   R3                      
     2886 000004f4 0f240000         push    R4                      
     2887 000004f5 0fa40000         pushf   R4                      
     2888 000004f6 0f250000         push    R5                      
TMS320C3x/4x COFF AssemblerVersion 5.12     Wed Jul 24 11:03:43 2019
Copyright (c) 1987-1999 Texas Instruments Incorporatedasm30.exe -@_DJO.AAB 

G:\workspace\EEA\V615\APP\SOURCE\ASM\isr.asm                         PAGE   55

     2889 000004f7 0fa50000         pushf   R5                      
     2890 000004f8 0f260000         push    R6                      
     2891 000004f9 0fa60000         pushf   R6                      
     2892 000004fa 0f270000         push    R7                      
     2893 000004fb 0fa70000         pushf   R7                      
     2894 000004fc 0f280000         push    AR0                     
     2895 000004fd 0f290000         push    AR1                     
     2896 000004fe 0f2a0000         push    AR2                     
     2897 000004ff 0f2c0000         push    AR4                     
     2898 00000500 0f2d0000         push    AR5                     
     2899 00000501 0f2e0000         push    AR6                     
     2900 00000502 0f2f0000         push    AR7                     
     2901 00000503 0f300000         push    DP                      
     2902 00000504 0f310000         push    IR0                     
     2903 00000505 0f320000         push    IR1                     
     2904 00000506 0f330000         push    BK                      
     2905 00000507 0f380000         push    IOF                     
     2906 00000508 0f390000         push    RS                      
     2907 00000509 0f3a0000         push    RE                      
     2908 0000050a 0f3b0000         push    RC                      
     2909                           .line   101
     2910                   ;----------------------------------------------------------------------
     2911                   ; 419 | asm("           .global _vect_pt5  ");                                 
     2912                   ;----------------------------------------------------------------------
     2913                                   .global _vect_pt5  
     2914                           .line   102
     2915                   ;----------------------------------------------------------------------
     2916                   ; 420 | asm("       ldp             _vect_pt5      ");                         
     2917                   ;----------------------------------------------------------------------
     2918 0000050b 08700000!        ldp             _vect_pt5      
     2919                           .line   103
     2920                   ;----------------------------------------------------------------------
     2921                   ; 421 | asm("       ldi             @_vect_pt5, R0 ");                         
     2922                   ;----------------------------------------------------------------------
     2923 0000050c 08200000!        ldi             @_vect_pt5, R0 
     2924                           .line   104
     2925                   ;----------------------------------------------------------------------
     2926                   ; 422 | asm("       ldi             5, AR2             ");  /* select the port
     2927                   ;     | */                                                                     
     2928                   ;----------------------------------------------------------------------
     2929 0000050d 086a0005         ldi             5, AR2             
     2930                           .line   105
     2931                   ;----------------------------------------------------------------------
     2932                   ; 423 | asm("       callnz  R0                         ");  /* call if vect !=
     2933                   ;     | NULL */                                                                
     2934                   ;----------------------------------------------------------------------
     2935 0000050e 70060000         callnz  R0                         
     2936                           .line   106
     2937                   ;----------------------------------------------------------------------
     2938                   ; 424 | POP_ALL;                                                               
     2939                   ;----------------------------------------------------------------------
     2940 0000050f 0e3b0000         pop             RC                      
     2941 00000510 0e3a0000         pop             RE                      
     2942 00000511 0e390000         pop             RS                      
TMS320C3x/4x COFF AssemblerVersion 5.12     Wed Jul 24 11:03:43 2019
Copyright (c) 1987-1999 Texas Instruments Incorporatedasm30.exe -@_DJO.AAB 

G:\workspace\EEA\V615\APP\SOURCE\ASM\isr.asm                         PAGE   56

     2943 00000512 0e380000         pop             IOF                     
     2944 00000513 0e330000         pop             BK                      
     2945 00000514 0e320000         pop             IR1                     
     2946 00000515 0e310000         pop             IR0                     
     2947 00000516 0e300000         pop             DP                      
     2948 00000517 0e2f0000         pop             AR7                     
     2949 00000518 0e2e0000         pop             AR6                     
     2950 00000519 0e2d0000         pop             AR5                     
     2951 0000051a 0e2c0000         pop             AR4                     
     2952 0000051b 0e2a0000         pop             AR2                     
     2953 0000051c 0e290000         pop             AR1                     
     2954 0000051d 0e280000         pop             AR0                     
     2955 0000051e 0ea70000         popf    R7                      
     2956 0000051f 0e270000         pop     R7                      
     2957 00000520 0ea60000         popf    R6                      
     2958 00000521 0e260000         pop             R6                      
     2959 00000522 0ea50000         popf    R5                      
     2960 00000523 0e250000         pop             R5                      
     2961 00000524 0ea40000         popf    R4                      
     2962 00000525 0e240000         pop             R4                      
     2963 00000526 0ea30000         popf    R3                      
     2964 00000527 0e230000         pop             R3                      
     2965 00000528 0ea20000         popf    R2                      
     2966 00000529 0e220000         pop             R2                      
     2967 0000052a 0ea10000         popf    R1                      
     2968 0000052b 0e210000         pop             R1                      
     2969 0000052c 0ea00000         popf    R0                      
     2970 0000052d 0e200000         pop     R0                      
     2971 0000052e 18740002         subi    2,SP            
     2972 0000052f 0e2b0000         pop     FP                      
     2973 00000530 0e350000         pop     ST                      
     2974 00000531          L63:        
     2975                           .line   109
     2976                   ;----------------------------------------------------------------------
     2977                   ; 427 | TIMER1_COUNTER[5]--;                                                   
     2978                   ;----------------------------------------------------------------------
     2979 00000531 08700000-        ldp       @CL56,DP
     2980 00000532 5028003a-        ldiu      @CL56,ar0             ; |427| 
     2981 00000533 50600001         ldiu      1,r0                  ; |427| 
     2982 00000534 19c00005         subri     *+ar0(5),r0           ; |427| 
     2983 00000535 15400005         sti       r0,*+ar0(5)           ; |427| 
     2984 00000536          L64:        
     2985                           .line   112
     2986                   ;----------------------------------------------------------------------
     2987                   ; 430 | if(PORT[6].TMR_enabled)                                                
     2988                   ;----------------------------------------------------------------------
     2989 00000536 08700000-        ldp       @CL76,DP
     2990 00000537 5028004e-        ldiu      @CL76,ar0             ; |430| 
     2991 00000538 5040c000         ldiu      *ar0,r0               ; |430| 
     2992 00000539 04e00000         cmpi      0,r0                  ; |430| 
     2993 0000053a 6a05005d         beq       L68                   ; |430| 
     2994                   ;*      Branch Occurs to L68            ; |430| 
     2995                           .line   114
     2996                   ;----------------------------------------------------------------------
TMS320C3x/4x COFF AssemblerVersion 5.12     Wed Jul 24 11:03:43 2019
Copyright (c) 1987-1999 Texas Instruments Incorporatedasm30.exe -@_DJO.AAB 

G:\workspace\EEA\V615\APP\SOURCE\ASM\isr.asm                         PAGE   57

     2997                   ; 432 | if (TIMER1_COUNTER[6]<=0)                                              
     2998                   ;----------------------------------------------------------------------
     2999 0000053b 08700000-        ldp       @CL77,DP
     3000 0000053c 5028004f-        ldiu      @CL77,ar0             ; |432| 
     3001 0000053d 5040c000         ldiu      *ar0,r0               ; |432| 
     3002 0000053e 04e00000         cmpi      0,r0                  ; |432| 
     3003 0000053f 6a090053         bgt       L67                   ; |432| 
     3004                   ;*      Branch Occurs to L67            ; |432| 
     3005                           .line   116
     3006                   ;----------------------------------------------------------------------
     3007                   ; 434 | PORT[6].TMR_enabled = FALSE;                                           
     3008                   ;----------------------------------------------------------------------
     3009 00000540 08700000-        ldp       @CL76,DP
     3010 00000541 5028004e-        ldiu      @CL76,ar0             ; |434| 
     3011 00000542 50600000         ldiu      0,r0                  ; |434| 
     3012 00000543 1540c000         sti       r0,*ar0               ; |434| 
     3013                           .line   117
     3014                   ;----------------------------------------------------------------------
     3015                   ; 435 | vect_pt6                        = PORT[6].tvector;                     
     3016                   ;----------------------------------------------------------------------
     3017 00000544 08700000-        ldp       @CL79,DP
     3018 00000545 50290051-        ldiu      @CL79,ar1             ; |435| 
     3019 00000546 08700000-        ldp       @CL78,DP
     3020 00000547 50280050-        ldiu      @CL78,ar0             ; |435| 
     3021 00000548 5040c100         ldiu      *ar1,r0               ; |435| 
     3022 00000549 1540c000         sti       r0,*ar0               ; |435| 
     3023                           .line   119
     3024                   ;----------------------------------------------------------------------
     3025                   ; 437 | PUSH_ALL;                                                              
     3026                   ;----------------------------------------------------------------------
     3027 0000054a 0f350000         push    ST                      
     3028 0000054b 0f2b0000         push    FP                      
     3029 0000054c 080b0014         ldi             SP,FP           
     3030 0000054d 02740002         addi    2,SP            
     3031 0000054e 0f200000         push    R0                      
     3032 0000054f 0fa00000         pushf   R0                      
     3033 00000550 0f210000         push    R1                      
     3034 00000551 0fa10000         pushf   R1                      
     3035 00000552 0f220000         push    R2                      
     3036 00000553 0fa20000         pushf   R2                      
     3037 00000554 0f230000         push    R3                      
     3038 00000555 0fa30000         pushf   R3                      
     3039 00000556 0f240000         push    R4                      
     3040 00000557 0fa40000         pushf   R4                      
     3041 00000558 0f250000         push    R5                      
     3042 00000559 0fa50000         pushf   R5                      
     3043 0000055a 0f260000         push    R6                      
     3044 0000055b 0fa60000         pushf   R6                      
     3045 0000055c 0f270000         push    R7                      
     3046 0000055d 0fa70000         pushf   R7                      
     3047 0000055e 0f280000         push    AR0                     
     3048 0000055f 0f290000         push    AR1                     
     3049 00000560 0f2a0000         push    AR2                     
     3050 00000561 0f2c0000         push    AR4                     
TMS320C3x/4x COFF AssemblerVersion 5.12     Wed Jul 24 11:03:43 2019
Copyright (c) 1987-1999 Texas Instruments Incorporatedasm30.exe -@_DJO.AAB 

G:\workspace\EEA\V615\APP\SOURCE\ASM\isr.asm                         PAGE   58

     3051 00000562 0f2d0000         push    AR5                     
     3052 00000563 0f2e0000         push    AR6                     
     3053 00000564 0f2f0000         push    AR7                     
     3054 00000565 0f300000         push    DP                      
     3055 00000566 0f310000         push    IR0                     
     3056 00000567 0f320000         push    IR1                     
     3057 00000568 0f330000         push    BK                      
     3058 00000569 0f380000         push    IOF                     
     3059 0000056a 0f390000         push    RS                      
     3060 0000056b 0f3a0000         push    RE                      
     3061 0000056c 0f3b0000         push    RC                      
     3062                           .line   120
     3063                   ;----------------------------------------------------------------------
     3064                   ; 438 | asm("           .global _vect_pt6  ");                                 
     3065                   ;----------------------------------------------------------------------
     3066                                   .global _vect_pt6  
     3067                           .line   121
     3068                   ;----------------------------------------------------------------------
     3069                   ; 439 | asm("       ldp             _vect_pt6      ");                         
     3070                   ;----------------------------------------------------------------------
     3071 0000056d 08700000!        ldp             _vect_pt6      
     3072                           .line   122
     3073                   ;----------------------------------------------------------------------
     3074                   ; 440 | asm("       ldi             @_vect_pt6, R0 ");                         
     3075                   ;----------------------------------------------------------------------
     3076 0000056e 08200000!        ldi             @_vect_pt6, R0 
     3077                           .line   123
     3078                   ;----------------------------------------------------------------------
     3079                   ; 441 | asm("       ldi             6, AR2             ");  /* select the port
     3080                   ;     | */                                                                     
     3081                   ;----------------------------------------------------------------------
     3082 0000056f 086a0006         ldi             6, AR2             
     3083                           .line   124
     3084                   ;----------------------------------------------------------------------
     3085                   ; 442 | asm("       callnz  R0                         ");  /* call if vect !=
     3086                   ;     | NULL */                                                                
     3087                   ;----------------------------------------------------------------------
     3088 00000570 70060000         callnz  R0                         
     3089                           .line   125
     3090                   ;----------------------------------------------------------------------
     3091                   ; 443 | POP_ALL;                                                               
     3092                   ;----------------------------------------------------------------------
     3093 00000571 0e3b0000         pop             RC                      
     3094 00000572 0e3a0000         pop             RE                      
     3095 00000573 0e390000         pop             RS                      
     3096 00000574 0e380000         pop             IOF                     
     3097 00000575 0e330000         pop             BK                      
     3098 00000576 0e320000         pop             IR1                     
     3099 00000577 0e310000         pop             IR0                     
     3100 00000578 0e300000         pop             DP                      
     3101 00000579 0e2f0000         pop             AR7                     
     3102 0000057a 0e2e0000         pop             AR6                     
     3103 0000057b 0e2d0000         pop             AR5                     
     3104 0000057c 0e2c0000         pop             AR4                     
TMS320C3x/4x COFF AssemblerVersion 5.12     Wed Jul 24 11:03:43 2019
Copyright (c) 1987-1999 Texas Instruments Incorporatedasm30.exe -@_DJO.AAB 

G:\workspace\EEA\V615\APP\SOURCE\ASM\isr.asm                         PAGE   59

     3105 0000057d 0e2a0000         pop             AR2                     
     3106 0000057e 0e290000         pop             AR1                     
     3107 0000057f 0e280000         pop             AR0                     
     3108 00000580 0ea70000         popf    R7                      
     3109 00000581 0e270000         pop     R7                      
     3110 00000582 0ea60000         popf    R6                      
     3111 00000583 0e260000         pop             R6                      
     3112 00000584 0ea50000         popf    R5                      
     3113 00000585 0e250000         pop             R5                      
     3114 00000586 0ea40000         popf    R4                      
     3115 00000587 0e240000         pop             R4                      
     3116 00000588 0ea30000         popf    R3                      
     3117 00000589 0e230000         pop             R3                      
     3118 0000058a 0ea20000         popf    R2                      
     3119 0000058b 0e220000         pop             R2                      
     3120 0000058c 0ea10000         popf    R1                      
     3121 0000058d 0e210000         pop             R1                      
     3122 0000058e 0ea00000         popf    R0                      
     3123 0000058f 0e200000         pop     R0                      
     3124 00000590 18740002         subi    2,SP            
     3125 00000591 0e2b0000         pop     FP                      
     3126 00000592 0e350000         pop     ST                      
     3127 00000593          L67:        
     3128                           .line   128
     3129                   ;----------------------------------------------------------------------
     3130                   ; 446 | TIMER1_COUNTER[6]--;                                                   
     3131                   ;----------------------------------------------------------------------
     3132 00000593 08700000-        ldp       @CL56,DP
     3133 00000594 5028003a-        ldiu      @CL56,ar0             ; |446| 
     3134 00000595 50600001         ldiu      1,r0                  ; |446| 
     3135 00000596 19c00006         subri     *+ar0(6),r0           ; |446| 
     3136 00000597 15400006         sti       r0,*+ar0(6)           ; |446| 
     3137 00000598          L68:        
     3138                           .line   131
     3139                   ;----------------------------------------------------------------------
     3140                   ; 449 | if(PORT[7].TMR_enabled)                                                
     3141                   ;----------------------------------------------------------------------
     3142 00000598 08700000-        ldp       @CL80,DP
     3143 00000599 50280052-        ldiu      @CL80,ar0             ; |449| 
     3144 0000059a 5040c000         ldiu      *ar0,r0               ; |449| 
     3145 0000059b 04e00000         cmpi      0,r0                  ; |449| 
     3146 0000059c 6a05005d         beq       L72                   ; |449| 
     3147                   ;*      Branch Occurs to L72            ; |449| 
     3148                           .line   133
     3149                   ;----------------------------------------------------------------------
     3150                   ; 451 | if (TIMER1_COUNTER[7]<=0)                                              
     3151                   ;----------------------------------------------------------------------
     3152 0000059d 08700000-        ldp       @CL81,DP
     3153 0000059e 50280053-        ldiu      @CL81,ar0             ; |451| 
     3154 0000059f 5040c000         ldiu      *ar0,r0               ; |451| 
     3155 000005a0 04e00000         cmpi      0,r0                  ; |451| 
     3156 000005a1 6a090053         bgt       L71                   ; |451| 
     3157                   ;*      Branch Occurs to L71            ; |451| 
     3158                           .line   135
TMS320C3x/4x COFF AssemblerVersion 5.12     Wed Jul 24 11:03:43 2019
Copyright (c) 1987-1999 Texas Instruments Incorporatedasm30.exe -@_DJO.AAB 

G:\workspace\EEA\V615\APP\SOURCE\ASM\isr.asm                         PAGE   60

     3159                   ;----------------------------------------------------------------------
     3160                   ; 453 | PORT[7].TMR_enabled = FALSE;                                           
     3161                   ;----------------------------------------------------------------------
     3162 000005a2 08700000-        ldp       @CL80,DP
     3163 000005a3 50280052-        ldiu      @CL80,ar0             ; |453| 
     3164 000005a4 50600000         ldiu      0,r0                  ; |453| 
     3165 000005a5 1540c000         sti       r0,*ar0               ; |453| 
     3166                           .line   136
     3167                   ;----------------------------------------------------------------------
     3168                   ; 454 | vect_pt7                        = PORT[7].tvector;                     
     3169                   ;----------------------------------------------------------------------
     3170 000005a6 08700000-        ldp       @CL83,DP
     3171 000005a7 50290055-        ldiu      @CL83,ar1             ; |454| 
     3172 000005a8 08700000-        ldp       @CL82,DP
     3173 000005a9 50280054-        ldiu      @CL82,ar0             ; |454| 
     3174 000005aa 5040c100         ldiu      *ar1,r0               ; |454| 
     3175 000005ab 1540c000         sti       r0,*ar0               ; |454| 
     3176                           .line   138
     3177                   ;----------------------------------------------------------------------
     3178                   ; 456 | PUSH_ALL;                                                              
     3179                   ;----------------------------------------------------------------------
     3180 000005ac 0f350000         push    ST                      
     3181 000005ad 0f2b0000         push    FP                      
     3182 000005ae 080b0014         ldi             SP,FP           
     3183 000005af 02740002         addi    2,SP            
     3184 000005b0 0f200000         push    R0                      
     3185 000005b1 0fa00000         pushf   R0                      
     3186 000005b2 0f210000         push    R1                      
     3187 000005b3 0fa10000         pushf   R1                      
     3188 000005b4 0f220000         push    R2                      
     3189 000005b5 0fa20000         pushf   R2                      
     3190 000005b6 0f230000         push    R3                      
     3191 000005b7 0fa30000         pushf   R3                      
     3192 000005b8 0f240000         push    R4                      
     3193 000005b9 0fa40000         pushf   R4                      
     3194 000005ba 0f250000         push    R5                      
     3195 000005bb 0fa50000         pushf   R5                      
     3196 000005bc 0f260000         push    R6                      
     3197 000005bd 0fa60000         pushf   R6                      
     3198 000005be 0f270000         push    R7                      
     3199 000005bf 0fa70000         pushf   R7                      
     3200 000005c0 0f280000         push    AR0                     
     3201 000005c1 0f290000         push    AR1                     
     3202 000005c2 0f2a0000         push    AR2                     
     3203 000005c3 0f2c0000         push    AR4                     
     3204 000005c4 0f2d0000         push    AR5                     
     3205 000005c5 0f2e0000         push    AR6                     
     3206 000005c6 0f2f0000         push    AR7                     
     3207 000005c7 0f300000         push    DP                      
     3208 000005c8 0f310000         push    IR0                     
     3209 000005c9 0f320000         push    IR1                     
     3210 000005ca 0f330000         push    BK                      
     3211 000005cb 0f380000         push    IOF                     
     3212 000005cc 0f390000         push    RS                      
TMS320C3x/4x COFF AssemblerVersion 5.12     Wed Jul 24 11:03:43 2019
Copyright (c) 1987-1999 Texas Instruments Incorporatedasm30.exe -@_DJO.AAB 

G:\workspace\EEA\V615\APP\SOURCE\ASM\isr.asm                         PAGE   61

     3213 000005cd 0f3a0000         push    RE                      
     3214 000005ce 0f3b0000         push    RC                      
     3215                           .line   139
     3216                   ;----------------------------------------------------------------------
     3217                   ; 457 | asm("           .global _vect_pt7  ");                                 
     3218                   ;----------------------------------------------------------------------
     3219                                   .global _vect_pt7  
     3220                           .line   140
     3221                   ;----------------------------------------------------------------------
     3222                   ; 458 | asm("       ldp             _vect_pt7      ");                         
     3223                   ;----------------------------------------------------------------------
     3224 000005cf 08700000!        ldp             _vect_pt7      
     3225                           .line   141
     3226                   ;----------------------------------------------------------------------
     3227                   ; 459 | asm("       ldi             @_vect_pt7, R0 ");                         
     3228                   ;----------------------------------------------------------------------
     3229 000005d0 08200000!        ldi             @_vect_pt7, R0 
     3230                           .line   142
     3231                   ;----------------------------------------------------------------------
     3232                   ; 460 | asm("       ldi             7, AR2             ");  /* select the port
     3233                   ;     | */                                                                     
     3234                   ;----------------------------------------------------------------------
     3235 000005d1 086a0007         ldi             7, AR2             
     3236                           .line   143
     3237                   ;----------------------------------------------------------------------
     3238                   ; 461 | asm("       callnz  R0                         ");  /* call if vect !=
     3239                   ;     | NULL */                                                                
     3240                   ;----------------------------------------------------------------------
     3241 000005d2 70060000         callnz  R0                         
     3242                           .line   144
     3243                   ;----------------------------------------------------------------------
     3244                   ; 462 | POP_ALL;                                                               
     3245                   ;----------------------------------------------------------------------
     3246 000005d3 0e3b0000         pop             RC                      
     3247 000005d4 0e3a0000         pop             RE                      
     3248 000005d5 0e390000         pop             RS                      
     3249 000005d6 0e380000         pop             IOF                     
     3250 000005d7 0e330000         pop             BK                      
     3251 000005d8 0e320000         pop             IR1                     
     3252 000005d9 0e310000         pop             IR0                     
     3253 000005da 0e300000         pop             DP                      
     3254 000005db 0e2f0000         pop             AR7                     
     3255 000005dc 0e2e0000         pop             AR6                     
     3256 000005dd 0e2d0000         pop             AR5                     
     3257 000005de 0e2c0000         pop             AR4                     
     3258 000005df 0e2a0000         pop             AR2                     
     3259 000005e0 0e290000         pop             AR1                     
     3260 000005e1 0e280000         pop             AR0                     
     3261 000005e2 0ea70000         popf    R7                      
     3262 000005e3 0e270000         pop     R7                      
     3263 000005e4 0ea60000         popf    R6                      
     3264 000005e5 0e260000         pop             R6                      
     3265 000005e6 0ea50000         popf    R5                      
     3266 000005e7 0e250000         pop             R5                      
TMS320C3x/4x COFF AssemblerVersion 5.12     Wed Jul 24 11:03:43 2019
Copyright (c) 1987-1999 Texas Instruments Incorporatedasm30.exe -@_DJO.AAB 

G:\workspace\EEA\V615\APP\SOURCE\ASM\isr.asm                         PAGE   62

     3267 000005e8 0ea40000         popf    R4                      
     3268 000005e9 0e240000         pop             R4                      
     3269 000005ea 0ea30000         popf    R3                      
     3270 000005eb 0e230000         pop             R3                      
     3271 000005ec 0ea20000         popf    R2                      
     3272 000005ed 0e220000         pop             R2                      
     3273 000005ee 0ea10000         popf    R1                      
     3274 000005ef 0e210000         pop             R1                      
     3275 000005f0 0ea00000         popf    R0                      
     3276 000005f1 0e200000         pop     R0                      
     3277 000005f2 18740002         subi    2,SP            
     3278 000005f3 0e2b0000         pop     FP                      
     3279 000005f4 0e350000         pop     ST                      
     3280 000005f5          L71:        
     3281                           .line   147
     3282                   ;----------------------------------------------------------------------
     3283                   ; 465 | TIMER1_COUNTER[7]--;                                                   
     3284                   ;----------------------------------------------------------------------
     3285 000005f5 08700000-        ldp       @CL56,DP
     3286 000005f6 5028003a-        ldiu      @CL56,ar0             ; |465| 
     3287 000005f7 50600001         ldiu      1,r0                  ; |465| 
     3288 000005f8 19c00007         subri     *+ar0(7),r0           ; |465| 
     3289 000005f9 15400007         sti       r0,*+ar0(7)           ; |465| 
     3290 000005fa          L72:        
     3291                           .line   150
     3292                   ;----------------------------------------------------------------------
     3293                   ; 468 | if(PORT[4].TMR_enabled)                                                
     3294                   ;----------------------------------------------------------------------
     3295 000005fa 08700000-        ldp       @CL84,DP
     3296 000005fb 50280056-        ldiu      @CL84,ar0             ; |468| 
     3297 000005fc 5040c000         ldiu      *ar0,r0               ; |468| 
     3298 000005fd 04e00000         cmpi      0,r0                  ; |468| 
     3299 000005fe 6a050071         beq       L81                   ; |468| 
     3300                   ;*      Branch Occurs to L81            ; |468| 
     3301                           .line   152
     3302                   ;----------------------------------------------------------------------
     3303                   ; 470 | if (TIMER1_COUNTER[4]<=0)                                              
     3304                   ;----------------------------------------------------------------------
     3305 000005ff 08700000-        ldp       @CL85,DP
     3306 00000600 50280057-        ldiu      @CL85,ar0             ; |470| 
     3307 00000601 5040c000         ldiu      *ar0,r0               ; |470| 
     3308 00000602 04e00000         cmpi      0,r0                  ; |470| 
     3309 00000603 6a090054         bgt       L75                   ; |470| 
     3310                   ;*      Branch Occurs to L75            ; |470| 
     3311                           .line   154
     3312                   ;----------------------------------------------------------------------
     3313                   ; 472 | PORT[4].TMR_enabled = FALSE;                                           
     3314                   ;----------------------------------------------------------------------
     3315 00000604 08700000-        ldp       @CL84,DP
     3316 00000605 50280056-        ldiu      @CL84,ar0             ; |472| 
     3317 00000606 50600000         ldiu      0,r0                  ; |472| 
     3318 00000607 1540c000         sti       r0,*ar0               ; |472| 
     3319                           .line   155
     3320                   ;----------------------------------------------------------------------
TMS320C3x/4x COFF AssemblerVersion 5.12     Wed Jul 24 11:03:43 2019
Copyright (c) 1987-1999 Texas Instruments Incorporatedasm30.exe -@_DJO.AAB 

G:\workspace\EEA\V615\APP\SOURCE\ASM\isr.asm                         PAGE   63

     3321                   ; 473 | vect_pt4 = PORT[4].tvector;                                            
     3322                   ;----------------------------------------------------------------------
     3323 00000608 08700000-        ldp       @CL87,DP
     3324 00000609 50290059-        ldiu      @CL87,ar1             ; |473| 
     3325 0000060a 08700000-        ldp       @CL86,DP
     3326 0000060b 50280058-        ldiu      @CL86,ar0             ; |473| 
     3327 0000060c 5040c100         ldiu      *ar1,r0               ; |473| 
     3328 0000060d 1540c000         sti       r0,*ar0               ; |473| 
     3329                           .line   157
     3330                   ;----------------------------------------------------------------------
     3331                   ; 475 | PUSH_ALL;                                                              
     3332                   ;----------------------------------------------------------------------
     3333 0000060e 0f350000         push    ST                      
     3334 0000060f 0f2b0000         push    FP                      
     3335 00000610 080b0014         ldi             SP,FP           
     3336 00000611 02740002         addi    2,SP            
     3337 00000612 0f200000         push    R0                      
     3338 00000613 0fa00000         pushf   R0                      
     3339 00000614 0f210000         push    R1                      
     3340 00000615 0fa10000         pushf   R1                      
     3341 00000616 0f220000         push    R2                      
     3342 00000617 0fa20000         pushf   R2                      
     3343 00000618 0f230000         push    R3                      
     3344 00000619 0fa30000         pushf   R3                      
     3345 0000061a 0f240000         push    R4                      
     3346 0000061b 0fa40000         pushf   R4                      
     3347 0000061c 0f250000         push    R5                      
     3348 0000061d 0fa50000         pushf   R5                      
     3349 0000061e 0f260000         push    R6                      
     3350 0000061f 0fa60000         pushf   R6                      
     3351 00000620 0f270000         push    R7                      
     3352 00000621 0fa70000         pushf   R7                      
     3353 00000622 0f280000         push    AR0                     
     3354 00000623 0f290000         push    AR1                     
     3355 00000624 0f2a0000         push    AR2                     
     3356 00000625 0f2c0000         push    AR4                     
     3357 00000626 0f2d0000         push    AR5                     
     3358 00000627 0f2e0000         push    AR6                     
     3359 00000628 0f2f0000         push    AR7                     
     3360 00000629 0f300000         push    DP                      
     3361 0000062a 0f310000         push    IR0                     
     3362 0000062b 0f320000         push    IR1                     
     3363 0000062c 0f330000         push    BK                      
     3364 0000062d 0f380000         push    IOF                     
     3365 0000062e 0f390000         push    RS                      
     3366 0000062f 0f3a0000         push    RE                      
     3367 00000630 0f3b0000         push    RC                      
     3368                           .line   158
     3369                   ;----------------------------------------------------------------------
     3370                   ; 476 | asm("           .global _vect_pt4  ");                                 
     3371                   ;----------------------------------------------------------------------
     3372                                   .global _vect_pt4  
     3373                           .line   159
     3374                   ;----------------------------------------------------------------------
TMS320C3x/4x COFF AssemblerVersion 5.12     Wed Jul 24 11:03:43 2019
Copyright (c) 1987-1999 Texas Instruments Incorporatedasm30.exe -@_DJO.AAB 

G:\workspace\EEA\V615\APP\SOURCE\ASM\isr.asm                         PAGE   64

     3375                   ; 477 | asm("       ldp             _vect_pt4      ");                         
     3376                   ;----------------------------------------------------------------------
     3377 00000631 08700000!        ldp             _vect_pt4      
     3378                           .line   160
     3379                   ;----------------------------------------------------------------------
     3380                   ; 478 | asm("       ldi             @_vect_pt4, R0 ");                         
     3381                   ;----------------------------------------------------------------------
     3382 00000632 08200000!        ldi             @_vect_pt4, R0 
     3383                           .line   161
     3384                   ;----------------------------------------------------------------------
     3385                   ; 479 | asm("       ldi             4, AR2             ");  /* select the port
     3386                   ;     | */                                                                     
     3387                   ;----------------------------------------------------------------------
     3388 00000633 086a0004         ldi             4, AR2             
     3389                           .line   162
     3390                   ;----------------------------------------------------------------------
     3391                   ; 480 | asm("       callnz  R0                         ");  /* call if vect !=
     3392                   ;     | NULL */                                                                
     3393                   ;----------------------------------------------------------------------
     3394 00000634 70060000         callnz  R0                         
     3395                           .line   163
     3396                   ;----------------------------------------------------------------------
     3397                   ; 481 | POP_ALL;                                                               
     3398                   ;----------------------------------------------------------------------
     3399 00000635 0e3b0000         pop             RC                      
     3400 00000636 0e3a0000         pop             RE                      
     3401 00000637 0e390000         pop             RS                      
     3402 00000638 0e380000         pop             IOF                     
     3403 00000639 0e330000         pop             BK                      
     3404 0000063a 0e320000         pop             IR1                     
     3405 0000063b 0e310000         pop             IR0                     
     3406 0000063c 0e300000         pop             DP                      
     3407 0000063d 0e2f0000         pop             AR7                     
     3408 0000063e 0e2e0000         pop             AR6                     
     3409 0000063f 0e2d0000         pop             AR5                     
     3410 00000640 0e2c0000         pop             AR4                     
     3411 00000641 0e2a0000         pop             AR2                     
     3412 00000642 0e290000         pop             AR1                     
     3413 00000643 0e280000         pop             AR0                     
     3414 00000644 0ea70000         popf    R7                      
     3415 00000645 0e270000         pop     R7                      
     3416 00000646 0ea60000         popf    R6                      
     3417 00000647 0e260000         pop             R6                      
     3418 00000648 0ea50000         popf    R5                      
     3419 00000649 0e250000         pop             R5                      
     3420 0000064a 0ea40000         popf    R4                      
     3421 0000064b 0e240000         pop             R4                      
     3422 0000064c 0ea30000         popf    R3                      
     3423 0000064d 0e230000         pop             R3                      
     3424 0000064e 0ea20000         popf    R2                      
     3425 0000064f 0e220000         pop             R2                      
     3426 00000650 0ea10000         popf    R1                      
     3427 00000651 0e210000         pop             R1                      
     3428 00000652 0ea00000         popf    R0                      
TMS320C3x/4x COFF AssemblerVersion 5.12     Wed Jul 24 11:03:43 2019
Copyright (c) 1987-1999 Texas Instruments Incorporatedasm30.exe -@_DJO.AAB 

G:\workspace\EEA\V615\APP\SOURCE\ASM\isr.asm                         PAGE   65

     3429 00000653 0e200000         pop     R0                      
     3430 00000654 18740002         subi    2,SP            
     3431 00000655 0e2b0000         pop     FP                      
     3432 00000656 0e350000         pop     ST                      
     3433 00000657 6a000012         bu        L79                   ; |318| 
     3434                   ;*      Branch Occurs to L79            ; |318| 
     3435 00000658          L75:        
     3436                           .line   165
     3437                   ;----------------------------------------------------------------------
     3438                   ; 483 | else if (HART_BURST_MODE)                                              
     3439                   ;----------------------------------------------------------------------
     3440 00000658 08700000-        ldp       @CL88,DP
     3441 00000659 5028005a-        ldiu      @CL88,ar0             ; |483| 
     3442 0000065a 5040c000         ldiu      *ar0,r0               ; |483| 
     3443 0000065b 04e00000         cmpi      0,r0                  ; |483| 
     3444 0000065c 6a05000d         beq       L79                   ; |483| 
     3445                   ;*      Branch Occurs to L79            ; |483| 
     3446                           .line   167
     3447                   ;----------------------------------------------------------------------
     3448                   ; 485 | if (TMR_BURST<=0)                                                      
     3449                   ;----------------------------------------------------------------------
     3450 0000065d 08700000-        ldp       @CL89,DP
     3451 0000065e 5028005b-        ldiu      @CL89,ar0             ; |485| 
     3452 0000065f 5040c000         ldiu      *ar0,r0               ; |485| 
     3453 00000660 04e00000         cmpi      0,r0                  ; |485| 
     3454 00000661 6a090003         bgt       L78                   ; |485| 
     3455                   ;*      Branch Occurs to L78            ; |485| 
     3456                           .line   168
     3457                   ;----------------------------------------------------------------------
     3458                   ; 486 | HART_Burst(4, 1);                                                      
     3459                   ;----------------------------------------------------------------------
     3460 00000662 506a0004         ldiu      4,ar2                 ; |486| 
     3461 00000663 50620001         ldiu      1,r2                  ; |486| 
     3462 00000664 62000000!        call      _HART_Burst           ; |486| 
     3463                                                           ; |486| Call Occurs
     3464 00000665          L78:        
     3465                           .line   170
     3466                   ;----------------------------------------------------------------------
     3467                   ; 488 | TMR_BURST--;                                                           
     3468                   ;----------------------------------------------------------------------
     3469 00000665 08700000-        ldp       @CL89,DP
     3470 00000666 5028005b-        ldiu      @CL89,ar0             ; |488| 
     3471 00000667 50600001         ldiu      1,r0                  ; |488| 
     3472 00000668 2720c000         subi3     r0,*ar0,r0            ; |488| 
     3473 00000669 1540c000         sti       r0,*ar0               ; |488| 
     3474 0000066a          L79:        
     3475                           .line   173
     3476                   ;----------------------------------------------------------------------
     3477                   ; 491 | TIMER1_COUNTER[4]--;                                                   
     3478                   ;----------------------------------------------------------------------
     3479 0000066a 08700000-        ldp       @CL56,DP
     3480 0000066b 5028003a-        ldiu      @CL56,ar0             ; |491| 
     3481 0000066c 50600001         ldiu      1,r0                  ; |491| 
     3482 0000066d 19c00004         subri     *+ar0(4),r0           ; |491| 
TMS320C3x/4x COFF AssemblerVersion 5.12     Wed Jul 24 11:03:43 2019
Copyright (c) 1987-1999 Texas Instruments Incorporatedasm30.exe -@_DJO.AAB 

G:\workspace\EEA\V615\APP\SOURCE\ASM\isr.asm                         PAGE   66

     3483 0000066e 15400004         sti       r0,*+ar0(4)           ; |491| 
     3484                           .line   176
     3485                   ;----------------------------------------------------------------------
     3486                   ; 494 | break;                                                                 
     3487                   ;----------------------------------------------------------------------
     3488 0000066f 6a000000         bu        L81                   ; |494| 
     3489                   ;*      Branch Occurs to L81            ; |494| 
     3490                           .line   177
     3491 00000670          L81:        
     3492                           .line   179
     3493                   ;----------------------------------------------------------------------
     3494                   ; 497 | TIMER0_COUNTER++;                                                      
     3495                   ;----------------------------------------------------------------------
     3496 00000670 08700000-        ldp       @CL90,DP
     3497 00000671 5028005c-        ldiu      @CL90,ar0             ; |497| 
     3498 00000672 50600001         ldiu      1,r0                  ; |497| 
     3499 00000673 2120c000         addi3     r0,*ar0,r0            ; |497| 
     3500 00000674 1540c000         sti       r0,*ar0               ; |497| 
     3501                           .line   181
     3502                   ;----------------------------------------------------------------------
     3503                   ; 499 | if (TIMER0_COUNTER>=1047)                                              
     3504                   ;----------------------------------------------------------------------
     3505 00000675 5028005c-        ldiu      @CL90,ar0             ; |499| 
     3506 00000676 5040c000         ldiu      *ar0,r0               ; |499| 
     3507 00000677 04e00417         cmpi      1047,r0               ; |499| 
     3508 00000678 6a0700b1         blt       L97                   ; |499| 
     3509                   ;*      Branch Occurs to L97            ; |499| 
     3510                           .line   183
     3511                   ;----------------------------------------------------------------------
     3512                   ; 501 | TIMER0_COUNTER  = 0;                                                   
     3513                   ;----------------------------------------------------------------------
     3514 00000679 08700000-        ldp       @CL90,DP
     3515 0000067a 5028005c-        ldiu      @CL90,ar0             ; |501| 
     3516 0000067b 50600000         ldiu      0,r0                  ; |501| 
     3517 0000067c 1540c000         sti       r0,*ar0               ; |501| 
     3518                           .line   184
     3519                   ;----------------------------------------------------------------------
     3520                   ; 502 | p                               = (TPKT*)LIST_TIMER0.head;
     3521                   ;     |          /* get the next event */                                      
     3522                   ;----------------------------------------------------------------------
     3523 0000067d 08700000-        ldp       @CL91,DP
     3524 0000067e 5028005d-        ldiu      @CL91,ar0             ; |502| 
     3525 0000067f 5040c000         ldiu      *ar0,r0               ; |502| 
     3526 00000680 15400301         sti       r0,*+fp(1)            ; |502| 
     3527                           .line   186
     3528                   ;----------------------------------------------------------------------
     3529                   ; 504 | while((int*)p != NULL_PTR)
     3530                   ;     |          /* while there are events, handle them */                     
     3531                   ;----------------------------------------------------------------------
     3532 00000681 04e00000         cmpi      0,r0                  ; |504| 
     3533 00000682 6a0500a7         beq       L97                   ; |504| 
     3534                   ;*      Branch Occurs to L97            ; |504| 
     3535 00000683          L83:        
     3536                           .line   188
TMS320C3x/4x COFF AssemblerVersion 5.12     Wed Jul 24 11:03:43 2019
Copyright (c) 1987-1999 Texas Instruments Incorporatedasm30.exe -@_DJO.AAB 

G:\workspace\EEA\V615\APP\SOURCE\ASM\isr.asm                         PAGE   67

     3537                   ;----------------------------------------------------------------------
     3538                   ; 506 | if (p->countdown > 0)                                                  
     3539                   ;----------------------------------------------------------------------
     3540 00000683 50480301         ldiu      *+fp(1),ar0           ; |506| 
     3541 00000684 50400007         ldiu      *+ar0(7),r0           ; |506| 
     3542 00000685 04e00000         cmpi      0,r0                  ; |506| 
     3543 00000686 6a080004         ble       L85                   ; |506| 
     3544                   ;*      Branch Occurs to L85            ; |506| 
     3545                           .line   190
     3546                   ;----------------------------------------------------------------------
     3547                   ; 508 | p->countdown--;                                                        
     3548                   ;----------------------------------------------------------------------
     3549 00000687 50600001         ldiu      1,r0                  ; |508| 
     3550 00000688 19c00007         subri     *+ar0(7),r0           ; |508| 
     3551 00000689 15400007         sti       r0,*+ar0(7)           ; |508| 
     3552                           .line   191
     3553                   ;----------------------------------------------------------------------
     3554                   ; 509 | break;                                                                 
     3555                   ;----------------------------------------------------------------------
     3556 0000068a 6a00009f         bu        L97                   ; |509| 
     3557                   ;*      Branch Occurs to L97            ; |509| 
     3558 0000068b          L85:        
     3559                           .line   194
     3560                   ;----------------------------------------------------------------------
     3561                   ; 512 | List_Remove((LIST*)&LIST_TIMER0, (GENERIC*)p);  /* remove from timer li
     3562                   ;     | st, but do not add to empty list until done */                         
     3563                   ;----------------------------------------------------------------------
     3564 0000068b 08700000-        ldp       @CL92,DP
     3565 0000068c 5020005e-        ldiu      @CL92,r0              ; |512| 
     3566 0000068d 50420301         ldiu      *+fp(1),r2            ; |512| 
     3567 0000068e 08700000-        ldp       @CL91,DP
     3568 0000068f 502a005d-        ldiu      @CL91,ar2             ; |512| 
     3569 00000690 70000000         callu     r0                    ; far call to _List_Remove      ; |512| 
     3570                                                           ; |512| Far Call Occurs
     3571                           .line   196
     3572                   ;----------------------------------------------------------------------
     3573                   ; 514 | if (p->vect != NULL_PTR)
     3574                   ;     |                                                                        
     3575                   ;----------------------------------------------------------------------
     3576 00000691 50480301         ldiu      *+fp(1),ar0           ; |514| 
     3577 00000692 50400002         ldiu      *+ar0(2),r0           ; |514| 
     3578 00000693 04e00000         cmpi      0,r0                  ; |514| 
     3579 00000694 6a050081         beq       L96                   ; |514| 
     3580                   ;*      Branch Occurs to L96            ; |514| 
     3581                           .line   198
     3582                   ;----------------------------------------------------------------------
     3583                   ; 516 | exec = TRUE;                                                           
     3584                   ;----------------------------------------------------------------------
     3585 00000695 50600001         ldiu      1,r0                  ; |516| 
     3586 00000696 15400303         sti       r0,*+fp(3)            ; |516| 
     3587                           .line   200
     3588                   ;----------------------------------------------------------------------
     3589                   ; 518 | if (p->priority == 0)                                                  
     3590                   ;----------------------------------------------------------------------
TMS320C3x/4x COFF AssemblerVersion 5.12     Wed Jul 24 11:03:43 2019
Copyright (c) 1987-1999 Texas Instruments Incorporatedasm30.exe -@_DJO.AAB 

G:\workspace\EEA\V615\APP\SOURCE\ASM\isr.asm                         PAGE   68

     3591 00000697 50400003         ldiu      *+ar0(3),r0           ; |518| 
     3592 00000698 04e00000         cmpi      0,r0                  ; |518| 
     3593 00000699 6a060054         bne       L88                   ; |518| 
     3594                   ;*      Branch Occurs to L88            ; |518| 
     3595                           .line   202
     3596                   ;----------------------------------------------------------------------
     3597                   ; 520 | tmp     = vect_tm;                                                     
     3598                   ;----------------------------------------------------------------------
     3599 0000069a 08700000-        ldp       @CL93,DP
     3600 0000069b 5028005f-        ldiu      @CL93,ar0             ; |520| 
     3601 0000069c 5040c000         ldiu      *ar0,r0               ; |520| 
     3602 0000069d 15400302         sti       r0,*+fp(2)            ; |520| 
     3603                           .line   203
     3604                   ;----------------------------------------------------------------------
     3605                   ; 521 | vect_tm = p->vect;                                                     
     3606                   ;----------------------------------------------------------------------
     3607 0000069e 50480301         ldiu      *+fp(1),ar0           ; |521| 
     3608 0000069f 5029005f-        ldiu      @CL93,ar1             ; |521| 
     3609 000006a0 50400002         ldiu      *+ar0(2),r0           ; |521| 
     3610 000006a1 1540c100         sti       r0,*ar1               ; |521| 
     3611                           .line   207
     3612                   ;----------------------------------------------------------------------
     3613                   ; 525 | PUSH_ALL;                                                              
     3614                   ;----------------------------------------------------------------------
     3615 000006a2 0f350000         push    ST                      
     3616 000006a3 0f2b0000         push    FP                      
     3617 000006a4 080b0014         ldi             SP,FP           
     3618 000006a5 02740002         addi    2,SP            
     3619 000006a6 0f200000         push    R0                      
     3620 000006a7 0fa00000         pushf   R0                      
     3621 000006a8 0f210000         push    R1                      
     3622 000006a9 0fa10000         pushf   R1                      
     3623 000006aa 0f220000         push    R2                      
     3624 000006ab 0fa20000         pushf   R2                      
     3625 000006ac 0f230000         push    R3                      
     3626 000006ad 0fa30000         pushf   R3                      
     3627 000006ae 0f240000         push    R4                      
     3628 000006af 0fa40000         pushf   R4                      
     3629 000006b0 0f250000         push    R5                      
     3630 000006b1 0fa50000         pushf   R5                      
     3631 000006b2 0f260000         push    R6                      
     3632 000006b3 0fa60000         pushf   R6                      
     3633 000006b4 0f270000         push    R7                      
     3634 000006b5 0fa70000         pushf   R7                      
     3635 000006b6 0f280000         push    AR0                     
     3636 000006b7 0f290000         push    AR1                     
     3637 000006b8 0f2a0000         push    AR2                     
     3638 000006b9 0f2c0000         push    AR4                     
     3639 000006ba 0f2d0000         push    AR5                     
     3640 000006bb 0f2e0000         push    AR6                     
     3641 000006bc 0f2f0000         push    AR7                     
     3642 000006bd 0f300000         push    DP                      
     3643 000006be 0f310000         push    IR0                     
     3644 000006bf 0f320000         push    IR1                     
TMS320C3x/4x COFF AssemblerVersion 5.12     Wed Jul 24 11:03:43 2019
Copyright (c) 1987-1999 Texas Instruments Incorporatedasm30.exe -@_DJO.AAB 

G:\workspace\EEA\V615\APP\SOURCE\ASM\isr.asm                         PAGE   69

     3645 000006c0 0f330000         push    BK                      
     3646 000006c1 0f380000         push    IOF                     
     3647 000006c2 0f390000         push    RS                      
     3648 000006c3 0f3a0000         push    RE                      
     3649 000006c4 0f3b0000         push    RC                      
     3650                           .line   208
     3651                   ;----------------------------------------------------------------------
     3652                   ; 526 | asm("           .global _vect_tm  ");                                  
     3653                   ;----------------------------------------------------------------------
     3654                                   .global _vect_tm  
     3655                           .line   209
     3656                   ;----------------------------------------------------------------------
     3657                   ; 527 | asm("       ldp             _vect_tm      ");                          
     3658                   ;----------------------------------------------------------------------
     3659 000006c5 08700000!        ldp             _vect_tm      
     3660                           .line   210
     3661                   ;----------------------------------------------------------------------
     3662                   ; 528 | asm("       ldi             @_vect_tm, R0 ");                          
     3663                   ;----------------------------------------------------------------------
     3664 000006c6 08200000!        ldi             @_vect_tm, R0 
     3665                           .line   211
     3666                   ;----------------------------------------------------------------------
     3667                   ; 529 | asm("       callnz  R0                        ");           /* call if
     3668                   ;     | vect != NULL */                                                        
     3669                   ;----------------------------------------------------------------------
     3670 000006c7 70060000         callnz  R0                        
     3671                           .line   212
     3672                   ;----------------------------------------------------------------------
     3673                   ; 530 | POP_ALL;                                                               
     3674                   ;----------------------------------------------------------------------
     3675 000006c8 0e3b0000         pop             RC                      
     3676 000006c9 0e3a0000         pop             RE                      
     3677 000006ca 0e390000         pop             RS                      
     3678 000006cb 0e380000         pop             IOF                     
     3679 000006cc 0e330000         pop             BK                      
     3680 000006cd 0e320000         pop             IR1                     
     3681 000006ce 0e310000         pop             IR0                     
     3682 000006cf 0e300000         pop             DP                      
     3683 000006d0 0e2f0000         pop             AR7                     
     3684 000006d1 0e2e0000         pop             AR6                     
     3685 000006d2 0e2d0000         pop             AR5                     
     3686 000006d3 0e2c0000         pop             AR4                     
     3687 000006d4 0e2a0000         pop             AR2                     
     3688 000006d5 0e290000         pop             AR1                     
     3689 000006d6 0e280000         pop             AR0                     
     3690 000006d7 0ea70000         popf    R7                      
     3691 000006d8 0e270000         pop     R7                      
     3692 000006d9 0ea60000         popf    R6                      
     3693 000006da 0e260000         pop             R6                      
     3694 000006db 0ea50000         popf    R5                      
     3695 000006dc 0e250000         pop             R5                      
     3696 000006dd 0ea40000         popf    R4                      
     3697 000006de 0e240000         pop             R4                      
     3698 000006df 0ea30000         popf    R3                      
TMS320C3x/4x COFF AssemblerVersion 5.12     Wed Jul 24 11:03:43 2019
Copyright (c) 1987-1999 Texas Instruments Incorporatedasm30.exe -@_DJO.AAB 

G:\workspace\EEA\V615\APP\SOURCE\ASM\isr.asm                         PAGE   70

     3699 000006e0 0e230000         pop             R3                      
     3700 000006e1 0ea20000         popf    R2                      
     3701 000006e2 0e220000         pop             R2                      
     3702 000006e3 0ea10000         popf    R1                      
     3703 000006e4 0e210000         pop             R1                      
     3704 000006e5 0ea00000         popf    R0                      
     3705 000006e6 0e200000         pop     R0                      
     3706 000006e7 18740002         subi    2,SP            
     3707 000006e8 0e2b0000         pop     FP                      
     3708 000006e9 0e350000         pop     ST                      
     3709                           .line   213
     3710                   ;----------------------------------------------------------------------
     3711                   ; 531 | vect_tm = tmp;                                                         
     3712                   ;----------------------------------------------------------------------
     3713 000006ea 5028005f-        ldiu      @CL93,ar0             ; |531| 
     3714 000006eb 50400302         ldiu      *+fp(2),r0            ; |531| 
     3715 000006ec 1540c000         sti       r0,*ar0               ; |531| 
     3716 000006ed 6a000006         bu        L90                   ; |318| 
     3717                   ;*      Branch Occurs to L90            ; |318| 
     3718 000006ee          L88:        
     3719                           .line   215
     3720                   ;----------------------------------------------------------------------
     3721                   ; 533 | else if (!Execute_Insert((EPKT*)p))                     /* execution qu
     3722                   ;     | eue is full!!! */                                                      
     3723                   ;----------------------------------------------------------------------
     3724 000006ee 504a0301         ldiu      *+fp(1),ar2           ; |533| 
     3725 000006ef 62000000!        call      _Execute_Insert       ; |533| 
     3726                                                           ; |533| Call Occurs
     3727 000006f0 04e00000         cmpi      0,r0                  ; |533| 
     3728 000006f1 6a060002         bne       L90                   ; |533| 
     3729                   ;*      Branch Occurs to L90            ; |533| 
     3730                           .line   216
     3731                   ;----------------------------------------------------------------------
     3732                   ; 534 | exec = FALSE;                                                          
     3733                   ;----------------------------------------------------------------------
     3734 000006f2 50600000         ldiu      0,r0                  ; |534| 
     3735 000006f3 15400303         sti       r0,*+fp(3)            ; |534| 
     3736 000006f4          L90:        
     3737                           .line   220
     3738                   ;----------------------------------------------------------------------
     3739                   ; 538 | if (!exec)                                                             
     3740                   ;----------------------------------------------------------------------
     3741 000006f4 50400303         ldiu      *+fp(3),r0            ; |538| 
     3742 000006f5 04e00000         cmpi      0,r0                  ; |538| 
     3743 000006f6 6a060007         bne       L92                   ; |538| 
     3744                   ;*      Branch Occurs to L92            ; |538| 
     3745                           .line   221
     3746                   ;----------------------------------------------------------------------
     3747                   ; 539 | Timer_Insert(p,1,TMR_action_replace);   /* re-insert timer with minimum
     3748                   ;     |  tick*/                                                                
     3749                   ;----------------------------------------------------------------------
     3750 000006f7 08700000-        ldp       @CL94,DP
     3751 000006f8 504a0301         ldiu      *+fp(1),ar2           ; |539| 
     3752 000006f9 50630001         ldiu      1,r3                  ; |539| 
TMS320C3x/4x COFF AssemblerVersion 5.12     Wed Jul 24 11:03:43 2019
Copyright (c) 1987-1999 Texas Instruments Incorporatedasm30.exe -@_DJO.AAB 

G:\workspace\EEA\V615\APP\SOURCE\ASM\isr.asm                         PAGE   71

     3753 000006fa 50620001         ldiu      1,r2                  ; |539| 
     3754 000006fb 50200060-        ldiu      @CL94,r0              ; |539| 
     3755 000006fc 70000000         callu     r0                    ; far call to _Timer_Insert     ; |539| 
     3756                                                           ; |539| Far Call Occurs
     3757 000006fd 6a000018         bu        L96                   ; |318| 
     3758                   ;*      Branch Occurs to L96            ; |318| 
     3759 000006fe          L92:        
     3760                           .line   222
     3761                   ;----------------------------------------------------------------------
     3762                   ; 540 | else if (p->n > 1)                                                     
     3763                   ;----------------------------------------------------------------------
     3764 000006fe 50480301         ldiu      *+fp(1),ar0           ; |540| 
     3765 000006ff 50400005         ldiu      *+ar0(5),r0           ; |540| 
     3766 00000700 04e00001         cmpi      1,r0                  ; |540| 
     3767 00000701 6a08000a         ble       L94                   ; |540| 
     3768                   ;*      Branch Occurs to L94            ; |540| 
     3769                           .line   224
     3770                   ;----------------------------------------------------------------------
     3771                   ; 542 | p->n--;                                                                
     3772                   ;----------------------------------------------------------------------
     3773 00000702 50600001         ldiu      1,r0                  ; |542| 
     3774 00000703 19c00005         subri     *+ar0(5),r0           ; |542| 
     3775 00000704 15400005         sti       r0,*+ar0(5)           ; |542| 
     3776                           .line   225
     3777                   ;----------------------------------------------------------------------
     3778                   ; 543 | Timer_Insert(p,0,TMR_action_replace);   /* re-insert timer */          
     3779                   ;----------------------------------------------------------------------
     3780 00000705 08700000-        ldp       @CL94,DP
     3781 00000706 50630001         ldiu      1,r3                  ; |543| 
     3782 00000707 50620000         ldiu      0,r2                  ; |543| 
     3783 00000708 504a0301         ldiu      *+fp(1),ar2           ; |543| 
     3784 00000709 50200060-        ldiu      @CL94,r0              ; |543| 
     3785 0000070a 70000000         callu     r0                    ; far call to _Timer_Insert     ; |543| 
     3786                                                           ; |543| Far Call Occurs
     3787 0000070b 6a00000a         bu        L96                   ; |318| 
     3788                   ;*      Branch Occurs to L96            ; |318| 
     3789 0000070c          L94:        
     3790                           .line   227
     3791                   ;----------------------------------------------------------------------
     3792                   ; 545 | else if (p->n < 0)                                                     
     3793                   ;----------------------------------------------------------------------
     3794 0000070c 50480301         ldiu      *+fp(1),ar0           ; |545| 
     3795 0000070d 50400005         ldiu      *+ar0(5),r0           ; |545| 
     3796 0000070e 04e00000         cmpi      0,r0                  ; |545| 
     3797 0000070f 6a0a0006         bge       L96                   ; |545| 
     3798                   ;*      Branch Occurs to L96            ; |545| 
     3799                           .line   228
     3800                   ;----------------------------------------------------------------------
     3801                   ; 546 | Timer_Insert(p,0,TMR_action_replace);   /* re-insert timer */          
     3802                   ;----------------------------------------------------------------------
     3803 00000710 08700000-        ldp       @CL94,DP
     3804 00000711 500a0008         ldiu      ar0,ar2               ; |546| 
     3805 00000712 50630001         ldiu      1,r3                  ; |546| 
     3806 00000713 50620000         ldiu      0,r2                  ; |546| 
TMS320C3x/4x COFF AssemblerVersion 5.12     Wed Jul 24 11:03:43 2019
Copyright (c) 1987-1999 Texas Instruments Incorporatedasm30.exe -@_DJO.AAB 

G:\workspace\EEA\V615\APP\SOURCE\ASM\isr.asm                         PAGE   72

     3807 00000714 50200060-        ldiu      @CL94,r0              ; |546| 
     3808 00000715 70000000         callu     r0                    ; far call to _Timer_Insert     ; |546| 
     3809                                                           ; |546| Far Call Occurs
     3810 00000716          L96:        
     3811                           .line   231
     3812                   ;----------------------------------------------------------------------
     3813                   ; 549 | List_Add(&LIST_TMR_EMPTY, (GENERIC*)p);                                
     3814                   ;----------------------------------------------------------------------
     3815 00000716 08700000-        ldp       @CL96,DP
     3816 00000717 50200062-        ldiu      @CL96,r0              ; |549| 
     3817 00000718 50420301         ldiu      *+fp(1),r2            ; |549| 
     3818 00000719 08700000-        ldp       @CL95,DP
     3819 0000071a 502a0061-        ldiu      @CL95,ar2             ; |549| 
     3820 0000071b 70000000         callu     r0                    ; far call to _List_Add ; |549| 
     3821                                                           ; |549| Far Call Occurs
     3822                           .line   233
     3823                   ;----------------------------------------------------------------------
     3824                   ; 551 | TICKLE_WATCHDOG;                                                       
     3825                   ;----------------------------------------------------------------------
     3826 0000071c 0f350000         push    ST                      
     3827 0000071d 03752000         andn    2000h, ST       
     3828 0000071e 08700000-        ldp       @CL97,DP
     3829 0000071f 50280063-        ldiu      @CL97,ar0             ; |551| 
     3830 00000720 50600080         ldiu      128,r0                ; |551| 
     3831 00000721 25a0c000         or3       r0,*ar0,r0            ; |551| 
     3832 00000722 1540c000         sti       r0,*ar0               ; |551| 
     3833 00000723 0e350000         pop             ST                      
     3834                           .line   234
     3835                   ;----------------------------------------------------------------------
     3836                   ; 552 | p = (TPKT*)LIST_TIMER0.head;                                           
     3837                   ;----------------------------------------------------------------------
     3838 00000724 08700000-        ldp       @CL91,DP
     3839 00000725 5028005d-        ldiu      @CL91,ar0             ; |552| 
     3840 00000726 5040c000         ldiu      *ar0,r0               ; |552| 
     3841 00000727 15400301         sti       r0,*+fp(1)            ; |552| 
     3842                           .line   186
     3843 00000728 04e00000         cmpi      0,r0                  ; |504| 
     3844 00000729 6a06ff59         bne       L83                   ; |504| 
     3845                   ;*      Branch Occurs to L83            ; |504| 
     3846 0000072a          L97:        
     3847                           .line   238
     3848                   ;----------------------------------------------------------------------
     3849                   ; 556 | TICKLE_WATCHDOG;                                                       
     3850                   ;----------------------------------------------------------------------
     3851 0000072a 0f350000         push    ST                      
     3852 0000072b 03752000         andn    2000h, ST       
     3853 0000072c 08700000-        ldp       @CL97,DP
     3854 0000072d 50280063-        ldiu      @CL97,ar0             ; |556| 
     3855 0000072e 50600080         ldiu      128,r0                ; |556| 
     3856 0000072f 25a0c000         or3       r0,*ar0,r0            ; |556| 
     3857 00000730 1540c000         sti       r0,*ar0               ; |556| 
     3858 00000731 0e350000         pop             ST                      
     3859                           .line   239
     3860                   ;----------------------------------------------------------------------
TMS320C3x/4x COFF AssemblerVersion 5.12     Wed Jul 24 11:03:43 2019
Copyright (c) 1987-1999 Texas Instruments Incorporatedasm30.exe -@_DJO.AAB 

G:\workspace\EEA\V615\APP\SOURCE\ASM\isr.asm                         PAGE   73

     3861                   ; 557 | ENABLE_TINT0;                                                          
     3862                   ;----------------------------------------------------------------------
     3863 00000732 10760100         or              0100h, IE
     3864                           .line   240
     3865                                                           ; Begin Epilog Code
     3866                                                           ; Restore SOE Registers
     3867 00000733 0e330000         pop       bk
     3868 00000734 0ea70000         popf      f7
     3869 00000735 0e270000         pop       r7
     3870 00000736 0ea60000         popf      f6
     3871 00000737 0e260000         pop       r6
     3872 00000738 0ea50000         popf      f5
     3873 00000739 0e250000         pop       r5
     3874 0000073a 0ea40000         popf      f4
     3875 0000073b 0e240000         pop       r4
     3876 0000073c 0e3b0000         pop       rc
     3877 0000073d 0e3a0000         pop       re
     3878 0000073e 0e390000         pop       rs
     3879 0000073f 0e320000         pop       ir1
     3880 00000740 0e310000         pop       ir0
     3881 00000741 0e2a0000         pop       ar2
     3882 00000742 0e290000         pop       ar1
     3883 00000743 0e280000         pop       ar0
     3884 00000744 0ea30000         popf      f3
     3885 00000745 0e230000         pop       r3
     3886 00000746 0ea20000         popf      f2
     3887 00000747 0e220000         pop       r2
     3888 00000748 0ea10000         popf      f1
     3889 00000749 0e210000         pop       r1
     3890 0000074a 0ea00000         popf      f0
     3891 0000074b 0e200000         pop       r0
     3892 0000074c 0e300000         pop       dp
     3893                                                           ; Unallocate the Frame
     3894 0000074d 18740003         subi      3,sp
     3895 0000074e 0e2b0000         pop       fp
     3896 0000074f 0e350000         pop       st
     3897 00000750 78000000         reti
     3898                                                                   ; Return From Interrupt
     3899                           .endfunc        558,0103f07ffh,3
     3900                   
     3901                   
     3902 00000751                  .sect    "interrupt_routines"
     3903                   
     3904                           .global _c_TINT1
     3905                           .sym    _c_TINT1,_c_TINT1,32,2,0
     3906                           .func   574
     3907                   ;******************************************************************************
     3908                   ;* FUNCTION NAME: _c_TINT1                                                    *
     3909                   ;*                                                                            *
     3910                   ;*   Architecture       : TMS320C33                                           *
     3911                   ;*   Calling Convention : TI Standard Register Parameters                     *
     3912                   ;*   Function Uses Regs :                                                     *
     3913                   ;*   Regs Saved         :                                                     *
     3914                   ;*   Stack Frame        : Full (w/ debug)                                     *
TMS320C3x/4x COFF AssemblerVersion 5.12     Wed Jul 24 11:03:43 2019
Copyright (c) 1987-1999 Texas Instruments Incorporatedasm30.exe -@_DJO.AAB 

G:\workspace\EEA\V615\APP\SOURCE\ASM\isr.asm                         PAGE   74

     3915                   ;*   Total Frame Size   : 2 Call + 0 Parm + 0 Auto + 1 SOE = 3 words          *
     3916                   ;******************************************************************************
     3917 00000751          _c_TINT1:
     3918                           .line   1
     3919                   ;----------------------------------------------------------------------
     3920                   ; 574 | void c_TINT1(void){}                                                   
     3921                   ;----------------------------------------------------------------------
     3922 00000751 0f350000         push      st
     3923 00000752 0f2b0000         push      fp
     3924 00000753 500b0014         ldiu      sp,fp
     3925 00000754 0f300000         push      dp
     3926                                                           ; Begin Epilog Code
     3927                                                           ; Restore SOE Registers
     3928 00000755 0e300000         pop       dp
     3929                                                           ; Unallocate the Frame
     3930 00000756 0e2b0000         pop       fp
     3931 00000757 0e350000         pop       st
     3932 00000758 78000000         reti
     3933                                                                   ; Return From Interrupt
     3934                           .endfunc        574,010000000h,0
     3935                   
     3936                   
     3937 00000759                  .sect    "interrupt_routines"
     3938                   
     3939                           .global _c_SPURINT
     3940                           .sym    _c_SPURINT,_c_SPURINT,32,2,0
     3941                           .func   590
     3942                   ;******************************************************************************
     3943                   ;* FUNCTION NAME: _c_SPURINT                                                  *
     3944                   ;*                                                                            *
     3945                   ;*   Architecture       : TMS320C33                                           *
     3946                   ;*   Calling Convention : TI Standard Register Parameters                     *
     3947                   ;*   Function Uses Regs :                                                     *
     3948                   ;*   Regs Saved         :                                                     *
     3949                   ;*   Stack Frame        : Full (w/ debug)                                     *
     3950                   ;*   Total Frame Size   : 2 Call + 0 Parm + 0 Auto + 1 SOE = 3 words          *
     3951                   ;******************************************************************************
     3952 00000759          _c_SPURINT:
     3953                           .line   1
     3954                   ;----------------------------------------------------------------------
     3955                   ; 590 | void c_SPURINT(void){}                                                 
     3956                   ;----------------------------------------------------------------------
     3957 00000759 0f350000         push      st
     3958 0000075a 0f2b0000         push      fp
     3959 0000075b 500b0014         ldiu      sp,fp
     3960 0000075c 0f300000         push      dp
     3961                                                           ; Begin Epilog Code
     3962                                                           ; Restore SOE Registers
     3963 0000075d 0e300000         pop       dp
     3964                                                           ; Unallocate the Frame
     3965 0000075e 0e2b0000         pop       fp
     3966 0000075f 0e350000         pop       st
     3967 00000760 78000000         reti
     3968                                                                   ; Return From Interrupt
TMS320C3x/4x COFF AssemblerVersion 5.12     Wed Jul 24 11:03:43 2019
Copyright (c) 1987-1999 Texas Instruments Incorporatedasm30.exe -@_DJO.AAB 

G:\workspace\EEA\V615\APP\SOURCE\ASM\isr.asm                         PAGE   75

     3969                           .endfunc        590,010000000h,0
     3970                   
     3971                   
     3972                   ;******************************************************************************
     3973                   ;* CONSTANT TABLE                                                             *
     3974                   ;******************************************************************************
     3975 00000000                  .sect   ".const"
     3976 00000000                  .bss    CL1,1
     3977 00000001                  .bss    CL2,1
     3978 00000002                  .bss    CL3,1
     3979 00000003                  .bss    CL4,1
     3980 00000004                  .bss    CL5,1
     3981 00000005                  .bss    CL6,1
     3982 00000006                  .bss    CL7,1
     3983 00000007                  .bss    CL8,1
     3984 00000008                  .bss    CL9,1
     3985 00000009                  .bss    CL10,1
     3986 0000000a                  .bss    CL11,1
     3987 0000000b                  .bss    CL12,1
     3988 0000000c                  .bss    CL13,1
     3989 0000000d                  .bss    CL14,1
     3990 0000000e                  .bss    CL15,1
     3991 0000000f                  .bss    CL16,2
     3992 00000011                  .bss    CL17,2
     3993 00000013                  .bss    CL18,1
     3994 00000014                  .bss    CL19,1
     3995 00000015                  .bss    CL20,1
     3996 00000016                  .bss    CL21,1
     3997 00000017                  .bss    CL22,1
     3998 00000018                  .bss    CL23,1
     3999 00000019                  .bss    CL24,1
     4000 0000001a                  .bss    CL25,1
     4001 0000001b                  .bss    CL26,1
     4002 0000001c                  .bss    CL27,1
     4003 0000001d                  .bss    CL28,1
     4004 0000001e                  .bss    CL29,1
     4005 0000001f                  .bss    CL30,1
     4006 00000020                  .bss    CL31,1
     4007 00000021                  .bss    CL32,1
     4008 00000022                  .bss    CL33,1
     4009 00000023                  .bss    CL34,1
     4010 00000024                  .bss    CL35,1
     4011 00000025                  .bss    CL36,1
     4012 00000026                  .bss    CL37,1
     4013 00000027                  .bss    CL38,1
     4014 00000028                  .bss    CL39,1
     4015 00000029                  .bss    CL40,1
     4016 0000002a                  .bss    CL41,1
     4017 0000002b                  .bss    CL42,1
     4018 0000002c                  .bss    CL43,1
     4019 0000002d                  .bss    CL44,1
     4020 0000002e                  .bss    CL45,1
     4021 0000002f                  .bss    CL46,1
     4022 00000030                  .bss    CL47,1
TMS320C3x/4x COFF AssemblerVersion 5.12     Wed Jul 24 11:03:43 2019
Copyright (c) 1987-1999 Texas Instruments Incorporatedasm30.exe -@_DJO.AAB 

G:\workspace\EEA\V615\APP\SOURCE\ASM\isr.asm                         PAGE   76

     4023 00000031                  .bss    CL48,1
     4024 00000032                  .bss    CL49,1
     4025 00000033                  .bss    CL50,1
     4026 00000034                  .bss    CL51,1
     4027 00000035                  .bss    CL52,1
     4028 00000036                  .bss    CL53,1
     4029 00000037                  .bss    CL54,1
     4030 00000038                  .bss    CL55,2
     4031 0000003a                  .bss    CL56,1
     4032 0000003b                  .bss    CL57,1
     4033 0000003c                  .bss    CL58,1
     4034 0000003d                  .bss    CL59,1
     4035 0000003e                  .bss    CL60,1
     4036 0000003f                  .bss    CL61,1
     4037 00000040                  .bss    CL62,1
     4038 00000041                  .bss    CL63,1
     4039 00000042                  .bss    CL64,1
     4040 00000043                  .bss    CL65,1
     4041 00000044                  .bss    CL66,1
     4042 00000045                  .bss    CL67,1
     4043 00000046                  .bss    CL68,1
     4044 00000047                  .bss    CL69,1
     4045 00000048                  .bss    CL70,1
     4046 00000049                  .bss    CL71,1
     4047 0000004a                  .bss    CL72,1
     4048 0000004b                  .bss    CL73,1
     4049 0000004c                  .bss    CL74,1
     4050 0000004d                  .bss    CL75,1
     4051 0000004e                  .bss    CL76,1
     4052 0000004f                  .bss    CL77,1
     4053 00000050                  .bss    CL78,1
     4054 00000051                  .bss    CL79,1
     4055 00000052                  .bss    CL80,1
     4056 00000053                  .bss    CL81,1
     4057 00000054                  .bss    CL82,1
     4058 00000055                  .bss    CL83,1
     4059 00000056                  .bss    CL84,1
     4060 00000057                  .bss    CL85,1
     4061 00000058                  .bss    CL86,1
     4062 00000059                  .bss    CL87,1
     4063 0000005a                  .bss    CL88,1
     4064 0000005b                  .bss    CL89,1
     4065 0000005c                  .bss    CL90,1
     4066 0000005d                  .bss    CL91,1
     4067 0000005e                  .bss    CL92,1
     4068 0000005f                  .bss    CL93,1
     4069 00000060                  .bss    CL94,1
     4070 00000061                  .bss    CL95,1
     4071 00000062                  .bss    CL96,1
     4072 00000063                  .bss    CL97,1
     4073                   
     4074 00000000                  .sect   ".cinit"
     4075 00000000 00000064         .field          100,32
     4076 00000001 00000000-        .field          CL1+0,32
TMS320C3x/4x COFF AssemblerVersion 5.12     Wed Jul 24 11:03:43 2019
Copyright (c) 1987-1999 Texas Instruments Incorporatedasm30.exe -@_DJO.AAB 

G:\workspace\EEA\V615\APP\SOURCE\ASM\isr.asm                         PAGE   77

     4077 00000002 00900006         .field          9437190,32
     4078 00000003 00000000!        .field          _Process_UINT,32
     4079 00000004 00000000!        .field          _SA,32
     4080 00000005 0090000b         .field          9437195,32
     4081 00000006 0090000c         .field          9437196,32
     4082 00000007 0090000d         .field          9437197,32
     4083 00000008 0090000e         .field          9437198,32
     4084 00000009 0090000f         .field          9437199,32
     4085 0000000a 00900010         .field          9437200,32
     4086 0000000b 000004e3!        .field          _FC+1251,32
     4087 0000000c 000004e6!        .field          _FC+1254,32
     4088 0000000d 10000000         .word           010000000H ; double  6.553600000000000e+04
     4089 0000000e 000004e5!        .field          _FC+1253,32
     4090 0000000f 000004ec!        .field          _FC+1260,32
     4091 00000010 0000045d!        .field          _FC+1117,32
     4092 00000011 20000000         .word           020000000H ; ldouble 4.294967296000000e+09
     4093 00000012 00000000         .word           000000000H ; ldouble
     4094 00000013 80000000         .word           080000000H ; ldouble 0.000000000000000e+00
     4095 00000014 00000000         .word           000000000H ; ldouble
     4096 00000015 000004f6!        .field          _FC+1270,32
     4097 00000016 000004ea!        .field          _FC+1258,32
     4098 00000017 000004b6!        .field          _FC+1206,32
     4099 00000018 00000000!        .field          _VAR_Update,32
     4100 00000019 00000000!        .field          _FC,32
     4101 0000001a 0000045e!        .field          _FC+1118,32
     4102 0000001b 00000467!        .field          _FC+1127,32
     4103 0000001c 0000046d!        .field          _FC+1133,32
     4104 0000001d 0000046c!        .field          _FC+1132,32
     4105 0000001e 00000498!        .field          _FC+1176,32
     4106 0000001f 0000048a!        .field          _FC+1162,32
     4107 00000020 00000000!        .field          _Time_Scale_Flow,32
     4108 00000021 0000043f!        .field          _FC+1087,32
     4109 00000022 00000431!        .field          _FC+1073,32
     4110 00000023 00000000!        .field          _Accumulate,32
     4111 00000024 000004f9!        .field          _FC+1273,32
     4112 00000025 00000000!        .field          _HART_DVINPUT_Table,32
     4113 00000026 00000000!        .field          _HART_Lookup,32
     4114 00000027 00000000!        .field          _REG_DUMMY,32
     4115 00000028 000004ff!        .field          _FC+1279,32
     4116 00000029 0000050c!        .field          _FC+1292,32
     4117 0000002a 00000508!        .field          _FC+1288,32
     4118 0000002b 00000000!        .field          _Convert,32
     4119 0000002c 00000000!        .field          _Read_ADC_FIFO,32
     4120 0000002d 00000000!        .field          _VT_SELECT,32
     4121 0000002e 00000000!        .field          _GATE_TIMEOUT,32
     4122 0000002f 0090000a         .field          9437194,32
     4123 00000030 00900009         .field          9437193,32
     4124 00000031 00900008         .field          9437192,32
     4125 00000032 00900007         .field          9437191,32
     4126 00000033 00000000!        .field          _DIO_AUX_FREQ_MODE,32
     4127 00000034 00000000!        .field          _PRESCALE,32
     4128 00000035 20000000         .word           020000000H ; float   4.294967296000000e+09
     4129 00000036 1f000000         .word           01F000000H ; float   2.147483648000000e+09
     4130 00000037 00000000!        .field          _GATE_TIME,32
TMS320C3x/4x COFF AssemblerVersion 5.12     Wed Jul 24 11:03:43 2019
Copyright (c) 1987-1999 Texas Instruments Incorporatedasm30.exe -@_DJO.AAB 

G:\workspace\EEA\V615\APP\SOURCE\ASM\isr.asm                         PAGE   78

     4131 00000038 00000000!        .field          _FREQ_FACTOR,32
     4132 00000039 00000000!        .field          _TMP_FREQ,32
     4133 0000003a ec0637bd         .word           0EC0637BDH ; ldouble 1.000000000000000e-06
     4134 0000003b 0637bd06         .word           00637BD06H ; ldouble
     4135 0000003c 00000000!        .field          _TIMER1_COUNTER,32
     4136 0000003d 00000025!        .field          _PORT+37,32
     4137 0000003e 00000000!        .field          _vect_pt0,32
     4138 0000003f 00000026!        .field          _PORT+38,32
     4139 00000040 0000006c!        .field          _PORT+108,32
     4140 00000041 00000001!        .field          _TIMER1_COUNTER+1,32
     4141 00000042 00000000!        .field          _vect_pt1,32
     4142 00000043 0000006d!        .field          _PORT+109,32
     4143 00000044 000000b3!        .field          _PORT+179,32
     4144 00000045 00000002!        .field          _TIMER1_COUNTER+2,32
     4145 00000046 00000000!        .field          _vect_pt2,32
     4146 00000047 000000b4!        .field          _PORT+180,32
     4147 00000048 000000fa!        .field          _PORT+250,32
     4148 00000049 00000003!        .field          _TIMER1_COUNTER+3,32
     4149 0000004a 00000000!        .field          _vect_pt3,32
     4150 0000004b 000000fb!        .field          _PORT+251,32
     4151 0000004c 00000188!        .field          _PORT+392,32
     4152 0000004d 00000005!        .field          _TIMER1_COUNTER+5,32
     4153 0000004e 00000000!        .field          _vect_pt5,32
     4154 0000004f 00000189!        .field          _PORT+393,32
     4155 00000050 000001cf!        .field          _PORT+463,32
     4156 00000051 00000006!        .field          _TIMER1_COUNTER+6,32
     4157 00000052 00000000!        .field          _vect_pt6,32
     4158 00000053 000001d0!        .field          _PORT+464,32
     4159 00000054 00000216!        .field          _PORT+534,32
     4160 00000055 00000007!        .field          _TIMER1_COUNTER+7,32
     4161 00000056 00000000!        .field          _vect_pt7,32
     4162 00000057 00000217!        .field          _PORT+535,32
     4163 00000058 00000141!        .field          _PORT+321,32
     4164 00000059 00000004!        .field          _TIMER1_COUNTER+4,32
     4165 0000005a 00000000!        .field          _vect_pt4,32
     4166 0000005b 00000142!        .field          _PORT+322,32
     4167 0000005c 00000000!        .field          _HART_BURST_MODE,32
     4168 0000005d 00000000!        .field          _TMR_BURST,32
     4169 0000005e 00000000!        .field          _TIMER0_COUNTER,32
     4170 0000005f 00000000!        .field          _LIST_TIMER0,32
     4171 00000060 00000000!        .field          _List_Remove,32
     4172 00000061 00000000!        .field          _vect_tm,32
     4173 00000062 00000000!        .field          _Timer_Insert,32
     4174 00000063 00000000!        .field          _LIST_TMR_EMPTY,32
     4175 00000064 00000000!        .field          _List_Add,32
     4176 00000065 00900004         .field          9437188,32
     4177                   
     4178 00000000                  .sect   ".text"
     4179                   ;******************************************************************************
     4180                   ;* UNDEFINED EXTERNAL REFERENCES                                              *
     4181                   ;******************************************************************************
     4182                   
     4183                           .global _List_Add
     4184                   
TMS320C3x/4x COFF AssemblerVersion 5.12     Wed Jul 24 11:03:43 2019
Copyright (c) 1987-1999 Texas Instruments Incorporatedasm30.exe -@_DJO.AAB 

G:\workspace\EEA\V615\APP\SOURCE\ASM\isr.asm                         PAGE   79

     4185                           .global _List_Remove
     4186                   
     4187                           .global _VAR_Update
     4188                   
     4189                           .global _Time_Scale_Flow
     4190                   
     4191                           .global _Convert
     4192                   
     4193                           .global _TIMER1_COUNTER
     4194                   
     4195                           .global _TIMER0_COUNTER
     4196                   
     4197                           .global _LIST_TMR_EMPTY
     4198                   
     4199                           .global _LIST_TIMER0
     4200                   
     4201                           .global _vect_pt0
     4202                   
     4203                           .global _vect_pt1
     4204                   
     4205                           .global _vect_pt2
     4206                   
     4207                           .global _vect_pt3
     4208                   
     4209                           .global _vect_pt4
     4210                   
     4211                           .global _vect_pt5
     4212                   
     4213                           .global _vect_pt6
     4214                   
     4215                           .global _vect_pt7
     4216                   
     4217                           .global _vect_tm
     4218                   
     4219                           .global _Timer_Insert
     4220                   
     4221                           .global _GATE_TIMEOUT
     4222                   
     4223                           .global _PORT
     4224                   
     4225                           .global _Process_UINT
     4226                   
     4227                           .global _Read_ADC_FIFO
     4228                   
     4229                           .global _SA
     4230                   
     4231                           .global _GATE_TIME
     4232                   
     4233                           .global _PRESCALE
     4234                   
     4235                           .global _VT_SELECT
     4236                   
     4237                           .global _DIO_AUX_FREQ_MODE
     4238                   
TMS320C3x/4x COFF AssemblerVersion 5.12     Wed Jul 24 11:03:43 2019
Copyright (c) 1987-1999 Texas Instruments Incorporatedasm30.exe -@_DJO.AAB 

G:\workspace\EEA\V615\APP\SOURCE\ASM\isr.asm                         PAGE   80

     4239                           .global _REG_DUMMY
     4240                   
     4241                           .global _TMP_FREQ
     4242                   
     4243                           .global _FREQ_FACTOR
     4244                   
     4245                           .global _FC
     4246                   
     4247                           .global _HART_BURST_MODE
     4248                   
     4249                           .global _TMR_BURST
     4250                   
     4251                           .global _HART_Lookup
     4252                   
     4253                           .global _HART_DVINPUT_Table
     4254                   
     4255                           .global _Accumulate
     4256                           .global DIV_LD
     4257                           .global MPY_LD
     4258                           .global _HART_Burst
     4259                           .global _Execute_Insert

 No Errors,  No Warnings
TMS320C3x/4x COFF AssemblerVersion 5.12     Wed Jul 24 11:03:43 2019
Copyright (c) 1987-1999 Texas Instruments Incorporatedasm30.exe -@_DJO.AAB 

G:\workspace\EEA\V615\APP\SOURCE\ASM\isr.asm                         PAGE   81

LABEL                            VALUE       DEFN    REF

.BIGMODEL                        00000001       0 
.C30                             00000000       0 
.C30INTERRUPT                    00000000       0 
.C31                             00000000       0 
.C32                             00000000       0 
.C33                             00000001       0 
.C3X                             00000001       0 
.C3x                             00000001       0 
.C40                             00000000       0 
.C44                             00000000       0 
.C4X                             00000000       0 
.C4x                             00000000       0 
.REGPARM                         00000001       0 
.TMS320C30                       00000001       0 
.TMS320C31                       00000000       0 
.TMS320C32                       00000000       0 
.TMS320C40                       00000000       0 
.TMS320C44                       00000000       0 
.TMS320xx                        00000021       0 
.tms320C30                       00000001       0 
.tms320C31                       00000000       0 
.tms320C32                       00000000       0 
.tms320C40                       00000000       0 
.tms320C44                       00000000       0 
.tms320xx                        00000021       0 
.tmx320C40                       00000000       0 
CL1                              00000000-   3976    885    886    925    926 
                                                     998    999   4076 
CL10                             00000009-   3985   1199   1202   1215   1217 
                                                    1240   1244   1283   1284 
CL11                             0000000a-   3986   1219   1222   1245   1248 
CL12                             0000000b-   3987   1252   1254 
CL13                             0000000c-   3988   1268   1272   1316   1318 
                                                    1398   1400   1419   1420 
CL14                             0000000d-   3989   1296   1297   1571   1573 
CL15                             0000000e-   3990   1320   1322 
CL16                             0000000f-   3991   1328   1330   1331   2028 
                                                    2030   2031 
CL17                             00000011-   3992   1343   1344   1346   1347 
                                                    1356   1357   1358   1359 
CL18                             00000013-   3993   1368   1370 
CL19                             00000014-   3994   1380   1382 
CL2                              00000001-   3977    895    896    904    905 
                                                     942    944    951    952 
                                                     960    961    969    970 
                                                     978    979    987    989 
CL20                             00000015-   3995   1403   1405 
CL21                             00000016-   3996   1407   1409   1447   1451 
                                                    1487   1488   1534   1535 
                                                    1624   1626   1660   1661 
CL22                             00000017-   3997   1424   1427 
TMS320C3x/4x COFF AssemblerVersion 5.12     Wed Jul 24 11:03:43 2019
Copyright (c) 1987-1999 Texas Instruments Incorporatedasm30.exe -@_DJO.AAB 

G:\workspace\EEA\V615\APP\SOURCE\ASM\isr.asm                         PAGE   82

LABEL                            VALUE       DEFN    REF

CL23                             00000018-   3998   1442   1444 
CL24                             00000019-   3999   1438   1440 
CL25                             0000001a-   4000   1462   1463   1511   1513 
CL26                             0000001b-   4001   1464   1465   1514   1516 
CL27                             0000001c-   4002   1460   1461 
CL28                             0000001d-   4003   1489   1491 
CL29                             0000001e-   4004   1473   1475   1521   1529 
CL3                              00000002-   3978    913    914   1112   1113 
                                                    1772   1773   2516   2517 
CL30                             0000001f-   4005   1508   1509 
CL31                             00000020-   4006   1537   1539   1549   1551 
CL32                             00000021-   4007   1552   1553 
CL33                             00000022-   4008   1586   1589 
CL34                             00000023-   4009   1594   1596 
CL35                             00000024-   4010   1591   1593 
CL36                             00000025-   4011   1607   1608 
CL37                             00000026-   4012   1617   1622 
CL38                             00000027-   4013   1636   1637 
CL39                             00000028-   4014   1638   1644 
CL4                              00000003-   3979   1134   1137 
CL40                             00000029-   4015   1647   1652 
CL41                             0000002a-   4016   1786   1787 
CL42                             0000002b-   4017   1882   1883   1888   1889 
                                                    1899   1900   2079   2081 
CL43                             0000002c-   4018   1907   1908   2092   2093 
CL44                             0000002d-   4019   1928   1929 
CL45                             0000002e-   4020   1943   1944 
CL46                             0000002f-   4021   1959   1960 
CL47                             00000030-   4022   1975   1976 
CL48                             00000031-   4023   1985   1986 
CL49                             00000032-   4024   2006   2007 
CL5                              00000004-   3980   1129   1132 
CL50                             00000033-   4025   2008   2010   2016   2018 
CL51                             00000034-   4026   2012   2015 
CL52                             00000035-   4027   2041   2042 
CL53                             00000036-   4028   2057   2058 
CL54                             00000037-   4029   2082   2084 
CL55                             00000038-   4030   2071   2072   2073   2074 
CL56                             0000003a-   4031   2201   2202   2220   2221 
                                                    2353   2354   2506   2507 
                                                    2673   2674   2826   2827 
                                                    2979   2980   3132   3133 
                                                    3285   3286   3479   3480 
CL57                             0000003b-   4032   2210   2211   2230   2231 
CL58                             0000003c-   4033   2240   2241 
CL59                             0000003d-   4034   2238   2239 
CL6                              00000005-   3981   1148   1149 
CL60                             0000003e-   4035   2363   2364   2383   2384 
CL61                             0000003f-   4036   2373   2374 
CL62                             00000040-   4037   2393   2394 
CL63                             00000041-   4038   2391   2392 
TMS320C3x/4x COFF AssemblerVersion 5.12     Wed Jul 24 11:03:43 2019
Copyright (c) 1987-1999 Texas Instruments Incorporatedasm30.exe -@_DJO.AAB 

G:\workspace\EEA\V615\APP\SOURCE\ASM\isr.asm                         PAGE   83

LABEL                            VALUE       DEFN    REF

CL64                             00000042-   4039   2530   2531   2550   2551 
CL65                             00000043-   4040   2540   2541 
CL66                             00000044-   4041   2560   2561 
CL67                             00000045-   4042   2558   2559 
CL68                             00000046-   4043   2683   2684   2703   2704 
CL69                             00000047-   4044   2693   2694 
CL7                              00000006-   3982   1146   1147 
CL70                             00000048-   4045   2713   2714 
CL71                             00000049-   4046   2711   2712 
CL72                             0000004a-   4047   2836   2837   2856   2857 
CL73                             0000004b-   4048   2846   2847 
CL74                             0000004c-   4049   2866   2867 
CL75                             0000004d-   4050   2864   2865 
CL76                             0000004e-   4051   2989   2990   3009   3010 
CL77                             0000004f-   4052   2999   3000 
CL78                             00000050-   4053   3019   3020 
CL79                             00000051-   4054   3017   3018 
CL8                              00000007-   3983   1165   1166 
CL80                             00000052-   4055   3142   3143   3162   3163 
CL81                             00000053-   4056   3152   3153 
CL82                             00000054-   4057   3172   3173 
CL83                             00000055-   4058   3170   3171 
CL84                             00000056-   4059   3295   3296   3315   3316 
CL85                             00000057-   4060   3305   3306 
CL86                             00000058-   4061   3325   3326 
CL87                             00000059-   4062   3323   3324 
CL88                             0000005a-   4063   3440   3441 
CL89                             0000005b-   4064   3450   3451   3469   3470 
CL9                              00000008-   3984   1163   1164 
CL90                             0000005c-   4065   3496   3497   3505   3514 
                                                    3515 
CL91                             0000005d-   4066   3523   3524   3567   3568 
                                                    3838   3839 
CL92                             0000005e-   4067   3564   3565 
CL93                             0000005f-   4068   3599   3600   3608   3713 
CL94                             00000060-   4069   3750   3754   3780   3784 
                                                    3803   3807 
CL95                             00000061-   4070   3818   3819 
CL96                             00000062-   4071   3815   3816 
CL97                             00000063-   4072   3828   3829   3853   3854 
DIV_LD                           REF                1335   2049   4256 
FP                               0000000b       7   2249   2250   2346   2402 
                                                    2403   2499   2569   2570 
                                                    2666   2722   2723   2819 
                                                    2875   2876   2972   3028 
                                                    3029   3125   3181   3182 
                                                    3278   3334   3335   3431 
                                                    3616   3617   3707 
L10                              0000006c+   1004    935 
L14                              000000dd+   1192   1674 
L16                              000000fb+   1234   1205 
TMS320C3x/4x COFF AssemblerVersion 5.12     Wed Jul 24 11:03:43 2019
Copyright (c) 1987-1999 Texas Instruments Incorporatedasm30.exe -@_DJO.AAB 

G:\workspace\EEA\V615\APP\SOURCE\ASM\isr.asm                         PAGE   84

LABEL                            VALUE       DEFN    REF

L17                              00000111+   1261   1232 
L20                              00000150+   1362   1350 
L23                              000001d3+   1565   1373 
L27                              00000216+   1668   1302   1385   1563   1576 
                                                    1605   1609 
L28                              0000021b+   1676   1116   1190 
L32                              00000262+   1795   1776 
L36                              0000029c+   1894   1886 
L37                              000002a5+   1917   1892 
L39                              000002cd+   2001   1989 
L40                              000002dd+   2022   1999 
L41                              0000030f+   2101   1915 
L46                              000003a4+   2348   2224 
L47                              000003a9+   2358   2214 
L50                              00000406+   2501   2377 
L51                              0000040b+   2511   2367 
L55                              0000046d+   2668   2544 
L56                              00000472+   2678   2534 
L59                              000004cf+   2821   2697 
L60                              000004d4+   2831   2687 
L63                              00000531+   2974   2850 
L64                              00000536+   2984   2840 
L67                              00000593+   3127   3003 
L68                              00000598+   3137   2993 
L71                              000005f5+   3280   3156 
L72                              000005fa+   3290   3146 
L75                              00000658+   3435   3309 
L78                              00000665+   3464   3454 
L79                              0000066a+   3474   3433   3444 
L81                              00000670+   3491   2520   3299   3488 
L83                              00000683+   3535   3844 
L85                              0000068b+   3558   3543 
L88                              000006ee+   3718   3593 
L9                               0000004c+    937    917 
L90                              000006f4+   3736   3716   3728 
L92                              000006fe+   3759   3743 
L94                              0000070c+   3789   3767 
L96                              00000716+   3810   3579   3757   3787   3797 
L97                              0000072a+   3846   3508   3533   3556 
MPY_LD                           REF                2065   2077   4257 
_Accumulate                      REF                4110   4255 
_Convert                         REF                4118   4191 
_DINT                            0000000a+    748 
_DIO_AUX_FREQ_MODE               REF                4126   4237 
_Execute_Insert                  REF                3725   4259 
_FC                              REF                4086   4087   4089   4090 
                                                    4091   4096   4097   4098 
                                                    4100   4101   4102   4103 
                                                    4104   4105   4106   4108 
                                                    4109   4111   4115   4116 
                                                    4117   4245 
TMS320C3x/4x COFF AssemblerVersion 5.12     Wed Jul 24 11:03:43 2019
Copyright (c) 1987-1999 Texas Instruments Incorporatedasm30.exe -@_DJO.AAB 

G:\workspace\EEA\V615\APP\SOURCE\ASM\isr.asm                         PAGE   85

LABEL                            VALUE       DEFN    REF

_FREQ_FACTOR                     REF                4131   4243 
_GATE_TIME                       REF                4130   4231 
_GATE_TIMEOUT                    REF                4121   4221 
_HART_BURST_MODE                 REF                4167   4247 
_HART_Burst                      REF                3462   4258 
_HART_DVINPUT_Table              REF                4112   4253 
_HART_Lookup                     REF                4113   4251 
_INT0                            00000000+    738    734 
_INT1                            00000001+    739    735 
_INT2                            00000002+    740    736 
_INT3                            00000003+    741    737 
_LIST_TIMER0                     REF                4170   4199 
_LIST_TMR_EMPTY                  REF                4174   4197 
_List_Add                        REF                4175   4183 
_List_Remove                     REF                4171   4185 
_PORT                            REF                4136   4138   4139   4142 
                                                    4143   4146   4147   4150 
                                                    4151   4154   4155   4158 
                                                    4159   4162   4163   4166 
                                                    4223 
_PRESCALE                        REF                4127   4233 
_Process_UINT                    REF                4078   4225 
_REG_DUMMY                       REF                4114   4239 
_RINT0                           00000005+    743    731 
_Read_ADC_FIFO                   REF                4119   4227 
_SA                              REF                4079   4229 
_TIMER0_COUNTER                  REF                4169   4195 
_TIMER1_COUNTER                  REF                4135   4140   4144   4148 
                                                    4152   4156   4160   4164 
                                                    4193 
_TINT0                           00000008+    746    732 
_TINT1                           00000009+    747    733 
_TMP_FREQ                        REF                4132   4241 
_TMR_BURST                       REF                4168   4249 
_TRAPO                           0000001f+    750 
_Time_Scale_Flow                 REF                4107   4189 
_Timer_Insert                    REF                4173   4219 
_VAR_Update                      REF                4099   4187 
_VT_SELECT                       REF                4120   4235 
_XINT0                           00000004+    742    730 
_c_INT0                          00000010+    844    725    738    830    831 
                                                     831 
_c_INT1                          00000089+   1059    726    739   1044   1045 
                                                    1045 
_c_INT2                          0000023b+   1733    727    740   1719   1720 
                                                    1720 
_c_INT3                          0000027f+   1848    728    741   1835   1836 
                                                    1836 
_c_RINT0                         00000008+    808    722    743    795    796 
                                                     796 
TMS320C3x/4x COFF AssemblerVersion 5.12     Wed Jul 24 11:03:43 2019
Copyright (c) 1987-1999 Texas Instruments Incorporatedasm30.exe -@_DJO.AAB 

G:\workspace\EEA\V615\APP\SOURCE\ASM\isr.asm                         PAGE   86

LABEL                            VALUE       DEFN    REF

_c_SPURINT                       00000759+   3952    729    744    745    748 
                                                     752    752    752    752 
                                                     752    752    752    752 
                                                     752    752    752    752 
                                                     752    752    752    752 
                                                     752    752    752    752 
                                                     752    752    752    752 
                                                     752    752    752    752 
                                                    3939   3940   3940 
_c_TINT0                         00000321+   2144    723    746   2130   2131 
                                                    2131 
_c_TINT1                         00000751+   3917    724    747   3904   3905 
                                                    3905 
_c_XINT0                         00000000+    773    721    742    760    761 
                                                     761 
_c_int00                         REF                 720    756 
_vect_pt0                        REF                2287   2292   2297   4137 
                                                    4201 
_vect_pt1                        REF                2440   2445   2450   4141 
                                                    4203 
_vect_pt2                        REF                2607   2612   2617   4145 
                                                    4205 
_vect_pt3                        REF                2760   2765   2770   4149 
                                                    4207 
_vect_pt4                        REF                3372   3377   3382   4165 
                                                    4209 
_vect_pt5                        REF                2913   2918   2923   4153 
                                                    4211 
_vect_pt6                        REF                3066   3071   3076   4157 
                                                    4213 
_vect_pt7                        REF                3219   3224   3229   4161 
                                                    4215 
_vect_tm                         REF                3654   3659   3664   4172 
                                                    4217 
fp                               0000000b       6    779    780    786    814 
                                                     815    821    850    851 
                                                    1035   1076   1077   1130 
                                                    1150   1170   1188   1197 
                                                    1198   1213   1230   1231 
                                                    1239   1241   1259   1260 
                                                    1266   1267   1269   1285 
                                                    1286   1298   1315   1337 
                                                    1338   1345   1348   1360 
                                                    1361   1367   1379   1397 
                                                    1421   1436   1445   1449 
                                                    1466   1471   1477   1486 
                                                    1510   1522   1524   1533 
                                                    1548   1570   1587   1588 
                                                    1599   1615   1616   1621 
                                                    1639   1640   1664   1671 
                                                    1672   1710   1739   1740 
                                                    1826   1860   1861   1932 
                                                    1938   1947   1948   1954 
                                                    1963   1964   1970   1979 
                                                    1980   1996   1998   2009 
                                                    2021   2027   2035   2036 
                                                    2046   2048   2051   2052 
                                                    2062   2064   2075   2076 
                                                    2121   2156   2157   3526 
                                                    3540   3566   3576   3586 
                                                    3602   3607   3714   3724 
                                                    3735   3741   3751   3764 
                                                    3783   3794   3817   3841 
                                                    3895   3923   3924   3930 
                                                    3958   3959   3965 
