TMS320C3x/4x COFF AssemblerVersion 5.12     Tue Mar 02 13:03:54 2021
Copyright (c) 1987-1999 Texas Instruments Incorporatedasm30.exe -@_8O8.AAB 

G:\workspace\EEA\V615\APP\SOURCE\ASM\main.asm                        PAGE    1

        1                   ;******************************************************************************
        2                   ;* TMS320C3x/4x ANSI C Code Generator                            Version 5.11 *
        3                   ;* Date/Time created: Tue Mar  2 13:03:55 2021                                *
        4                   ;******************************************************************************
        5                           .regalias       ; enable floating point register aliases
        6          0000000b fp      .set    ar3
        7          0000000b FP      .set    ar3
        8                   ;******************************************************************************
        9                   ;* GLOBAL FILE PARAMETERS                                                     *
       10                   ;*                                                                            *
       11                   ;*   Optimization       : Always Choose Smaller Code Size                     *
       12                   ;*   Memory             : Big Memory Model                                    *
       13                   ;*   Float-to-Int       : Normal Conversions (round toward zero)              *
       14                   ;*   Multiply           : in Software (32 bits)                               *
       15                   ;*   Memory Info        : Unmapped Memory Exists                              *
       16                   ;*   Repeat Loops       : Use RPTS and/or RPTB                                *
       17                   ;*   Calls              : Normal Library ASM calls                            *
       18                   ;*   Debug Info         : Standard TI Debug Information                       *
       19                   ;******************************************************************************
       20                   ;       C:\tic3x4x\c3x4x\cgtools\bin\ac30.exe -@_8O8.AAA 
       21                           .file   "main.c"
       22                           .file   "G:\workspace\EEA\V615\APP\SOURCE\INCLUDE\GLBLS.H"
       23                           .file   "G:\workspace\EEA\V615\INCLUDE\stdarg.h"
       24                           .sym    _va_list,0,18,13,32
       25                           .file   "G:\workspace\EEA\V615\INCLUDE\format.h"
       26                           .stag   .fake0,128
       27                           .member _flags,0,14,8,32
       28                           .member _fwidth,32,4,8,32
       29                           .member _precision,64,4,8,32
       30                           .member _conv,96,2,8,32
       31                           .eos
       32                           .sym    __PFIELD,0,8,13,128,.fake0
       33                           .stag   .fake1,3200
       34                           .member _flags,0,14,8,32
       35                           .member _fwidth,32,4,8,32
       36                           .member _precision,64,4,8,32
       37                           .member _scanset,96,50,8,3072,,96
       38                           .member _conv,3168,2,8,32
       39                           .eos
       40                           .sym    __SFIELD,0,8,13,3200,.fake1
       41                           .file   "G:\workspace\EEA\V615\INCLUDE\string.h"
       42                           .sym    _size_t,0,14,13,32
       43                           .file   "G:\workspace\EEA\V615\INCLUDE\stdio.h"
       44                           .stag   .fake2,224
       45                           .member _fd,0,4,8,32
       46                           .member _buf,32,28,8,32
       47                           .member _pos,64,28,8,32
       48                           .member _bufend,96,28,8,32
       49                           .member _buff_stop,128,28,8,32
       50                           .member _flags,160,14,8,32
       51                           .member _index,192,4,8,32
       52                           .eos
       53                           .sym    _FILE,0,8,13,224,.fake2
       54                           .sym    _fpos_t,0,5,13,32
TMS320C3x/4x COFF AssemblerVersion 5.12     Tue Mar 02 13:03:54 2021
Copyright (c) 1987-1999 Texas Instruments Incorporatedasm30.exe -@_8O8.AAB 

G:\workspace\EEA\V615\APP\SOURCE\ASM\main.asm                        PAGE    2

       55                           .stag   .fake3,544
       56                           .member _name,0,50,8,288,,9
       57                           .member _flags,288,13,8,32
       58                           .member _OPEN,320,148,8,32
       59                           .member _CLOSE,352,148,8,32
       60                           .member _READ,384,148,8,32
       61                           .member _WRITE,416,148,8,32
       62                           .member _LSEEK,448,149,8,32
       63                           .member _UNLINK,480,148,8,32
       64                           .member _RENAME,512,148,8,32
       65                           .eos
       66                           .sym    __DEVICE,0,8,13,544,.fake3
       67                           .file   "G:\workspace\EEA\V615\INCLUDE\stdlib.h"
       68                           .sym    _wchar_t,0,2,13,32
       69                           .stag   __div_t,64
       70                           .member _quot,0,4,8,32
       71                           .member _rem,32,4,8,32
       72                           .eos
       73                           .sym    _div_t,0,8,13,64,__div_t
       74                           .sym    _ldiv_t,0,8,13,64,__div_t
       75                           .file   "G:\workspace\EEA\V615\INCLUDE\math.h"
       76                           .file   "G:\workspace\EEA\V615\INCLUDE\time.h"
       77                           .sym    _clock_t,0,15,13,32
       78                           .sym    _time_t,0,15,13,32
       79                           .stag   _tm,288
       80                           .member _tm_sec,0,4,8,32
       81                           .member _tm_min,32,4,8,32
       82                           .member _tm_hour,64,4,8,32
       83                           .member _tm_mday,96,4,8,32
       84                           .member _tm_mon,128,4,8,32
       85                           .member _tm_year,160,4,8,32
       86                           .member _tm_wday,192,4,8,32
       87                           .member _tm_yday,224,4,8,32
       88                           .member _tm_isdst,256,4,8,32
       89                           .eos
       90                           .stag   _tmzone,320
       91                           .member _daylight,0,3,8,32
       92                           .member _timezone,32,5,8,32
       93                           .member _tzname,64,50,8,128,,4
       94                           .member _dstname,192,50,8,128,,4
       95                           .eos
       96                           .file   "G:\workspace\EEA\V615\INCLUDE\ETC.H"
       97                           .sym    _BOOL,0,14,13,32
       98                           .file   "G:\workspace\EEA\V615\INCLUDE\LIST.H"
       99                           .stag   .fake4,96
      100                           .member _head,0,20,8,32
      101                           .member _tail,32,20,8,32
      102                           .member _n,64,4,8,32
      103                           .eos
      104                           .sym    _LIST,0,8,13,96,.fake4
      105                           .stag   .fake5,64
      106                           .member _prev,0,20,8,32
      107                           .member _next,32,20,8,32
      108                           .eos
TMS320C3x/4x COFF AssemblerVersion 5.12     Tue Mar 02 13:03:54 2021
Copyright (c) 1987-1999 Texas Instruments Incorporatedasm30.exe -@_8O8.AAB 

G:\workspace\EEA\V615\APP\SOURCE\ASM\main.asm                        PAGE    3

      109                           .sym    _GENERIC,0,8,13,64,.fake5
      110                           .file   "G:\workspace\EEA\V615\APP\SOURCE\INCLUDE\VARIABLE.H"
      111                           .stag   .fake6,1408
      112                           .member _val,0,6,8,32
      113                           .member _vect1,32,20,8,32
      114                           .member _vect2,64,20,8,32
      115                           .member _STAT,96,4,8,32
      116                           .member _dampening,128,6,8,32
      117                           .member _damp_count,160,4,8,32
      118                           .member _aux,192,4,8,32
      119                           .member _val1,224,6,8,32
      120                           .member _val2,256,6,8,32
      121                           .member _calc_val,288,11,8,64
      122                           .member _base_val,352,11,8,64
      123                           .member _unit,416,4,8,32
      124                           .member _calc_unit,448,4,8,32
      125                           .member _class,480,4,8,32
      126                           .member _scale,512,6,8,32
      127                           .member _scale_long,544,6,8,32
      128                           .member _bound_hi_set,576,6,8,32
      129                           .member _bound_lo_set,608,6,8,32
      130                           .member _alarm_hi_set,640,6,8,32
      131                           .member _alarm_lo_set,672,6,8,32
      132                           .member _name,704,50,8,672,,21
      133                           .member _name_r,1376,4,8,32
      134                           .eos
      135                           .sym    _VAR,0,8,13,1408,.fake6
      136                           .stag   .fake7,96
      137                           .member _val,0,14,8,32
      138                           .member _vect,32,20,8,32
      139                           .member _vect2,64,20,8,32
      140                           .eos
      141                           .sym    _COIL,0,8,13,96,.fake7
      142                           .stag   .fake8,64
      143                           .member _val,0,4,8,32
      144                           .member _vect,32,20,8,32
      145                           .eos
      146                           .sym    _REGVECT,0,8,13,64,.fake8
      147                           .stag   .fake9,96
      148                           .member _prev,0,20,8,32
      149                           .member _next,32,20,8,32
      150                           .member _v,64,24,8,32,.fake6
      151                           .eos
      152                           .sym    _DPKT,0,8,13,96,.fake9
      153                           .file   "G:\workspace\EEA\V615\APP\SOURCE\INCLUDE\BUFFER.H"
      154                           .stag   .fake10,9824
      155                           .member _head,0,4,8,32
      156                           .member _tail,32,4,8,32
      157                           .member _n,64,4,8,32
      158                           .member _GSEED,96,14,8,32
      159                           .member _CRC16,128,14,8,32
      160                           .member _buff,160,62,8,9600,,300
      161                           .member _sum,9760,4,8,32
      162                           .member _locked,9792,14,8,32
TMS320C3x/4x COFF AssemblerVersion 5.12     Tue Mar 02 13:03:54 2021
Copyright (c) 1987-1999 Texas Instruments Incorporatedasm30.exe -@_8O8.AAB 

G:\workspace\EEA\V615\APP\SOURCE\ASM\main.asm                        PAGE    4

      163                           .eos
      164                           .sym    _BFR,0,8,13,9824,.fake10
      165                           .file   "G:\workspace\EEA\V615\INCLUDE\UNITS.H"
      166                           .file   "G:\workspace\EEA\V615\APP\SOURCE\INCLUDE\TIMER.H"
      167                           .stag   .fake11,320
      168                           .member _prev,0,20,8,32
      169                           .member _next,32,20,8,32
      170                           .member _vect,64,20,8,32
      171                           .member _priority,96,4,8,32
      172                           .member _parent,128,20,8,32
      173                           .member _n,160,4,8,32
      174                           .member _prev_n,192,4,8,32
      175                           .member _countdown,224,4,8,32
      176                           .member _preset_time,256,4,8,32
      177                           .member _t,288,6,8,32
      178                           .eos
      179                           .sym    _TPKT,0,8,13,320,.fake11
      180                           .file   "G:\workspace\EEA\V615\INCLUDE\I2C.H"
      181                           .file   "G:\workspace\EEA\V615\APP\SOURCE\INCLUDE\ERRORS.H"
      182                           .file   "G:\workspace\EEA\V615\APP\SOURCE\INCLUDE\SERIAL.H"
      183                           .stag   .fake12,2272
      184                           .member _Slave,0,4,8,32
      185                           .member _SNUM,32,4,8,32
      186                           .member _PRESENT,64,14,8,32
      187                           .member _TX_complete,96,14,8,32
      188                           .member _RX_pending,128,14,8,32
      189                           .member _BUSY,160,14,8,32
      190                           .member _IGNORE_RX,192,14,8,32
      191                           .member _STAT,224,12,8,32
      192                           .member _DAT,256,12,8,32
      193                           .member _broadcast,288,14,8,32
      194                           .member _TMR_Network_WDOG,320,4,8,32
      195                           .member _TMR_EOT_Delay,352,4,8,32
      196                           .member _TMR_Prefix_Delay,384,4,8,32
      197                           .member _TMR_Suffix_Delay,416,4,8,32
      198                           .member _TMR_Char,448,4,8,32
      199                           .member _TMR_Poll,480,8,8,320,.fake11
      200                           .member _TMR_Retry,800,8,8,320,.fake11
      201                           .member _nr,1120,4,8,32
      202                           .member _Received_PKT,1152,14,8,32
      203                           .member _TMR_enabled,1184,14,8,32
      204                           .member _tvector,1216,20,8,32
      205                           .member _pvector,1248,20,8,32
      206                           .member _pvector_main,1280,20,8,32
      207                           .member _tvector_main,1312,20,8,32
      208                           .member _fvector,1344,20,8,32
      209                           .member _actual_baud_rate,1376,6,8,32
      210                           .member _c,1408,14,8,32
      211                           .member _r,1440,14,8,32
      212                           .member _n,1472,4,8,32
      213                           .member _n_exp,1504,4,8,32
      214                           .member _ai,1536,4,8,32
      215                           .member _start,1568,4,8,32
      216                           .member _i,1600,4,8,32
TMS320C3x/4x COFF AssemblerVersion 5.12     Tue Mar 02 13:03:54 2021
Copyright (c) 1987-1999 Texas Instruments Incorporatedasm30.exe -@_8O8.AAB 

G:\workspace\EEA\V615\APP\SOURCE\ASM\main.asm                        PAGE    5

      217                           .member _i_main,1632,4,8,32
      218                           .member _func,1664,14,8,32
      219                           .member _ERROR_COUNT,1696,14,8,32
      220                           .member _WDOG_COUNT,1728,14,8,32
      221                           .member _INV_CMD_COUNT,1760,14,8,32
      222                           .member _INV_PKT_COUNT,1792,14,8,32
      223                           .member _SUCCESS,1824,14,8,32
      224                           .member _NUM_RETRIES,1856,14,8,32
      225                           .member _FLAG1,1888,14,8,32
      226                           .member _FLAG2,1920,14,8,32
      227                           .member _FLAG3,1952,14,8,32
      228                           .member _LONG_ADDRESS,1984,14,8,32
      229                           .member _MASTER,2016,8,8,96,.fake4
      230                           .member _p,2112,20,8,32
      231                           .member _data,2144,14,8,32
      232                           .member _f,2176,22,8,32
      233                           .member _l,2208,30,8,32
      234                           .member _failed,2240,14,8,32
      235                           .eos
      236                           .sym    _PORTV,0,8,13,2272,.fake12
      237                           .stag   .fake13,11488
      238                           .member _PREFIX,0,8,8,1408,.fake6
      239                           .member _SUFFIX,1408,8,8,1408,.fake6
      240                           .member _NETWDOG,2816,8,8,1408,.fake6
      241                           .member _Slave_ID,4224,8,8,1408,.fake6
      242                           .member _Baud_Rate,5632,8,8,1408,.fake6
      243                           .member _Parity,7040,4,8,32
      244                           .member _n_bits,7072,4,8,32
      245                           .member _STP,7104,4,8,32
      246                           .member _N,7136,4,8,32
      247                           .member _N_retry,7168,4,8,32
      248                           .member _EOT_Delay,7200,8,8,1408,.fake6
      249                           .member _Retry_Time,8608,8,8,1408,.fake6
      250                           .member _Num_Retry,10016,8,8,1408,.fake6
      251                           .member _poll_time,11424,4,8,32
      252                           .member _timeout,11456,4,8,32
      253                           .eos
      254                           .sym    _PORTC,0,8,13,11488,.fake13
      255                           .stag   .fake14,672
      256                           .member _prev,0,20,8,32
      257                           .member _next,32,20,8,32
      258                           .member _rxvect,64,20,8,32
      259                           .member _txvect,96,20,8,32
      260                           .member _n,128,4,8,32
      261                           .member _slave,160,4,8,32
      262                           .member _func,192,4,8,32
      263                           .member _addr,224,4,8,32
      264                           .member _num,256,4,8,32
      265                           .member _v,288,54,8,320,,10
      266                           .member _flt_ptr,608,22,8,32
      267                           .member _int_ptr,640,20,8,32
      268                           .eos
      269                           .sym    _MPKT,0,8,13,672,.fake14
      270                           .file   "G:\workspace\EEA\V615\APP\SOURCE\INCLUDE\ADC.H"
TMS320C3x/4x COFF AssemblerVersion 5.12     Tue Mar 02 13:03:54 2021
Copyright (c) 1987-1999 Texas Instruments Incorporatedasm30.exe -@_8O8.AAB 

G:\workspace\EEA\V615\APP\SOURCE\ASM\main.asm                        PAGE    6

      271                           .stag   .fake15,10176
      272                           .member _CURRENT,0,8,8,1408,.fake6
      273                           .member _CURRENT_PERCENT_OF_RANGE,1408,8,8,1408,.fake6
      274                           .member _LRV,2816,8,8,1408,.fake6
      275                           .member _URV,4224,8,8,1408,.fake6
      276                           .member _TRIM_MIN,5632,8,8,1408,.fake6
      277                           .member _TRIM_MAX,7040,8,8,1408,.fake6
      278                           .member _VALUE,8448,8,8,1408,.fake6
      279                           .member _TRIM_MIN_C,9856,6,8,32
      280                           .member _TRIM_MAX_C,9888,6,8,32
      281                           .member _v,9920,8,8,64,.fake8
      282                           .member _class,9984,8,8,64,.fake8
      283                           .member _unit,10048,8,8,64,.fake8
      284                           .member _present,10112,14,8,32
      285                           .member _val,10144,6,8,32
      286                           .eos
      287                           .sym    _LOOPDATA_I,0,8,13,10176,.fake15
      288                           .file   "G:\workspace\EEA\V615\APP\SOURCE\INCLUDE\DAC.H"
      289                           .stag   .fake16,13408
      290                           .member _CURRENT,0,8,8,1408,.fake6
      291                           .member _CURRENT_PERCENT_OF_RANGE,1408,8,8,1408,.fake6
      292                           .member _LRV,2816,8,8,1408,.fake6
      293                           .member _URV,4224,8,8,1408,.fake6
      294                           .member _TRIM_MIN,5632,8,8,1408,.fake6
      295                           .member _TRIM_MAX,7040,8,8,1408,.fake6
      296                           .member _TRIM_MIN_C,8448,6,8,32
      297                           .member _TRIM_MAX_C,8480,6,8,32
      298                           .member _ALARM_SELECT,8512,4,8,32
      299                           .member _MINSPAN,8544,6,8,32
      300                           .member _v,8576,8,8,64,.fake8
      301                           .member _class,8640,8,8,64,.fake8
      302                           .member _unit,8704,8,8,64,.fake8
      303                           .member _MANUAL,8768,4,8,32
      304                           .member _MANUAL_PERCENT,8800,6,8,32
      305                           .member _REVERSE,8832,4,8,32
      306                           .member _PID_input,8864,6,8,32
      307                           .member _PID_setpoint,8896,6,8,32
      308                           .member _P,8928,8,8,1408,.fake6
      309                           .member _I,10336,8,8,1408,.fake6
      310                           .member _D,11744,8,8,1408,.fake6
      311                           .member _pid_lastcycle,13152,4,8,32
      312                           .member _pid_output,13184,6,8,32
      313                           .member _pid_propband,13216,6,8,32
      314                           .member _pid_error,13248,6,8,32
      315                           .member _pid_bias,13280,6,8,32
      316                           .member _present,13312,14,8,32
      317                           .member _PID_fail,13344,14,8,32
      318                           .member _PID_enable_failsafe,13376,14,8,32
      319                           .eos
      320                           .sym    _LOOPDATA_O,0,8,13,13408,.fake16
      321                           .file   "G:\workspace\EEA\V615\APP\SOURCE\INCLUDE\EXECUTE.H"
      322                           .stag   .fake17,128
      323                           .member _prev,0,20,8,32
      324                           .member _next,32,20,8,32
TMS320C3x/4x COFF AssemblerVersion 5.12     Tue Mar 02 13:03:54 2021
Copyright (c) 1987-1999 Texas Instruments Incorporatedasm30.exe -@_8O8.AAB 

G:\workspace\EEA\V615\APP\SOURCE\ASM\main.asm                        PAGE    7

      325                           .member _vect,64,20,8,32
      326                           .member _priority,96,4,8,32
      327                           .eos
      328                           .sym    _EPKT,0,8,13,128,.fake17
      329                           .file   "G:\workspace\EEA\V615\INCLUDE\FLASH.H"
      330                           .file   "G:\workspace\EEA\V615\APP\SOURCE\INCLUDE\LOG.H"
      331                           .stag   .fake18,384
      332                           .member _log_len,0,14,8,32
      333                           .member _log_n_sectors,32,14,8,32
      334                           .member _log_n_max_per_sector,64,14,8,32
      335                           .member _log_n,96,14,8,32
      336                           .member _log_current_sector,128,14,8,32
      337                           .member _log_absolute_index,160,14,8,32
      338                           .member _log_start,192,30,8,32
      339                           .member _log_sector_size,224,14,8,32
      340                           .member _log_record_size,256,14,8,32
      341                           .member _log_end,288,14,8,32
      342                           .member _LOG_ERASE,320,14,8,32
      343                           .member _erased_sector,352,14,8,32
      344                           .eos
      345                           .sym    _LOG,0,8,13,384,.fake18
      346                           .file   "G:\workspace\EEA\V615\APP\SOURCE\INCLUDE\DEMO.H"
      347                           .file   "G:\workspace\EEA\V615\APP\SOURCE\INCLUDE\SELFTEST.H"
      348                           .file   "G:\workspace\EEA\V615\APP\SOURCE\INCLUDE\MENU.H"
      349                           .stag   .fake19,16288
      350                           .member _INIT,0,14,8,32
      351                           .member _FRESH,32,14,8,32
      352                           .member _MENU,64,14,8,32
      353                           .member _SELECT,96,14,8,32
      354                           .member _VALUE,128,14,8,32
      355                           .member _ENTER,160,14,8,32
      356                           .member _DIR,192,4,8,32
      357                           .member _DIR_CHANGE,224,14,8,32
      358                           .member _M,256,14,8,32
      359                           .member _S,288,14,8,32
      360                           .member _V,320,14,8,32
      361                           .member _E,352,14,8,32
      362                           .member _CURSOR_ENABLED,384,14,8,32
      363                           .member _CURSOR_ROW,416,4,8,32
      364                           .member _CURSOR_COL,448,4,8,32
      365                           .member _CNT,480,14,8,32
      366                           .member _MENU_CNT,512,14,8,32
      367                           .member _SELECT_CNT,544,14,8,32
      368                           .member _VALUE_CNT,576,14,8,32
      369                           .member _k,608,14,8,32
      370                           .member _MODE_LOCKDOWN,640,14,8,32
      371                           .member _MODE_WPROT,672,14,8,32
      372                           .member _MODE_DEFINE,704,14,8,32
      373                           .member _MODE_USER,736,14,8,32
      374                           .member _MODE_TECH,768,14,8,32
      375                           .member _MODE_NORMAL,800,14,8,32
      376                           .member _menu_list_top,832,14,8,32
      377                           .member _menu_list_operations,864,14,8,32
      378                           .member _menu_list_configurations,896,14,8,32
TMS320C3x/4x COFF AssemblerVersion 5.12     Tue Mar 02 13:03:54 2021
Copyright (c) 1987-1999 Texas Instruments Incorporatedasm30.exe -@_8O8.AAB 

G:\workspace\EEA\V615\APP\SOURCE\ASM\main.asm                        PAGE    8

      379                           .member _menu_list_security_info,928,14,8,32
      380                           .member _menu_list_measurements,960,14,8,32
      381                           .member _menu_list_changed,992,14,8,32
      382                           .member _PAGE,1024,14,8,32
      383                           .member _SUBPAGE,1056,14,8,32
      384                           .member _MENU_TRAP,1088,14,8,32
      385                           .member _DIP,1120,62,8,128,,4
      386                           .member _tmpf,1248,54,8,320,,10
      387                           .member _tmpi,1568,52,8,320,,10
      388                           .member _str,1888,242,8,12928,,4,101
      389                           .member _tmpv,14816,8,8,1408,.fake6
      390                           .member _ptmpv,16224,24,8,32,.fake6
      391                           .member _tbl,16256,20,8,32
      392                           .eos
      393                           .sym    _MENU_STRUCT,0,8,13,16288,.fake19
      394                           .file   "G:\workspace\EEA\V615\APP\SOURCE\INCLUDE\FLOAT1.H"
      395                           .file   "G:\workspace\EEA\V615\APP\SOURCE\INCLUDE\GLBLS.H"
      396                           .stag   .fake20,480
      397                           .member _i,0,4,8,32
      398                           .member _Watercut,32,6,8,32
      399                           .member _Temperature,64,6,8,32
      400                           .member _Salinity,96,6,8,32
      401                           .member _Frequency_Oil,128,6,8,32
      402                           .member _Frequency_Water,160,6,8,32
      403                           .member _RefPower_Oil,192,6,8,32
      404                           .member _RefPower_Water,224,6,8,32
      405                           .member _Dadj,256,6,8,32
      406                           .member _Time_HH,288,4,8,32
      407                           .member _Time_MM,320,4,8,32
      408                           .member _Time_MONTH,352,4,8,32
      409                           .member _Time_DAY,384,4,8,32
      410                           .member _Time_DAY_OF_WEEK,416,4,8,32
      411                           .member _Time_YEAR,448,4,8,32
      412                           .eos
      413                           .sym    _CAPDATA,0,8,13,480,.fake20
      414                           .stag   .fake21,640
      415                           .member _Watercut,0,54,8,64,,2
      416                           .member _Temperature,64,54,8,64,,2
      417                           .member _Salinity,128,54,8,64,,2
      418                           .member _Frequency_Oil,192,54,8,64,,2
      419                           .member _Frequency_Water,256,54,8,64,,2
      420                           .member _RefPower_Oil,320,54,8,64,,2
      421                           .member _RefPower_Water,384,54,8,64,,2
      422                           .member _Dadj,448,54,8,64,,2
      423                           .member _Time_MONTH_DAY_HH_MM,512,52,8,64,,2
      424                           .member _CLRSTAT_Time_YEAR,576,52,8,64,,2
      425                           .eos
      426                           .sym    _CAPRECORD,0,8,13,640,.fake21
      427                           .stag   .fake22,800
      428                           .member _Start_HH,0,4,8,32
      429                           .member _Start_MM,32,4,8,32
      430                           .member _Start_SS,64,4,8,32
      431                           .member _Start_MONTH,96,4,8,32
      432                           .member _Start_DAY,128,4,8,32
TMS320C3x/4x COFF AssemblerVersion 5.12     Tue Mar 02 13:03:54 2021
Copyright (c) 1987-1999 Texas Instruments Incorporatedasm30.exe -@_8O8.AAB 

G:\workspace\EEA\V615\APP\SOURCE\ASM\main.asm                        PAGE    9

      433                           .member _Start_YEAR,160,4,8,32
      434                           .member _Stop_HH,192,4,8,32
      435                           .member _Stop_MM,224,4,8,32
      436                           .member _Stop_SS,256,4,8,32
      437                           .member _Stop_MONTH,288,4,8,32
      438                           .member _Stop_DAY,320,4,8,32
      439                           .member _Stop_YEAR,352,4,8,32
      440                           .member _stream,384,6,8,32
      441                           .member _elapsed_s,416,6,8,32
      442                           .member _duration,448,6,8,32
      443                           .member _purge,480,6,8,32
      444                           .member _gross_gas,512,6,8,32
      445                           .member _gross_oil,544,6,8,32
      446                           .member _gross_water,576,6,8,32
      447                           .member _gross_total,608,6,8,32
      448                           .member _gas24,640,6,8,32
      449                           .member _oil24,672,6,8,32
      450                           .member _water24,704,6,8,32
      451                           .member _total24,736,6,8,32
      452                           .member _watercut,768,6,8,32
      453                           .eos
      454                           .sym    _CCMRECORD,0,8,13,800,.fake22
      455                           .stag   .fake23,224
      456                           .member _SNUM,0,4,8,32
      457                           .member _ADDR,32,4,8,32
      458                           .member _BNUM,64,4,8,32
      459                           .member _REV,96,4,8,32
      460                           .member _MONTH,128,4,8,32
      461                           .member _DAY,160,4,8,32
      462                           .member _YEAR,192,4,8,32
      463                           .eos
      464                           .sym    _BOARD,0,8,13,224,.fake23
      465                           .etag   _Pulse_Input_Type,32
      466                           .member _PULSE_GAS_TEMP,1,4,16,32
      467                           .member _PULSE_SALINITY,2,4,16,32
      468                           .member _PULSE_STREAM_SELECT,3,4,16,32
      469                           .member _PULSE_USER_TEMP,4,4,16,32
      470                           .member _PULSE_FC_WC,5,4,16,32
      471                           .member _PULSE_FC_TEMP,6,4,16,32
      472                           .member _PULSE_FC_TOTAL_FLOW,7,4,16,32
      473                           .member _PULSE_FC_PRESSURE,8,4,16,32
      474                           .member _PULSE_FC_DENSITY,9,4,16,32
      475                           .member _PULSE_FC_SALINITY,10,4,16,32
      476                           .member _PULSE_FC_OIL_DENSITY,11,4,16,32
      477                           .member _PULSE_FC_OIL_DENSITY_ST,12,4,16,32
      478                           .member _PULSE_FC_WATER_DENSITY,13,4,16,32
      479                           .member _PULSE_FC_WATER_DENSITY_ST,14,4,16,32
      480                           .member _PULSE_NONE,15,4,16,32
      481                           .eos
      482                           .stag   .fake24,64
      483                           .member _freq,0,6,8,32
      484                           .member _counter,32,4,8,32
      485                           .eos
      486                           .sym    _Boxcar_Var,0,8,13,64,.fake24
TMS320C3x/4x COFF AssemblerVersion 5.12     Tue Mar 02 13:03:54 2021
Copyright (c) 1987-1999 Texas Instruments Incorporatedasm30.exe -@_8O8.AAB 

G:\workspace\EEA\V615\APP\SOURCE\ASM\main.asm                        PAGE   10

      487                           .stag   .fake25,1088
      488                           .member _data,0,54,8,960,,30
      489                           .member _head,960,4,8,32
      490                           .member _tail,992,4,8,32
      491                           .member _length,1024,4,8,32
      492                           .member _average,1056,6,8,32
      493                           .eos
      494                           .sym    _bubble_struct,0,8,13,1088,.fake25
      495                           .stag   .fake26,3008
      496                           .member _data,0,54,8,2880,,90
      497                           .member _head,2880,4,8,32
      498                           .member _tail,2912,4,8,32
      499                           .member _length,2944,4,8,32
      500                           .member _average,2976,6,8,32
      501                           .eos
      502                           .sym    _pattern_struct,0,8,13,3008,.fake26
      503                           .stag   .fake27,320
      504                           .member _MODE,0,4,8,32
      505                           .member _STATUS_MASK,32,4,8,32
      506                           .member _v,64,8,8,64,.fake8
      507                           .member _setpoint,128,6,8,32
      508                           .member _ON,160,8,8,96,.fake7
      509                           .member _class,256,4,8,32
      510                           .member _unit,288,4,8,32
      511                           .eos
      512                           .sym    _RELAYDATA,0,8,13,320,.fake27
      513                           .stag   .fake28,12224
      514                           .member _diag,0,6,8,32
      515                           .member _mfr,32,6,8,32
      516                           .member _u_mfr,64,4,8,32
      517                           .member _density,96,6,8,32
      518                           .member _u_density,128,4,8,32
      519                           .member _density_PDI_corrected,160,6,8,32
      520                           .member _density_corrected,192,6,8,32
      521                           .member _u_density_corrected,224,4,8,32
      522                           .member _T,256,6,8,32
      523                           .member _u_T,288,4,8,32
      524                           .member _vfr,320,6,8,32
      525                           .member _u_vfr,352,4,8,32
      526                           .member _visc,384,6,8,32
      527                           .member _u_visc,416,4,8,32
      528                           .member _press,448,6,8,32
      529                           .member _mass_total,480,6,8,32
      530                           .member _u_m,512,4,8,32
      531                           .member _volume_total,544,6,8,32
      532                           .member _u_v,576,4,8,32
      533                           .member _u_P,608,4,8,32
      534                           .member _P,640,6,8,32
      535                           .member _mass_inv,672,6,8,32
      536                           .member _volume_inv,704,6,8,32
      537                           .member _raw_tube_freq,736,6,8,32
      538                           .member _left_pickup_value,768,6,8,32
      539                           .member _right_pickup_value,800,6,8,32
      540                           .member _drive_gain,832,6,8,32
TMS320C3x/4x COFF AssemblerVersion 5.12     Tue Mar 02 13:03:54 2021
Copyright (c) 1987-1999 Texas Instruments Incorporatedasm30.exe -@_8O8.AAB 

G:\workspace\EEA\V615\APP\SOURCE\ASM\main.asm                        PAGE   11

      541                           .member _damp_flow_rate,864,8,8,1408,.fake6
      542                           .member _damp_density,2272,8,8,1408,.fake6
      543                           .member _mfr_cutoff,3680,8,8,1408,.fake6
      544                           .member _vfr_cutoff,5088,8,8,1408,.fake6
      545                           .member _mcf,6496,8,8,1408,.fake6
      546                           .member _address,7904,8,8,1408,.fake6
      547                           .member _mass_unit,9312,8,8,1408,.fake6
      548                           .member _density_cutoff,10720,8,8,1408,.fake6
      549                           .member _Z,12128,8,8,96,.fake7
      550                           .eos
      551                           .sym    _CORIOLIS,0,8,13,12224,.fake28
      552                           .stag   .fake29,288
      553                           .member _p_delta,0,6,8,32
      554                           .member _p_static,32,6,8,32
      555                           .member _T,64,6,8,32
      556                           .member _diag0,96,6,8,32
      557                           .member _diag1,128,6,8,32
      558                           .member _diag2,160,6,8,32
      559                           .member _u_DP,192,4,8,32
      560                           .member _u_SP,224,4,8,32
      561                           .member _u_PT,256,4,8,32
      562                           .eos
      563                           .sym    _PRESSURE,0,8,13,288,.fake29
      564                           .stag   .fake30,192
      565                           .member _T,0,6,8,32
      566                           .member _etc0,32,6,8,32
      567                           .member _etc1,64,6,8,32
      568                           .member _etc2,96,6,8,32
      569                           .member _etc3,128,6,8,32
      570                           .member _etc4,160,6,8,32
      571                           .eos
      572                           .sym    _TMPT,0,8,13,192,.fake30
      573                           .stag   .fake31,42752
      574                           .member _watercut,0,8,8,1408,.fake6
      575                           .member _T,1408,8,8,1408,.fake6
      576                           .member _pressure,2816,8,8,1408,.fake6
      577                           .member _density,4224,8,8,1408,.fake6
      578                           .member _density_PDI_corrected,5632,6,8,32
      579                           .member _density_adj,5664,6,8,32
      580                           .member _density_oilST,5696,8,8,1408,.fake6
      581                           .member _density_oil,7104,8,8,1408,.fake6
      582                           .member _density_waterST,8512,8,8,1408,.fake6
      583                           .member _density_water,9920,8,8,1408,.fake6
      584                           .member _salinity,11328,8,8,1408,.fake6
      585                           .member _API_TABLE,12736,4,8,32
      586                           .member _a,12768,6,8,32
      587                           .member _Meter_Factor,12800,8,8,1408,.fake6
      588                           .member _Shrinkage,14208,8,8,1408,.fake6
      589                           .member _VCFo,15616,6,8,32
      590                           .member _VCFw,15648,6,8,32
      591                           .member _net_watercut,15680,6,8,32
      592                           .member _net_watercut_mass,15712,6,8,32
      593                           .member _Dadj,15744,6,8,32
      594                           .member _NET_FLOW_OIL,15776,8,8,1408,.fake6
TMS320C3x/4x COFF AssemblerVersion 5.12     Tue Mar 02 13:03:54 2021
Copyright (c) 1987-1999 Texas Instruments Incorporatedasm30.exe -@_8O8.AAB 

G:\workspace\EEA\V615\APP\SOURCE\ASM\main.asm                        PAGE   12

      595                           .member _NET_FLOW_WATER,17184,8,8,1408,.fake6
      596                           .member _NET_FLOW_TOTAL,18592,8,8,1408,.fake6
      597                           .member _NET_OIL,20000,8,8,1408,.fake6
      598                           .member _NET_WATER,21408,8,8,1408,.fake6
      599                           .member _NET_TOTAL,22816,8,8,1408,.fake6
      600                           .member _AVG_NET_TOTAL,24224,8,8,1408,.fake6
      601                           .member _GROSS_OIL,25632,8,8,1408,.fake6
      602                           .member _gross_oil_whole_part,27040,11,8,64
      603                           .member _gross_oil_fract_part,27104,11,8,64
      604                           .member _GROSS_WATER,27168,8,8,1408,.fake6
      605                           .member _gross_water_whole_part,28576,11,8,64
      606                           .member _gross_water_fract_part,28640,11,8,64
      607                           .member _GROSS_TOTAL,28704,8,8,1408,.fake6
      608                           .member _AVG_GROSS_TOTAL,30112,8,8,1408,.fake6
      609                           .member _FLOW_OIL,31520,8,8,1408,.fake6
      610                           .member _FLOW_WATER,32928,8,8,1408,.fake6
      611                           .member _FLOW_TOTAL,34336,8,8,1408,.fake6
      612                           .member _PULSES_PER_ACCUM_UNIT,35744,14,8,32
      613                           .member _PULSE_TOTAL,35776,8,8,1408,.fake6
      614                           .member _PULSE_FLOW,37184,8,8,1408,.fake6
      615                           .member _PULSE_FREQ,38592,8,8,1408,.fake6
      616                           .member _PULSE_COUNTER,40000,14,8,32
      617                           .member _PULSE,40032,4,8,32
      618                           .member _CNT,40064,4,8,32
      619                           .member _PULSE_DELTA,40096,4,8,32
      620                           .member _PULSE_FACTOR,40128,6,8,32
      621                           .member _PULSE_STAT,40160,4,8,32
      622                           .member _enable_NET,40192,14,8,32
      623                           .member _enable_GROSS,40224,14,8,32
      624                           .member _enable_FLOW,40256,14,8,32
      625                           .member _enable_DENSITY,40288,14,8,32
      626                           .member _enable_PULSE,40320,14,8,32
      627                           .member _flow_class,40352,8,8,64,.fake8
      628                           .member _flow_unit,40416,8,8,64,.fake8
      629                           .member _accum_unit,40480,8,8,64,.fake8
      630                           .member _Z,40544,8,8,96,.fake7
      631                           .member _use_totalizer,40640,8,8,96,.fake7
      632                           .member _pulse_v,40736,8,8,64,.fake8
      633                           .member _pulse_class,40800,8,8,64,.fake8
      634                           .member _pulse_unit,40864,8,8,64,.fake8
      635                           .member _pulse_VALUE,40928,8,8,1408,.fake6
      636                           .member _USE_PDI_TEMP,42336,14,8,32
      637                           .member _USE_PDI_SALINITY,42368,14,8,32
      638                           .member _CALC_WC_DENSITY,42400,14,8,32
      639                           .member _MAN_TEMP,42432,14,8,32
      640                           .member _MAN_SALINITY,42464,14,8,32
      641                           .member _MAN_WATERCUT,42496,14,8,32
      642                           .member _MAN_DENSITY,42528,14,8,32
      643                           .member _MAN_PRESSURE,42560,14,8,32
      644                           .member _MAN_FLOW,42592,14,8,32
      645                           .member _AUTHORIZATION_CODE1,42624,14,8,32
      646                           .member _AUTHORIZATION_CODE2,42656,14,8,32
      647                           .member _AUTHORIZATION_CODE3,42688,14,8,32
      648                           .member _AUTHORIZATION_CODE4,42720,14,8,32
TMS320C3x/4x COFF AssemblerVersion 5.12     Tue Mar 02 13:03:54 2021
Copyright (c) 1987-1999 Texas Instruments Incorporatedasm30.exe -@_8O8.AAB 

G:\workspace\EEA\V615\APP\SOURCE\ASM\main.asm                        PAGE   13

      649                           .eos
      650                           .sym    _FLOW_COMP,0,8,13,42752,.fake31
      651                           .stag   .fake32,2176
      652                           .member _WATERCUT,0,6,8,32
      653                           .member _FLOW_RATE,32,6,8,32
      654                           .member _TEMPERATURE,64,6,8,32
      655                           .member _DENSITY,96,6,8,32
      656                           .member _VISCOSITY,128,6,8,32
      657                           .member _iWATERCUTz,160,4,8,32
      658                           .member _iWATERCUT,192,4,8,32
      659                           .member _iFLOW_RATE,224,4,8,32
      660                           .member _iTEMPERATURE,256,4,8,32
      661                           .member _iDENSITY,288,4,8,32
      662                           .member _iVISCOSITY,320,4,8,32
      663                           .member _maxWATERCUTz,352,6,8,32
      664                           .member _maxWATERCUT,384,6,8,32
      665                           .member _maxFLOW_RATE,416,6,8,32
      666                           .member _maxTEMPERATURE,448,6,8,32
      667                           .member _maxDENSITY,480,6,8,32
      668                           .member _maxVISCOSITY,512,6,8,32
      669                           .member _minWATERCUTz,544,6,8,32
      670                           .member _minWATERCUT,576,6,8,32
      671                           .member _minFLOW_RATE,608,6,8,32
      672                           .member _minTEMPERATURE,640,6,8,32
      673                           .member _minDENSITY,672,6,8,32
      674                           .member _minVISCOSITY,704,6,8,32
      675                           .member _ENABLED,736,14,8,32
      676                           .member _DESTINATION_ADDRESS,768,8,8,1408,.fake6
      677                           .eos
      678                           .sym    _ALYESKA_STRUCT,0,8,13,2176,.fake32
      679                           .stag   .fake33,2464
      680                           .member _ENABLED,0,8,8,96,.fake7
      681                           .member _flow_threshold,96,8,8,1408,.fake6
      682                           .member _S3,1504,6,8,32
      683                           .member _S2,1536,6,8,32
      684                           .member _S1,1568,6,8,32
      685                           .member _S0,1600,6,8,32
      686                           .member _Fmin,1632,6,8,32
      687                           .member _Dmin,1664,6,8,32
      688                           .member _Dmax,1696,6,8,32
      689                           .member _CHANGED,1728,14,8,32
      690                           .member _PURGING,1760,14,8,32
      691                           .member _TEST_IN_PROGRESS,1792,14,8,32
      692                           .member _SP3A,1824,6,8,32
      693                           .member _SP2A,1856,6,8,32
      694                           .member _SP1A,1888,6,8,32
      695                           .member _SP0A,1920,6,8,32
      696                           .member _SPLOA,1952,6,8,32
      697                           .member _SPHIA,1984,6,8,32
      698                           .member _SP3B,2016,6,8,32
      699                           .member _SP2B,2048,6,8,32
      700                           .member _SP1B,2080,6,8,32
      701                           .member _SP0B,2112,6,8,32
      702                           .member _SPLOB,2144,6,8,32
TMS320C3x/4x COFF AssemblerVersion 5.12     Tue Mar 02 13:03:54 2021
Copyright (c) 1987-1999 Texas Instruments Incorporatedasm30.exe -@_8O8.AAB 

G:\workspace\EEA\V615\APP\SOURCE\ASM\main.asm                        PAGE   14

      703                           .member _SPHIB,2176,6,8,32
      704                           .member _FBHI3,2208,6,8,32
      705                           .member _FBHI2,2240,6,8,32
      706                           .member _FBHI1,2272,6,8,32
      707                           .member _FBHI0,2304,6,8,32
      708                           .member _FBLO3,2336,6,8,32
      709                           .member _FBLO2,2368,6,8,32
      710                           .member _FBLO1,2400,6,8,32
      711                           .member _FBLO0,2432,6,8,32
      712                           .eos
      713                           .sym    _HS_STRUCT,0,8,13,2464,.fake33
      714                           .file   "G:\workspace\EEA\V615\APP\SOURCE\INCLUDE\HART.H"
      715                           .file   "G:\workspace\EEA\V615\APP\SOURCE\INCLUDE\MODBUSRTU.H"
      716                           .file   "G:\workspace\EEA\V615\APP\SOURCE\INCLUDE\MISC.H"
      717                           .file   "G:\workspace\EEA\V615\APP\SOURCE\INCLUDE\API.H"
      718                           .file   "main.c"
      719 00000000                  .sect    ".text"
      720                   
      721                           .global _Debug
      722                           .sym    _Debug,_Debug,32,2,0
      723                           .func   44
      724                   ;******************************************************************************
      725                   ;* FUNCTION NAME: _Debug                                                      *
      726                   ;*                                                                            *
      727                   ;*   Architecture       : TMS320C33                                           *
      728                   ;*   Calling Convention : TI Standard Register Parameters                     *
      729                   ;*   Function Uses Regs :                                                     *
      730                   ;*   Regs Saved         :                                                     *
      731                   ;*   Stack Frame        : Full (w/ debug)                                     *
      732                   ;*   Total Frame Size   : 2 Call + 0 Parm + 0 Auto + 0 SOE = 2 words          *
      733                   ;******************************************************************************
      734 00000000          _Debug:
      735                           .line   1
      736                   ;----------------------------------------------------------------------
      737                   ;  44 | void Debug(void)                                                       
      738                   ;----------------------------------------------------------------------
      739 00000000 0f2b0000         push      fp
      740 00000001 500b0014         ldiu      sp,fp
      741                           .line   2
      742                                                           ; Begin Epilog Code
      743 00000002 50410b01         ldiu      *-fp(1),r1
      744 00000003 504bc300         ldiu      *fp,fp
      745                                                           ; Unallocate the Frame
      746 00000004 18740002         subi      2,sp
      747 00000005 68000001         bu        r1
      748                   ;*      Branch Occurs to r1 
      749                           .endfunc        45,000000000h,0
      750                   
      751                   
      752 00000000                  .sect    "initialization"
      753                   
      754                           .global _Initialize_Variables
      755                           .sym    _Initialize_Variables,_Initialize_Variables,32,2,0
      756                           .func   60
TMS320C3x/4x COFF AssemblerVersion 5.12     Tue Mar 02 13:03:54 2021
Copyright (c) 1987-1999 Texas Instruments Incorporatedasm30.exe -@_8O8.AAB 

G:\workspace\EEA\V615\APP\SOURCE\ASM\main.asm                        PAGE   15

      757                   ;******************************************************************************
      758                   ;* FUNCTION NAME: _Initialize_Variables                                       *
      759                   ;*                                                                            *
      760                   ;*   Architecture       : TMS320C33                                           *
      761                   ;*   Calling Convention : TI Standard Register Parameters                     *
      762                   ;*   Function Uses Regs : f0,r0,f1,r1,f2,r2,f3,r3,ar0,ar1,ar2,fp,ir0,sp,st,rs,*
      763                   ;*                        re,rc                                               *
      764                   ;*   Regs Saved         :                                                     *
      765                   ;*   Stack Frame        : Full (w/ debug)                                     *
      766                   ;*   Total Frame Size   : 2 Call + 0 Parm + 3 Auto + 0 SOE = 5 words          *
      767                   ;******************************************************************************
      768 00000000          _Initialize_Variables:
      769                           .sym    _i,1,4,1,32
      770                           .sym    _r,2,4,1,32
      771                           .sym    _port,3,4,1,32
      772                           .line   1
      773                   ;----------------------------------------------------------------------
      774                   ;  60 | void Initialize_Variables(void)                                        
      775                   ;  62 | int i,r;        /* counter; restore config successful   */             
      776                   ;  63 | int port;       /* not used
      777                   ;     |          */                                                            
      778                   ;----------------------------------------------------------------------
      779 00000000 0f2b0000         push      fp
      780 00000001 500b0014         ldiu      sp,fp
      781 00000002 02740003         addi      3,sp
      782                           .line   6
      783                   ;----------------------------------------------------------------------
      784                   ;  65 | r = 0;                                                                 
      785                   ;----------------------------------------------------------------------
      786 00000003 50600000         ldiu      0,r0                  ; |65| 
      787 00000004 15400302         sti       r0,*+fp(2)            ; |65| 
      788                           .line   8
      789                   ;----------------------------------------------------------------------
      790                   ;  67 | InitLog();                                                             
      791                   ;----------------------------------------------------------------------
      792 00000005 08700000-        ldp       @CL1,DP
      793 00000006 50200000-        ldiu      @CL1,r0               ; |67| 
      794 00000007 70000000         callu     r0                    ; far call to _InitLog  ; |67| 
      795                                                           ; |67| Far Call Occurs
      796                           .line   10
      797                   ;----------------------------------------------------------------------
      798                   ;  69 | if (MEM)                                                               
      799                   ;----------------------------------------------------------------------
      800 00000008 08700000-        ldp       @CL2,DP
      801 00000009 50280001-        ldiu      @CL2,ar0              ; |69| 
      802 0000000a 5040c000         ldiu      *ar0,r0               ; |69| 
      803 0000000b 04e00000         cmpi      0,r0                  ; |69| 
      804 0000000c 6a050004         beq       L6                    ; |69| 
      805                   ;*      Branch Occurs to L6             ; |69| 
      806                           .line   11
      807                   ;----------------------------------------------------------------------
      808                   ;  70 | Setup_Basics();                                                        
      809                   ;  71 | else                                                                   
      810                   ;----------------------------------------------------------------------
TMS320C3x/4x COFF AssemblerVersion 5.12     Tue Mar 02 13:03:54 2021
Copyright (c) 1987-1999 Texas Instruments Incorporatedasm30.exe -@_8O8.AAB 

G:\workspace\EEA\V615\APP\SOURCE\ASM\main.asm                        PAGE   16

      811 0000000d 08700000-        ldp       @CL3,DP
      812 0000000e 50200002-        ldiu      @CL3,r0               ; |70| 
      813 0000000f 70000000         callu     r0                    ; far call to _Setup_Basics     ; |70| 
      814                                                           ; |70| Far Call Occurs
      815 00000010 6a000004         bu        L7                    ; |59| 
      816                   ;*      Branch Occurs to L7             ; |59| 
      817 00000011          L6:        
      818                           .line   13
      819                   ;----------------------------------------------------------------------
      820                   ;  72 | r = Restore_CFG();                                                     
      821                   ;----------------------------------------------------------------------
      822 00000011 08700000-        ldp       @CL4,DP
      823 00000012 50200003-        ldiu      @CL4,r0               ; |72| 
      824 00000013 70000000         callu     r0                    ; far call to _Restore_CFG      ; |72| 
      825                                                           ; |72| Far Call Occurs
      826 00000014 15400302         sti       r0,*+fp(2)            ; |72| 
      827 00000015          L7:        
      828                           .line   15
      829                   ;----------------------------------------------------------------------
      830                   ;  74 | DISABLE_WDOG;   /* restore & basics re-enables WDOG */                 
      831                   ;----------------------------------------------------------------------
      832 00000015 0f350000         push    ST                      
      833 00000016 03752000         andn    2000h, ST       
      834 00000017 08700000-        ldp       @CL5,DP
      835 00000018 50280004-        ldiu      @CL5,ar0              ; |74| 
      836 00000019 506000f7         ldiu      247,r0                ; |74| 
      837 0000001a 21a0c000         and3      r0,*ar0,r0            ; |74| 
      838 0000001b 1540c000         sti       r0,*ar0               ; |74| 
      839 0000001c 0e350000         pop             ST                      
      840                           .line   17
      841                   ;----------------------------------------------------------------------
      842                   ;  76 | if (r)                                                                 
      843                   ;----------------------------------------------------------------------
      844 0000001d 50400302         ldiu      *+fp(2),r0            ; |76| 
      845 0000001e 04e00000         cmpi      0,r0                  ; |76| 
      846 0000001f 6a05001d         beq       L9                    ; |76| 
      847                   ;*      Branch Occurs to L9             ; |76| 
      848                           .line   19
      849                   ;----------------------------------------------------------------------
      850                   ;  78 | DIAG_TEMP[0]                    = ERROR_NONE;                          
      851                   ;----------------------------------------------------------------------
      852 00000020 08700000-        ldp       @CL6,DP
      853 00000021 50280005-        ldiu      @CL6,ar0              ; |78| 
      854 00000022 50600000         ldiu      0,r0                  ; |78| 
      855 00000023 1540c000         sti       r0,*ar0               ; |78| 
      856                           .line   20
      857                   ;----------------------------------------------------------------------
      858                   ;  79 | DIAG_TEMP[1]                    = ERROR_NONE;                          
      859                   ;----------------------------------------------------------------------
      860 00000024 08700000-        ldp       @CL7,DP
      861 00000025 50280006-        ldiu      @CL7,ar0              ; |79| 
      862 00000026 1540c000         sti       r0,*ar0               ; |79| 
      863                           .line   21
      864                   ;----------------------------------------------------------------------
TMS320C3x/4x COFF AssemblerVersion 5.12     Tue Mar 02 13:03:54 2021
Copyright (c) 1987-1999 Texas Instruments Incorporatedasm30.exe -@_8O8.AAB 

G:\workspace\EEA\V615\APP\SOURCE\ASM\main.asm                        PAGE   17

      865                   ;  80 | DIAGNOSTICS[0]                  = ERROR_RESET;                         
      866                   ;----------------------------------------------------------------------
      867 00000027 08700000-        ldp       @CL8,DP
      868 00000028 50280007-        ldiu      @CL8,ar0              ; |80| 
      869 00000029 50604000         ldiu      16384,r0              ; |80| 
      870 0000002a 1540c000         sti       r0,*ar0               ; |80| 
      871                           .line   22
      872                   ;----------------------------------------------------------------------
      873                   ;  81 | DIAGNOSTICS[1]                  = ERROR_NONE;                          
      874                   ;----------------------------------------------------------------------
      875 0000002b 08700000-        ldp       @CL9,DP
      876 0000002c 50280008-        ldiu      @CL9,ar0              ; |81| 
      877 0000002d 50600000         ldiu      0,r0                  ; |81| 
      878 0000002e 1540c000         sti       r0,*ar0               ; |81| 
      879                           .line   23
      880                   ;----------------------------------------------------------------------
      881                   ;  82 | DIAGNOSTICS_MSG_CODE    = M_ERROR_RESET;                               
      882                   ;----------------------------------------------------------------------
      883 0000002f 08700000-        ldp       @CL10,DP
      884 00000030 50280009-        ldiu      @CL10,ar0             ; |82| 
      885 00000031 5060000f         ldiu      15,r0                 ; |82| 
      886 00000032 1540c000         sti       r0,*ar0               ; |82| 
      887                           .line   24
      888                   ;----------------------------------------------------------------------
      889                   ;  83 | DIAGNOSTICS_ERROR_CODE  = E_ERROR_NONE;                                
      890                   ;----------------------------------------------------------------------
      891 00000033 08700000-        ldp       @CL11,DP
      892 00000034 5028000a-        ldiu      @CL11,ar0             ; |83| 
      893 00000035 50600000         ldiu      0,r0                  ; |83| 
      894 00000036 1540c000         sti       r0,*ar0               ; |83| 
      895                           .line   25
      896                   ;----------------------------------------------------------------------
      897                   ;  84 | CHANGE                                  = FALSE;                       
      898                   ;----------------------------------------------------------------------
      899 00000037 08700000-        ldp       @CL12,DP
      900 00000038 5028000b-        ldiu      @CL12,ar0             ; |84| 
      901 00000039 1540c000         sti       r0,*ar0               ; |84| 
      902                           .line   26
      903                   ;----------------------------------------------------------------------
      904                   ;  85 | DATA_CHANGE.val                 = FALSE;                               
      905                   ;----------------------------------------------------------------------
      906 0000003a 08700000-        ldp       @CL13,DP
      907 0000003b 5028000c-        ldiu      @CL13,ar0             ; |85| 
      908 0000003c 1540c000         sti       r0,*ar0               ; |85| 
      909 0000003d          L9:        
      910                           .line   29
      911                   ;----------------------------------------------------------------------
      912                   ;  88 | sprintf(E_STRING,"");                                                  
      913                   ;----------------------------------------------------------------------
      914 0000003d 08700000-        ldp       @CL14,DP
      915 0000003e 5021000d-        ldiu      @CL14,r1              ; |88| 
      916 0000003f 08700000-        ldp       @CL16,DP
      917 00000040 5020000f-        ldiu      @CL16,r0              ; |88| 
      918 00000041 08700000-        ldp       @CL15,DP
TMS320C3x/4x COFF AssemblerVersion 5.12     Tue Mar 02 13:03:54 2021
Copyright (c) 1987-1999 Texas Instruments Incorporatedasm30.exe -@_8O8.AAB 

G:\workspace\EEA\V615\APP\SOURCE\ASM\main.asm                        PAGE   18

      919 00000042 0f210000         push      r1                    ; |88| 
      920 00000043 502a000e-        ldiu      @CL15,ar2             ; |88| 
      921 00000044 70000000         callu     r0                    ; far call to _sprintf  ; |88| 
      922                                                           ; |88| Far Call Occurs
      923 00000045 18740001         subi      1,sp                  ; |88| 
      924                           .line   30
      925                   ;----------------------------------------------------------------------
      926                   ;  89 | Execute_Init();                                                        
      927                   ;----------------------------------------------------------------------
      928 00000046 08700000-        ldp       @CL17,DP
      929 00000047 50200010-        ldiu      @CL17,r0              ; |89| 
      930 00000048 70000000         callu     r0                    ; far call to _Execute_Init     ; |89| 
      931                                                           ; |89| Far Call Occurs
      932                           .line   33
      933                   ;----------------------------------------------------------------------
      934                   ;  92 | IDEC_PORT = 6;                                                         
      935                   ;----------------------------------------------------------------------
      936 00000049 08700000-        ldp       @CL18,DP
      937 0000004a 50280011-        ldiu      @CL18,ar0             ; |92| 
      938 0000004b 50600006         ldiu      6,r0                  ; |92| 
      939 0000004c 1540c000         sti       r0,*ar0               ; |92| 
      940                           .line   35
      941                   ;----------------------------------------------------------------------
      942                   ;  94 | for (i=0;i<13;i++)                                                     
      943                   ;----------------------------------------------------------------------
      944 0000004d 50600000         ldiu      0,r0                  ; |94| 
      945 0000004e 15400301         sti       r0,*+fp(1)            ; |94| 
      946 0000004f 50610000         ldiu      0,r1                  ; |96| 
      947 00000050 50020000         ldiu      r0,r2
      948 00000051 04e2000d         cmpi      13,r2                 ; |94| 
      949 00000052 6a0a000f         bge       L11                   ; |94| 
      950                   ;*      Branch Occurs to L11            ; |94| 
      951 00000053          L10:        
      952                           .line   37
      953                   ;----------------------------------------------------------------------
      954                   ;  96 | IDEC_SA[i].val  = 0;                                                   
      955                   ;----------------------------------------------------------------------
      956 00000053 50510301         ldiu      *+fp(1),ir0           ; |96| 
      957 00000054 08700000-        ldp       @CL19,DP
      958 00000055 03f10001         ash       1,ir0                 ; |96| 
      959 00000056 50280012-        ldiu      @CL19,ar0             ; |96| 
      960 00000057 15414000         sti       r1,*+ar0(ir0)         ; |96| 
      961                           .line   38
      962                   ;----------------------------------------------------------------------
      963                   ;  97 | IDEC_SA[i].vect = NULL_PTR;                                            
      964                   ;----------------------------------------------------------------------
      965 00000058 08700000-        ldp       @CL20,DP
      966 00000059 50510301         ldiu      *+fp(1),ir0           ; |97| 
      967 0000005a 50280013-        ldiu      @CL20,ar0             ; |97| 
      968 0000005b 03f10001         ash       1,ir0                 ; |97| 
      969 0000005c 15404000         sti       r0,*+ar0(ir0)         ; |97| 
      970                           .line   35
      971 0000005d 50620001         ldiu      1,r2                  ; |94| 
      972 0000005e 02420301         addi      *+fp(1),r2            ; |94| 
TMS320C3x/4x COFF AssemblerVersion 5.12     Tue Mar 02 13:03:54 2021
Copyright (c) 1987-1999 Texas Instruments Incorporatedasm30.exe -@_8O8.AAB 

G:\workspace\EEA\V615\APP\SOURCE\ASM\main.asm                        PAGE   19

      973 0000005f 15420301         sti       r2,*+fp(1)            ; |94| 
      974 00000060 04e2000d         cmpi      13,r2                 ; |94| 
      975 00000061 6a07fff1         blt       L10                   ; |94| 
      976                   ;*      Branch Occurs to L10            ; |94| 
      977 00000062          L11:        
      978                           .line   41
      979                   ;----------------------------------------------------------------------
      980                   ; 100 | IDEC_SA[1].val          = 0x0081;                               /* turn
      981                   ;     |  on backlight and screen display */                                    
      982                   ;----------------------------------------------------------------------
      983 00000062 08700000-        ldp       @CL21,DP
      984 00000063 50280014-        ldiu      @CL21,ar0             ; |100| 
      985 00000064 50600081         ldiu      129,r0                ; |100| 
      986 00000065 1540c000         sti       r0,*ar0               ; |100| 
      987                           .line   42
      988                   ;----------------------------------------------------------------------
      989                   ; 101 | IDEC_SA[0].val          = SCREEN_LOGO;                  /* set screen *
      990                   ;     | /                                                                      
      991                   ;----------------------------------------------------------------------
      992 00000066 08700000-        ldp       @CL19,DP
      993 00000067 50280012-        ldiu      @CL19,ar0             ; |101| 
      994 00000068 50600001         ldiu      1,r0                  ; |101| 
      995 00000069 1540c000         sti       r0,*ar0               ; |101| 
      996                           .line   43
      997                   ;----------------------------------------------------------------------
      998                   ; 102 | IDEC_SA[7].vect         = (int*)Set_Time;                              
      999                   ;----------------------------------------------------------------------
     1000 0000006a 08700000-        ldp       @CL22,DP
     1001 0000006b 50280015-        ldiu      @CL22,ar0             ; |102| 
     1002 0000006c 08700000-        ldp       @CL23,DP
     1003 0000006d 50200016-        ldiu      @CL23,r0              ; |102| 
     1004 0000006e 1540c000         sti       r0,*ar0               ; |102| 
     1005                           .line   44
     1006                   ;----------------------------------------------------------------------
     1007                   ; 103 | IDEC_SA[12].vect        = (int*)Set_IDEC_Port;                         
     1008                   ;----------------------------------------------------------------------
     1009 0000006f 08700000-        ldp       @CL24,DP
     1010 00000070 50280017-        ldiu      @CL24,ar0             ; |103| 
     1011 00000071 08700000-        ldp       @CL25,DP
     1012 00000072 50200018-        ldiu      @CL25,r0              ; |103| 
     1013 00000073 1540c000         sti       r0,*ar0               ; |103| 
     1014                           .line   47
     1015                   ;----------------------------------------------------------------------
     1016                   ; 106 | FLASH_READ_ESN_MFGR(ESN_MFGR);                                         
     1017                   ;----------------------------------------------------------------------
     1018 00000074 08700000-        ldp       @CL27,DP
     1019 00000075 5020001a-        ldiu      @CL27,r0              ; |106| 
     1020 00000076 08700000-        ldp       @CL26,DP
     1021 00000077 502a0019-        ldiu      @CL26,ar2             ; |106| 
     1022 00000078 70000000         callu     r0                    ; far call to _FLASH_READ_ESN_MFGR      ; |106| 
     1023                                                           ; |106| Far Call Occurs
     1024                           .line   48
     1025                   ;----------------------------------------------------------------------
     1026                   ; 107 | FLASH_READ_ESN_USER(ESN_USER);                                         
TMS320C3x/4x COFF AssemblerVersion 5.12     Tue Mar 02 13:03:54 2021
Copyright (c) 1987-1999 Texas Instruments Incorporatedasm30.exe -@_8O8.AAB 

G:\workspace\EEA\V615\APP\SOURCE\ASM\main.asm                        PAGE   20

     1027                   ;----------------------------------------------------------------------
     1028 00000079 08700000-        ldp       @CL29,DP
     1029 0000007a 5020001c-        ldiu      @CL29,r0              ; |107| 
     1030 0000007b 08700000-        ldp       @CL28,DP
     1031 0000007c 502a001b-        ldiu      @CL28,ar2             ; |107| 
     1032 0000007d 70000000         callu     r0                    ; far call to _FLASH_READ_ESN_USER      ; |107| 
     1033                                                           ; |107| Far Call Occurs
     1034                           .line   50
     1035                   ;----------------------------------------------------------------------
     1036                   ; 109 | LOCKOUT                                 = FALSE;        /* Setup Locks
     1037                   ;     | */                                                                     
     1038                   ;----------------------------------------------------------------------
     1039 0000007e 08700000-        ldp       @CL30,DP
     1040 0000007f 5028001d-        ldiu      @CL30,ar0             ; |109| 
     1041 00000080 50600000         ldiu      0,r0                  ; |109| 
     1042 00000081 1540c000         sti       r0,*ar0               ; |109| 
     1043                           .line   51
     1044                   ;----------------------------------------------------------------------
     1045                   ; 110 | DIO_LOCK[1].val                 = TRUE;                                
     1046                   ;----------------------------------------------------------------------
     1047 00000082 08700000-        ldp       @CL31,DP
     1048 00000083 5028001e-        ldiu      @CL31,ar0             ; |110| 
     1049 00000084 50600001         ldiu      1,r0                  ; |110| 
     1050 00000085 1540c000         sti       r0,*ar0               ; |110| 
     1051                           .line   52
     1052                   ;----------------------------------------------------------------------
     1053                   ; 111 | DIO_LOCK[2].val                 = TRUE;                                
     1054                   ;----------------------------------------------------------------------
     1055 00000086 08700000-        ldp       @CL32,DP
     1056 00000087 5028001f-        ldiu      @CL32,ar0             ; |111| 
     1057 00000088 1540c000         sti       r0,*ar0               ; |111| 
     1058                           .line   53
     1059                   ;----------------------------------------------------------------------
     1060                   ; 112 | DIO_LOCK[3].val                 = TRUE;                                
     1061                   ;----------------------------------------------------------------------
     1062 00000089 08700000-        ldp       @CL33,DP
     1063 0000008a 50280020-        ldiu      @CL33,ar0             ; |112| 
     1064 0000008b 1540c000         sti       r0,*ar0               ; |112| 
     1065                           .line   54
     1066                   ;----------------------------------------------------------------------
     1067                   ; 113 | RESEARCH_FORCE_MODE         = FALSE;    /* Disable Research Mode */    
     1068                   ;----------------------------------------------------------------------
     1069 0000008c 08700000-        ldp       @CL34,DP
     1070 0000008d 50280021-        ldiu      @CL34,ar0             ; |113| 
     1071 0000008e 50600000         ldiu      0,r0                  ; |113| 
     1072 0000008f 1540c000         sti       r0,*ar0               ; |113| 
     1073                           .line   55
     1074                   ;----------------------------------------------------------------------
     1075                   ; 114 | SAMPLE_PENDING                  = FALSE;    /* No Pulse Sample Pending
     1076                   ;     | for Poll */                                                            
     1077                   ;----------------------------------------------------------------------
     1078 00000090 08700000-        ldp       @CL35,DP
     1079 00000091 50280022-        ldiu      @CL35,ar0             ; |114| 
     1080 00000092 1540c000         sti       r0,*ar0               ; |114| 
TMS320C3x/4x COFF AssemblerVersion 5.12     Tue Mar 02 13:03:54 2021
Copyright (c) 1987-1999 Texas Instruments Incorporatedasm30.exe -@_8O8.AAB 

G:\workspace\EEA\V615\APP\SOURCE\ASM\main.asm                        PAGE   21

     1081                           .line   56
     1082                   ;----------------------------------------------------------------------
     1083                   ; 115 | SN_PIPE                            &= 0xFFFFFF;                        
     1084                   ;----------------------------------------------------------------------
     1085 00000093 08700000-        ldp       @CL36,DP
     1086 00000094 50280023-        ldiu      @CL36,ar0             ; |115| 
     1087 00000095 08700000-        ldp       @CL37,DP
     1088 00000096 50200024-        ldiu      @CL37,r0              ; |115| 
     1089 00000097 21a0c000         and3      r0,*ar0,r0            ; |115| 
     1090 00000098 1540c000         sti       r0,*ar0               ; |115| 
     1091                           .line   57
     1092                   ;----------------------------------------------------------------------
     1093                   ; 116 | DUMMY                                   = 0;                           
     1094                   ;----------------------------------------------------------------------
     1095 00000099 08700000-        ldp       @CL38,DP
     1096 0000009a 50280025-        ldiu      @CL38,ar0             ; |116| 
     1097 0000009b 50600000         ldiu      0,r0                  ; |116| 
     1098 0000009c 1540c000         sti       r0,*ar0               ; |116| 
     1099                           .line   58
     1100                   ;----------------------------------------------------------------------
     1101                   ; 117 | PORT2_LIQ_TEMP                      = 0;            /***disconnetion de
     1102                   ;     | tect RS***/                                                            
     1103                   ;----------------------------------------------------------------------
     1104 0000009d 08700000-        ldp       @CL39,DP
     1105 0000009e 50280026-        ldiu      @CL39,ar0             ; |117| 
     1106 0000009f 1540c000         sti       r0,*ar0               ; |117| 
     1107                           .line   59
     1108                   ;----------------------------------------------------------------------
     1109                   ; 118 | PORT2_GAS_TEMP                      = 0;                               
     1110                   ;----------------------------------------------------------------------
     1111 000000a0 08700000-        ldp       @CL40,DP
     1112 000000a1 50280027-        ldiu      @CL40,ar0             ; |118| 
     1113 000000a2 1540c000         sti       r0,*ar0               ; |118| 
     1114                           .line   60
     1115                   ;----------------------------------------------------------------------
     1116                   ; 119 | PORT3_TEMP                          = 0;                               
     1117                   ;----------------------------------------------------------------------
     1118 000000a3 08700000-        ldp       @CL41,DP
     1119 000000a4 50280028-        ldiu      @CL41,ar0             ; |119| 
     1120 000000a5 1540c000         sti       r0,*ar0               ; |119| 
     1121                           .line   61
     1122                   ;----------------------------------------------------------------------
     1123                   ; 120 | MM_LIQ_fail.val             = TRUE;                                    
     1124                   ;----------------------------------------------------------------------
     1125 000000a6 08700000-        ldp       @CL42,DP
     1126 000000a7 50280029-        ldiu      @CL42,ar0             ; |120| 
     1127 000000a8 50600001         ldiu      1,r0                  ; |120| 
     1128 000000a9 1540c000         sti       r0,*ar0               ; |120| 
     1129                           .line   62
     1130                   ;----------------------------------------------------------------------
     1131                   ; 121 | MM_GAS_fail.val             = TRUE;                                    
     1132                   ;----------------------------------------------------------------------
     1133 000000aa 08700000-        ldp       @CL43,DP
     1134 000000ab 5028002a-        ldiu      @CL43,ar0             ; |121| 
TMS320C3x/4x COFF AssemblerVersion 5.12     Tue Mar 02 13:03:54 2021
Copyright (c) 1987-1999 Texas Instruments Incorporatedasm30.exe -@_8O8.AAB 

G:\workspace\EEA\V615\APP\SOURCE\ASM\main.asm                        PAGE   22

     1135 000000ac 1540c000         sti       r0,*ar0               ; |121| 
     1136                           .line   63
     1137                   ;----------------------------------------------------------------------
     1138                   ; 122 | Rosemount_fail.val          = TRUE;                                    
     1139                   ;----------------------------------------------------------------------
     1140 000000ad 08700000-        ldp       @CL44,DP
     1141 000000ae 5028002b-        ldiu      @CL44,ar0             ; |122| 
     1142 000000af 1540c000         sti       r0,*ar0               ; |122| 
     1143                           .line   64
     1144                   ;----------------------------------------------------------------------
     1145                   ; 123 | DIO_ERROR.val                       = FALSE;                           
     1146                   ;----------------------------------------------------------------------
     1147 000000b0 08700000-        ldp       @CL45,DP
     1148 000000b1 5028002c-        ldiu      @CL45,ar0             ; |123| 
     1149 000000b2 50600000         ldiu      0,r0                  ; |123| 
     1150 000000b3 1540c000         sti       r0,*ar0               ; |123| 
     1151                           .line   65
     1152                   ;----------------------------------------------------------------------
     1153                   ; 124 | DIO_ALARM.val                   = FALSE;                               
     1154                   ;----------------------------------------------------------------------
     1155 000000b4 08700000-        ldp       @CL46,DP
     1156 000000b5 5028002d-        ldiu      @CL46,ar0             ; |124| 
     1157 000000b6 1540c000         sti       r0,*ar0               ; |124| 
     1158                           .line   66
     1159                   ;----------------------------------------------------------------------
     1160                   ; 125 | DIO_SYSTEM_RESET.val    = FALSE;                                       
     1161                   ;----------------------------------------------------------------------
     1162 000000b7 08700000-        ldp       @CL47,DP
     1163 000000b8 5028002e-        ldiu      @CL47,ar0             ; |125| 
     1164 000000b9 1540c000         sti       r0,*ar0               ; |125| 
     1165                           .line   67
     1166                   ;----------------------------------------------------------------------
     1167                   ; 126 | DIO_BUILT_IN_TEST.val   = FALSE;                                       
     1168                   ;----------------------------------------------------------------------
     1169 000000ba 08700000-        ldp       @CL48,DP
     1170 000000bb 5028002f-        ldiu      @CL48,ar0             ; |126| 
     1171 000000bc 1540c000         sti       r0,*ar0               ; |126| 
     1172                           .line   68
     1173                   ;----------------------------------------------------------------------
     1174                   ; 127 | DIO_BEEP.val                    = FALSE;                               
     1175                   ;----------------------------------------------------------------------
     1176 000000bd 08700000-        ldp       @CL49,DP
     1177 000000be 50280030-        ldiu      @CL49,ar0             ; |127| 
     1178 000000bf 1540c000         sti       r0,*ar0               ; |127| 
     1179                           .line   69
     1180                   ;----------------------------------------------------------------------
     1181                   ; 128 | DIO_uP_GET.val                      = FALSE;                           
     1182                   ;----------------------------------------------------------------------
     1183 000000c0 08700000-        ldp       @CL50,DP
     1184 000000c1 50280031-        ldiu      @CL50,ar0             ; |128| 
     1185 000000c2 1540c000         sti       r0,*ar0               ; |128| 
     1186                           .line   70
     1187                   ;----------------------------------------------------------------------
     1188                   ; 129 | DIO_uP_SET.val                  = FALSE;                               
TMS320C3x/4x COFF AssemblerVersion 5.12     Tue Mar 02 13:03:54 2021
Copyright (c) 1987-1999 Texas Instruments Incorporatedasm30.exe -@_8O8.AAB 

G:\workspace\EEA\V615\APP\SOURCE\ASM\main.asm                        PAGE   23

     1189                   ;----------------------------------------------------------------------
     1190 000000c3 08700000-        ldp       @CL51,DP
     1191 000000c4 50280032-        ldiu      @CL51,ar0             ; |129| 
     1192 000000c5 1540c000         sti       r0,*ar0               ; |129| 
     1193                           .line   71
     1194                   ;----------------------------------------------------------------------
     1195                   ; 130 | DIO_COMM_GET.val                = FALSE;                               
     1196                   ;----------------------------------------------------------------------
     1197 000000c6 08700000-        ldp       @CL52,DP
     1198 000000c7 50280033-        ldiu      @CL52,ar0             ; |130| 
     1199 000000c8 1540c000         sti       r0,*ar0               ; |130| 
     1200                           .line   72
     1201                   ;----------------------------------------------------------------------
     1202                   ; 131 | DIO_COMM_SET.val                = FALSE;                               
     1203                   ;----------------------------------------------------------------------
     1204 000000c9 08700000-        ldp       @CL53,DP
     1205 000000ca 50280034-        ldiu      @CL53,ar0             ; |131| 
     1206 000000cb 1540c000         sti       r0,*ar0               ; |131| 
     1207                           .line   73
     1208                   ;----------------------------------------------------------------------
     1209                   ; 132 | DIO_POWER_GET.val               = FALSE;                               
     1210                   ;----------------------------------------------------------------------
     1211 000000cc 08700000-        ldp       @CL54,DP
     1212 000000cd 50280035-        ldiu      @CL54,ar0             ; |132| 
     1213 000000ce 1540c000         sti       r0,*ar0               ; |132| 
     1214                           .line   74
     1215                   ;----------------------------------------------------------------------
     1216                   ; 133 | DIO_POWER_SET.val               = FALSE;                               
     1217                   ;----------------------------------------------------------------------
     1218 000000cf 08700000-        ldp       @CL55,DP
     1219 000000d0 50280036-        ldiu      @CL55,ar0             ; |133| 
     1220 000000d1 1540c000         sti       r0,*ar0               ; |133| 
     1221                           .line   75
     1222                   ;----------------------------------------------------------------------
     1223                   ; 134 | DIO_DISPLAY_GET.val     = FALSE;                                       
     1224                   ;----------------------------------------------------------------------
     1225 000000d2 08700000-        ldp       @CL56,DP
     1226 000000d3 50280037-        ldiu      @CL56,ar0             ; |134| 
     1227 000000d4 1540c000         sti       r0,*ar0               ; |134| 
     1228                           .line   76
     1229                   ;----------------------------------------------------------------------
     1230                   ; 135 | DIO_DISPLAY_SET.val     = FALSE;                                       
     1231                   ;----------------------------------------------------------------------
     1232 000000d5 08700000-        ldp       @CL57,DP
     1233 000000d6 50280038-        ldiu      @CL57,ar0             ; |135| 
     1234 000000d7 1540c000         sti       r0,*ar0               ; |135| 
     1235                           .line   77
     1236                   ;----------------------------------------------------------------------
     1237                   ; 136 | DIO_MOTHERBOARD_GET.val = FALSE;                                       
     1238                   ;----------------------------------------------------------------------
     1239 000000d8 08700000-        ldp       @CL58,DP
     1240 000000d9 50280039-        ldiu      @CL58,ar0             ; |136| 
     1241 000000da 1540c000         sti       r0,*ar0               ; |136| 
     1242                           .line   78
TMS320C3x/4x COFF AssemblerVersion 5.12     Tue Mar 02 13:03:54 2021
Copyright (c) 1987-1999 Texas Instruments Incorporatedasm30.exe -@_8O8.AAB 

G:\workspace\EEA\V615\APP\SOURCE\ASM\main.asm                        PAGE   24

     1243                   ;----------------------------------------------------------------------
     1244                   ; 137 | DIO_MOTHERBOARD_SET.val = FALSE;                                       
     1245                   ;----------------------------------------------------------------------
     1246 000000db 08700000-        ldp       @CL59,DP
     1247 000000dc 5028003a-        ldiu      @CL59,ar0             ; |137| 
     1248 000000dd 1540c000         sti       r0,*ar0               ; |137| 
     1249                           .line   79
     1250                   ;----------------------------------------------------------------------
     1251                   ; 138 | DIO_ANALYZER_GET.val    = FALSE;                                       
     1252                   ;----------------------------------------------------------------------
     1253 000000de 08700000-        ldp       @CL60,DP
     1254 000000df 5028003b-        ldiu      @CL60,ar0             ; |138| 
     1255 000000e0 1540c000         sti       r0,*ar0               ; |138| 
     1256                           .line   80
     1257                   ;----------------------------------------------------------------------
     1258                   ; 139 | DIO_ANALYZER_SET.val    = FALSE;                                       
     1259                   ;----------------------------------------------------------------------
     1260 000000e1 08700000-        ldp       @CL61,DP
     1261 000000e2 5028003c-        ldiu      @CL61,ar0             ; |139| 
     1262 000000e3 1540c000         sti       r0,*ar0               ; |139| 
     1263                           .line   81
     1264                   ;----------------------------------------------------------------------
     1265                   ; 140 | DIO_ANALOGIO_GET.val    = FALSE;                                       
     1266                   ;----------------------------------------------------------------------
     1267 000000e4 08700000-        ldp       @CL62,DP
     1268 000000e5 5028003d-        ldiu      @CL62,ar0             ; |140| 
     1269 000000e6 1540c000         sti       r0,*ar0               ; |140| 
     1270                           .line   82
     1271                   ;----------------------------------------------------------------------
     1272                   ; 141 | DIO_ANALOGIO_SET.val    = FALSE;                                       
     1273                   ;----------------------------------------------------------------------
     1274 000000e7 08700000-        ldp       @CL63,DP
     1275 000000e8 5028003e-        ldiu      @CL63,ar0             ; |141| 
     1276 000000e9 1540c000         sti       r0,*ar0               ; |141| 
     1277                           .line   83
     1278                   ;----------------------------------------------------------------------
     1279                   ; 142 | DIO_PV_PERCMASS                 = FALSE;                               
     1280                   ;----------------------------------------------------------------------
     1281 000000ea 08700000-        ldp       @CL64,DP
     1282 000000eb 5028003f-        ldiu      @CL64,ar0             ; |142| 
     1283 000000ec 1540c000         sti       r0,*ar0               ; |142| 
     1284                           .line   84
     1285                   ;----------------------------------------------------------------------
     1286                   ; 143 | LED_GREEN                               = FALSE;                       
     1287                   ;----------------------------------------------------------------------
     1288 000000ed 08700000-        ldp       @CL65,DP
     1289 000000ee 50280040-        ldiu      @CL65,ar0             ; |143| 
     1290 000000ef 1540c000         sti       r0,*ar0               ; |143| 
     1291                           .line   87
     1292                   ;----------------------------------------------------------------------
     1293                   ; 146 | VAR_Update(&REG_FREQ_OIL_LO,            REG_FREQ_OIL_LO.val,
     1294                   ;     |  0, 0);                                                                
     1295                   ;----------------------------------------------------------------------
     1296 000000f0 08700000-        ldp       @CL66,DP
TMS320C3x/4x COFF AssemblerVersion 5.12     Tue Mar 02 13:03:54 2021
Copyright (c) 1987-1999 Texas Instruments Incorporatedasm30.exe -@_8O8.AAB 

G:\workspace\EEA\V615\APP\SOURCE\ASM\main.asm                        PAGE   25

     1297 000000f1 50280041-        ldiu      @CL66,ar0             ; |146| 
     1298 000000f2 506300ff         ldiu      255,r3                ; |146| 
     1299 000000f3 4040c000         ldfu      *ar0,f0               ; |146| 
     1300 000000f4 40020000         ldfu      f0,f2                 ; |146| Move F32 into F40 for CONV
     1301 000000f5 03020003         andn      r3,f2                 ; |146| Bit mask for F32/F40 conversion
     1302 000000f6 08700000-        ldp       @CL67,DP
     1303 000000f7 50630000         ldiu      0,r3                  ; |146| 
     1304 000000f8 50210042-        ldiu      @CL67,r1              ; |146| 
     1305 000000f9 08700000-        ldp       @CL66,DP
     1306 000000fa 507b0000         ldiu      0,rc                  ; |146| 
     1307 000000fb 502a0041-        ldiu      @CL66,ar2             ; |146| 
     1308 000000fc 70000001         callu     r1                    ; far call to _VAR_Update       ; |146| 
     1309                                                           ; |146| Far Call Occurs
     1310                           .line   88
     1311                   ;----------------------------------------------------------------------
     1312                   ; 147 | VAR_Update(&REG_FREQ_OIL_HI,            REG_FREQ_OIL_HI.val,
     1313                   ;     |  0, 0);                                                                
     1314                   ;----------------------------------------------------------------------
     1315 000000fd 08700000-        ldp       @CL68,DP
     1316 000000fe 50280043-        ldiu      @CL68,ar0             ; |147| 
     1317 000000ff 4040c000         ldfu      *ar0,f0               ; |147| 
     1318 00000100 40020000         ldfu      f0,f2                 ; |147| Move F32 into F40 for CONV
     1319 00000101 08700000-        ldp       @CL67,DP
     1320 00000102 506300ff         ldiu      255,r3                ; |147| 
     1321 00000103 03020003         andn      r3,f2                 ; |147| Bit mask for F32/F40 conversion
     1322 00000104 50210042-        ldiu      @CL67,r1              ; |147| 
     1323 00000105 08700000-        ldp       @CL68,DP
     1324 00000106 50630000         ldiu      0,r3                  ; |147| 
     1325 00000107 502a0043-        ldiu      @CL68,ar2             ; |147| 
     1326 00000108 507b0000         ldiu      0,rc                  ; |147| 
     1327 00000109 70000001         callu     r1                    ; far call to _VAR_Update       ; |147| 
     1328                                                           ; |147| Far Call Occurs
     1329                           .line   89
     1330                   ;----------------------------------------------------------------------
     1331                   ; 148 | VAR_Update(&REG_FREQ_WATER_LO,          REG_FREQ_WATER_LO.val,
     1332                   ;     |  0, 0);                                                                
     1333                   ;----------------------------------------------------------------------
     1334 0000010a 08700000-        ldp       @CL69,DP
     1335 0000010b 50280044-        ldiu      @CL69,ar0             ; |148| 
     1336 0000010c 4040c000         ldfu      *ar0,f0               ; |148| 
     1337 0000010d 40020000         ldfu      f0,f2                 ; |148| Move F32 into F40 for CONV
     1338 0000010e 506300ff         ldiu      255,r3                ; |148| 
     1339 0000010f 08700000-        ldp       @CL67,DP
     1340 00000110 03020003         andn      r3,f2                 ; |148| Bit mask for F32/F40 conversion
     1341 00000111 50210042-        ldiu      @CL67,r1              ; |148| 
     1342 00000112 08700000-        ldp       @CL69,DP
     1343 00000113 50630000         ldiu      0,r3                  ; |148| 
     1344 00000114 502a0044-        ldiu      @CL69,ar2             ; |148| 
     1345 00000115 507b0000         ldiu      0,rc                  ; |148| 
     1346 00000116 70000001         callu     r1                    ; far call to _VAR_Update       ; |148| 
     1347                                                           ; |148| Far Call Occurs
     1348                           .line   90
     1349                   ;----------------------------------------------------------------------
     1350                   ; 149 | VAR_Update(&REG_FREQ_WATER_HI,          REG_FREQ_WATER_HI.val,
TMS320C3x/4x COFF AssemblerVersion 5.12     Tue Mar 02 13:03:54 2021
Copyright (c) 1987-1999 Texas Instruments Incorporatedasm30.exe -@_8O8.AAB 

G:\workspace\EEA\V615\APP\SOURCE\ASM\main.asm                        PAGE   26

     1351                   ;     |  0, 0);                                                                
     1352                   ; 150 | //VAR_Update(&REG_LOWSALT_THRESHOLD,    REG_LOWSALT_THRESHOLD.val,
     1353                   ;     |  0, 0);               /*RS*/                                           
     1354                   ; 153 | //required for subversion-nonsubversion compatibilty with IDEC HMI     
     1355                   ; 154 | //prevents IDEC screen freezing, the idea being that it virtually impos
     1356                   ;     | sible for                                                              
     1357                   ; 155 | //lowsalt threshold to randomly be exactly 123.0000000                 
     1358                   ;----------------------------------------------------------------------
     1359 00000117 08700000-        ldp       @CL70,DP
     1360 00000118 50280045-        ldiu      @CL70,ar0             ; |149| 
     1361 00000119 4040c000         ldfu      *ar0,f0               ; |149| 
     1362 0000011a 40020000         ldfu      f0,f2                 ; |149| Move F32 into F40 for CONV
     1363 0000011b 08700000-        ldp       @CL67,DP
     1364 0000011c 506300ff         ldiu      255,r3                ; |149| 
     1365 0000011d 03020003         andn      r3,f2                 ; |149| Bit mask for F32/F40 conversion
     1366 0000011e 50210042-        ldiu      @CL67,r1              ; |149| 
     1367 0000011f 08700000-        ldp       @CL70,DP
     1368 00000120 50630000         ldiu      0,r3                  ; |149| 
     1369 00000121 502a0045-        ldiu      @CL70,ar2             ; |149| 
     1370 00000122 507b0000         ldiu      0,rc                  ; |149| 
     1371 00000123 70000001         callu     r1                    ; far call to _VAR_Update       ; |149| 
     1372                                                           ; |149| Far Call Occurs
     1373                           .line   97
     1374                   ;----------------------------------------------------------------------
     1375                   ; 156 | EXTENDED_FW_VERSION_ENABLE.val          = 123.0;                       
     1376                   ;----------------------------------------------------------------------
     1377 00000124 08700000-        ldp       @CL71,DP
     1378 00000125 50280046-        ldiu      @CL71,ar0             ; |156| 
     1379 00000126 40606760         ldfu      1.2300000000e+02,f0   ; |156| 
     1380 00000127 1440c000         stf       f0,*ar0               ; |156| 
     1381                           .line   98
     1382                   ;----------------------------------------------------------------------
     1383                   ; 157 | EXTENDED_FW_VERSION_ENABLE.calc_val = 123.0;                           
     1384                   ;----------------------------------------------------------------------
     1385 00000128 08700000-        ldp       @CL72,DP
     1386 00000129 50280047-        ldiu      @CL72,ar0             ; |157| 
     1387 0000012a 08700000-        ldp       @CL73+0,DP
     1388 0000012b 40200048-        ldfu      @CL73+0,f0            ; |157| 40b float hi half
     1389 0000012c 08700000-        ldp       @CL73+1,DP
     1390 0000012d 50200049-        ldiu      @CL73+1,r0            ; |157| 40b float lo half
     1391 0000012e 1440c000         stf       f0,*ar0               ; |157| Store high half
     1392 0000012f 15400001         sti       r0,*+ar0              ; |157| Store low half
     1393                           .line   100
     1394                   ;----------------------------------------------------------------------
     1395                   ; 159 | if (DIPSW1)                                                            
     1396                   ;----------------------------------------------------------------------
     1397 00000130 08700000-        ldp       @CL74,DP
     1398 00000131 5028004a-        ldiu      @CL74,ar0             ; |159| 
     1399 00000132 50600010         ldiu      16,r0                 ; |159| 
     1400 00000133 27c000c0         tstb3     *ar0,r0               ; |159| 
     1401 00000134 6a050005         beq       L13                   ; |159| 
     1402                   ;*      Branch Occurs to L13            ; |159| 
     1403                           .line   101
     1404                   ;----------------------------------------------------------------------
TMS320C3x/4x COFF AssemblerVersion 5.12     Tue Mar 02 13:03:54 2021
Copyright (c) 1987-1999 Texas Instruments Incorporatedasm30.exe -@_8O8.AAB 

G:\workspace\EEA\V615\APP\SOURCE\ASM\main.asm                        PAGE   27

     1405                   ; 160 | DIPSWITCH[0] = FALSE;                                                  
     1406                   ; 161 | else                                                                   
     1407                   ;----------------------------------------------------------------------
     1408 00000135 08700000-        ldp       @CL75,DP
     1409 00000136 5028004b-        ldiu      @CL75,ar0             ; |160| 
     1410 00000137 50600000         ldiu      0,r0                  ; |160| 
     1411 00000138 1540c000         sti       r0,*ar0               ; |160| 
     1412 00000139 6a000004         bu        L14                   ; |59| 
     1413                   ;*      Branch Occurs to L14            ; |59| 
     1414 0000013a          L13:        
     1415                           .line   103
     1416                   ;----------------------------------------------------------------------
     1417                   ; 162 | DIPSWITCH[0] = TRUE;                                                   
     1418                   ;----------------------------------------------------------------------
     1419 0000013a 08700000-        ldp       @CL75,DP
     1420 0000013b 5028004b-        ldiu      @CL75,ar0             ; |162| 
     1421 0000013c 50600001         ldiu      1,r0                  ; |162| 
     1422 0000013d 1540c000         sti       r0,*ar0               ; |162| 
     1423 0000013e          L14:        
     1424                           .line   105
     1425                   ;----------------------------------------------------------------------
     1426                   ; 164 | if (DIPSW2)                                                            
     1427                   ;----------------------------------------------------------------------
     1428 0000013e 08700000-        ldp       @CL74,DP
     1429 0000013f 5028004a-        ldiu      @CL74,ar0             ; |164| 
     1430 00000140 50600020         ldiu      32,r0                 ; |164| 
     1431 00000141 27c000c0         tstb3     *ar0,r0               ; |164| 
     1432 00000142 6a050005         beq       L16                   ; |164| 
     1433                   ;*      Branch Occurs to L16            ; |164| 
     1434                           .line   106
     1435                   ;----------------------------------------------------------------------
     1436                   ; 165 | DIPSWITCH[1] = FALSE;                                                  
     1437                   ; 166 | else                                                                   
     1438                   ;----------------------------------------------------------------------
     1439 00000143 08700000-        ldp       @CL76,DP
     1440 00000144 5028004c-        ldiu      @CL76,ar0             ; |165| 
     1441 00000145 50600000         ldiu      0,r0                  ; |165| 
     1442 00000146 1540c000         sti       r0,*ar0               ; |165| 
     1443 00000147 6a000004         bu        L17                   ; |59| 
     1444                   ;*      Branch Occurs to L17            ; |59| 
     1445 00000148          L16:        
     1446                           .line   108
     1447                   ;----------------------------------------------------------------------
     1448                   ; 167 | DIPSWITCH[1] = TRUE;                                                   
     1449                   ;----------------------------------------------------------------------
     1450 00000148 08700000-        ldp       @CL76,DP
     1451 00000149 5028004c-        ldiu      @CL76,ar0             ; |167| 
     1452 0000014a 50600001         ldiu      1,r0                  ; |167| 
     1453 0000014b 1540c000         sti       r0,*ar0               ; |167| 
     1454 0000014c          L17:        
     1455                           .line   110
     1456                   ;----------------------------------------------------------------------
     1457                   ; 169 | REG_TIME                         = 0;                                  
     1458                   ;----------------------------------------------------------------------
TMS320C3x/4x COFF AssemblerVersion 5.12     Tue Mar 02 13:03:54 2021
Copyright (c) 1987-1999 Texas Instruments Incorporatedasm30.exe -@_8O8.AAB 

G:\workspace\EEA\V615\APP\SOURCE\ASM\main.asm                        PAGE   28

     1459 0000014c 08700000-        ldp       @CL77,DP
     1460 0000014d 5028004d-        ldiu      @CL77,ar0             ; |169| 
     1461 0000014e 50600000         ldiu      0,r0                  ; |169| 
     1462 0000014f 1540c000         sti       r0,*ar0               ; |169| 
     1463                           .line   113
     1464                   ;----------------------------------------------------------------------
     1465                   ; 172 | N_TEMP                           = 0;                                  
     1466                   ;----------------------------------------------------------------------
     1467 00000150 08700000-        ldp       @CL78,DP
     1468 00000151 5028004e-        ldiu      @CL78,ar0             ; |172| 
     1469 00000152 1540c000         sti       r0,*ar0               ; |172| 
     1470                           .line   114
     1471                   ;----------------------------------------------------------------------
     1472                   ; 173 | SUM_TEMP                         = 0;                                  
     1473                   ;----------------------------------------------------------------------
     1474 00000153 08700000-        ldp       @CL79,DP
     1475 00000154 5028004f-        ldiu      @CL79,ar0             ; |173| 
     1476 00000155 08700000-        ldp       @CL80+0,DP
     1477 00000156 40200050-        ldfu      @CL80+0,f0            ; |173| 40b float hi half
     1478 00000157 08700000-        ldp       @CL80+1,DP
     1479 00000158 50200051-        ldiu      @CL80+1,r0            ; |173| 40b float lo half
     1480 00000159 1440c000         stf       f0,*ar0               ; |173| Store high half
     1481 0000015a 15400001         sti       r0,*+ar0              ; |173| Store low half
     1482                           .line   115
     1483                   ;----------------------------------------------------------------------
     1484                   ; 174 | AVG_TEMP                         = 0;                                  
     1485                   ;----------------------------------------------------------------------
     1486 0000015b 08700000-        ldp       @CL81,DP
     1487 0000015c 50280052-        ldiu      @CL81,ar0             ; |174| 
     1488 0000015d 08700000-        ldp       @CL80+0,DP
     1489 0000015e 40200050-        ldfu      @CL80+0,f0            ; |174| 40b float hi half
     1490 0000015f 08700000-        ldp       @CL80+1,DP
     1491 00000160 50200051-        ldiu      @CL80+1,r0            ; |174| 40b float lo half
     1492 00000161 1440c000         stf       f0,*ar0               ; |174| Store high half
     1493 00000162 15400001         sti       r0,*+ar0              ; |174| Store low half
     1494                           .line   119
     1495                   ;----------------------------------------------------------------------
     1496                   ; 178 | cycles                           = 0;                                  
     1497                   ;----------------------------------------------------------------------
     1498 00000163 08700000-        ldp       @CL82,DP
     1499 00000164 50280053-        ldiu      @CL82,ar0             ; |178| 
     1500 00000165 50600000         ldiu      0,r0                  ; |178| 
     1501 00000166 1540c000         sti       r0,*ar0               ; |178| 
     1502                           .line   120
     1503                   ;----------------------------------------------------------------------
     1504                   ; 179 | previous_phase           = 0;                                          
     1505                   ;----------------------------------------------------------------------
     1506 00000167 08700000-        ldp       @CL83,DP
     1507 00000168 50280054-        ldiu      @CL83,ar0             ; |179| 
     1508 00000169 1540c000         sti       r0,*ar0               ; |179| 
     1509                           .line   121
     1510                   ;----------------------------------------------------------------------
     1511                   ; 180 | phase                            = 0;                                  
     1512                   ;----------------------------------------------------------------------
TMS320C3x/4x COFF AssemblerVersion 5.12     Tue Mar 02 13:03:54 2021
Copyright (c) 1987-1999 Texas Instruments Incorporatedasm30.exe -@_8O8.AAB 

G:\workspace\EEA\V615\APP\SOURCE\ASM\main.asm                        PAGE   29

     1513 0000016a 08700000-        ldp       @CL84,DP
     1514 0000016b 50280055-        ldiu      @CL84,ar0             ; |180| 
     1515 0000016c 1540c000         sti       r0,*ar0               ; |180| 
     1516                           .line   122
     1517                   ;----------------------------------------------------------------------
     1518                   ; 181 | phase_rollover_count = 0;                                              
     1519                   ;----------------------------------------------------------------------
     1520 0000016d 08700000-        ldp       @CL85,DP
     1521 0000016e 50280056-        ldiu      @CL85,ar0             ; |181| 
     1522 0000016f 1540c000         sti       r0,*ar0               ; |181| 
     1523                           .line   126
     1524                   ;----------------------------------------------------------------------
     1525                   ; 185 | N_WC                             = 1;                                  
     1526                   ;----------------------------------------------------------------------
     1527 00000170 08700000-        ldp       @CL86,DP
     1528 00000171 50280057-        ldiu      @CL86,ar0             ; |185| 
     1529 00000172 50600001         ldiu      1,r0                  ; |185| 
     1530 00000173 1540c000         sti       r0,*ar0               ; |185| 
     1531                           .line   127
     1532                   ;----------------------------------------------------------------------
     1533                   ; 186 | WC_SUM                           = 0;                                  
     1534                   ;----------------------------------------------------------------------
     1535 00000174 08700000-        ldp       @CL87,DP
     1536 00000175 50280058-        ldiu      @CL87,ar0             ; |186| 
     1537 00000176 40608000         ldfu      0.0000000000e+00,f0   ; |186| 
     1538 00000177 1440c000         stf       f0,*ar0               ; |186| 
     1539                           .line   130
     1540                   ;----------------------------------------------------------------------
     1541                   ; 189 | for (i=0;i<31;i++)                                                     
     1542                   ;----------------------------------------------------------------------
     1543 00000178 50600000         ldiu      0,r0                  ; |189| 
     1544 00000179 15400301         sti       r0,*+fp(1)            ; |189| 
     1545 0000017a 40618000         ldfu      0.0000000000e+00,f1   ; |190| 
     1546 0000017b 04e0001f         cmpi      31,r0                 ; |189| 
     1547 0000017c 6a0a0009         bge       L19                   ; |189| 
     1548                   ;*      Branch Occurs to L19            ; |189| 
     1549 0000017d          L18:        
     1550                           .line   131
     1551                   ;----------------------------------------------------------------------
     1552                   ; 190 | WC_SAMPLE[i] = 0;    /*average filter RS*/                             
     1553                   ;----------------------------------------------------------------------
     1554 0000017d 08700000-        ldp       @CL88,DP
     1555 0000017e 50510301         ldiu      *+fp(1),ir0           ; |190| 
     1556 0000017f 50280059-        ldiu      @CL88,ar0             ; |190| 
     1557 00000180 14414000         stf       f1,*+ar0(ir0)         ; |190| 
     1558                           .line   130
     1559 00000181 50600001         ldiu      1,r0                  ; |189| 
     1560 00000182 02400301         addi      *+fp(1),r0            ; |189| 
     1561 00000183 15400301         sti       r0,*+fp(1)            ; |189| 
     1562 00000184 04e0001f         cmpi      31,r0                 ; |189| 
     1563 00000185 6a07fff7         blt       L18                   ; |189| 
     1564                   ;*      Branch Occurs to L18            ; |189| 
     1565 00000186          L19:        
     1566                           .line   134
TMS320C3x/4x COFF AssemblerVersion 5.12     Tue Mar 02 13:03:54 2021
Copyright (c) 1987-1999 Texas Instruments Incorporatedasm30.exe -@_8O8.AAB 

G:\workspace\EEA\V615\APP\SOURCE\ASM\main.asm                        PAGE   30

     1567                   ;----------------------------------------------------------------------
     1568                   ; 193 | N_FREQ                                  = 1;    /* Frequency */        
     1569                   ;----------------------------------------------------------------------
     1570 00000186 08700000-        ldp       @CL89,DP
     1571 00000187 5028005a-        ldiu      @CL89,ar0             ; |193| 
     1572 00000188 50600001         ldiu      1,r0                  ; |193| 
     1573 00000189 1540c000         sti       r0,*ar0               ; |193| 
     1574                           .line   135
     1575                   ;----------------------------------------------------------------------
     1576                   ; 194 | HSALT_FREQ_TRIGGER.val  = TRUE;                                        
     1577                   ; 196 | //VAR_Update(&REG_FREQ_WINDOW,          30.0, 0, 0);                   
     1578                   ;----------------------------------------------------------------------
     1579 0000018a 08700000-        ldp       @CL90,DP
     1580 0000018b 5028005b-        ldiu      @CL90,ar0             ; |194| 
     1581 0000018c 1540c000         sti       r0,*ar0               ; |194| 
     1582                           .line   138
     1583                   ;----------------------------------------------------------------------
     1584                   ; 197 | VAR_Update(&REG_FREQ_VARIANCE_RATIO, 1.5, 0, 0);                       
     1585                   ;----------------------------------------------------------------------
     1586 0000018d 08700000-        ldp       @CL67,DP
     1587 0000018e 50200042-        ldiu      @CL67,r0              ; |197| 
     1588 0000018f 08700000-        ldp       @CL92+0,DP
     1589 00000190 4022005d-        ldfu      @CL92+0,f2            ; |197| 40b float hi half
     1590 00000191 08700000-        ldp       @CL92+1,DP
     1591 00000192 507b0000         ldiu      0,rc                  ; |197| 
     1592 00000193 5022005e-        ldiu      @CL92+1,r2            ; |197| 40b float lo half
     1593 00000194 08700000-        ldp       @CL91,DP
     1594 00000195 50630000         ldiu      0,r3                  ; |197| 
     1595 00000196 502a005c-        ldiu      @CL91,ar2             ; |197| 
     1596 00000197 70000000         callu     r0                    ; far call to _VAR_Update       ; |197| 
     1597                                                           ; |197| Far Call Occurs
     1598                           .line   140
     1599                   ;----------------------------------------------------------------------
     1600                   ; 199 | TEMP_SAMPLE                     = 0;    /* Temperature */              
     1601                   ;----------------------------------------------------------------------
     1602 00000198 08700000-        ldp       @CL93,DP
     1603 00000199 5028005f-        ldiu      @CL93,ar0             ; |199| 
     1604 0000019a 40608000         ldfu      0.0000000000e+00,f0   ; |199| 
     1605 0000019b 1440c000         stf       f0,*ar0               ; |199| 
     1606                           .line   141
     1607                   ;----------------------------------------------------------------------
     1608                   ; 200 | LAST_TEMP_RESET                 = TEMP_SAMPLE;                         
     1609                   ;----------------------------------------------------------------------
     1610 0000019c 5028005f-        ldiu      @CL93,ar0             ; |200| 
     1611 0000019d 08700000-        ldp       @CL94,DP
     1612 0000019e 50290060-        ldiu      @CL94,ar1             ; |200| 
     1613 0000019f 4040c000         ldfu      *ar0,f0               ; |200| 
     1614 000001a0 1440c100         stf       f0,*ar1               ; |200| 
     1615                           .line   142
     1616                   ;----------------------------------------------------------------------
     1617                   ; 201 | HSALT_TEMP_TRIGGER.val  = FALSE;                                       
     1618                   ; 203 | //VAR_Update(&REG_DELTA_TEMP,           3.0,  0, 0);                   
     1619                   ;----------------------------------------------------------------------
     1620 000001a1 08700000-        ldp       @CL95,DP
TMS320C3x/4x COFF AssemblerVersion 5.12     Tue Mar 02 13:03:54 2021
Copyright (c) 1987-1999 Texas Instruments Incorporatedasm30.exe -@_8O8.AAB 

G:\workspace\EEA\V615\APP\SOURCE\ASM\main.asm                        PAGE   31

     1621 000001a2 50280061-        ldiu      @CL95,ar0             ; |201| 
     1622 000001a3 50600000         ldiu      0,r0                  ; |201| 
     1623 000001a4 1540c000         sti       r0,*ar0               ; |201| 
     1624                           .line   148
     1625                   ;----------------------------------------------------------------------
     1626                   ; 207 | GAS_ENTRAINED_DENS_DETECT.val = FALSE;                                 
     1627                   ;----------------------------------------------------------------------
     1628 000001a5 08700000-        ldp       @CL96,DP
     1629 000001a6 50280062-        ldiu      @CL96,ar0             ; |207| 
     1630 000001a7 1540c000         sti       r0,*ar0               ; |207| 
     1631                           .line   150
     1632                   ;----------------------------------------------------------------------
     1633                   ; 209 | gas_routine_reset_needed = TRUE;                                       
     1634                   ;----------------------------------------------------------------------
     1635 000001a8 08700000-        ldp       @CL97,DP
     1636 000001a9 50280063-        ldiu      @CL97,ar0             ; |209| 
     1637 000001aa 50600001         ldiu      1,r0                  ; |209| 
     1638 000001ab 1540c000         sti       r0,*ar0               ; |209| 
     1639                           .line   151
     1640                   ;----------------------------------------------------------------------
     1641                   ; 210 | boxcar_reset_needed = TRUE;                                            
     1642                   ;----------------------------------------------------------------------
     1643 000001ac 08700000-        ldp       @CL98,DP
     1644 000001ad 50280064-        ldiu      @CL98,ar0             ; |210| 
     1645 000001ae 1540c000         sti       r0,*ar0               ; |210| 
     1646                           .line   152
     1647                   ;----------------------------------------------------------------------
     1648                   ; 211 | if ( (ANALYZER_MODE.val & 0xFF) != SUB_CCM )                           
     1649                   ;----------------------------------------------------------------------
     1650 000001af 08700000-        ldp       @CL99,DP
     1651 000001b0 50280065-        ldiu      @CL99,ar0             ; |211| 
     1652 000001b1 506000ff         ldiu      255,r0                ; |211| 
     1653 000001b2 21a0c000         and3      r0,*ar0,r0            ; |211| 
     1654 000001b3 04e00006         cmpi      6,r0                  ; |211| 
     1655 000001b4 6a050005         beq       L21                   ; |211| 
     1656                   ;*      Branch Occurs to L21            ; |211| 
     1657                           .line   154
     1658                   ;----------------------------------------------------------------------
     1659                   ; 213 | REG_WATERCUT_DENSITY.STAT |= var_no_alarm;                             
     1660                   ;----------------------------------------------------------------------
     1661 000001b5 08700000-        ldp       @CL100,DP
     1662 000001b6 50280066-        ldiu      @CL100,ar0            ; |213| 
     1663 000001b7 50600004         ldiu      4,r0                  ; |213| 
     1664 000001b8 25a0c000         or3       r0,*ar0,r0            ; |213| 
     1665 000001b9 1540c000         sti       r0,*ar0               ; |213| 
     1666 000001ba          L21:        
     1667                           .line   160
     1668                   ;----------------------------------------------------------------------
     1669                   ; 219 | TRIM_RTD_LO = FALSE;                                                   
     1670                   ;----------------------------------------------------------------------
     1671 000001ba 08700000-        ldp       @CL101,DP
     1672 000001bb 50280067-        ldiu      @CL101,ar0            ; |219| 
     1673 000001bc 50600000         ldiu      0,r0                  ; |219| 
     1674 000001bd 1540c000         sti       r0,*ar0               ; |219| 
TMS320C3x/4x COFF AssemblerVersion 5.12     Tue Mar 02 13:03:54 2021
Copyright (c) 1987-1999 Texas Instruments Incorporatedasm30.exe -@_8O8.AAB 

G:\workspace\EEA\V615\APP\SOURCE\ASM\main.asm                        PAGE   32

     1675                           .line   161
     1676                   ;----------------------------------------------------------------------
     1677                   ; 220 | TRIM_RTD_HI = FALSE;                                                   
     1678                   ;----------------------------------------------------------------------
     1679 000001be 08700000-        ldp       @CL102,DP
     1680 000001bf 50280068-        ldiu      @CL102,ar0            ; |220| 
     1681 000001c0 1540c000         sti       r0,*ar0               ; |220| 
     1682                           .line   164
     1683                   ;----------------------------------------------------------------------
     1684                   ; 223 | CAP_WATER_STOP.val      = FALSE;                                       
     1685                   ;----------------------------------------------------------------------
     1686 000001c1 08700000-        ldp       @CL103,DP
     1687 000001c2 50280069-        ldiu      @CL103,ar0            ; |223| 
     1688 000001c3 1540c000         sti       r0,*ar0               ; |223| 
     1689                           .line   165
     1690                   ;----------------------------------------------------------------------
     1691                   ; 224 | CAP_OIL_STOP.val        = FALSE;                                       
     1692                   ;----------------------------------------------------------------------
     1693 000001c4 08700000-        ldp       @CL104,DP
     1694 000001c5 5028006a-        ldiu      @CL104,ar0            ; |224| 
     1695 000001c6 1540c000         sti       r0,*ar0               ; |224| 
     1696                           .line   168
     1697                   ;----------------------------------------------------------------------
     1698                   ; 227 | Clear(&PV_SAMPLES);                                                    
     1699                   ;----------------------------------------------------------------------
     1700 000001c7 08700000-        ldp       @CL106,DP
     1701 000001c8 5020006c-        ldiu      @CL106,r0             ; |227| 
     1702 000001c9 08700000-        ldp       @CL105,DP
     1703 000001ca 502a006b-        ldiu      @CL105,ar2            ; |227| 
     1704 000001cb 70000000         callu     r0                    ; far call to _Clear    ; |227| 
     1705                                                           ; |227| Far Call Occurs
     1706                           .line   169
     1707                   ;----------------------------------------------------------------------
     1708                   ; 228 | Clear(&PV_SAMPLES_24hr);                                               
     1709                   ;----------------------------------------------------------------------
     1710 000001cc 08700000-        ldp       @CL106,DP
     1711 000001cd 5020006c-        ldiu      @CL106,r0             ; |228| 
     1712 000001ce 08700000-        ldp       @CL107,DP
     1713 000001cf 502a006d-        ldiu      @CL107,ar2            ; |228| 
     1714 000001d0 70000000         callu     r0                    ; far call to _Clear    ; |228| 
     1715                                                           ; |228| Far Call Occurs
     1716                           .line   170
     1717                   ;----------------------------------------------------------------------
     1718                   ; 229 | Clear(&PV_SAMPLES_5min);                                               
     1719                   ;----------------------------------------------------------------------
     1720 000001d1 08700000-        ldp       @CL106,DP
     1721 000001d2 5020006c-        ldiu      @CL106,r0             ; |229| 
     1722 000001d3 08700000-        ldp       @CL108,DP
     1723 000001d4 502a006e-        ldiu      @CL108,ar2            ; |229| 
     1724 000001d5 70000000         callu     r0                    ; far call to _Clear    ; |229| 
     1725                                                           ; |229| Far Call Occurs
     1726                           .line   172
     1727                   ;----------------------------------------------------------------------
     1728                   ; 231 | PV_SAMPLES.sum          = 0x80000000;           /* force to float 0.0 *
TMS320C3x/4x COFF AssemblerVersion 5.12     Tue Mar 02 13:03:54 2021
Copyright (c) 1987-1999 Texas Instruments Incorporatedasm30.exe -@_8O8.AAB 

G:\workspace\EEA\V615\APP\SOURCE\ASM\main.asm                        PAGE   33

     1729                   ;     | /                                                                      
     1730                   ;----------------------------------------------------------------------
     1731 000001d6 08700000-        ldp       @CL109,DP
     1732 000001d7 5028006f-        ldiu      @CL109,ar0            ; |231| 
     1733 000001d8 08700000-        ldp       @CL110,DP
     1734 000001d9 50200070-        ldiu      @CL110,r0             ; |231| 
     1735 000001da 1540c000         sti       r0,*ar0               ; |231| 
     1736                           .line   173
     1737                   ;----------------------------------------------------------------------
     1738                   ; 232 | PV_SAMPLES_24hr.sum = 0x80000000;       /* force to float 0.0 */       
     1739                   ;----------------------------------------------------------------------
     1740 000001db 08700000-        ldp       @CL111,DP
     1741 000001dc 50280071-        ldiu      @CL111,ar0            ; |232| 
     1742 000001dd 08700000-        ldp       @CL110,DP
     1743 000001de 50200070-        ldiu      @CL110,r0             ; |232| 
     1744 000001df 1540c000         sti       r0,*ar0               ; |232| 
     1745                           .line   174
     1746                   ;----------------------------------------------------------------------
     1747                   ; 233 | REG_PV_AVG_24hr         = 0.0;                                         
     1748                   ;----------------------------------------------------------------------
     1749 000001e0 08700000-        ldp       @CL112,DP
     1750 000001e1 50280072-        ldiu      @CL112,ar0            ; |233| 
     1751 000001e2 40608000         ldfu      0.0000000000e+00,f0   ; |233| 
     1752 000001e3 1440c000         stf       f0,*ar0               ; |233| 
     1753                           .line   175
     1754                   ;----------------------------------------------------------------------
     1755                   ; 234 | PV_SAMPLES_5min.sum = 0x80000000;       /* force to float 0.0 */       
     1756                   ;----------------------------------------------------------------------
     1757 000001e4 08700000-        ldp       @CL113,DP
     1758 000001e5 50280073-        ldiu      @CL113,ar0            ; |234| 
     1759 000001e6 08700000-        ldp       @CL110,DP
     1760 000001e7 50200070-        ldiu      @CL110,r0             ; |234| 
     1761 000001e8 1540c000         sti       r0,*ar0               ; |234| 
     1762                           .line   176
     1763                   ;----------------------------------------------------------------------
     1764                   ; 235 | REG_PV_AVG_5min         = 0.0;                                         
     1765                   ;----------------------------------------------------------------------
     1766 000001e9 08700000-        ldp       @CL114,DP
     1767 000001ea 50280074-        ldiu      @CL114,ar0            ; |235| 
     1768 000001eb 40608000         ldfu      0.0000000000e+00,f0   ; |235| 
     1769 000001ec 1440c000         stf       f0,*ar0               ; |235| 
     1770                           .line   177
     1771                   ;----------------------------------------------------------------------
     1772                   ; 236 | REG_PV_AVG_1sec         = 0.0;                                         
     1773                   ;----------------------------------------------------------------------
     1774 000001ed 08700000-        ldp       @CL115,DP
     1775 000001ee 50280075-        ldiu      @CL115,ar0            ; |236| 
     1776 000001ef 40608000         ldfu      0.0000000000e+00,f0   ; |236| 
     1777 000001f0 1440c000         stf       f0,*ar0               ; |236| 
     1778                           .line   178
     1779                   ;----------------------------------------------------------------------
     1780                   ; 237 | REG_PV_AVG_CNT          = 0;                                           
     1781                   ;----------------------------------------------------------------------
     1782 000001f1 08700000-        ldp       @CL116,DP
TMS320C3x/4x COFF AssemblerVersion 5.12     Tue Mar 02 13:03:54 2021
Copyright (c) 1987-1999 Texas Instruments Incorporatedasm30.exe -@_8O8.AAB 

G:\workspace\EEA\V615\APP\SOURCE\ASM\main.asm                        PAGE   34

     1783 000001f2 50280076-        ldiu      @CL116,ar0            ; |237| 
     1784 000001f3 50600000         ldiu      0,r0                  ; |237| 
     1785 000001f4 1540c000         sti       r0,*ar0               ; |237| 
     1786                           .line   181
     1787                   ;----------------------------------------------------------------------
     1788                   ; 240 | Mirror_From_Stream_Table(NULL_VAR);                                    
     1789                   ;----------------------------------------------------------------------
     1790 000001f5 08700000-        ldp       @CL117,DP
     1791 000001f6 50200077-        ldiu      @CL117,r0             ; |240| 
     1792 000001f7 506a0000         ldiu      0,ar2                 ; |240| 
     1793 000001f8 70000000         callu     r0                    ; far call to _Mirror_From_Stream_Table ; |240| 
     1794                                                           ; |240| Far Call Occurs
     1795                           .line   183
     1796                   ;----------------------------------------------------------------------
     1797                   ; 242 | WC                                              = 0.0;     /*make WC gl
     1798                   ;     | obal: float WC; for store last value when phase error RS*/             
     1799                   ;----------------------------------------------------------------------
     1800 000001f9 08700000-        ldp       @CL118,DP
     1801 000001fa 50280078-        ldiu      @CL118,ar0            ; |242| 
     1802 000001fb 40608000         ldfu      0.0000000000e+00,f0   ; |242| 
     1803 000001fc 1440c000         stf       f0,*ar0               ; |242| 
     1804                           .line   184
     1805                   ;----------------------------------------------------------------------
     1806                   ; 243 | REG_WATERCUT_RAW                = 0.0;                                 
     1807                   ;----------------------------------------------------------------------
     1808 000001fd 08700000-        ldp       @CL119,DP
     1809 000001fe 50280079-        ldiu      @CL119,ar0            ; |243| 
     1810 000001ff 40608000         ldfu      0.0000000000e+00,f0   ; |243| 
     1811 00000200 1440c000         stf       f0,*ar0               ; |243| 
     1812                           .line   185
     1813                   ;----------------------------------------------------------------------
     1814                   ; 244 | REG_CAL_OIL.calc_val    = 0.0;                                         
     1815                   ;----------------------------------------------------------------------
     1816 00000201 08700000-        ldp       @CL120,DP
     1817 00000202 5028007a-        ldiu      @CL120,ar0            ; |244| 
     1818 00000203 08700000-        ldp       @CL80+0,DP
     1819 00000204 40200050-        ldfu      @CL80+0,f0            ; |244| 40b float hi half
     1820 00000205 08700000-        ldp       @CL80+1,DP
     1821 00000206 50200051-        ldiu      @CL80+1,r0            ; |244| 40b float lo half
     1822 00000207 1440c000         stf       f0,*ar0               ; |244| Store high half
     1823 00000208 15400001         sti       r0,*+ar0              ; |244| Store low half
     1824                           .line   186
     1825                   ;----------------------------------------------------------------------
     1826                   ; 245 | REG_CAL_OIL.val                 = 0.0;                                 
     1827                   ;----------------------------------------------------------------------
     1828 00000209 08700000-        ldp       @CL121,DP
     1829 0000020a 5028007b-        ldiu      @CL121,ar0            ; |245| 
     1830 0000020b 40608000         ldfu      0.0000000000e+00,f0   ; |245| 
     1831 0000020c 1440c000         stf       f0,*ar0               ; |245| 
     1832                           .line   187
     1833                   ;----------------------------------------------------------------------
     1834                   ; 246 | REG_CAL_WATER.calc_val  = 0.0;                                         
     1835                   ;----------------------------------------------------------------------
     1836 0000020d 08700000-        ldp       @CL122,DP
TMS320C3x/4x COFF AssemblerVersion 5.12     Tue Mar 02 13:03:54 2021
Copyright (c) 1987-1999 Texas Instruments Incorporatedasm30.exe -@_8O8.AAB 

G:\workspace\EEA\V615\APP\SOURCE\ASM\main.asm                        PAGE   35

     1837 0000020e 5028007c-        ldiu      @CL122,ar0            ; |246| 
     1838 0000020f 08700000-        ldp       @CL80+0,DP
     1839 00000210 40200050-        ldfu      @CL80+0,f0            ; |246| 40b float hi half
     1840 00000211 08700000-        ldp       @CL80+1,DP
     1841 00000212 50200051-        ldiu      @CL80+1,r0            ; |246| 40b float lo half
     1842 00000213 1440c000         stf       f0,*ar0               ; |246| Store high half
     1843 00000214 15400001         sti       r0,*+ar0              ; |246| Store low half
     1844                           .line   188
     1845                   ;----------------------------------------------------------------------
     1846                   ; 247 | REG_CAL_WATER.val               = 0.0;                                 
     1847                   ;----------------------------------------------------------------------
     1848 00000215 08700000-        ldp       @CL123,DP
     1849 00000216 5028007d-        ldiu      @CL123,ar0            ; |247| 
     1850 00000217 40608000         ldfu      0.0000000000e+00,f0   ; |247| 
     1851 00000218 1440c000         stf       f0,*ar0               ; |247| 
     1852                           .line   190
     1853                   ;----------------------------------------------------------------------
     1854                   ; 249 | VAR_Update(&REG_EMULSION_PHASE, 2.0, 0, 0);                            
     1855                   ;----------------------------------------------------------------------
     1856 00000219 08700000-        ldp       @CL67,DP
     1857 0000021a 50200042-        ldiu      @CL67,r0              ; |249| 
     1858 0000021b 08700000-        ldp       @CL125+0,DP
     1859 0000021c 4022007f-        ldfu      @CL125+0,f2           ; |249| 40b float hi half
     1860 0000021d 08700000-        ldp       @CL125+1,DP
     1861 0000021e 50220080-        ldiu      @CL125+1,r2           ; |249| 40b float lo half
     1862 0000021f 08700000-        ldp       @CL124,DP
     1863 00000220 507b0000         ldiu      0,rc                  ; |249| 
     1864 00000221 50630000         ldiu      0,r3                  ; |249| 
     1865 00000222 502a007e-        ldiu      @CL124,ar2            ; |249| 
     1866 00000223 70000000         callu     r0                    ; far call to _VAR_Update       ; |249| 
     1867                                                           ; |249| Far Call Occurs
     1868                           .line   191
     1869                   ;----------------------------------------------------------------------
     1870                   ; 250 | VAR_NaN(&REG_WATERCUT);                                                
     1871                   ;----------------------------------------------------------------------
     1872 00000224 08700000-        ldp       @CL127,DP
     1873 00000225 50200082-        ldiu      @CL127,r0             ; |250| 
     1874 00000226 08700000-        ldp       @CL126,DP
     1875 00000227 502a0081-        ldiu      @CL126,ar2            ; |250| 
     1876 00000228 70000000         callu     r0                    ; far call to _VAR_NaN  ; |250| 
     1877                                                           ; |250| Far Call Occurs
     1878                           .line   192
     1879                   ;----------------------------------------------------------------------
     1880                   ; 251 | VAR_NaN(&REG_TEMPERATURE_USER);                                        
     1881                   ;----------------------------------------------------------------------
     1882 00000229 08700000-        ldp       @CL127,DP
     1883 0000022a 50200082-        ldiu      @CL127,r0             ; |251| 
     1884 0000022b 08700000-        ldp       @CL128,DP
     1885 0000022c 502a0083-        ldiu      @CL128,ar2            ; |251| 
     1886 0000022d 70000000         callu     r0                    ; far call to _VAR_NaN  ; |251| 
     1887                                                           ; |251| Far Call Occurs
     1888                           .line   193
     1889                   ;----------------------------------------------------------------------
     1890                   ; 252 | VAR_NaN(&REG_TEMPERATURE_AVG);/*RS*/                                   
TMS320C3x/4x COFF AssemblerVersion 5.12     Tue Mar 02 13:03:54 2021
Copyright (c) 1987-1999 Texas Instruments Incorporatedasm30.exe -@_8O8.AAB 

G:\workspace\EEA\V615\APP\SOURCE\ASM\main.asm                        PAGE   36

     1891                   ;----------------------------------------------------------------------
     1892 0000022e 08700000-        ldp       @CL127,DP
     1893 0000022f 50200082-        ldiu      @CL127,r0             ; |252| 
     1894 00000230 08700000-        ldp       @CL129,DP
     1895 00000231 502a0084-        ldiu      @CL129,ar2            ; |252| 
     1896 00000232 70000000         callu     r0                    ; far call to _VAR_NaN  ; |252| 
     1897                                                           ; |252| Far Call Occurs
     1898                           .line   194
     1899                   ;----------------------------------------------------------------------
     1900                   ; 253 | VAR_NaN(&REG_TEMPERATURE_EXTERNAL);                                    
     1901                   ;----------------------------------------------------------------------
     1902 00000233 08700000-        ldp       @CL127,DP
     1903 00000234 50200082-        ldiu      @CL127,r0             ; |253| 
     1904 00000235 08700000-        ldp       @CL130,DP
     1905 00000236 502a0085-        ldiu      @CL130,ar2            ; |253| 
     1906 00000237 70000000         callu     r0                    ; far call to _VAR_NaN  ; |253| 
     1907                                                           ; |253| Far Call Occurs
     1908                           .line   195
     1909                   ;----------------------------------------------------------------------
     1910                   ; 254 | VAR_NaN(&REG_DUMMY);                                                   
     1911                   ;----------------------------------------------------------------------
     1912 00000238 08700000-        ldp       @CL127,DP
     1913 00000239 50200082-        ldiu      @CL127,r0             ; |254| 
     1914 0000023a 08700000-        ldp       @CL131,DP
     1915 0000023b 502a0086-        ldiu      @CL131,ar2            ; |254| 
     1916 0000023c 70000000         callu     r0                    ; far call to _VAR_NaN  ; |254| 
     1917                                                           ; |254| Far Call Occurs
     1918                           .line   198
     1919                   ;----------------------------------------------------------------------
     1920                   ; 257 | VAR_SELECT_DVIN.val     = 0;                                           
     1921                   ;----------------------------------------------------------------------
     1922 0000023d 08700000-        ldp       @CL132,DP
     1923 0000023e 50280087-        ldiu      @CL132,ar0            ; |257| 
     1924 0000023f 50600000         ldiu      0,r0                  ; |257| 
     1925 00000240 1540c000         sti       r0,*ar0               ; |257| 
     1926                           .line   199
     1927                   ;----------------------------------------------------------------------
     1928                   ; 258 | VAR_SELECT_DVIN.vect    = (int*)VAR_SET_STR_DVIN;                      
     1929                   ;----------------------------------------------------------------------
     1930 00000241 08700000-        ldp       @CL133,DP
     1931 00000242 50280088-        ldiu      @CL133,ar0            ; |258| 
     1932 00000243 08700000-        ldp       @CL134,DP
     1933 00000244 50200089-        ldiu      @CL134,r0             ; |258| 
     1934 00000245 1540c000         sti       r0,*ar0               ; |258| 
     1935                           .line   200
     1936                   ;----------------------------------------------------------------------
     1937                   ; 259 | VAR_SELECT_DV.val               = 0;                                   
     1938                   ;----------------------------------------------------------------------
     1939 00000246 08700000-        ldp       @CL135,DP
     1940 00000247 5028008a-        ldiu      @CL135,ar0            ; |259| 
     1941 00000248 50600000         ldiu      0,r0                  ; |259| 
     1942 00000249 1540c000         sti       r0,*ar0               ; |259| 
     1943                           .line   201
     1944                   ;----------------------------------------------------------------------
TMS320C3x/4x COFF AssemblerVersion 5.12     Tue Mar 02 13:03:54 2021
Copyright (c) 1987-1999 Texas Instruments Incorporatedasm30.exe -@_8O8.AAB 

G:\workspace\EEA\V615\APP\SOURCE\ASM\main.asm                        PAGE   37

     1945                   ; 260 | VAR_SELECT_DV.vect              = (int*)VAR_SET_STR_DV;                
     1946                   ;----------------------------------------------------------------------
     1947 0000024a 08700000-        ldp       @CL136,DP
     1948 0000024b 5028008b-        ldiu      @CL136,ar0            ; |260| 
     1949 0000024c 08700000-        ldp       @CL137,DP
     1950 0000024d 5020008c-        ldiu      @CL137,r0             ; |260| 
     1951 0000024e 1540c000         sti       r0,*ar0               ; |260| 
     1952                           .line   203
     1953                   ;----------------------------------------------------------------------
     1954                   ; 262 | VAR_SET_STR_DV(0);                                                     
     1955                   ;----------------------------------------------------------------------
     1956 0000024f 506a0000         ldiu      0,ar2                 ; |262| 
     1957 00000250 5020008c-        ldiu      @CL137,r0             ; |262| 
     1958 00000251 70000000         callu     r0                    ; far call to _VAR_SET_STR_DV   ; |262| 
     1959                                                           ; |262| Far Call Occurs
     1960                           .line   206
     1961                   ;----------------------------------------------------------------------
     1962                   ; 265 | for (i=0;i<AO_NLOOPS;i++)                                              
     1963                   ;----------------------------------------------------------------------
     1964 00000252 50600000         ldiu      0,r0                  ; |265| 
     1965 00000253 15400301         sti       r0,*+fp(1)            ; |265| 
     1966 00000254 04e00009         cmpi      9,r0                  ; |265| 
     1967 00000255 6a0a0010         bge       L24                   ; |265| 
     1968                   ;*      Branch Occurs to L24            ; |265| 
     1969 00000256          L23:        
     1970                           .line   208
     1971                   ;----------------------------------------------------------------------
     1972                   ; 267 | VAR_NaN(&AO[i].CURRENT_PERCENT_OF_RANGE);                              
     1973                   ;----------------------------------------------------------------------
     1974 00000256 504a0301         ldiu      *+fp(1),ar2           ; |267| 
     1975 00000257 08700000-        ldp       @CL138,DP
     1976 00000258 0aea01a3         mpyi      419,ar2               ; |267| 
     1977 00000259 022a008d-        addi      @CL138,ar2            ; |267| Unsigned
     1978 0000025a 08700000-        ldp       @CL127,DP
     1979 0000025b 50200082-        ldiu      @CL127,r0             ; |267| 
     1980 0000025c 70000000         callu     r0                    ; far call to _VAR_NaN  ; |267| 
     1981                                                           ; |267| Far Call Occurs
     1982                           .line   209
     1983                   ;----------------------------------------------------------------------
     1984                   ; 268 | PID_Init(i);                                                           
     1985                   ;----------------------------------------------------------------------
     1986 0000025d 08700000-        ldp       @CL139,DP
     1987 0000025e 5020008e-        ldiu      @CL139,r0             ; |268| 
     1988 0000025f 504a0301         ldiu      *+fp(1),ar2           ; |268| 
     1989 00000260 70000000         callu     r0                    ; far call to _PID_Init ; |268| 
     1990                                                           ; |268| Far Call Occurs
     1991                           .line   206
     1992 00000261 50600001         ldiu      1,r0                  ; |265| 
     1993 00000262 02400301         addi      *+fp(1),r0            ; |265| 
     1994 00000263 15400301         sti       r0,*+fp(1)            ; |265| 
     1995 00000264 04e00009         cmpi      9,r0                  ; |265| 
     1996 00000265 6a07fff0         blt       L23                   ; |265| 
     1997                   ;*      Branch Occurs to L23            ; |265| 
     1998 00000266          L24:        
TMS320C3x/4x COFF AssemblerVersion 5.12     Tue Mar 02 13:03:54 2021
Copyright (c) 1987-1999 Texas Instruments Incorporatedasm30.exe -@_8O8.AAB 

G:\workspace\EEA\V615\APP\SOURCE\ASM\main.asm                        PAGE   38

     1999                           .line   212
     2000                   ;----------------------------------------------------------------------
     2001                   ; 271 | for (i=0;i<AI_NLOOPS;i++)                                              
     2002                   ;----------------------------------------------------------------------
     2003 00000266 50600000         ldiu      0,r0                  ; |271| 
     2004 00000267 15400301         sti       r0,*+fp(1)            ; |271| 
     2005 00000268 04e00005         cmpi      5,r0                  ; |271| 
     2006 00000269 6a0a0022         bge       L26                   ; |271| 
     2007                   ;*      Branch Occurs to L26            ; |271| 
     2008 0000026a          L25:        
     2009                           .line   214
     2010                   ;----------------------------------------------------------------------
     2011                   ; 273 | VAR_NaN(&AI[i].VALUE);                                                 
     2012                   ;----------------------------------------------------------------------
     2013 0000026a 504a0301         ldiu      *+fp(1),ar2           ; |273| 
     2014 0000026b 08700000-        ldp       @CL140,DP
     2015 0000026c 0aea013e         mpyi      318,ar2               ; |273| 
     2016 0000026d 022a008f-        addi      @CL140,ar2            ; |273| Unsigned
     2017 0000026e 08700000-        ldp       @CL127,DP
     2018 0000026f 50200082-        ldiu      @CL127,r0             ; |273| 
     2019 00000270 70000000         callu     r0                    ; far call to _VAR_NaN  ; |273| 
     2020                                                           ; |273| Far Call Occurs
     2021                           .line   215
     2022                   ;----------------------------------------------------------------------
     2023                   ; 274 | VAR_NaN(&AI[i].CURRENT);                                               
     2024                   ;----------------------------------------------------------------------
     2025 00000271 08700000-        ldp       @CL141,DP
     2026 00000272 504a0301         ldiu      *+fp(1),ar2           ; |274| 
     2027 00000273 0aea013e         mpyi      318,ar2               ; |274| 
     2028 00000274 022a0090-        addi      @CL141,ar2            ; |274| Unsigned
     2029 00000275 08700000-        ldp       @CL127,DP
     2030 00000276 50200082-        ldiu      @CL127,r0             ; |274| 
     2031 00000277 70000000         callu     r0                    ; far call to _VAR_NaN  ; |274| 
     2032                                                           ; |274| Far Call Occurs
     2033                           .line   216
     2034                   ;----------------------------------------------------------------------
     2035                   ; 275 | VAR_NaN(&AI[i].CURRENT_PERCENT_OF_RANGE);                              
     2036                   ;----------------------------------------------------------------------
     2037 00000278 08700000-        ldp       @CL142,DP
     2038 00000279 504a0301         ldiu      *+fp(1),ar2           ; |275| 
     2039 0000027a 0aea013e         mpyi      318,ar2               ; |275| 
     2040 0000027b 022a0091-        addi      @CL142,ar2            ; |275| Unsigned
     2041 0000027c 08700000-        ldp       @CL127,DP
     2042 0000027d 50200082-        ldiu      @CL127,r0             ; |275| 
     2043 0000027e 70000000         callu     r0                    ; far call to _VAR_NaN  ; |275| 
     2044                                                           ; |275| Far Call Occurs
     2045                           .line   218
     2046                   ;----------------------------------------------------------------------
     2047                   ; 277 | AI[i].val = NaN_val_flt;                                               
     2048                   ;----------------------------------------------------------------------
     2049 0000027f 08700000-        ldp       @CL144,DP
     2050 00000280 50510301         ldiu      *+fp(1),ir0           ; |277| 
     2051 00000281 50280093-        ldiu      @CL144,ar0            ; |277| 
     2052 00000282 08700000-        ldp       @CL143,DP
TMS320C3x/4x COFF AssemblerVersion 5.12     Tue Mar 02 13:03:54 2021
Copyright (c) 1987-1999 Texas Instruments Incorporatedasm30.exe -@_8O8.AAB 

G:\workspace\EEA\V615\APP\SOURCE\ASM\main.asm                        PAGE   39

     2053 00000283 0af1013e         mpyi      318,ir0               ; |277| 
     2054 00000284 50290092-        ldiu      @CL143,ar1            ; |277| 
     2055 00000285 05c0c000         float     *ar0,f0               ; |277| 
     2056 00000286 14404100         stf       f0,*+ar1(ir0)         ; |277| 
     2057                           .line   212
     2058 00000287 50600001         ldiu      1,r0                  ; |271| 
     2059 00000288 02400301         addi      *+fp(1),r0            ; |271| 
     2060 00000289 15400301         sti       r0,*+fp(1)            ; |271| 
     2061 0000028a 04e00005         cmpi      5,r0                  ; |271| 
     2062 0000028b 6a07ffde         blt       L25                   ; |271| 
     2063                   ;*      Branch Occurs to L25            ; |271| 
     2064 0000028c          L26:        
     2065                           .line   221
     2066                   ;----------------------------------------------------------------------
     2067                   ; 280 | i_CCM_Level_Setpoint    = 0;                                           
     2068                   ;----------------------------------------------------------------------
     2069 0000028c 08700000-        ldp       @CL145,DP
     2070 0000028d 50280094-        ldiu      @CL145,ar0            ; |280| 
     2071 0000028e 50600000         ldiu      0,r0                  ; |280| 
     2072 0000028f 1540c000         sti       r0,*ar0               ; |280| 
     2073                           .line   222
     2074                   ;----------------------------------------------------------------------
     2075                   ; 281 | i_CCM_Level                     = 0;                                   
     2076                   ;----------------------------------------------------------------------
     2077 00000290 08700000-        ldp       @CL146,DP
     2078 00000291 50280095-        ldiu      @CL146,ar0            ; |281| 
     2079 00000292 1540c000         sti       r0,*ar0               ; |281| 
     2080                           .line   223
     2081                   ;----------------------------------------------------------------------
     2082                   ; 282 | i_CCM_Pressure_Setpoint = 0;                                           
     2083                   ;----------------------------------------------------------------------
     2084 00000293 08700000-        ldp       @CL147,DP
     2085 00000294 50280096-        ldiu      @CL147,ar0            ; |282| 
     2086 00000295 1540c000         sti       r0,*ar0               ; |282| 
     2087                           .line   224
     2088                   ;----------------------------------------------------------------------
     2089                   ; 283 | i_CCM_Pressure                  = 0;                                   
     2090                   ;----------------------------------------------------------------------
     2091 00000296 08700000-        ldp       @CL148,DP
     2092 00000297 50280097-        ldiu      @CL148,ar0            ; |283| 
     2093 00000298 1540c000         sti       r0,*ar0               ; |283| 
     2094                           .line   225
     2095                   ;----------------------------------------------------------------------
     2096                   ; 284 | i_CCM_Gas_Valve                 = 0;                                   
     2097                   ;----------------------------------------------------------------------
     2098 00000299 08700000-        ldp       @CL149,DP
     2099 0000029a 50280098-        ldiu      @CL149,ar0            ; |284| 
     2100 0000029b 1540c000         sti       r0,*ar0               ; |284| 
     2101                           .line   226
     2102                   ;----------------------------------------------------------------------
     2103                   ; 285 | i_CCM_Liquid_Valve              = 0;                                   
     2104                   ;----------------------------------------------------------------------
     2105 0000029c 08700000-        ldp       @CL150,DP
     2106 0000029d 50280099-        ldiu      @CL150,ar0            ; |285| 
TMS320C3x/4x COFF AssemblerVersion 5.12     Tue Mar 02 13:03:54 2021
Copyright (c) 1987-1999 Texas Instruments Incorporatedasm30.exe -@_8O8.AAB 

G:\workspace\EEA\V615\APP\SOURCE\ASM\main.asm                        PAGE   40

     2107 0000029e 1540c000         sti       r0,*ar0               ; |285| 
     2108                           .line   227
     2109                   ;----------------------------------------------------------------------
     2110                   ; 286 | i_CCM_Flow                              = 0;                           
     2111                   ;----------------------------------------------------------------------
     2112 0000029f 08700000-        ldp       @CL151,DP
     2113 000002a0 5028009a-        ldiu      @CL151,ar0            ; |286| 
     2114 000002a1 1540c000         sti       r0,*ar0               ; |286| 
     2115                           .line   228
     2116                   ;----------------------------------------------------------------------
     2117                   ; 287 | i_CCM_Flow_Oil                  = 0;                                   
     2118                   ;----------------------------------------------------------------------
     2119 000002a2 08700000-        ldp       @CL152,DP
     2120 000002a3 5028009b-        ldiu      @CL152,ar0            ; |287| 
     2121 000002a4 1540c000         sti       r0,*ar0               ; |287| 
     2122                           .line   229
     2123                   ;----------------------------------------------------------------------
     2124                   ; 288 | i_CCM_Flow_Water                = 0;                                   
     2125                   ;----------------------------------------------------------------------
     2126 000002a5 08700000-        ldp       @CL153,DP
     2127 000002a6 5028009c-        ldiu      @CL153,ar0            ; |288| 
     2128 000002a7 1540c000         sti       r0,*ar0               ; |288| 
     2129                           .line   230
     2130                   ;----------------------------------------------------------------------
     2131                   ; 289 | i_CCM_Flow_Gas                  = 0;                                   
     2132                   ;----------------------------------------------------------------------
     2133 000002a8 08700000-        ldp       @CL154,DP
     2134 000002a9 5028009d-        ldiu      @CL154,ar0            ; |289| 
     2135 000002aa 1540c000         sti       r0,*ar0               ; |289| 
     2136                           .line   231
     2137                   ;----------------------------------------------------------------------
     2138                   ; 290 | CCM_24_GAS                              = 0.0;                         
     2139                   ;----------------------------------------------------------------------
     2140 000002ab 08700000-        ldp       @CL155,DP
     2141 000002ac 5028009e-        ldiu      @CL155,ar0            ; |290| 
     2142 000002ad 40608000         ldfu      0.0000000000e+00,f0   ; |290| 
     2143 000002ae 1440c000         stf       f0,*ar0               ; |290| 
     2144                           .line   232
     2145                   ;----------------------------------------------------------------------
     2146                   ; 291 | CCM_24_TOTAL                    = 0.0;                                 
     2147                   ;----------------------------------------------------------------------
     2148 000002af 08700000-        ldp       @CL156,DP
     2149 000002b0 5028009f-        ldiu      @CL156,ar0            ; |291| 
     2150 000002b1 40608000         ldfu      0.0000000000e+00,f0   ; |291| 
     2151 000002b2 1440c000         stf       f0,*ar0               ; |291| 
     2152                           .line   233
     2153                   ;----------------------------------------------------------------------
     2154                   ; 292 | CCM_24_OIL                              = 0.0;                         
     2155                   ;----------------------------------------------------------------------
     2156 000002b3 08700000-        ldp       @CL157,DP
     2157 000002b4 502800a0-        ldiu      @CL157,ar0            ; |292| 
     2158 000002b5 40608000         ldfu      0.0000000000e+00,f0   ; |292| 
     2159 000002b6 1440c000         stf       f0,*ar0               ; |292| 
     2160                           .line   234
TMS320C3x/4x COFF AssemblerVersion 5.12     Tue Mar 02 13:03:54 2021
Copyright (c) 1987-1999 Texas Instruments Incorporatedasm30.exe -@_8O8.AAB 

G:\workspace\EEA\V615\APP\SOURCE\ASM\main.asm                        PAGE   41

     2161                   ;----------------------------------------------------------------------
     2162                   ; 293 | CCM_24_WATER                    = 0.0;                                 
     2163                   ;----------------------------------------------------------------------
     2164 000002b7 08700000-        ldp       @CL158,DP
     2165 000002b8 502800a1-        ldiu      @CL158,ar0            ; |293| 
     2166 000002b9 40608000         ldfu      0.0000000000e+00,f0   ; |293| 
     2167 000002ba 1440c000         stf       f0,*ar0               ; |293| 
     2168                           .line   235
     2169                   ;----------------------------------------------------------------------
     2170                   ; 294 | CCM_REMAINING                   = 0.0;                                 
     2171                   ;----------------------------------------------------------------------
     2172 000002bb 08700000-        ldp       @CL159,DP
     2173 000002bc 502800a2-        ldiu      @CL159,ar0            ; |294| 
     2174 000002bd 40608000         ldfu      0.0000000000e+00,f0   ; |294| 
     2175 000002be 1440c000         stf       f0,*ar0               ; |294| 
     2176                           .line   236
     2177                   ;----------------------------------------------------------------------
     2178                   ; 295 | CCM_REMAINING_S                 = 0.0;                                 
     2179                   ;----------------------------------------------------------------------
     2180 000002bf 08700000-        ldp       @CL160,DP
     2181 000002c0 502800a3-        ldiu      @CL160,ar0            ; |295| 
     2182 000002c1 40608000         ldfu      0.0000000000e+00,f0   ; |295| 
     2183 000002c2 1440c000         stf       f0,*ar0               ; |295| 
     2184                           .line   237
     2185                   ;----------------------------------------------------------------------
     2186                   ; 296 | CCM_ELAPSED_S                   = 0.0;                                 
     2187                   ;----------------------------------------------------------------------
     2188 000002c3 08700000-        ldp       @CL161,DP
     2189 000002c4 502800a4-        ldiu      @CL161,ar0            ; |296| 
     2190 000002c5 40608000         ldfu      0.0000000000e+00,f0   ; |296| 
     2191 000002c6 1440c000         stf       f0,*ar0               ; |296| 
     2192                           .line   238
     2193                   ;----------------------------------------------------------------------
     2194                   ; 297 | DIO_CCM_START.val               = FALSE;                               
     2195                   ;----------------------------------------------------------------------
     2196 000002c7 08700000-        ldp       @CL162,DP
     2197 000002c8 502800a5-        ldiu      @CL162,ar0            ; |297| 
     2198 000002c9 50600000         ldiu      0,r0                  ; |297| 
     2199 000002ca 1540c000         sti       r0,*ar0               ; |297| 
     2200                           .line   239
     2201                   ;----------------------------------------------------------------------
     2202                   ; 298 | DIO_CCM_PURGE_STAT.val  = FALSE;                                       
     2203                   ;----------------------------------------------------------------------
     2204 000002cb 08700000-        ldp       @CL163,DP
     2205 000002cc 502800a6-        ldiu      @CL163,ar0            ; |298| 
     2206 000002cd 1540c000         sti       r0,*ar0               ; |298| 
     2207                           .line   240
     2208                   ;----------------------------------------------------------------------
     2209                   ; 299 | REG_CCM_TEST_STAT.val   = 0;  /*logging test status RS*/               
     2210                   ;----------------------------------------------------------------------
     2211 000002ce 08700000-        ldp       @CL164,DP
     2212 000002cf 502800a7-        ldiu      @CL164,ar0            ; |299| 
     2213 000002d0 40608000         ldfu      0.0000000000e+00,f0   ; |299| 
     2214 000002d1 1440c000         stf       f0,*ar0               ; |299| 
TMS320C3x/4x COFF AssemblerVersion 5.12     Tue Mar 02 13:03:54 2021
Copyright (c) 1987-1999 Texas Instruments Incorporatedasm30.exe -@_8O8.AAB 

G:\workspace\EEA\V615\APP\SOURCE\ASM\main.asm                        PAGE   42

     2215                           .line   241
     2216                   ;----------------------------------------------------------------------
     2217                   ; 300 | REG_CCM_PURGE_STAT.val  = 0; /*logging purge status RS*/               
     2218                   ;----------------------------------------------------------------------
     2219 000002d2 08700000-        ldp       @CL165,DP
     2220 000002d3 502800a8-        ldiu      @CL165,ar0            ; |300| 
     2221 000002d4 40608000         ldfu      0.0000000000e+00,f0   ; |300| 
     2222 000002d5 1440c000         stf       f0,*ar0               ; |300| 
     2223                           .line   243
     2224                   ;----------------------------------------------------------------------
     2225                   ; 302 | VAR_NaN(&CCM_GAS_FLOW);                                                
     2226                   ;----------------------------------------------------------------------
     2227 000002d6 08700000-        ldp       @CL127,DP
     2228 000002d7 50200082-        ldiu      @CL127,r0             ; |302| 
     2229 000002d8 08700000-        ldp       @CL166,DP
     2230 000002d9 502a00a9-        ldiu      @CL166,ar2            ; |302| 
     2231 000002da 70000000         callu     r0                    ; far call to _VAR_NaN  ; |302| 
     2232                                                           ; |302| Far Call Occurs
     2233                           .line   244
     2234                   ;----------------------------------------------------------------------
     2235                   ; 303 | VAR_NaN(&CCM_GAS_TOTAL);                                               
     2236                   ;----------------------------------------------------------------------
     2237 000002db 08700000-        ldp       @CL127,DP
     2238 000002dc 50200082-        ldiu      @CL127,r0             ; |303| 
     2239 000002dd 08700000-        ldp       @CL167,DP
     2240 000002de 502a00aa-        ldiu      @CL167,ar2            ; |303| 
     2241 000002df 70000000         callu     r0                    ; far call to _VAR_NaN  ; |303| 
     2242                                                           ; |303| Far Call Occurs
     2243                           .line   245
     2244                   ;----------------------------------------------------------------------
     2245                   ; 304 | VAR_NaN(&CCM_VESSEL_LEVEL[0]);                                         
     2246                   ;----------------------------------------------------------------------
     2247 000002e0 08700000-        ldp       @CL127,DP
     2248 000002e1 50200082-        ldiu      @CL127,r0             ; |304| 
     2249 000002e2 08700000-        ldp       @CL168,DP
     2250 000002e3 502a00ab-        ldiu      @CL168,ar2            ; |304| 
     2251 000002e4 70000000         callu     r0                    ; far call to _VAR_NaN  ; |304| 
     2252                                                           ; |304| Far Call Occurs
     2253                           .line   246
     2254                   ;----------------------------------------------------------------------
     2255                   ; 305 | VAR_NaN(&CCM_VESSEL_LEVEL[1]);                                         
     2256                   ;----------------------------------------------------------------------
     2257 000002e5 08700000-        ldp       @CL127,DP
     2258 000002e6 50200082-        ldiu      @CL127,r0             ; |305| 
     2259 000002e7 08700000-        ldp       @CL169,DP
     2260 000002e8 502a00ac-        ldiu      @CL169,ar2            ; |305| 
     2261 000002e9 70000000         callu     r0                    ; far call to _VAR_NaN  ; |305| 
     2262                                                           ; |305| Far Call Occurs
     2263                           .line   247
     2264                   ;----------------------------------------------------------------------
     2265                   ; 306 | VAR_NaN(&CCM_VESSEL_PRESSURE[0]);                                      
     2266                   ;----------------------------------------------------------------------
     2267 000002ea 08700000-        ldp       @CL127,DP
     2268 000002eb 50200082-        ldiu      @CL127,r0             ; |306| 
TMS320C3x/4x COFF AssemblerVersion 5.12     Tue Mar 02 13:03:54 2021
Copyright (c) 1987-1999 Texas Instruments Incorporatedasm30.exe -@_8O8.AAB 

G:\workspace\EEA\V615\APP\SOURCE\ASM\main.asm                        PAGE   43

     2269 000002ec 08700000-        ldp       @CL170,DP
     2270 000002ed 502a00ad-        ldiu      @CL170,ar2            ; |306| 
     2271 000002ee 70000000         callu     r0                    ; far call to _VAR_NaN  ; |306| 
     2272                                                           ; |306| Far Call Occurs
     2273                           .line   248
     2274                   ;----------------------------------------------------------------------
     2275                   ; 307 | VAR_NaN(&CCM_VESSEL_PRESSURE[1]);                                      
     2276                   ;----------------------------------------------------------------------
     2277 000002ef 08700000-        ldp       @CL127,DP
     2278 000002f0 50200082-        ldiu      @CL127,r0             ; |307| 
     2279 000002f1 08700000-        ldp       @CL171,DP
     2280 000002f2 502a00ae-        ldiu      @CL171,ar2            ; |307| 
     2281 000002f3 70000000         callu     r0                    ; far call to _VAR_NaN  ; |307| 
     2282                                                           ; |307| Far Call Occurs
     2283                           .line   249
     2284                   ;----------------------------------------------------------------------
     2285                   ; 308 | CLEAR_TIME(&CCM_TIME_START);                                           
     2286                   ;----------------------------------------------------------------------
     2287 000002f4 08700000-        ldp       @CL173,DP
     2288 000002f5 502000b0-        ldiu      @CL173,r0             ; |308| 
     2289 000002f6 08700000-        ldp       @CL172,DP
     2290 000002f7 502a00af-        ldiu      @CL172,ar2            ; |308| 
     2291 000002f8 70000000         callu     r0                    ; far call to _CLEAR_TIME       ; |308| 
     2292                                                           ; |308| Far Call Occurs
     2293                           .line   250
     2294                   ;----------------------------------------------------------------------
     2295                   ; 309 | CLEAR_TIME(&CCM_TIME_STOP);                                            
     2296                   ;----------------------------------------------------------------------
     2297 000002f9 08700000-        ldp       @CL173,DP
     2298 000002fa 502000b0-        ldiu      @CL173,r0             ; |309| 
     2299 000002fb 08700000-        ldp       @CL174,DP
     2300 000002fc 502a00b1-        ldiu      @CL174,ar2            ; |309| 
     2301 000002fd 70000000         callu     r0                    ; far call to _CLEAR_TIME       ; |309| 
     2302                                                           ; |309| Far Call Occurs
     2303                           .line   251
     2304                   ;----------------------------------------------------------------------
     2305                   ; 310 | CLEAR_TIME(&CCM_TIME_REMAINING);                                       
     2306                   ;----------------------------------------------------------------------
     2307 000002fe 08700000-        ldp       @CL173,DP
     2308 000002ff 502000b0-        ldiu      @CL173,r0             ; |310| 
     2309 00000300 08700000-        ldp       @CL175,DP
     2310 00000301 502a00b2-        ldiu      @CL175,ar2            ; |310| 
     2311 00000302 70000000         callu     r0                    ; far call to _CLEAR_TIME       ; |310| 
     2312                                                           ; |310| Far Call Occurs
     2313                           .line   252
     2314                   ;----------------------------------------------------------------------
     2315                   ; 311 | CLEAR_TIME(&CCM_TIME_ELAPSED);                                         
     2316                   ;----------------------------------------------------------------------
     2317 00000303 08700000-        ldp       @CL173,DP
     2318 00000304 502000b0-        ldiu      @CL173,r0             ; |311| 
     2319 00000305 08700000-        ldp       @CL176,DP
     2320 00000306 502a00b3-        ldiu      @CL176,ar2            ; |311| 
     2321 00000307 70000000         callu     r0                    ; far call to _CLEAR_TIME       ; |311| 
     2322                                                           ; |311| Far Call Occurs
TMS320C3x/4x COFF AssemblerVersion 5.12     Tue Mar 02 13:03:54 2021
Copyright (c) 1987-1999 Texas Instruments Incorporatedasm30.exe -@_8O8.AAB 

G:\workspace\EEA\V615\APP\SOURCE\ASM\main.asm                        PAGE   44

     2323                           .line   254
     2324                   ;----------------------------------------------------------------------
     2325                   ; 313 | for (i=0;i<VTMAX;i++)                                                  
     2326                   ;----------------------------------------------------------------------
     2327 00000308 50600000         ldiu      0,r0                  ; |313| 
     2328 00000309 15400301         sti       r0,*+fp(1)            ; |313| 
     2329 0000030a 04e00004         cmpi      4,r0                  ; |313| 
     2330 0000030b 6a0a0049         bge       L28                   ; |313| 
     2331                   ;*      Branch Occurs to L28            ; |313| 
     2332 0000030c          L27:        
     2333                           .line   256
     2334                   ;----------------------------------------------------------------------
     2335                   ; 315 | VAR_NaN(&REG_VINC[i]);                                                 
     2336                   ;----------------------------------------------------------------------
     2337 0000030c 504a0301         ldiu      *+fp(1),ar2           ; |315| 
     2338 0000030d 08700000-        ldp       @CL177,DP
     2339 0000030e 0aea002c         mpyi      44,ar2                ; |315| 
     2340 0000030f 022a00b4-        addi      @CL177,ar2            ; |315| Unsigned
     2341 00000310 08700000-        ldp       @CL127,DP
     2342 00000311 50200082-        ldiu      @CL127,r0             ; |315| 
     2343 00000312 70000000         callu     r0                    ; far call to _VAR_NaN  ; |315| 
     2344                                                           ; |315| Far Call Occurs
     2345                           .line   257
     2346                   ;----------------------------------------------------------------------
     2347                   ; 316 | VAR_NaN(&REG_VREF[i]);                                                 
     2348                   ;----------------------------------------------------------------------
     2349 00000313 08700000-        ldp       @CL178,DP
     2350 00000314 504a0301         ldiu      *+fp(1),ar2           ; |316| 
     2351 00000315 0aea002c         mpyi      44,ar2                ; |316| 
     2352 00000316 022a00b5-        addi      @CL178,ar2            ; |316| Unsigned
     2353 00000317 08700000-        ldp       @CL127,DP
     2354 00000318 50200082-        ldiu      @CL127,r0             ; |316| 
     2355 00000319 70000000         callu     r0                    ; far call to _VAR_NaN  ; |316| 
     2356                                                           ; |316| Far Call Occurs
     2357                           .line   258
     2358                   ;----------------------------------------------------------------------
     2359                   ; 317 | VAR_NaN(&REG_FREQ[i]);                                                 
     2360                   ;----------------------------------------------------------------------
     2361 0000031a 08700000-        ldp       @CL179,DP
     2362 0000031b 504a0301         ldiu      *+fp(1),ar2           ; |317| 
     2363 0000031c 0aea002c         mpyi      44,ar2                ; |317| 
     2364 0000031d 022a00b6-        addi      @CL179,ar2            ; |317| Unsigned
     2365 0000031e 08700000-        ldp       @CL127,DP
     2366 0000031f 50200082-        ldiu      @CL127,r0             ; |317| 
     2367 00000320 70000000         callu     r0                    ; far call to _VAR_NaN  ; |317| 
     2368                                                           ; |317| Far Call Occurs
     2369                           .line   259
     2370                   ;----------------------------------------------------------------------
     2371                   ; 318 | VAR_NaN(&REG_VTUNE[i]);                                                
     2372                   ;----------------------------------------------------------------------
     2373 00000321 504a0301         ldiu      *+fp(1),ar2           ; |318| 
     2374 00000322 08700000-        ldp       @CL180,DP
     2375 00000323 0aea002c         mpyi      44,ar2                ; |318| 
     2376 00000324 022a00b7-        addi      @CL180,ar2            ; |318| Unsigned
TMS320C3x/4x COFF AssemblerVersion 5.12     Tue Mar 02 13:03:54 2021
Copyright (c) 1987-1999 Texas Instruments Incorporatedasm30.exe -@_8O8.AAB 

G:\workspace\EEA\V615\APP\SOURCE\ASM\main.asm                        PAGE   45

     2377 00000325 08700000-        ldp       @CL127,DP
     2378 00000326 50200082-        ldiu      @CL127,r0             ; |318| 
     2379 00000327 70000000         callu     r0                    ; far call to _VAR_NaN  ; |318| 
     2380                                                           ; |318| Far Call Occurs
     2381                           .line   261
     2382                   ;----------------------------------------------------------------------
     2383                   ; 320 | TMP_VINC[i]  = -1;                                                     
     2384                   ;----------------------------------------------------------------------
     2385 00000328 08700000-        ldp       @CL181,DP
     2386 00000329 50480301         ldiu      *+fp(1),ar0           ; |320| 
     2387 0000032a 03e80001         ash       1,ar0                 ; |320| 
     2388 0000032b 022800b8-        addi      @CL181,ar0            ; |320| Unsigned
     2389 0000032c 08700000-        ldp       @CL182+0,DP
     2390 0000032d 402000b9-        ldfu      @CL182+0,f0           ; |320| 40b float hi half
     2391 0000032e 08700000-        ldp       @CL182+1,DP
     2392 0000032f 502000ba-        ldiu      @CL182+1,r0           ; |320| 40b float lo half
     2393 00000330 1440c000         stf       f0,*ar0               ; |320| Store high half
     2394 00000331 15400001         sti       r0,*+ar0              ; |320| Store low half
     2395                           .line   262
     2396                   ;----------------------------------------------------------------------
     2397                   ; 321 | TMP_VREF[i]  = -1;                                                     
     2398                   ;----------------------------------------------------------------------
     2399 00000332 50480301         ldiu      *+fp(1),ar0           ; |321| 
     2400 00000333 08700000-        ldp       @CL183,DP
     2401 00000334 03e80001         ash       1,ar0                 ; |321| 
     2402 00000335 022800bb-        addi      @CL183,ar0            ; |321| Unsigned
     2403 00000336 08700000-        ldp       @CL182+0,DP
     2404 00000337 402000b9-        ldfu      @CL182+0,f0           ; |321| 40b float hi half
     2405 00000338 08700000-        ldp       @CL182+1,DP
     2406 00000339 502000ba-        ldiu      @CL182+1,r0           ; |321| 40b float lo half
     2407 0000033a 1440c000         stf       f0,*ar0               ; |321| Store high half
     2408 0000033b 15400001         sti       r0,*+ar0              ; |321| Store low half
     2409                           .line   263
     2410                   ;----------------------------------------------------------------------
     2411                   ; 322 | TMP_FREQ[i]  = -1;                                                     
     2412                   ;----------------------------------------------------------------------
     2413 0000033c 50480301         ldiu      *+fp(1),ar0           ; |322| 
     2414 0000033d 08700000-        ldp       @CL184,DP
     2415 0000033e 03e80001         ash       1,ar0                 ; |322| 
     2416 0000033f 022800bc-        addi      @CL184,ar0            ; |322| Unsigned
     2417 00000340 08700000-        ldp       @CL182+0,DP
     2418 00000341 402000b9-        ldfu      @CL182+0,f0           ; |322| 40b float hi half
     2419 00000342 08700000-        ldp       @CL182+1,DP
     2420 00000343 502000ba-        ldiu      @CL182+1,r0           ; |322| 40b float lo half
     2421 00000344 1440c000         stf       f0,*ar0               ; |322| Store high half
     2422 00000345 15400001         sti       r0,*+ar0              ; |322| Store low half
     2423                           .line   264
     2424                   ;----------------------------------------------------------------------
     2425                   ; 323 | TMP_VTUNE[i] = -1;                                                     
     2426                   ;----------------------------------------------------------------------
     2427 00000346 50480301         ldiu      *+fp(1),ar0           ; |323| 
     2428 00000347 08700000-        ldp       @CL185,DP
     2429 00000348 03e80001         ash       1,ar0                 ; |323| 
     2430 00000349 022800bd-        addi      @CL185,ar0            ; |323| Unsigned
TMS320C3x/4x COFF AssemblerVersion 5.12     Tue Mar 02 13:03:54 2021
Copyright (c) 1987-1999 Texas Instruments Incorporatedasm30.exe -@_8O8.AAB 

G:\workspace\EEA\V615\APP\SOURCE\ASM\main.asm                        PAGE   46

     2431 0000034a 08700000-        ldp       @CL182+0,DP
     2432 0000034b 402000b9-        ldfu      @CL182+0,f0           ; |323| 40b float hi half
     2433 0000034c 08700000-        ldp       @CL182+1,DP
     2434 0000034d 502000ba-        ldiu      @CL182+1,r0           ; |323| 40b float lo half
     2435 0000034e 1440c000         stf       f0,*ar0               ; |323| Store high half
     2436 0000034f 15400001         sti       r0,*+ar0              ; |323| Store low half
     2437                           .line   254
     2438 00000350 50600001         ldiu      1,r0                  ; |313| 
     2439 00000351 02400301         addi      *+fp(1),r0            ; |313| 
     2440 00000352 15400301         sti       r0,*+fp(1)            ; |313| 
     2441 00000353 04e00004         cmpi      4,r0                  ; |313| 
     2442 00000354 6a07ffb7         blt       L27                   ; |313| 
     2443                   ;*      Branch Occurs to L27            ; |313| 
     2444 00000355          L28:        
     2445                           .line   267
     2446                   ;----------------------------------------------------------------------
     2447                   ; 326 | VAR_NaN(&REG_VINC_O);                                                  
     2448                   ;----------------------------------------------------------------------
     2449 00000355 08700000-        ldp       @CL127,DP
     2450 00000356 50200082-        ldiu      @CL127,r0             ; |326| 
     2451 00000357 08700000-        ldp       @CL186,DP
     2452 00000358 502a00be-        ldiu      @CL186,ar2            ; |326| 
     2453 00000359 70000000         callu     r0                    ; far call to _VAR_NaN  ; |326| 
     2454                                                           ; |326| Far Call Occurs
     2455                           .line   268
     2456                   ;----------------------------------------------------------------------
     2457                   ; 327 | VAR_NaN(&REG_VREF_O);                                                  
     2458                   ;----------------------------------------------------------------------
     2459 0000035a 08700000-        ldp       @CL127,DP
     2460 0000035b 50200082-        ldiu      @CL127,r0             ; |327| 
     2461 0000035c 08700000-        ldp       @CL187,DP
     2462 0000035d 502a00bf-        ldiu      @CL187,ar2            ; |327| 
     2463 0000035e 70000000         callu     r0                    ; far call to _VAR_NaN  ; |327| 
     2464                                                           ; |327| Far Call Occurs
     2465                           .line   269
     2466                   ;----------------------------------------------------------------------
     2467                   ; 328 | VAR_NaN(&REG_FREQ_O);                                                  
     2468                   ;----------------------------------------------------------------------
     2469 0000035f 08700000-        ldp       @CL127,DP
     2470 00000360 50200082-        ldiu      @CL127,r0             ; |328| 
     2471 00000361 08700000-        ldp       @CL188,DP
     2472 00000362 502a00c0-        ldiu      @CL188,ar2            ; |328| 
     2473 00000363 70000000         callu     r0                    ; far call to _VAR_NaN  ; |328| 
     2474                                                           ; |328| Far Call Occurs
     2475                           .line   270
     2476                   ;----------------------------------------------------------------------
     2477                   ; 329 | VAR_NaN(&REG_VINC_W);                                                  
     2478                   ;----------------------------------------------------------------------
     2479 00000364 08700000-        ldp       @CL127,DP
     2480 00000365 50200082-        ldiu      @CL127,r0             ; |329| 
     2481 00000366 08700000-        ldp       @CL189,DP
     2482 00000367 502a00c1-        ldiu      @CL189,ar2            ; |329| 
     2483 00000368 70000000         callu     r0                    ; far call to _VAR_NaN  ; |329| 
     2484                                                           ; |329| Far Call Occurs
TMS320C3x/4x COFF AssemblerVersion 5.12     Tue Mar 02 13:03:54 2021
Copyright (c) 1987-1999 Texas Instruments Incorporatedasm30.exe -@_8O8.AAB 

G:\workspace\EEA\V615\APP\SOURCE\ASM\main.asm                        PAGE   47

     2485                           .line   271
     2486                   ;----------------------------------------------------------------------
     2487                   ; 330 | VAR_NaN(&REG_VREF_W);                                                  
     2488                   ;----------------------------------------------------------------------
     2489 00000369 08700000-        ldp       @CL127,DP
     2490 0000036a 50200082-        ldiu      @CL127,r0             ; |330| 
     2491 0000036b 08700000-        ldp       @CL190,DP
     2492 0000036c 502a00c2-        ldiu      @CL190,ar2            ; |330| 
     2493 0000036d 70000000         callu     r0                    ; far call to _VAR_NaN  ; |330| 
     2494                                                           ; |330| Far Call Occurs
     2495                           .line   272
     2496                   ;----------------------------------------------------------------------
     2497                   ; 331 | VAR_NaN(&REG_FREQ_W);                                                  
     2498                   ;----------------------------------------------------------------------
     2499 0000036e 08700000-        ldp       @CL127,DP
     2500 0000036f 50200082-        ldiu      @CL127,r0             ; |331| 
     2501 00000370 08700000-        ldp       @CL191,DP
     2502 00000371 502a00c3-        ldiu      @CL191,ar2            ; |331| 
     2503 00000372 70000000         callu     r0                    ; far call to _VAR_NaN  ; |331| 
     2504                                                           ; |331| Far Call Occurs
     2505                           .line   274
     2506                   ;----------------------------------------------------------------------
     2507                   ; 333 | FREQ_O          = 0.0;  /* Oil oscillator frequency */                 
     2508                   ;----------------------------------------------------------------------
     2509 00000373 08700000-        ldp       @CL192,DP
     2510 00000374 502800c4-        ldiu      @CL192,ar0            ; |333| 
     2511 00000375 40608000         ldfu      0.0000000000e+00,f0   ; |333| 
     2512 00000376 1440c000         stf       f0,*ar0               ; |333| 
     2513                           .line   275
     2514                   ;----------------------------------------------------------------------
     2515                   ; 334 | IP_O            = 0.0;                                                 
     2516                   ;----------------------------------------------------------------------
     2517 00000377 08700000-        ldp       @CL193,DP
     2518 00000378 502800c5-        ldiu      @CL193,ar0            ; |334| 
     2519 00000379 40608000         ldfu      0.0000000000e+00,f0   ; |334| 
     2520 0000037a 1440c000         stf       f0,*ar0               ; |334| 
     2521                           .line   276
     2522                   ;----------------------------------------------------------------------
     2523                   ; 335 | RP_O            = 0.0;                                                 
     2524                   ;----------------------------------------------------------------------
     2525 0000037b 08700000-        ldp       @CL194,DP
     2526 0000037c 502800c6-        ldiu      @CL194,ar0            ; |335| 
     2527 0000037d 40608000         ldfu      0.0000000000e+00,f0   ; |335| 
     2528 0000037e 1440c000         stf       f0,*ar0               ; |335| 
     2529                           .line   277
     2530                   ;----------------------------------------------------------------------
     2531                   ; 336 | IP_RP_O         = 0.0;                                                 
     2532                   ;----------------------------------------------------------------------
     2533 0000037f 08700000-        ldp       @CL195,DP
     2534 00000380 502800c7-        ldiu      @CL195,ar0            ; |336| 
     2535 00000381 40608000         ldfu      0.0000000000e+00,f0   ; |336| 
     2536 00000382 1440c000         stf       f0,*ar0               ; |336| 
     2537                           .line   278
     2538                   ;----------------------------------------------------------------------
TMS320C3x/4x COFF AssemblerVersion 5.12     Tue Mar 02 13:03:54 2021
Copyright (c) 1987-1999 Texas Instruments Incorporatedasm30.exe -@_8O8.AAB 

G:\workspace\EEA\V615\APP\SOURCE\ASM\main.asm                        PAGE   48

     2539                   ; 337 | DB_IP_RP_O      = 0.0;                                                 
     2540                   ;----------------------------------------------------------------------
     2541 00000383 08700000-        ldp       @CL196,DP
     2542 00000384 502800c8-        ldiu      @CL196,ar0            ; |337| 
     2543 00000385 40608000         ldfu      0.0000000000e+00,f0   ; |337| 
     2544 00000386 1440c000         stf       f0,*ar0               ; |337| 
     2545                           .line   279
     2546                   ;----------------------------------------------------------------------
     2547                   ; 338 | FREQ_W          = 0.0;  /* Water oscillator frequency */               
     2548                   ;----------------------------------------------------------------------
     2549 00000387 08700000-        ldp       @CL197,DP
     2550 00000388 502800c9-        ldiu      @CL197,ar0            ; |338| 
     2551 00000389 40608000         ldfu      0.0000000000e+00,f0   ; |338| 
     2552 0000038a 1440c000         stf       f0,*ar0               ; |338| 
     2553                           .line   280
     2554                   ;----------------------------------------------------------------------
     2555                   ; 339 | IP_W            = 0.0;                                                 
     2556                   ;----------------------------------------------------------------------
     2557 0000038b 08700000-        ldp       @CL198,DP
     2558 0000038c 502800ca-        ldiu      @CL198,ar0            ; |339| 
     2559 0000038d 40608000         ldfu      0.0000000000e+00,f0   ; |339| 
     2560 0000038e 1440c000         stf       f0,*ar0               ; |339| 
     2561                           .line   281
     2562                   ;----------------------------------------------------------------------
     2563                   ; 340 | RP_W            = 0.0;                                                 
     2564                   ;----------------------------------------------------------------------
     2565 0000038f 08700000-        ldp       @CL199,DP
     2566 00000390 502800cb-        ldiu      @CL199,ar0            ; |340| 
     2567 00000391 40608000         ldfu      0.0000000000e+00,f0   ; |340| 
     2568 00000392 1440c000         stf       f0,*ar0               ; |340| 
     2569                           .line   282
     2570                   ;----------------------------------------------------------------------
     2571                   ; 341 | IP_RP_W         = 0.0;                                                 
     2572                   ;----------------------------------------------------------------------
     2573 00000393 08700000-        ldp       @CL200,DP
     2574 00000394 502800cc-        ldiu      @CL200,ar0            ; |341| 
     2575 00000395 40608000         ldfu      0.0000000000e+00,f0   ; |341| 
     2576 00000396 1440c000         stf       f0,*ar0               ; |341| 
     2577                           .line   283
     2578                   ;----------------------------------------------------------------------
     2579                   ; 342 | DB_IP_RP_W      = 0.0;                                                 
     2580                   ;----------------------------------------------------------------------
     2581 00000397 08700000-        ldp       @CL201,DP
     2582 00000398 502800cd-        ldiu      @CL201,ar0            ; |342| 
     2583 00000399 40608000         ldfu      0.0000000000e+00,f0   ; |342| 
     2584 0000039a 1440c000         stf       f0,*ar0               ; |342| 
     2585                           .line   284
     2586                   ;----------------------------------------------------------------------
     2587                   ; 343 | i_FREQ_O        = 0.0;                                                 
     2588                   ;----------------------------------------------------------------------
     2589 0000039b 08700000-        ldp       @CL202,DP
     2590 0000039c 502800ce-        ldiu      @CL202,ar0            ; |343| 
     2591 0000039d 50600000         ldiu      0,r0                  ; |343| 
     2592 0000039e 1540c000         sti       r0,*ar0               ; |343| 
TMS320C3x/4x COFF AssemblerVersion 5.12     Tue Mar 02 13:03:54 2021
Copyright (c) 1987-1999 Texas Instruments Incorporatedasm30.exe -@_8O8.AAB 

G:\workspace\EEA\V615\APP\SOURCE\ASM\main.asm                        PAGE   49

     2593                           .line   285
     2594                   ;----------------------------------------------------------------------
     2595                   ; 344 | i_IP_O          = 0.0;                                                 
     2596                   ;----------------------------------------------------------------------
     2597 0000039f 08700000-        ldp       @CL203,DP
     2598 000003a0 502800cf-        ldiu      @CL203,ar0            ; |344| 
     2599 000003a1 1540c000         sti       r0,*ar0               ; |344| 
     2600                           .line   286
     2601                   ;----------------------------------------------------------------------
     2602                   ; 345 | i_RP_O          = 0.0;                                                 
     2603                   ;----------------------------------------------------------------------
     2604 000003a2 08700000-        ldp       @CL204,DP
     2605 000003a3 502800d0-        ldiu      @CL204,ar0            ; |345| 
     2606 000003a4 1540c000         sti       r0,*ar0               ; |345| 
     2607                           .line   287
     2608                   ;----------------------------------------------------------------------
     2609                   ; 346 | i_FREQ_W        = 0.0;                                                 
     2610                   ;----------------------------------------------------------------------
     2611 000003a5 08700000-        ldp       @CL205,DP
     2612 000003a6 502800d1-        ldiu      @CL205,ar0            ; |346| 
     2613 000003a7 1540c000         sti       r0,*ar0               ; |346| 
     2614                           .line   288
     2615                   ;----------------------------------------------------------------------
     2616                   ; 347 | i_IP_W          = 0.0;                                                 
     2617                   ;----------------------------------------------------------------------
     2618 000003a8 08700000-        ldp       @CL206,DP
     2619 000003a9 502800d2-        ldiu      @CL206,ar0            ; |347| 
     2620 000003aa 1540c000         sti       r0,*ar0               ; |347| 
     2621                           .line   289
     2622                   ;----------------------------------------------------------------------
     2623                   ; 348 | i_RP_W          = 0.0;                                                 
     2624                   ;----------------------------------------------------------------------
     2625 000003ab 08700000-        ldp       @CL207,DP
     2626 000003ac 502800d3-        ldiu      @CL207,ar0            ; |348| 
     2627 000003ad 1540c000         sti       r0,*ar0               ; |348| 
     2628                           .line   290
     2629                   ;----------------------------------------------------------------------
     2630                   ; 349 | i_TEMP          = 0.0;                                                 
     2631                   ;----------------------------------------------------------------------
     2632 000003ae 08700000-        ldp       @CL208,DP
     2633 000003af 502800d4-        ldiu      @CL208,ar0            ; |349| 
     2634 000003b0 1540c000         sti       r0,*ar0               ; |349| 
     2635                           .line   291
     2636                   ;----------------------------------------------------------------------
     2637                   ; 350 | i_WC            = 0.0;                                                 
     2638                   ;----------------------------------------------------------------------
     2639 000003b1 08700000-        ldp       @CL209,DP
     2640 000003b2 502800d5-        ldiu      @CL209,ar0            ; |350| 
     2641 000003b3 1540c000         sti       r0,*ar0               ; |350| 
     2642                           .line   293
     2643                   ;----------------------------------------------------------------------
     2644                   ; 352 | compatibility_dummy = 0.0;                                             
     2645                   ; 354 | //RUSS_TBL_LEN = Find_Russ_Tbl_Len();                                  
     2646                   ;----------------------------------------------------------------------
TMS320C3x/4x COFF AssemblerVersion 5.12     Tue Mar 02 13:03:54 2021
Copyright (c) 1987-1999 Texas Instruments Incorporatedasm30.exe -@_8O8.AAB 

G:\workspace\EEA\V615\APP\SOURCE\ASM\main.asm                        PAGE   50

     2647 000003b4 08700000-        ldp       @CL210,DP
     2648 000003b5 502800d6-        ldiu      @CL210,ar0            ; |352| 
     2649 000003b6 40608000         ldfu      0.0000000000e+00,f0   ; |352| 
     2650 000003b7 1440c000         stf       f0,*ar0               ; |352| 
     2651                           .line   297
     2652                   ;----------------------------------------------------------------------
     2653                   ; 356 | for (i=0;i<30;i++)                                                     
     2654                   ;----------------------------------------------------------------------
     2655 000003b8 50600000         ldiu      0,r0                  ; |356| 
     2656 000003b9 15400301         sti       r0,*+fp(1)            ; |356| 
     2657 000003ba 40618000         ldfu      0.0000000000e+00,f1   ; |360| 
     2658 000003bb 50630000         ldiu      0,r3                  ; |359| 
     2659 000003bc 50620000         ldiu      0,r2                  ; |358| 
     2660 000003bd 04e0001e         cmpi      30,r0                 ; |356| 
     2661 000003be 6a0a0011         bge       L30                   ; |356| 
     2662                   ;*      Branch Occurs to L30            ; |356| 
     2663 000003bf          L29:        
     2664                           .line   299
     2665                   ;----------------------------------------------------------------------
     2666                   ; 358 | i_LV[i]         = 0;                                                   
     2667                   ;----------------------------------------------------------------------
     2668 000003bf 08700000-        ldp       @CL211,DP
     2669 000003c0 50510301         ldiu      *+fp(1),ir0           ; |358| 
     2670 000003c1 502800d7-        ldiu      @CL211,ar0            ; |358| 
     2671 000003c2 15424000         sti       r2,*+ar0(ir0)         ; |358| 
     2672                           .line   300
     2673                   ;----------------------------------------------------------------------
     2674                   ; 359 | il_LV[i]        = 0;                                                   
     2675                   ;----------------------------------------------------------------------
     2676 000003c3 08700000-        ldp       @CL212,DP
     2677 000003c4 502800d8-        ldiu      @CL212,ar0            ; |359| 
     2678 000003c5 50510301         ldiu      *+fp(1),ir0           ; |359| 
     2679 000003c6 15434000         sti       r3,*+ar0(ir0)         ; |359| 
     2680                           .line   301
     2681                   ;----------------------------------------------------------------------
     2682                   ; 360 | f_LV[i]         = 0;                                                   
     2683                   ;----------------------------------------------------------------------
     2684 000003c7 08700000-        ldp       @CL213,DP
     2685 000003c8 502800d9-        ldiu      @CL213,ar0            ; |360| 
     2686 000003c9 50510301         ldiu      *+fp(1),ir0           ; |360| 
     2687 000003ca 14414000         stf       f1,*+ar0(ir0)         ; |360| 
     2688                           .line   297
     2689 000003cb 50600001         ldiu      1,r0                  ; |356| 
     2690 000003cc 02400301         addi      *+fp(1),r0            ; |356| 
     2691 000003cd 15400301         sti       r0,*+fp(1)            ; |356| 
     2692 000003ce 04e0001e         cmpi      30,r0                 ; |356| 
     2693 000003cf 6a07ffef         blt       L29                   ; |356| 
     2694                   ;*      Branch Occurs to L29            ; |356| 
     2695 000003d0          L30:        
     2696                           .line   304
     2697                   ;----------------------------------------------------------------------
     2698                   ; 363 | for (i=0;i<CORMAX;i++)                                                 
     2699                   ;----------------------------------------------------------------------
     2700 000003d0 50600000         ldiu      0,r0                  ; |363| 
TMS320C3x/4x COFF AssemblerVersion 5.12     Tue Mar 02 13:03:54 2021
Copyright (c) 1987-1999 Texas Instruments Incorporatedasm30.exe -@_8O8.AAB 

G:\workspace\EEA\V615\APP\SOURCE\ASM\main.asm                        PAGE   51

     2701 000003d1 15400301         sti       r0,*+fp(1)            ; |363| 
     2702 000003d2 04e00005         cmpi      5,r0                  ; |363| 
     2703 000003d3 6a0a0251         bge       L34                   ; |363| 
     2704                   ;*      Branch Occurs to L34            ; |363| 
     2705 000003d4          L31:        
     2706                           .line   306
     2707                   ;----------------------------------------------------------------------
     2708                   ; 365 | COR[i].diag = 0;                                                       
     2709                   ;----------------------------------------------------------------------
     2710 000003d4 50510301         ldiu      *+fp(1),ir0           ; |365| 
     2711 000003d5 08700000-        ldp       @CL214,DP
     2712 000003d6 0af1017e         mpyi      382,ir0               ; |365| 
     2713 000003d7 502800da-        ldiu      @CL214,ar0            ; |365| 
     2714 000003d8 40608000         ldfu      0.0000000000e+00,f0   ; |365| 
     2715 000003d9 14404000         stf       f0,*+ar0(ir0)         ; |365| 
     2716                           .line   307
     2717                   ;----------------------------------------------------------------------
     2718                   ; 366 | COR[i].mfr = 0;                                                        
     2719                   ;----------------------------------------------------------------------
     2720 000003da 08700000-        ldp       @CL215,DP
     2721 000003db 50510301         ldiu      *+fp(1),ir0           ; |366| 
     2722 000003dc 502800db-        ldiu      @CL215,ar0            ; |366| 
     2723 000003dd 0af1017e         mpyi      382,ir0               ; |366| 
     2724 000003de 40608000         ldfu      0.0000000000e+00,f0   ; |366| 
     2725 000003df 14404000         stf       f0,*+ar0(ir0)         ; |366| 
     2726                           .line   308
     2727                   ;----------------------------------------------------------------------
     2728                   ; 367 | COR[i].density = 0;                                                    
     2729                   ;----------------------------------------------------------------------
     2730 000003e0 08700000-        ldp       @CL216,DP
     2731 000003e1 50510301         ldiu      *+fp(1),ir0           ; |367| 
     2732 000003e2 502800dc-        ldiu      @CL216,ar0            ; |367| 
     2733 000003e3 0af1017e         mpyi      382,ir0               ; |367| 
     2734 000003e4 40608000         ldfu      0.0000000000e+00,f0   ; |367| 
     2735 000003e5 14404000         stf       f0,*+ar0(ir0)         ; |367| 
     2736                           .line   311
     2737                   ;----------------------------------------------------------------------
     2738                   ; 370 | VAR_Initialize(&COR[i].damp_flow_rate, c_time, u_time_sec, 100.0, 100.0
     2739                   ;     | , var_no_alarm|var_no_bound);                                          
     2740                   ;----------------------------------------------------------------------
     2741 000003e6 50790033         ldiu      51,rs                 ; |370| 
     2742 000003e7 507a0006         ldiu      6,re                  ; |370| 
     2743 000003e8 08700000-        ldp       @CL217,DP
     2744 000003e9 504a0301         ldiu      *+fp(1),ar2           ; |370| 
     2745 000003ea 0aea017e         mpyi      382,ar2               ; |370| 
     2746 000003eb 022a00dd-        addi      @CL217,ar2            ; |370| Unsigned
     2747 000003ec 08700000-        ldp       @CL218,DP
     2748 000003ed 507b0046         ldiu      70,rc                 ; |370| 
     2749 000003ee 502000de-        ldiu      @CL218,r0             ; |370| 
     2750 000003ef 40636480         ldfu      1.0000000000e+02,f3   ; |370| 
     2751 000003f0 40626480         ldfu      1.0000000000e+02,f2   ; |370| 
     2752 000003f1 70000000         callu     r0                    ; far call to _VAR_Initialize   ; |370| 
     2753                                                           ; |370| Far Call Occurs
     2754                           .line   312
TMS320C3x/4x COFF AssemblerVersion 5.12     Tue Mar 02 13:03:54 2021
Copyright (c) 1987-1999 Texas Instruments Incorporatedasm30.exe -@_8O8.AAB 

G:\workspace\EEA\V615\APP\SOURCE\ASM\main.asm                        PAGE   52

     2755                   ;----------------------------------------------------------------------
     2756                   ; 371 | sprintf(COR[i].damp_flow_rate.name, "COR%i Dampen Flow", i+1);         
     2757                   ;----------------------------------------------------------------------
     2758 000003f2 50600001         ldiu      1,r0                  ; |371| 
     2759 000003f3 02400301         addi      *+fp(1),r0            ; |371| 
     2760 000003f4 08700000-        ldp       @CL220,DP
     2761 000003f5 0f200000         push      r0                    ; |371| 
     2762 000003f6 502100e0-        ldiu      @CL220,r1             ; |371| 
     2763 000003f7 0f210000         push      r1                    ; |371| 
     2764 000003f8 504a0301         ldiu      *+fp(1),ar2           ; |371| 
     2765 000003f9 08700000-        ldp       @CL219,DP
     2766 000003fa 0aea017e         mpyi      382,ar2               ; |371| 
     2767 000003fb 022a00df-        addi      @CL219,ar2            ; |371| Unsigned
     2768 000003fc 08700000-        ldp       @CL16,DP
     2769 000003fd 5020000f-        ldiu      @CL16,r0              ; |371| 
     2770 000003fe 70000000         callu     r0                    ; far call to _sprintf  ; |371| 
     2771                                                           ; |371| Far Call Occurs
     2772 000003ff 18740002         subi      2,sp                  ; |371| 
     2773                           .line   313
     2774                   ;----------------------------------------------------------------------
     2775                   ; 372 | COR[i].damp_flow_rate.aux = (i<<16)|(189);                             
     2776                   ;----------------------------------------------------------------------
     2777 00000400 50400301         ldiu      *+fp(1),r0            ; |372| 
     2778 00000401 50110000         ldiu      r0,ir0                ; |372| 
     2779 00000402 08700000-        ldp       @CL221,DP
     2780 00000403 0af1017e         mpyi      382,ir0               ; |372| 
     2781 00000404 03e00010         ash       16,r0                 ; |372| 
     2782 00000405 502800e1-        ldiu      @CL221,ar0            ; |372| 
     2783 00000406 106000bd         or        189,r0                ; |372| 
     2784 00000407 15404000         sti       r0,*+ar0(ir0)         ; |372| 
     2785                           .line   314
     2786                   ;----------------------------------------------------------------------
     2787                   ; 373 | VAR_Update(&COR[i].damp_flow_rate, 0.0, 0, 0);                         
     2788                   ;----------------------------------------------------------------------
     2789 00000408 08700000-        ldp       @CL67,DP
     2790 00000409 50200042-        ldiu      @CL67,r0              ; |373| 
     2791 0000040a 504a0301         ldiu      *+fp(1),ar2           ; |373| 
     2792 0000040b 08700000-        ldp       @CL217,DP
     2793 0000040c 0aea017e         mpyi      382,ar2               ; |373| 
     2794 0000040d 022a00dd-        addi      @CL217,ar2            ; |373| Unsigned
     2795 0000040e 08700000-        ldp       @CL80+0,DP
     2796 0000040f 40220050-        ldfu      @CL80+0,f2            ; |373| 40b float hi half
     2797 00000410 08700000-        ldp       @CL80+1,DP
     2798 00000411 507b0000         ldiu      0,rc                  ; |373| 
     2799 00000412 50220051-        ldiu      @CL80+1,r2            ; |373| 40b float lo half
     2800 00000413 50630000         ldiu      0,r3                  ; |373| 
     2801 00000414 70000000         callu     r0                    ; far call to _VAR_Update       ; |373| 
     2802                                                           ; |373| Far Call Occurs
     2803                           .line   315
     2804                   ;----------------------------------------------------------------------
     2805                   ; 374 | COR[i].damp_flow_rate.vect2 = (int*)CORIOLIS_CFG;                      
     2806                   ;----------------------------------------------------------------------
     2807 00000415 08700000-        ldp       @CL222,DP
     2808 00000416 502800e2-        ldiu      @CL222,ar0            ; |374| 
TMS320C3x/4x COFF AssemblerVersion 5.12     Tue Mar 02 13:03:54 2021
Copyright (c) 1987-1999 Texas Instruments Incorporatedasm30.exe -@_8O8.AAB 

G:\workspace\EEA\V615\APP\SOURCE\ASM\main.asm                        PAGE   53

     2809 00000417 50510301         ldiu      *+fp(1),ir0           ; |374| 
     2810 00000418 08700000-        ldp       @CL223,DP
     2811 00000419 0af1017e         mpyi      382,ir0               ; |374| 
     2812 0000041a 502000e3-        ldiu      @CL223,r0             ; |374| 
     2813 0000041b 15404000         sti       r0,*+ar0(ir0)         ; |374| 
     2814                           .line   318
     2815                   ;----------------------------------------------------------------------
     2816                   ; 377 | VAR_Initialize(&COR[i].damp_density, c_time, u_time_sec, 100.0, 100.0,
     2817                   ;     | var_no_alarm|var_no_bound);                                            
     2818                   ;----------------------------------------------------------------------
     2819 0000041c 504a0301         ldiu      *+fp(1),ar2           ; |377| 
     2820 0000041d 0aea017e         mpyi      382,ar2               ; |377| 
     2821 0000041e 08700000-        ldp       @CL224,DP
     2822 0000041f 507b0046         ldiu      70,rc                 ; |377| 
     2823 00000420 022a00e4-        addi      @CL224,ar2            ; |377| Unsigned
     2824 00000421 08700000-        ldp       @CL218,DP
     2825 00000422 50790033         ldiu      51,rs                 ; |377| 
     2826 00000423 507a0006         ldiu      6,re                  ; |377| 
     2827 00000424 502000de-        ldiu      @CL218,r0             ; |377| 
     2828 00000425 40636480         ldfu      1.0000000000e+02,f3   ; |377| 
     2829 00000426 40626480         ldfu      1.0000000000e+02,f2   ; |377| 
     2830 00000427 70000000         callu     r0                    ; far call to _VAR_Initialize   ; |377| 
     2831                                                           ; |377| Far Call Occurs
     2832                           .line   319
     2833                   ;----------------------------------------------------------------------
     2834                   ; 378 | sprintf(COR[i].damp_density.name, "COR%i Dampen Density", i+1);        
     2835                   ;----------------------------------------------------------------------
     2836 00000428 08700000-        ldp       @CL226,DP
     2837 00000429 502100e6-        ldiu      @CL226,r1             ; |378| 
     2838 0000042a 50600001         ldiu      1,r0                  ; |378| 
     2839 0000042b 02400301         addi      *+fp(1),r0            ; |378| 
     2840 0000042c 0f200000         push      r0                    ; |378| 
     2841 0000042d 0f210000         push      r1                    ; |378| 
     2842 0000042e 504a0301         ldiu      *+fp(1),ar2           ; |378| 
     2843 0000042f 08700000-        ldp       @CL225,DP
     2844 00000430 0aea017e         mpyi      382,ar2               ; |378| 
     2845 00000431 022a00e5-        addi      @CL225,ar2            ; |378| Unsigned
     2846 00000432 08700000-        ldp       @CL16,DP
     2847 00000433 5020000f-        ldiu      @CL16,r0              ; |378| 
     2848 00000434 70000000         callu     r0                    ; far call to _sprintf  ; |378| 
     2849                                                           ; |378| Far Call Occurs
     2850 00000435 18740002         subi      2,sp                  ; |378| 
     2851                           .line   320
     2852                   ;----------------------------------------------------------------------
     2853                   ; 379 | COR[i].damp_density.aux = (i<<16)|(193);                               
     2854                   ;----------------------------------------------------------------------
     2855 00000436 50510301         ldiu      *+fp(1),ir0           ; |379| 
     2856 00000437 50000011         ldiu      ir0,r0                ; |379| 
     2857 00000438 03e00010         ash       16,r0                 ; |379| 
     2858 00000439 08700000-        ldp       @CL227,DP
     2859 0000043a 0af1017e         mpyi      382,ir0               ; |379| 
     2860 0000043b 502800e7-        ldiu      @CL227,ar0            ; |379| 
     2861 0000043c 106000c1         or        193,r0                ; |379| 
     2862 0000043d 15404000         sti       r0,*+ar0(ir0)         ; |379| 
TMS320C3x/4x COFF AssemblerVersion 5.12     Tue Mar 02 13:03:54 2021
Copyright (c) 1987-1999 Texas Instruments Incorporatedasm30.exe -@_8O8.AAB 

G:\workspace\EEA\V615\APP\SOURCE\ASM\main.asm                        PAGE   54

     2863                           .line   321
     2864                   ;----------------------------------------------------------------------
     2865                   ; 380 | VAR_Update(&COR[i].damp_density, 0.0, 0, 0);                           
     2866                   ;----------------------------------------------------------------------
     2867 0000043e 08700000-        ldp       @CL67,DP
     2868 0000043f 50200042-        ldiu      @CL67,r0              ; |380| 
     2869 00000440 08700000-        ldp       @CL224,DP
     2870 00000441 504a0301         ldiu      *+fp(1),ar2           ; |380| 
     2871 00000442 0aea017e         mpyi      382,ar2               ; |380| 
     2872 00000443 022a00e4-        addi      @CL224,ar2            ; |380| Unsigned
     2873 00000444 08700000-        ldp       @CL80+0,DP
     2874 00000445 40220050-        ldfu      @CL80+0,f2            ; |380| 40b float hi half
     2875 00000446 08700000-        ldp       @CL80+1,DP
     2876 00000447 507b0000         ldiu      0,rc                  ; |380| 
     2877 00000448 50220051-        ldiu      @CL80+1,r2            ; |380| 40b float lo half
     2878 00000449 50630000         ldiu      0,r3                  ; |380| 
     2879 0000044a 70000000         callu     r0                    ; far call to _VAR_Update       ; |380| 
     2880                                                           ; |380| Far Call Occurs
     2881                           .line   322
     2882                   ;----------------------------------------------------------------------
     2883                   ; 381 | COR[i].damp_density.vect2 = (int*)CORIOLIS_CFG;                        
     2884                   ;----------------------------------------------------------------------
     2885 0000044b 08700000-        ldp       @CL228,DP
     2886 0000044c 50510301         ldiu      *+fp(1),ir0           ; |381| 
     2887 0000044d 502800e8-        ldiu      @CL228,ar0            ; |381| 
     2888 0000044e 08700000-        ldp       @CL223,DP
     2889 0000044f 0af1017e         mpyi      382,ir0               ; |381| 
     2890 00000450 502000e3-        ldiu      @CL223,r0             ; |381| 
     2891 00000451 15404000         sti       r0,*+ar0(ir0)         ; |381| 
     2892                           .line   325
     2893                   ;----------------------------------------------------------------------
     2894                   ; 384 | VAR_Initialize(&COR[i].mfr_cutoff, c_mass_flow, u_generic_none, 100.0,
     2895                   ;     | 1000.0, var_no_alarm|var_no_bound);                                    
     2896                   ;----------------------------------------------------------------------
     2897 00000452 504a0301         ldiu      *+fp(1),ar2           ; |384| 
     2898 00000453 08700000-        ldp       @CL229,DP
     2899 00000454 0aea017e         mpyi      382,ar2               ; |384| 
     2900 00000455 022a00e9-        addi      @CL229,ar2            ; |384| Unsigned
     2901 00000456 08700000-        ldp       @CL218,DP
     2902 00000457 502000de-        ldiu      @CL218,r0             ; |384| 
     2903 00000458 08700000-        ldp       @CL230,DP
     2904 00000459 507b0048         ldiu      72,rc                 ; |384| 
     2905 0000045a 402300ea-        ldfu      @CL230,f3             ; |384| 
     2906 0000045b 507900fb         ldiu      251,rs                ; |384| 
     2907 0000045c 507a0006         ldiu      6,re                  ; |384| 
     2908 0000045d 40626480         ldfu      1.0000000000e+02,f2   ; |384| 
     2909 0000045e 70000000         callu     r0                    ; far call to _VAR_Initialize   ; |384| 
     2910                                                           ; |384| Far Call Occurs
     2911                           .line   326
     2912                   ;----------------------------------------------------------------------
     2913                   ; 385 | sprintf(COR[i].mfr_cutoff.name, "COR%i MFR Cutoff", i+1);              
     2914                   ;----------------------------------------------------------------------
     2915 0000045f 08700000-        ldp       @CL232,DP
     2916 00000460 50600001         ldiu      1,r0                  ; |385| 
TMS320C3x/4x COFF AssemblerVersion 5.12     Tue Mar 02 13:03:54 2021
Copyright (c) 1987-1999 Texas Instruments Incorporatedasm30.exe -@_8O8.AAB 

G:\workspace\EEA\V615\APP\SOURCE\ASM\main.asm                        PAGE   55

     2917 00000461 02400301         addi      *+fp(1),r0            ; |385| 
     2918 00000462 502100ec-        ldiu      @CL232,r1             ; |385| 
     2919 00000463 0f200000         push      r0                    ; |385| 
     2920 00000464 0f210000         push      r1                    ; |385| 
     2921 00000465 504a0301         ldiu      *+fp(1),ar2           ; |385| 
     2922 00000466 08700000-        ldp       @CL231,DP
     2923 00000467 0aea017e         mpyi      382,ar2               ; |385| 
     2924 00000468 022a00eb-        addi      @CL231,ar2            ; |385| Unsigned
     2925 00000469 08700000-        ldp       @CL16,DP
     2926 0000046a 5020000f-        ldiu      @CL16,r0              ; |385| 
     2927 0000046b 70000000         callu     r0                    ; far call to _sprintf  ; |385| 
     2928                                                           ; |385| Far Call Occurs
     2929 0000046c 18740002         subi      2,sp                  ; |385| 
     2930                           .line   327
     2931                   ;----------------------------------------------------------------------
     2932                   ; 386 | COR[i].mfr_cutoff.aux = (i<<16)|(195);                                 
     2933                   ;----------------------------------------------------------------------
     2934 0000046d 08700000-        ldp       @CL233,DP
     2935 0000046e 50400301         ldiu      *+fp(1),r0            ; |386| 
     2936 0000046f 502800ed-        ldiu      @CL233,ar0            ; |386| 
     2937 00000470 50110000         ldiu      r0,ir0                ; |386| 
     2938 00000471 03e00010         ash       16,r0                 ; |386| 
     2939 00000472 0af1017e         mpyi      382,ir0               ; |386| 
     2940 00000473 106000c3         or        195,r0                ; |386| 
     2941 00000474 15404000         sti       r0,*+ar0(ir0)         ; |386| 
     2942                           .line   328
     2943                   ;----------------------------------------------------------------------
     2944                   ; 387 | VAR_Update(&COR[i].mfr_cutoff, 0.0, 0, 0);                             
     2945                   ;----------------------------------------------------------------------
     2946 00000475 08700000-        ldp       @CL67,DP
     2947 00000476 50200042-        ldiu      @CL67,r0              ; |387| 
     2948 00000477 504a0301         ldiu      *+fp(1),ar2           ; |387| 
     2949 00000478 08700000-        ldp       @CL229,DP
     2950 00000479 0aea017e         mpyi      382,ar2               ; |387| 
     2951 0000047a 022a00e9-        addi      @CL229,ar2            ; |387| Unsigned
     2952 0000047b 08700000-        ldp       @CL80+0,DP
     2953 0000047c 40220050-        ldfu      @CL80+0,f2            ; |387| 40b float hi half
     2954 0000047d 08700000-        ldp       @CL80+1,DP
     2955 0000047e 50220051-        ldiu      @CL80+1,r2            ; |387| 40b float lo half
     2956 0000047f 507b0000         ldiu      0,rc                  ; |387| 
     2957 00000480 50630000         ldiu      0,r3                  ; |387| 
     2958 00000481 70000000         callu     r0                    ; far call to _VAR_Update       ; |387| 
     2959                                                           ; |387| Far Call Occurs
     2960                           .line   329
     2961                   ;----------------------------------------------------------------------
     2962                   ; 388 | COR[i].mfr_cutoff.vect2 = (int*)CORIOLIS_CFG;                          
     2963                   ;----------------------------------------------------------------------
     2964 00000482 08700000-        ldp       @CL234,DP
     2965 00000483 502800ee-        ldiu      @CL234,ar0            ; |388| 
     2966 00000484 50510301         ldiu      *+fp(1),ir0           ; |388| 
     2967 00000485 08700000-        ldp       @CL223,DP
     2968 00000486 0af1017e         mpyi      382,ir0               ; |388| 
     2969 00000487 502000e3-        ldiu      @CL223,r0             ; |388| 
     2970 00000488 15404000         sti       r0,*+ar0(ir0)         ; |388| 
TMS320C3x/4x COFF AssemblerVersion 5.12     Tue Mar 02 13:03:54 2021
Copyright (c) 1987-1999 Texas Instruments Incorporatedasm30.exe -@_8O8.AAB 

G:\workspace\EEA\V615\APP\SOURCE\ASM\main.asm                        PAGE   56

     2971                           .line   332
     2972                   ;----------------------------------------------------------------------
     2973                   ; 391 | VAR_Initialize(&COR[i].vfr_cutoff, c_volumetric_flow, u_generic_none, 1
     2974                   ;     | 00.0, 1000.0, var_no_alarm|var_no_bound);                              
     2975                   ;----------------------------------------------------------------------
     2976 00000489 08700000-        ldp       @CL235,DP
     2977 0000048a 504a0301         ldiu      *+fp(1),ar2           ; |391| 
     2978 0000048b 0aea017e         mpyi      382,ar2               ; |391| 
     2979 0000048c 022a00ef-        addi      @CL235,ar2            ; |391| Unsigned
     2980 0000048d 08700000-        ldp       @CL218,DP
     2981 0000048e 502000de-        ldiu      @CL218,r0             ; |391| 
     2982 0000048f 08700000-        ldp       @CL230,DP
     2983 00000490 507900fb         ldiu      251,rs                ; |391| 
     2984 00000491 507a0006         ldiu      6,re                  ; |391| 
     2985 00000492 507b0042         ldiu      66,rc                 ; |391| 
     2986 00000493 402300ea-        ldfu      @CL230,f3             ; |391| 
     2987 00000494 40626480         ldfu      1.0000000000e+02,f2   ; |391| 
     2988 00000495 70000000         callu     r0                    ; far call to _VAR_Initialize   ; |391| 
     2989                                                           ; |391| Far Call Occurs
     2990                           .line   333
     2991                   ;----------------------------------------------------------------------
     2992                   ; 392 | sprintf(COR[i].vfr_cutoff.name, "COR%i VFR Cutoff", i+1);              
     2993                   ;----------------------------------------------------------------------
     2994 00000496 50600001         ldiu      1,r0                  ; |392| 
     2995 00000497 08700000-        ldp       @CL237,DP
     2996 00000498 02400301         addi      *+fp(1),r0            ; |392| 
     2997 00000499 502100f1-        ldiu      @CL237,r1             ; |392| 
     2998 0000049a 0f200000         push      r0                    ; |392| 
     2999 0000049b 08700000-        ldp       @CL236,DP
     3000 0000049c 0f210000         push      r1                    ; |392| 
     3001 0000049d 504a0301         ldiu      *+fp(1),ar2           ; |392| 
     3002 0000049e 0aea017e         mpyi      382,ar2               ; |392| 
     3003 0000049f 022a00f0-        addi      @CL236,ar2            ; |392| Unsigned
     3004 000004a0 08700000-        ldp       @CL16,DP
     3005 000004a1 5020000f-        ldiu      @CL16,r0              ; |392| 
     3006 000004a2 70000000         callu     r0                    ; far call to _sprintf  ; |392| 
     3007                                                           ; |392| Far Call Occurs
     3008 000004a3 18740002         subi      2,sp                  ; |392| 
     3009                           .line   334
     3010                   ;----------------------------------------------------------------------
     3011                   ; 393 | COR[i].vfr_cutoff.aux = (i<<16)|(197);                                 
     3012                   ;----------------------------------------------------------------------
     3013 000004a4 08700000-        ldp       @CL238,DP
     3014 000004a5 50400301         ldiu      *+fp(1),r0            ; |393| 
     3015 000004a6 50110000         ldiu      r0,ir0                ; |393| 
     3016 000004a7 502800f2-        ldiu      @CL238,ar0            ; |393| 
     3017 000004a8 0af1017e         mpyi      382,ir0               ; |393| 
     3018 000004a9 03e00010         ash       16,r0                 ; |393| 
     3019 000004aa 106000c5         or        197,r0                ; |393| 
     3020 000004ab 15404000         sti       r0,*+ar0(ir0)         ; |393| 
     3021                           .line   335
     3022                   ;----------------------------------------------------------------------
     3023                   ; 394 | VAR_Update(&COR[i].vfr_cutoff, 0.0, 0, 0);                             
     3024                   ;----------------------------------------------------------------------
TMS320C3x/4x COFF AssemblerVersion 5.12     Tue Mar 02 13:03:54 2021
Copyright (c) 1987-1999 Texas Instruments Incorporatedasm30.exe -@_8O8.AAB 

G:\workspace\EEA\V615\APP\SOURCE\ASM\main.asm                        PAGE   57

     3025 000004ac 08700000-        ldp       @CL67,DP
     3026 000004ad 504a0301         ldiu      *+fp(1),ar2           ; |394| 
     3027 000004ae 50200042-        ldiu      @CL67,r0              ; |394| 
     3028 000004af 08700000-        ldp       @CL235,DP
     3029 000004b0 0aea017e         mpyi      382,ar2               ; |394| 
     3030 000004b1 022a00ef-        addi      @CL235,ar2            ; |394| Unsigned
     3031 000004b2 08700000-        ldp       @CL80+0,DP
     3032 000004b3 40220050-        ldfu      @CL80+0,f2            ; |394| 40b float hi half
     3033 000004b4 08700000-        ldp       @CL80+1,DP
     3034 000004b5 507b0000         ldiu      0,rc                  ; |394| 
     3035 000004b6 50220051-        ldiu      @CL80+1,r2            ; |394| 40b float lo half
     3036 000004b7 50630000         ldiu      0,r3                  ; |394| 
     3037 000004b8 70000000         callu     r0                    ; far call to _VAR_Update       ; |394| 
     3038                                                           ; |394| Far Call Occurs
     3039                           .line   336
     3040                   ;----------------------------------------------------------------------
     3041                   ; 395 | COR[i].vfr_cutoff.vect2 = (int*)CORIOLIS_CFG;                          
     3042                   ;----------------------------------------------------------------------
     3043 000004b9 08700000-        ldp       @CL239,DP
     3044 000004ba 50510301         ldiu      *+fp(1),ir0           ; |395| 
     3045 000004bb 502800f3-        ldiu      @CL239,ar0            ; |395| 
     3046 000004bc 08700000-        ldp       @CL223,DP
     3047 000004bd 0af1017e         mpyi      382,ir0               ; |395| 
     3048 000004be 502000e3-        ldiu      @CL223,r0             ; |395| 
     3049 000004bf 15404000         sti       r0,*+ar0(ir0)         ; |395| 
     3050                           .line   339
     3051                   ;----------------------------------------------------------------------
     3052                   ; 398 | VAR_Initialize(&COR[i].mcf, c_mass_flow, u_generic_none, 100.0, 100000.
     3053                   ;     | 0, var_no_alarm|var_no_bound);                                         
     3054                   ;----------------------------------------------------------------------
     3055 000004c0 504a0301         ldiu      *+fp(1),ar2           ; |398| 
     3056 000004c1 0aea017e         mpyi      382,ar2               ; |398| 
     3057 000004c2 08700000-        ldp       @CL240,DP
     3058 000004c3 507900fb         ldiu      251,rs                ; |398| 
     3059 000004c4 022a00f4-        addi      @CL240,ar2            ; |398| Unsigned
     3060 000004c5 08700000-        ldp       @CL218,DP
     3061 000004c6 507a0006         ldiu      6,re                  ; |398| 
     3062 000004c7 502000de-        ldiu      @CL218,r0             ; |398| 
     3063 000004c8 08700000-        ldp       @CL241,DP
     3064 000004c9 507b0048         ldiu      72,rc                 ; |398| 
     3065 000004ca 402300f5-        ldfu      @CL241,f3             ; |398| 
     3066 000004cb 40626480         ldfu      1.0000000000e+02,f2   ; |398| 
     3067 000004cc 70000000         callu     r0                    ; far call to _VAR_Initialize   ; |398| 
     3068                                                           ; |398| Far Call Occurs
     3069                           .line   340
     3070                   ;----------------------------------------------------------------------
     3071                   ; 399 | sprintf(COR[i].mcf.name, "COR%i MCF", i+1);                            
     3072                   ;----------------------------------------------------------------------
     3073 000004cd 08700000-        ldp       @CL243,DP
     3074 000004ce 50600001         ldiu      1,r0                  ; |399| 
     3075 000004cf 02400301         addi      *+fp(1),r0            ; |399| 
     3076 000004d0 0f200000         push      r0                    ; |399| 
     3077 000004d1 502100f7-        ldiu      @CL243,r1             ; |399| 
     3078 000004d2 0f210000         push      r1                    ; |399| 
TMS320C3x/4x COFF AssemblerVersion 5.12     Tue Mar 02 13:03:54 2021
Copyright (c) 1987-1999 Texas Instruments Incorporatedasm30.exe -@_8O8.AAB 

G:\workspace\EEA\V615\APP\SOURCE\ASM\main.asm                        PAGE   58

     3079 000004d3 08700000-        ldp       @CL242,DP
     3080 000004d4 504a0301         ldiu      *+fp(1),ar2           ; |399| 
     3081 000004d5 0aea017e         mpyi      382,ar2               ; |399| 
     3082 000004d6 022a00f6-        addi      @CL242,ar2            ; |399| Unsigned
     3083 000004d7 08700000-        ldp       @CL16,DP
     3084 000004d8 5020000f-        ldiu      @CL16,r0              ; |399| 
     3085 000004d9 70000000         callu     r0                    ; far call to _sprintf  ; |399| 
     3086                                                           ; |399| Far Call Occurs
     3087 000004da 18740002         subi      2,sp                  ; |399| 
     3088                           .line   341
     3089                   ;----------------------------------------------------------------------
     3090                   ; 400 | COR[i].mcf.aux = (i<<16)|(237);                                        
     3091                   ;----------------------------------------------------------------------
     3092 000004db 50510301         ldiu      *+fp(1),ir0           ; |400| 
     3093 000004dc 50000011         ldiu      ir0,r0                ; |400| 
     3094 000004dd 08700000-        ldp       @CL244,DP
     3095 000004de 03e00010         ash       16,r0                 ; |400| 
     3096 000004df 0af1017e         mpyi      382,ir0               ; |400| 
     3097 000004e0 502800f8-        ldiu      @CL244,ar0            ; |400| 
     3098 000004e1 106000ed         or        237,r0                ; |400| 
     3099 000004e2 15404000         sti       r0,*+ar0(ir0)         ; |400| 
     3100                           .line   342
     3101                   ;----------------------------------------------------------------------
     3102                   ; 401 | VAR_Update(&COR[i].mcf, 1.0, 0, 0);                                    
     3103                   ;----------------------------------------------------------------------
     3104 000004e3 08700000-        ldp       @CL67,DP
     3105 000004e4 504a0301         ldiu      *+fp(1),ar2           ; |401| 
     3106 000004e5 50200042-        ldiu      @CL67,r0              ; |401| 
     3107 000004e6 08700000-        ldp       @CL240,DP
     3108 000004e7 0aea017e         mpyi      382,ar2               ; |401| 
     3109 000004e8 022a00f4-        addi      @CL240,ar2            ; |401| Unsigned
     3110 000004e9 08700000-        ldp       @CL245+0,DP
     3111 000004ea 402200f9-        ldfu      @CL245+0,f2           ; |401| 40b float hi half
     3112 000004eb 08700000-        ldp       @CL245+1,DP
     3113 000004ec 502200fa-        ldiu      @CL245+1,r2           ; |401| 40b float lo half
     3114 000004ed 507b0000         ldiu      0,rc                  ; |401| 
     3115 000004ee 50630000         ldiu      0,r3                  ; |401| 
     3116 000004ef 70000000         callu     r0                    ; far call to _VAR_Update       ; |401| 
     3117                                                           ; |401| Far Call Occurs
     3118                           .line   343
     3119                   ;----------------------------------------------------------------------
     3120                   ; 402 | COR[i].mcf.vect2 = (int*)CORIOLIS_CFG;                                 
     3121                   ;----------------------------------------------------------------------
     3122 000004f0 08700000-        ldp       @CL246,DP
     3123 000004f1 50510301         ldiu      *+fp(1),ir0           ; |402| 
     3124 000004f2 502800fb-        ldiu      @CL246,ar0            ; |402| 
     3125 000004f3 08700000-        ldp       @CL223,DP
     3126 000004f4 0af1017e         mpyi      382,ir0               ; |402| 
     3127 000004f5 502000e3-        ldiu      @CL223,r0             ; |402| 
     3128 000004f6 15404000         sti       r0,*+ar0(ir0)         ; |402| 
     3129                           .line   346
     3130                   ;----------------------------------------------------------------------
     3131                   ; 405 | VAR_Initialize(&COR[i].address, c_not_classified, u_generic_none, 1.0,
     3132                   ;     | 1.0, var_no_alarm|var_round);                                          
TMS320C3x/4x COFF AssemblerVersion 5.12     Tue Mar 02 13:03:54 2021
Copyright (c) 1987-1999 Texas Instruments Incorporatedasm30.exe -@_8O8.AAB 

G:\workspace\EEA\V615\APP\SOURCE\ASM\main.asm                        PAGE   59

     3133                   ;----------------------------------------------------------------------
     3134 000004f7 504a0301         ldiu      *+fp(1),ar2           ; |405| 
     3135 000004f8 08700000-        ldp       @CL247,DP
     3136 000004f9 0aea017e         mpyi      382,ar2               ; |405| 
     3137 000004fa 022a00fc-        addi      @CL247,ar2            ; |405| Unsigned
     3138 000004fb 08700000-        ldp       @CL218,DP
     3139 000004fc 502000de-        ldiu      @CL218,r0             ; |405| 
     3140 000004fd 507900fb         ldiu      251,rs                ; |405| 
     3141 000004fe 507a0104         ldiu      260,re                ; |405| 
     3142 000004ff 507b0000         ldiu      0,rc                  ; |405| 
     3143 00000500 40630000         ldfu      1.0000000000e+00,f3   ; |405| 
     3144 00000501 40620000         ldfu      1.0000000000e+00,f2   ; |405| 
     3145 00000502 70000000         callu     r0                    ; far call to _VAR_Initialize   ; |405| 
     3146                                                           ; |405| Far Call Occurs
     3147                           .line   347
     3148                   ;----------------------------------------------------------------------
     3149                   ; 406 | sprintf(COR[i].address.name, "COR%i Address", i+1);                    
     3150                   ;----------------------------------------------------------------------
     3151 00000503 08700000-        ldp       @CL249,DP
     3152 00000504 502100fe-        ldiu      @CL249,r1             ; |406| 
     3153 00000505 08700000-        ldp       @CL248,DP
     3154 00000506 50600001         ldiu      1,r0                  ; |406| 
     3155 00000507 02400301         addi      *+fp(1),r0            ; |406| 
     3156 00000508 0f200000         push      r0                    ; |406| 
     3157 00000509 0f210000         push      r1                    ; |406| 
     3158 0000050a 504a0301         ldiu      *+fp(1),ar2           ; |406| 
     3159 0000050b 0aea017e         mpyi      382,ar2               ; |406| 
     3160 0000050c 022a00fd-        addi      @CL248,ar2            ; |406| Unsigned
     3161 0000050d 08700000-        ldp       @CL16,DP
     3162 0000050e 5020000f-        ldiu      @CL16,r0              ; |406| 
     3163 0000050f 70000000         callu     r0                    ; far call to _sprintf  ; |406| 
     3164                                                           ; |406| Far Call Occurs
     3165 00000510 18740002         subi      2,sp                  ; |406| 
     3166                           .line   348
     3167                   ;----------------------------------------------------------------------
     3168                   ; 407 | COR[i].address.aux = (i<<16)|(313);                                    
     3169                   ;----------------------------------------------------------------------
     3170 00000511 50400301         ldiu      *+fp(1),r0            ; |407| 
     3171 00000512 50110000         ldiu      r0,ir0                ; |407| 
     3172 00000513 03e00010         ash       16,r0                 ; |407| 
     3173 00000514 08700000-        ldp       @CL250,DP
     3174 00000515 0af1017e         mpyi      382,ir0               ; |407| 
     3175 00000516 502800ff-        ldiu      @CL250,ar0            ; |407| 
     3176 00000517 10600139         or        313,r0                ; |407| 
     3177 00000518 15404000         sti       r0,*+ar0(ir0)         ; |407| 
     3178                           .line   349
     3179                   ;----------------------------------------------------------------------
     3180                   ; 408 | VAR_Update(&COR[i].address, 1.0, 0, 0);                                
     3181                   ;----------------------------------------------------------------------
     3182 00000519 08700000-        ldp       @CL67,DP
     3183 0000051a 504a0301         ldiu      *+fp(1),ar2           ; |408| 
     3184 0000051b 50200042-        ldiu      @CL67,r0              ; |408| 
     3185 0000051c 08700000-        ldp       @CL247,DP
     3186 0000051d 0aea017e         mpyi      382,ar2               ; |408| 
TMS320C3x/4x COFF AssemblerVersion 5.12     Tue Mar 02 13:03:54 2021
Copyright (c) 1987-1999 Texas Instruments Incorporatedasm30.exe -@_8O8.AAB 

G:\workspace\EEA\V615\APP\SOURCE\ASM\main.asm                        PAGE   60

     3187 0000051e 022a00fc-        addi      @CL247,ar2            ; |408| Unsigned
     3188 0000051f 08700000-        ldp       @CL245+0,DP
     3189 00000520 402200f9-        ldfu      @CL245+0,f2           ; |408| 40b float hi half
     3190 00000521 08700000-        ldp       @CL245+1,DP
     3191 00000522 507b0000         ldiu      0,rc                  ; |408| 
     3192 00000523 502200fa-        ldiu      @CL245+1,r2           ; |408| 40b float lo half
     3193 00000524 50630000         ldiu      0,r3                  ; |408| 
     3194 00000525 70000000         callu     r0                    ; far call to _VAR_Update       ; |408| 
     3195                                                           ; |408| Far Call Occurs
     3196                           .line   350
     3197                   ;----------------------------------------------------------------------
     3198                   ; 409 | COR[i].address.vect2 = (int*)CORIOLIS_INT_CFG;      /*CORIOLIS_INT_CFG
     3199                   ;     | instead of CORIOLIS_CFG RS*/                                           
     3200                   ;----------------------------------------------------------------------
     3201 00000526 08700000-        ldp       @CL251,DP
     3202 00000527 50280100-        ldiu      @CL251,ar0            ; |409| 
     3203 00000528 50510301         ldiu      *+fp(1),ir0           ; |409| 
     3204 00000529 08700000-        ldp       @CL252,DP
     3205 0000052a 0af1017e         mpyi      382,ir0               ; |409| 
     3206 0000052b 50200101-        ldiu      @CL252,r0             ; |409| 
     3207 0000052c 15404000         sti       r0,*+ar0(ir0)         ; |409| 
     3208                           .line   353
     3209                   ;----------------------------------------------------------------------
     3210                   ; 412 | VAR_Initialize(&COR[i].mass_unit, c_not_classified, u_generic_none, 1.0
     3211                   ;     | , 1.0, var_no_alarm|var_no_bound);                                     
     3212                   ;----------------------------------------------------------------------
     3213 0000052d 504a0301         ldiu      *+fp(1),ar2           ; |412| 
     3214 0000052e 0aea017e         mpyi      382,ar2               ; |412| 
     3215 0000052f 08700000-        ldp       @CL253,DP
     3216 00000530 507900fb         ldiu      251,rs                ; |412| 
     3217 00000531 022a0102-        addi      @CL253,ar2            ; |412| Unsigned
     3218 00000532 507a0006         ldiu      6,re                  ; |412| 
     3219 00000533 08700000-        ldp       @CL218,DP
     3220 00000534 507b0000         ldiu      0,rc                  ; |412| 
     3221 00000535 502000de-        ldiu      @CL218,r0             ; |412| 
     3222 00000536 40630000         ldfu      1.0000000000e+00,f3   ; |412| 
     3223 00000537 40620000         ldfu      1.0000000000e+00,f2   ; |412| 
     3224 00000538 70000000         callu     r0                    ; far call to _VAR_Initialize   ; |412| 
     3225                                                           ; |412| Far Call Occurs
     3226                           .line   354
     3227                   ;----------------------------------------------------------------------
     3228                   ; 413 | sprintf(COR[i].mass_unit.name, "COR%i Mass Flow Unit", i+1);           
     3229                   ;----------------------------------------------------------------------
     3230 00000539 50600001         ldiu      1,r0                  ; |413| 
     3231 0000053a 02400301         addi      *+fp(1),r0            ; |413| 
     3232 0000053b 08700000-        ldp       @CL255,DP
     3233 0000053c 0f200000         push      r0                    ; |413| 
     3234 0000053d 50210104-        ldiu      @CL255,r1             ; |413| 
     3235 0000053e 0f210000         push      r1                    ; |413| 
     3236 0000053f 504a0301         ldiu      *+fp(1),ar2           ; |413| 
     3237 00000540 08700000-        ldp       @CL254,DP
     3238 00000541 0aea017e         mpyi      382,ar2               ; |413| 
     3239 00000542 022a0103-        addi      @CL254,ar2            ; |413| Unsigned
     3240 00000543 08700000-        ldp       @CL16,DP
TMS320C3x/4x COFF AssemblerVersion 5.12     Tue Mar 02 13:03:54 2021
Copyright (c) 1987-1999 Texas Instruments Incorporatedasm30.exe -@_8O8.AAB 

G:\workspace\EEA\V615\APP\SOURCE\ASM\main.asm                        PAGE   61

     3241 00000544 5020000f-        ldiu      @CL16,r0              ; |413| 
     3242 00000545 70000000         callu     r0                    ; far call to _sprintf  ; |413| 
     3243                                                           ; |413| Far Call Occurs
     3244 00000546 18740002         subi      2,sp                  ; |413| 
     3245                           .line   355
     3246                   ;----------------------------------------------------------------------
     3247                   ; 414 | COR[i].mass_unit.aux = (i<<16)|(39);                                   
     3248                   ;----------------------------------------------------------------------
     3249 00000547 50510301         ldiu      *+fp(1),ir0           ; |414| 
     3250 00000548 08700000-        ldp       @CL256,DP
     3251 00000549 50000011         ldiu      ir0,r0
     3252 0000054a 0af1017e         mpyi      382,ir0               ; |414| 
     3253 0000054b 03e00010         ash       16,r0                 ; |414| 
     3254 0000054c 50280105-        ldiu      @CL256,ar0            ; |414| 
     3255 0000054d 10600027         or        39,r0                 ; |414| 
     3256 0000054e 15404000         sti       r0,*+ar0(ir0)         ; |414| 
     3257                           .line   357
     3258                   ;----------------------------------------------------------------------
     3259                   ; 416 | COR[i].mass_unit.vect2 = (int*)CORIOLIS_INT_CFG;                       
     3260                   ;----------------------------------------------------------------------
     3261 0000054f 08700000-        ldp       @CL257,DP
     3262 00000550 50280106-        ldiu      @CL257,ar0            ; |416| 
     3263 00000551 50510301         ldiu      *+fp(1),ir0           ; |416| 
     3264 00000552 08700000-        ldp       @CL252,DP
     3265 00000553 0af1017e         mpyi      382,ir0               ; |416| 
     3266 00000554 50200101-        ldiu      @CL252,r0             ; |416| 
     3267 00000555 15404000         sti       r0,*+ar0(ir0)         ; |416| 
     3268                           .line   360
     3269                   ;----------------------------------------------------------------------
     3270                   ; 419 | VAR_Initialize(&COR[i].density_cutoff, c_not_classified, u_generic_none
     3271                   ;     | , 100.0, 1000.0, var_no_alarm|var_no_bound);                           
     3272                   ;----------------------------------------------------------------------
     3273 00000556 504a0301         ldiu      *+fp(1),ar2           ; |419| 
     3274 00000557 08700000-        ldp       @CL258,DP
     3275 00000558 0aea017e         mpyi      382,ar2               ; |419| 
     3276 00000559 022a0107-        addi      @CL258,ar2            ; |419| Unsigned
     3277 0000055a 08700000-        ldp       @CL218,DP
     3278 0000055b 502000de-        ldiu      @CL218,r0             ; |419| 
     3279 0000055c 507900fb         ldiu      251,rs                ; |419| 
     3280 0000055d 507a0006         ldiu      6,re                  ; |419| 
     3281 0000055e 08700000-        ldp       @CL230,DP
     3282 0000055f 507b0000         ldiu      0,rc                  ; |419| 
     3283 00000560 402300ea-        ldfu      @CL230,f3             ; |419| 
     3284 00000561 40626480         ldfu      1.0000000000e+02,f2   ; |419| 
     3285 00000562 70000000         callu     r0                    ; far call to _VAR_Initialize   ; |419| 
     3286                                                           ; |419| Far Call Occurs
     3287                           .line   361
     3288                   ;----------------------------------------------------------------------
     3289                   ; 420 | sprintf(COR[i].density_cutoff.name, "COR%i Density Cutoff", i+1);      
     3290                   ;----------------------------------------------------------------------
     3291 00000563 08700000-        ldp       @CL260,DP
     3292 00000564 50600001         ldiu      1,r0                  ; |420| 
     3293 00000565 02400301         addi      *+fp(1),r0            ; |420| 
     3294 00000566 0f200000         push      r0                    ; |420| 
TMS320C3x/4x COFF AssemblerVersion 5.12     Tue Mar 02 13:03:54 2021
Copyright (c) 1987-1999 Texas Instruments Incorporatedasm30.exe -@_8O8.AAB 

G:\workspace\EEA\V615\APP\SOURCE\ASM\main.asm                        PAGE   62

     3295 00000567 50210109-        ldiu      @CL260,r1             ; |420| 
     3296 00000568 0f210000         push      r1                    ; |420| 
     3297 00000569 08700000-        ldp       @CL259,DP
     3298 0000056a 504a0301         ldiu      *+fp(1),ar2           ; |420| 
     3299 0000056b 0aea017e         mpyi      382,ar2               ; |420| 
     3300 0000056c 022a0108-        addi      @CL259,ar2            ; |420| Unsigned
     3301 0000056d 08700000-        ldp       @CL16,DP
     3302 0000056e 5020000f-        ldiu      @CL16,r0              ; |420| 
     3303 0000056f 70000000         callu     r0                    ; far call to _sprintf  ; |420| 
     3304                                                           ; |420| Far Call Occurs
     3305 00000570 18740002         subi      2,sp                  ; |420| 
     3306                           .line   362
     3307                   ;----------------------------------------------------------------------
     3308                   ; 421 | COR[i].density_cutoff.aux = (i<<16)|(149);                             
     3309                   ;----------------------------------------------------------------------
     3310 00000571 08700000-        ldp       @CL261,DP
     3311 00000572 50400301         ldiu      *+fp(1),r0            ; |421| 
     3312 00000573 50110000         ldiu      r0,ir0                ; |421| 
     3313 00000574 5028010a-        ldiu      @CL261,ar0            ; |421| 
     3314 00000575 0af1017e         mpyi      382,ir0               ; |421| 
     3315 00000576 03e00010         ash       16,r0                 ; |421| 
     3316 00000577 10600095         or        149,r0                ; |421| 
     3317 00000578 15404000         sti       r0,*+ar0(ir0)         ; |421| 
     3318                           .line   363
     3319                   ;----------------------------------------------------------------------
     3320                   ; 422 | VAR_Update(&COR[i].density_cutoff, 0.0, 0, 0);                         
     3321                   ;----------------------------------------------------------------------
     3322 00000579 08700000-        ldp       @CL67,DP
     3323 0000057a 504a0301         ldiu      *+fp(1),ar2           ; |422| 
     3324 0000057b 50200042-        ldiu      @CL67,r0              ; |422| 
     3325 0000057c 08700000-        ldp       @CL258,DP
     3326 0000057d 0aea017e         mpyi      382,ar2               ; |422| 
     3327 0000057e 022a0107-        addi      @CL258,ar2            ; |422| Unsigned
     3328 0000057f 08700000-        ldp       @CL80+0,DP
     3329 00000580 40220050-        ldfu      @CL80+0,f2            ; |422| 40b float hi half
     3330 00000581 08700000-        ldp       @CL80+1,DP
     3331 00000582 507b0000         ldiu      0,rc                  ; |422| 
     3332 00000583 50220051-        ldiu      @CL80+1,r2            ; |422| 40b float lo half
     3333 00000584 50630000         ldiu      0,r3                  ; |422| 
     3334 00000585 70000000         callu     r0                    ; far call to _VAR_Update       ; |422| 
     3335                                                           ; |422| Far Call Occurs
     3336                           .line   364
     3337                   ;----------------------------------------------------------------------
     3338                   ; 423 | COR[i].density_cutoff.vect2 = (int*)CORIOLIS_CFG;                      
     3339                   ;----------------------------------------------------------------------
     3340 00000586 08700000-        ldp       @CL262,DP
     3341 00000587 50510301         ldiu      *+fp(1),ir0           ; |423| 
     3342 00000588 5028010b-        ldiu      @CL262,ar0            ; |423| 
     3343 00000589 08700000-        ldp       @CL223,DP
     3344 0000058a 0af1017e         mpyi      382,ir0               ; |423| 
     3345 0000058b 502000e3-        ldiu      @CL223,r0             ; |423| 
     3346 0000058c 15404000         sti       r0,*+ar0(ir0)         ; |423| 
     3347                           .line   366
     3348                   ;----------------------------------------------------------------------
TMS320C3x/4x COFF AssemblerVersion 5.12     Tue Mar 02 13:03:54 2021
Copyright (c) 1987-1999 Texas Instruments Incorporatedasm30.exe -@_8O8.AAB 

G:\workspace\EEA\V615\APP\SOURCE\ASM\main.asm                        PAGE   63

     3349                   ; 425 | COR[i].u_density                                = u_mpv_kg_cm;         
     3350                   ;----------------------------------------------------------------------
     3351 0000058d 50510301         ldiu      *+fp(1),ir0           ; |425| 
     3352 0000058e 08700000-        ldp       @CL263,DP
     3353 0000058f 0af1017e         mpyi      382,ir0               ; |425| 
     3354 00000590 5028010c-        ldiu      @CL263,ar0            ; |425| 
     3355 00000591 5060005c         ldiu      92,r0                 ; |425| 
     3356 00000592 15404000         sti       r0,*+ar0(ir0)         ; |425| 
     3357                           .line   367
     3358                   ;----------------------------------------------------------------------
     3359                   ; 426 | COR[i].density_corrected                = API_error_num;               
     3360                   ;----------------------------------------------------------------------
     3361 00000593 08700000-        ldp       @CL264,DP
     3362 00000594 50510301         ldiu      *+fp(1),ir0           ; |426| 
     3363 00000595 5028010d-        ldiu      @CL264,ar0            ; |426| 
     3364 00000596 08700000-        ldp       @CL265,DP
     3365 00000597 0af1017e         mpyi      382,ir0               ; |426| 
     3366 00000598 4020010e-        ldfu      @CL265,f0             ; |426| 
     3367 00000599 14404000         stf       f0,*+ar0(ir0)         ; |426| 
     3368                           .line   368
     3369                   ;----------------------------------------------------------------------
     3370                   ; 427 | COR[i].density_PDI_corrected    = 0;                                   
     3371                   ;----------------------------------------------------------------------
     3372 0000059a 50510301         ldiu      *+fp(1),ir0           ; |427| 
     3373 0000059b 08700000-        ldp       @CL266,DP
     3374 0000059c 0af1017e         mpyi      382,ir0               ; |427| 
     3375 0000059d 5028010f-        ldiu      @CL266,ar0            ; |427| 
     3376 0000059e 40608000         ldfu      0.0000000000e+00,f0   ; |427| 
     3377 0000059f 14404000         stf       f0,*+ar0(ir0)         ; |427| 
     3378                           .line   369
     3379                   ;----------------------------------------------------------------------
     3380                   ; 428 | COR[i].u_density_corrected              = u_mpv_deg_API_60F;           
     3381                   ;----------------------------------------------------------------------
     3382 000005a0 50510301         ldiu      *+fp(1),ir0           ; |428| 
     3383 000005a1 08700000-        ldp       @CL267,DP
     3384 000005a2 0af1017e         mpyi      382,ir0               ; |428| 
     3385 000005a3 50280110-        ldiu      @CL267,ar0            ; |428| 
     3386 000005a4 50600069         ldiu      105,r0                ; |428| 
     3387 000005a5 15404000         sti       r0,*+ar0(ir0)         ; |428| 
     3388                           .line   370
     3389                   ;----------------------------------------------------------------------
     3390                   ; 429 | COR[i].u_P                                              = u_p_psi;     
     3391                   ;----------------------------------------------------------------------
     3392 000005a6 50510301         ldiu      *+fp(1),ir0           ; |429| 
     3393 000005a7 08700000-        ldp       @CL268,DP
     3394 000005a8 0af1017e         mpyi      382,ir0               ; |429| 
     3395 000005a9 50280111-        ldiu      @CL268,ar0            ; |429| 
     3396 000005aa 50600006         ldiu      6,r0                  ; |429| 
     3397 000005ab 15404000         sti       r0,*+ar0(ir0)         ; |429| 
     3398                           .line   371
     3399                   ;----------------------------------------------------------------------
     3400                   ; 430 | COR[i].P                                                = 0;           
     3401                   ;----------------------------------------------------------------------
     3402 000005ac 50510301         ldiu      *+fp(1),ir0           ; |430| 
TMS320C3x/4x COFF AssemblerVersion 5.12     Tue Mar 02 13:03:54 2021
Copyright (c) 1987-1999 Texas Instruments Incorporatedasm30.exe -@_8O8.AAB 

G:\workspace\EEA\V615\APP\SOURCE\ASM\main.asm                        PAGE   64

     3403 000005ad 08700000-        ldp       @CL269,DP
     3404 000005ae 0af1017e         mpyi      382,ir0               ; |430| 
     3405 000005af 50280112-        ldiu      @CL269,ar0            ; |430| 
     3406 000005b0 40608000         ldfu      0.0000000000e+00,f0   ; |430| 
     3407 000005b1 14404000         stf       f0,*+ar0(ir0)         ; |430| 
     3408                           .line   372
     3409                   ;----------------------------------------------------------------------
     3410                   ; 431 | COR[i].T                                                = 0;           
     3411                   ;----------------------------------------------------------------------
     3412 000005b2 50510301         ldiu      *+fp(1),ir0           ; |431| 
     3413 000005b3 08700000-        ldp       @CL270,DP
     3414 000005b4 0af1017e         mpyi      382,ir0               ; |431| 
     3415 000005b5 50280113-        ldiu      @CL270,ar0            ; |431| 
     3416 000005b6 40608000         ldfu      0.0000000000e+00,f0   ; |431| 
     3417 000005b7 14404000         stf       f0,*+ar0(ir0)         ; |431| 
     3418                           .line   373
     3419                   ;----------------------------------------------------------------------
     3420                   ; 432 | COR[i].u_T                                              = u_temp_F;    
     3421                   ;----------------------------------------------------------------------
     3422 000005b8 50510301         ldiu      *+fp(1),ir0           ; |432| 
     3423 000005b9 08700000-        ldp       @CL271,DP
     3424 000005ba 0af1017e         mpyi      382,ir0               ; |432| 
     3425 000005bb 50280114-        ldiu      @CL271,ar0            ; |432| 
     3426 000005bc 50600021         ldiu      33,r0                 ; |432| 
     3427 000005bd 15404000         sti       r0,*+ar0(ir0)         ; |432| 
     3428                           .line   374
     3429                   ;----------------------------------------------------------------------
     3430                   ; 433 | COR[i].vfr                                              = 0;           
     3431                   ;----------------------------------------------------------------------
     3432 000005be 50510301         ldiu      *+fp(1),ir0           ; |433| 
     3433 000005bf 08700000-        ldp       @CL272,DP
     3434 000005c0 0af1017e         mpyi      382,ir0               ; |433| 
     3435 000005c1 50280115-        ldiu      @CL272,ar0            ; |433| 
     3436 000005c2 40608000         ldfu      0.0000000000e+00,f0   ; |433| 
     3437 000005c3 14404000         stf       f0,*+ar0(ir0)         ; |433| 
     3438                           .line   375
     3439                   ;----------------------------------------------------------------------
     3440                   ; 434 | COR[i].visc                                     = 0;                   
     3441                   ;----------------------------------------------------------------------
     3442 000005c4 50510301         ldiu      *+fp(1),ir0           ; |434| 
     3443 000005c5 08700000-        ldp       @CL273,DP
     3444 000005c6 0af1017e         mpyi      382,ir0               ; |434| 
     3445 000005c7 50280116-        ldiu      @CL273,ar0            ; |434| 
     3446 000005c8 40608000         ldfu      0.0000000000e+00,f0   ; |434| 
     3447 000005c9 14404000         stf       f0,*+ar0(ir0)         ; |434| 
     3448                           .line   376
     3449                   ;----------------------------------------------------------------------
     3450                   ; 435 | COR[i].press                                    = 0;                   
     3451                   ;----------------------------------------------------------------------
     3452 000005ca 50510301         ldiu      *+fp(1),ir0           ; |435| 
     3453 000005cb 08700000-        ldp       @CL274,DP
     3454 000005cc 0af1017e         mpyi      382,ir0               ; |435| 
     3455 000005cd 50280117-        ldiu      @CL274,ar0            ; |435| 
     3456 000005ce 40608000         ldfu      0.0000000000e+00,f0   ; |435| 
TMS320C3x/4x COFF AssemblerVersion 5.12     Tue Mar 02 13:03:54 2021
Copyright (c) 1987-1999 Texas Instruments Incorporatedasm30.exe -@_8O8.AAB 

G:\workspace\EEA\V615\APP\SOURCE\ASM\main.asm                        PAGE   65

     3457 000005cf 14404000         stf       f0,*+ar0(ir0)         ; |435| 
     3458                           .line   377
     3459                   ;----------------------------------------------------------------------
     3460                   ; 436 | COR[i].mass_total                               = 0;                   
     3461                   ;----------------------------------------------------------------------
     3462 000005d0 08700000-        ldp       @CL275,DP
     3463 000005d1 50510301         ldiu      *+fp(1),ir0           ; |436| 
     3464 000005d2 50280118-        ldiu      @CL275,ar0            ; |436| 
     3465 000005d3 0af1017e         mpyi      382,ir0               ; |436| 
     3466 000005d4 40608000         ldfu      0.0000000000e+00,f0   ; |436| 
     3467 000005d5 14404000         stf       f0,*+ar0(ir0)         ; |436| 
     3468                           .line   378
     3469                   ;----------------------------------------------------------------------
     3470                   ; 437 | COR[i].volume_total                     = 0;                           
     3471                   ;----------------------------------------------------------------------
     3472 000005d6 08700000-        ldp       @CL276,DP
     3473 000005d7 50510301         ldiu      *+fp(1),ir0           ; |437| 
     3474 000005d8 0af1017e         mpyi      382,ir0               ; |437| 
     3475 000005d9 50280119-        ldiu      @CL276,ar0            ; |437| 
     3476 000005da 40608000         ldfu      0.0000000000e+00,f0   ; |437| 
     3477 000005db 14404000         stf       f0,*+ar0(ir0)         ; |437| 
     3478                           .line   379
     3479                   ;----------------------------------------------------------------------
     3480                   ; 438 | COR[i].mass_inv                                 = 0;                   
     3481                   ;----------------------------------------------------------------------
     3482 000005dc 50510301         ldiu      *+fp(1),ir0           ; |438| 
     3483 000005dd 08700000-        ldp       @CL277,DP
     3484 000005de 0af1017e         mpyi      382,ir0               ; |438| 
     3485 000005df 5028011a-        ldiu      @CL277,ar0            ; |438| 
     3486 000005e0 40608000         ldfu      0.0000000000e+00,f0   ; |438| 
     3487 000005e1 14404000         stf       f0,*+ar0(ir0)         ; |438| 
     3488                           .line   380
     3489                   ;----------------------------------------------------------------------
     3490                   ; 439 | COR[i].volume_inv                               = 0;                   
     3491                   ;----------------------------------------------------------------------
     3492 000005e2 50510301         ldiu      *+fp(1),ir0           ; |439| 
     3493 000005e3 08700000-        ldp       @CL278,DP
     3494 000005e4 0af1017e         mpyi      382,ir0               ; |439| 
     3495 000005e5 5028011b-        ldiu      @CL278,ar0            ; |439| 
     3496 000005e6 40608000         ldfu      0.0000000000e+00,f0   ; |439| 
     3497 000005e7 14404000         stf       f0,*+ar0(ir0)         ; |439| 
     3498                           .line   381
     3499                   ;----------------------------------------------------------------------
     3500                   ; 440 | COR[i].raw_tube_freq                    = 0;                           
     3501                   ;----------------------------------------------------------------------
     3502 000005e8 08700000-        ldp       @CL279,DP
     3503 000005e9 50510301         ldiu      *+fp(1),ir0           ; |440| 
     3504 000005ea 5028011c-        ldiu      @CL279,ar0            ; |440| 
     3505 000005eb 0af1017e         mpyi      382,ir0               ; |440| 
     3506 000005ec 40608000         ldfu      0.0000000000e+00,f0   ; |440| 
     3507 000005ed 14404000         stf       f0,*+ar0(ir0)         ; |440| 
     3508                           .line   382
     3509                   ;----------------------------------------------------------------------
     3510                   ; 441 | COR[i].left_pickup_value                = 0;                           
TMS320C3x/4x COFF AssemblerVersion 5.12     Tue Mar 02 13:03:54 2021
Copyright (c) 1987-1999 Texas Instruments Incorporatedasm30.exe -@_8O8.AAB 

G:\workspace\EEA\V615\APP\SOURCE\ASM\main.asm                        PAGE   66

     3511                   ;----------------------------------------------------------------------
     3512 000005ee 50510301         ldiu      *+fp(1),ir0           ; |441| 
     3513 000005ef 08700000-        ldp       @CL280,DP
     3514 000005f0 0af1017e         mpyi      382,ir0               ; |441| 
     3515 000005f1 5028011d-        ldiu      @CL280,ar0            ; |441| 
     3516 000005f2 40608000         ldfu      0.0000000000e+00,f0   ; |441| 
     3517 000005f3 14404000         stf       f0,*+ar0(ir0)         ; |441| 
     3518                           .line   383
     3519                   ;----------------------------------------------------------------------
     3520                   ; 442 | COR[i].right_pickup_value               = 0;                           
     3521                   ;----------------------------------------------------------------------
     3522 000005f4 08700000-        ldp       @CL281,DP
     3523 000005f5 50510301         ldiu      *+fp(1),ir0           ; |442| 
     3524 000005f6 5028011e-        ldiu      @CL281,ar0            ; |442| 
     3525 000005f7 0af1017e         mpyi      382,ir0               ; |442| 
     3526 000005f8 40608000         ldfu      0.0000000000e+00,f0   ; |442| 
     3527 000005f9 14404000         stf       f0,*+ar0(ir0)         ; |442| 
     3528                           .line   384
     3529                   ;----------------------------------------------------------------------
     3530                   ; 443 | COR[i].drive_gain                               = 0;                   
     3531                   ;----------------------------------------------------------------------
     3532 000005fa 08700000-        ldp       @CL282,DP
     3533 000005fb 5028011f-        ldiu      @CL282,ar0            ; |443| 
     3534 000005fc 50510301         ldiu      *+fp(1),ir0           ; |443| 
     3535 000005fd 0af1017e         mpyi      382,ir0               ; |443| 
     3536 000005fe 40608000         ldfu      0.0000000000e+00,f0   ; |443| 
     3537 000005ff 14404000         stf       f0,*+ar0(ir0)         ; |443| 
     3538                           .line   385
     3539                   ;----------------------------------------------------------------------
     3540                   ; 444 | COR[i].u_v                                              = u_generic_unk
     3541                   ;     | nown;                                                                  
     3542                   ;----------------------------------------------------------------------
     3543 00000600 08700000-        ldp       @CL283,DP
     3544 00000601 50510301         ldiu      *+fp(1),ir0           ; |444| 
     3545 00000602 50280120-        ldiu      @CL283,ar0            ; |444| 
     3546 00000603 0af1017e         mpyi      382,ir0               ; |444| 
     3547 00000604 506000fc         ldiu      252,r0                ; |444| 
     3548 00000605 15404000         sti       r0,*+ar0(ir0)         ; |444| 
     3549                           .line   386
     3550                   ;----------------------------------------------------------------------
     3551                   ; 445 | COR[i].u_vfr                                    = u_generic_unknown;   
     3552                   ;----------------------------------------------------------------------
     3553 00000606 08700000-        ldp       @CL284,DP
     3554 00000607 50510301         ldiu      *+fp(1),ir0           ; |445| 
     3555 00000608 0af1017e         mpyi      382,ir0               ; |445| 
     3556 00000609 50280121-        ldiu      @CL284,ar0            ; |445| 
     3557 0000060a 15404000         sti       r0,*+ar0(ir0)         ; |445| 
     3558                           .line   387
     3559                   ;----------------------------------------------------------------------
     3560                   ; 446 | COR[i].u_visc                                   = u_generic_unknown;   
     3561                   ;----------------------------------------------------------------------
     3562 0000060b 50510301         ldiu      *+fp(1),ir0           ; |446| 
     3563 0000060c 08700000-        ldp       @CL285,DP
     3564 0000060d 0af1017e         mpyi      382,ir0               ; |446| 
TMS320C3x/4x COFF AssemblerVersion 5.12     Tue Mar 02 13:03:54 2021
Copyright (c) 1987-1999 Texas Instruments Incorporatedasm30.exe -@_8O8.AAB 

G:\workspace\EEA\V615\APP\SOURCE\ASM\main.asm                        PAGE   67

     3565 0000060e 50280122-        ldiu      @CL285,ar0            ; |446| 
     3566 0000060f 15404000         sti       r0,*+ar0(ir0)         ; |446| 
     3567                           .line   388
     3568                   ;----------------------------------------------------------------------
     3569                   ; 447 | COR[i].u_m                                              = u_generic_unk
     3570                   ;     | nown;                                                                  
     3571                   ;----------------------------------------------------------------------
     3572 00000610 50510301         ldiu      *+fp(1),ir0           ; |447| 
     3573 00000611 08700000-        ldp       @CL286,DP
     3574 00000612 0af1017e         mpyi      382,ir0               ; |447| 
     3575 00000613 50280123-        ldiu      @CL286,ar0            ; |447| 
     3576 00000614 15404000         sti       r0,*+ar0(ir0)         ; |447| 
     3577                           .line   389
     3578                   ;----------------------------------------------------------------------
     3579                   ; 448 | COR[i].u_mfr                                    = u_generic_unknown;   
     3580                   ;----------------------------------------------------------------------
     3581 00000615 50510301         ldiu      *+fp(1),ir0           ; |448| 
     3582 00000616 08700000-        ldp       @CL287,DP
     3583 00000617 0af1017e         mpyi      382,ir0               ; |448| 
     3584 00000618 50280124-        ldiu      @CL287,ar0            ; |448| 
     3585 00000619 15404000         sti       r0,*+ar0(ir0)         ; |448| 
     3586                           .line   390
     3587                   ;----------------------------------------------------------------------
     3588                   ; 449 | COR[i].Z.val                                    = 0;                   
     3589                   ;----------------------------------------------------------------------
     3590 0000061a 08700000-        ldp       @CL288,DP
     3591 0000061b 50510301         ldiu      *+fp(1),ir0           ; |449| 
     3592 0000061c 50280125-        ldiu      @CL288,ar0            ; |449| 
     3593 0000061d 0af1017e         mpyi      382,ir0               ; |449| 
     3594 0000061e 50600000         ldiu      0,r0                  ; |449| 
     3595 0000061f 15404000         sti       r0,*+ar0(ir0)         ; |449| 
     3596                           .line   304
     3597 00000620 50600001         ldiu      1,r0                  ; |363| 
     3598 00000621 02400301         addi      *+fp(1),r0            ; |363| 
     3599 00000622 15400301         sti       r0,*+fp(1)            ; |363| 
     3600 00000623 04e00005         cmpi      5,r0                  ; |363| 
     3601 00000624 6a07fdaf         blt       L31                   ; |363| 
     3602                   ;*      Branch Occurs to L31            ; |363| 
     3603 00000625          L34:        
     3604                           .line   393
     3605                   ;----------------------------------------------------------------------
     3606                   ; 452 | COR[0].Z.vect  = (int*)CORIOLIS_ZERO1;                                 
     3607                   ;----------------------------------------------------------------------
     3608 00000625 08700000-        ldp       @CL289,DP
     3609 00000626 50280126-        ldiu      @CL289,ar0            ; |452| 
     3610 00000627 08700000-        ldp       @CL290,DP
     3611 00000628 50200127-        ldiu      @CL290,r0             ; |452| 
     3612 00000629 1540c000         sti       r0,*ar0               ; |452| 
     3613                           .line   394
     3614                   ;----------------------------------------------------------------------
     3615                   ; 453 | COR[1].Z.vect  = (int*)CORIOLIS_ZERO2;                                 
     3616                   ;----------------------------------------------------------------------
     3617 0000062a 08700000-        ldp       @CL291,DP
     3618 0000062b 50280128-        ldiu      @CL291,ar0            ; |453| 
TMS320C3x/4x COFF AssemblerVersion 5.12     Tue Mar 02 13:03:54 2021
Copyright (c) 1987-1999 Texas Instruments Incorporatedasm30.exe -@_8O8.AAB 

G:\workspace\EEA\V615\APP\SOURCE\ASM\main.asm                        PAGE   68

     3619 0000062c 08700000-        ldp       @CL292,DP
     3620 0000062d 50200129-        ldiu      @CL292,r0             ; |453| 
     3621 0000062e 1540c000         sti       r0,*ar0               ; |453| 
     3622                           .line   395
     3623                   ;----------------------------------------------------------------------
     3624                   ; 454 | COR[2].Z.vect  = (int*)CORIOLIS_ZERO3;                                 
     3625                   ;----------------------------------------------------------------------
     3626 0000062f 08700000-        ldp       @CL293,DP
     3627 00000630 5028012a-        ldiu      @CL293,ar0            ; |454| 
     3628 00000631 08700000-        ldp       @CL294,DP
     3629 00000632 5020012b-        ldiu      @CL294,r0             ; |454| 
     3630 00000633 1540c000         sti       r0,*ar0               ; |454| 
     3631                           .line   396
     3632                   ;----------------------------------------------------------------------
     3633                   ; 455 | COR[3].Z.vect  = (int*)CORIOLIS_ZERO4;                                 
     3634                   ;----------------------------------------------------------------------
     3635 00000634 08700000-        ldp       @CL295,DP
     3636 00000635 5028012c-        ldiu      @CL295,ar0            ; |455| 
     3637 00000636 08700000-        ldp       @CL296,DP
     3638 00000637 5020012d-        ldiu      @CL296,r0             ; |455| 
     3639 00000638 1540c000         sti       r0,*ar0               ; |455| 
     3640                           .line   397
     3641                   ;----------------------------------------------------------------------
     3642                   ; 456 | COR[0].Z.vect2 = NULL_PTR;                              /*define .vect2
     3643                   ;     |  for ZERO coil or sys freeze RS*/                                      
     3644                   ;----------------------------------------------------------------------
     3645 00000639 08700000-        ldp       @CL297,DP
     3646 0000063a 5028012e-        ldiu      @CL297,ar0            ; |456| 
     3647 0000063b 50600000         ldiu      0,r0                  ; |456| 
     3648 0000063c 1540c000         sti       r0,*ar0               ; |456| 
     3649                           .line   398
     3650                   ;----------------------------------------------------------------------
     3651                   ; 457 | COR[1].Z.vect2 = NULL_PTR;                                             
     3652                   ;----------------------------------------------------------------------
     3653 0000063d 08700000-        ldp       @CL298,DP
     3654 0000063e 5028012f-        ldiu      @CL298,ar0            ; |457| 
     3655 0000063f 1540c000         sti       r0,*ar0               ; |457| 
     3656                           .line   399
     3657                   ;----------------------------------------------------------------------
     3658                   ; 458 | COR[2].Z.vect2 = NULL_PTR;                                             
     3659                   ;----------------------------------------------------------------------
     3660 00000640 08700000-        ldp       @CL299,DP
     3661 00000641 50280130-        ldiu      @CL299,ar0            ; |458| 
     3662 00000642 1540c000         sti       r0,*ar0               ; |458| 
     3663                           .line   400
     3664                   ;----------------------------------------------------------------------
     3665                   ; 459 | COR[3].Z.vect2 = NULL_PTR;                                             
     3666                   ;----------------------------------------------------------------------
     3667 00000643 08700000-        ldp       @CL300,DP
     3668 00000644 50280131-        ldiu      @CL300,ar0            ; |459| 
     3669 00000645 1540c000         sti       r0,*ar0               ; |459| 
     3670                           .line   402
     3671                   ;----------------------------------------------------------------------
     3672                   ; 461 | for (i=0;i<FCMAX;i++)                                                  
TMS320C3x/4x COFF AssemblerVersion 5.12     Tue Mar 02 13:03:54 2021
Copyright (c) 1987-1999 Texas Instruments Incorporatedasm30.exe -@_8O8.AAB 

G:\workspace\EEA\V615\APP\SOURCE\ASM\main.asm                        PAGE   69

     3673                   ;----------------------------------------------------------------------
     3674 00000646 15400301         sti       r0,*+fp(1)            ; |461| 
     3675 00000647 04e00003         cmpi      3,r0                  ; |461| 
     3676 00000648 6a0a0182         bge       L51                   ; |461| 
     3677                   ;*      Branch Occurs to L51            ; |461| 
     3678 00000649          L35:        
     3679                           .line   405
     3680                   ;----------------------------------------------------------------------
     3681                   ; 464 | PRESS[i].u_DP           = u_p_in_H2O_60F;                              
     3682                   ;----------------------------------------------------------------------
     3683 00000649 50510301         ldiu      *+fp(1),ir0           ; |464| 
     3684 0000064a 08700000-        ldp       @CL301,DP
     3685 0000064b 0af10009         mpyi      9,ir0                 ; |464| 
     3686 0000064c 50280132-        ldiu      @CL301,ar0            ; |464| 
     3687 0000064d 50600091         ldiu      145,r0                ; |464| 
     3688 0000064e 15404000         sti       r0,*+ar0(ir0)         ; |464| 
     3689                           .line   406
     3690                   ;----------------------------------------------------------------------
     3691                   ; 465 | PRESS[i].u_SP           = u_p_psi;                                     
     3692                   ;----------------------------------------------------------------------
     3693 0000064f 08700000-        ldp       @CL302,DP
     3694 00000650 50510301         ldiu      *+fp(1),ir0           ; |465| 
     3695 00000651 50280133-        ldiu      @CL302,ar0            ; |465| 
     3696 00000652 0af10009         mpyi      9,ir0                 ; |465| 
     3697 00000653 50600006         ldiu      6,r0                  ; |465| 
     3698 00000654 15404000         sti       r0,*+ar0(ir0)         ; |465| 
     3699                           .line   407
     3700                   ;----------------------------------------------------------------------
     3701                   ; 466 | PRESS[i].u_PT           = u_temp_F;                                    
     3702                   ;----------------------------------------------------------------------
     3703 00000655 08700000-        ldp       @CL303,DP
     3704 00000656 50510301         ldiu      *+fp(1),ir0           ; |466| 
     3705 00000657 50280134-        ldiu      @CL303,ar0            ; |466| 
     3706 00000658 0af10009         mpyi      9,ir0                 ; |466| 
     3707 00000659 50600021         ldiu      33,r0                 ; |466| 
     3708 0000065a 15404000         sti       r0,*+ar0(ir0)         ; |466| 
     3709                           .line   408
     3710                   ;----------------------------------------------------------------------
     3711                   ; 467 | PRESS[i].p_delta        = 0;                                           
     3712                   ;----------------------------------------------------------------------
     3713 0000065b 08700000-        ldp       @CL304,DP
     3714 0000065c 50510301         ldiu      *+fp(1),ir0           ; |467| 
     3715 0000065d 50280135-        ldiu      @CL304,ar0            ; |467| 
     3716 0000065e 0af10009         mpyi      9,ir0                 ; |467| 
     3717 0000065f 40608000         ldfu      0.0000000000e+00,f0   ; |467| 
     3718 00000660 14404000         stf       f0,*+ar0(ir0)         ; |467| 
     3719                           .line   409
     3720                   ;----------------------------------------------------------------------
     3721                   ; 468 | PRESS[i].p_static       = 0;                                           
     3722                   ;----------------------------------------------------------------------
     3723 00000661 08700000-        ldp       @CL305,DP
     3724 00000662 50510301         ldiu      *+fp(1),ir0           ; |468| 
     3725 00000663 50280136-        ldiu      @CL305,ar0            ; |468| 
     3726 00000664 0af10009         mpyi      9,ir0                 ; |468| 
TMS320C3x/4x COFF AssemblerVersion 5.12     Tue Mar 02 13:03:54 2021
Copyright (c) 1987-1999 Texas Instruments Incorporatedasm30.exe -@_8O8.AAB 

G:\workspace\EEA\V615\APP\SOURCE\ASM\main.asm                        PAGE   70

     3727 00000665 40608000         ldfu      0.0000000000e+00,f0   ; |468| 
     3728 00000666 14404000         stf       f0,*+ar0(ir0)         ; |468| 
     3729                           .line   410
     3730                   ;----------------------------------------------------------------------
     3731                   ; 469 | PRESS[i].T                      = 0;                                   
     3732                   ;----------------------------------------------------------------------
     3733 00000667 50510301         ldiu      *+fp(1),ir0           ; |469| 
     3734 00000668 08700000-        ldp       @CL306,DP
     3735 00000669 0af10009         mpyi      9,ir0                 ; |469| 
     3736 0000066a 50280137-        ldiu      @CL306,ar0            ; |469| 
     3737 0000066b 40608000         ldfu      0.0000000000e+00,f0   ; |469| 
     3738 0000066c 14404000         stf       f0,*+ar0(ir0)         ; |469| 
     3739                           .line   411
     3740                   ;----------------------------------------------------------------------
     3741                   ; 470 | PRESS[i].diag0          = 0;                                           
     3742                   ;----------------------------------------------------------------------
     3743 0000066d 08700000-        ldp       @CL307,DP
     3744 0000066e 50510301         ldiu      *+fp(1),ir0           ; |470| 
     3745 0000066f 50280138-        ldiu      @CL307,ar0            ; |470| 
     3746 00000670 0af10009         mpyi      9,ir0                 ; |470| 
     3747 00000671 40608000         ldfu      0.0000000000e+00,f0   ; |470| 
     3748 00000672 14404000         stf       f0,*+ar0(ir0)         ; |470| 
     3749                           .line   412
     3750                   ;----------------------------------------------------------------------
     3751                   ; 471 | PRESS[i].diag1          = 0;                                           
     3752                   ;----------------------------------------------------------------------
     3753 00000673 08700000-        ldp       @CL308,DP
     3754 00000674 50280139-        ldiu      @CL308,ar0            ; |471| 
     3755 00000675 50510301         ldiu      *+fp(1),ir0           ; |471| 
     3756 00000676 0af10009         mpyi      9,ir0                 ; |471| 
     3757 00000677 40608000         ldfu      0.0000000000e+00,f0   ; |471| 
     3758 00000678 14404000         stf       f0,*+ar0(ir0)         ; |471| 
     3759                           .line   413
     3760                   ;----------------------------------------------------------------------
     3761                   ; 472 | PRESS[i].diag2          = 0;                                           
     3762                   ;----------------------------------------------------------------------
     3763 00000679 50510301         ldiu      *+fp(1),ir0           ; |472| 
     3764 0000067a 08700000-        ldp       @CL309,DP
     3765 0000067b 0af10009         mpyi      9,ir0                 ; |472| 
     3766 0000067c 5028013a-        ldiu      @CL309,ar0            ; |472| 
     3767 0000067d 40608000         ldfu      0.0000000000e+00,f0   ; |472| 
     3768 0000067e 14404000         stf       f0,*+ar0(ir0)         ; |472| 
     3769                           .line   416
     3770                   ;----------------------------------------------------------------------
     3771                   ; 475 | TMPTRANS[i].T                                   = 0;                   
     3772                   ;----------------------------------------------------------------------
     3773 0000067f 50510301         ldiu      *+fp(1),ir0           ; |475| 
     3774 00000680 08700000-        ldp       @CL310,DP
     3775 00000681 0af10006         mpyi      6,ir0                 ; |475| 
     3776 00000682 5028013b-        ldiu      @CL310,ar0            ; |475| 
     3777 00000683 40608000         ldfu      0.0000000000e+00,f0   ; |475| 
     3778 00000684 14404000         stf       f0,*+ar0(ir0)         ; |475| 
     3779                           .line   417
     3780                   ;----------------------------------------------------------------------
TMS320C3x/4x COFF AssemblerVersion 5.12     Tue Mar 02 13:03:54 2021
Copyright (c) 1987-1999 Texas Instruments Incorporatedasm30.exe -@_8O8.AAB 

G:\workspace\EEA\V615\APP\SOURCE\ASM\main.asm                        PAGE   71

     3781                   ; 476 | TMPTRANS[i].etc0                                = 0;                   
     3782                   ;----------------------------------------------------------------------
     3783 00000685 08700000-        ldp       @CL311,DP
     3784 00000686 50510301         ldiu      *+fp(1),ir0           ; |476| 
     3785 00000687 5028013c-        ldiu      @CL311,ar0            ; |476| 
     3786 00000688 0af10006         mpyi      6,ir0                 ; |476| 
     3787 00000689 40608000         ldfu      0.0000000000e+00,f0   ; |476| 
     3788 0000068a 14404000         stf       f0,*+ar0(ir0)         ; |476| 
     3789                           .line   418
     3790                   ;----------------------------------------------------------------------
     3791                   ; 477 | TMPTRANS[i].etc1                                = 0;                   
     3792                   ;----------------------------------------------------------------------
     3793 0000068b 50510301         ldiu      *+fp(1),ir0           ; |477| 
     3794 0000068c 08700000-        ldp       @CL312,DP
     3795 0000068d 0af10006         mpyi      6,ir0                 ; |477| 
     3796 0000068e 5028013d-        ldiu      @CL312,ar0            ; |477| 
     3797 0000068f 40608000         ldfu      0.0000000000e+00,f0   ; |477| 
     3798 00000690 14404000         stf       f0,*+ar0(ir0)         ; |477| 
     3799                           .line   419
     3800                   ;----------------------------------------------------------------------
     3801                   ; 478 | TMPTRANS[i].etc2                                = 0;                   
     3802                   ;----------------------------------------------------------------------
     3803 00000691 08700000-        ldp       @CL313,DP
     3804 00000692 50510301         ldiu      *+fp(1),ir0           ; |478| 
     3805 00000693 5028013e-        ldiu      @CL313,ar0            ; |478| 
     3806 00000694 0af10006         mpyi      6,ir0                 ; |478| 
     3807 00000695 40608000         ldfu      0.0000000000e+00,f0   ; |478| 
     3808 00000696 14404000         stf       f0,*+ar0(ir0)         ; |478| 
     3809                           .line   420
     3810                   ;----------------------------------------------------------------------
     3811                   ; 479 | TMPTRANS[i].etc3                                = 0;                   
     3812                   ;----------------------------------------------------------------------
     3813 00000697 08700000-        ldp       @CL314,DP
     3814 00000698 50510301         ldiu      *+fp(1),ir0           ; |479| 
     3815 00000699 5028013f-        ldiu      @CL314,ar0            ; |479| 
     3816 0000069a 0af10006         mpyi      6,ir0                 ; |479| 
     3817 0000069b 40608000         ldfu      0.0000000000e+00,f0   ; |479| 
     3818 0000069c 14404000         stf       f0,*+ar0(ir0)         ; |479| 
     3819                           .line   421
     3820                   ;----------------------------------------------------------------------
     3821                   ; 480 | TMPTRANS[i].etc4                                = 0;                   
     3822                   ;----------------------------------------------------------------------
     3823 0000069d 50510301         ldiu      *+fp(1),ir0           ; |480| 
     3824 0000069e 08700000-        ldp       @CL315,DP
     3825 0000069f 0af10006         mpyi      6,ir0                 ; |480| 
     3826 000006a0 50280140-        ldiu      @CL315,ar0            ; |480| 
     3827 000006a1 40608000         ldfu      0.0000000000e+00,f0   ; |480| 
     3828 000006a2 14404000         stf       f0,*+ar0(ir0)         ; |480| 
     3829                           .line   422
     3830                   ;----------------------------------------------------------------------
     3831                   ; 481 | FC[i].Dadj                                              = 0;    /* Adju
     3832                   ;     | sted Density */                                                        
     3833                   ;----------------------------------------------------------------------
     3834 000006a3 50510301         ldiu      *+fp(1),ir0           ; |481| 
TMS320C3x/4x COFF AssemblerVersion 5.12     Tue Mar 02 13:03:54 2021
Copyright (c) 1987-1999 Texas Instruments Incorporatedasm30.exe -@_8O8.AAB 

G:\workspace\EEA\V615\APP\SOURCE\ASM\main.asm                        PAGE   72

     3835 000006a4 08700000-        ldp       @CL316,DP
     3836 000006a5 0af10538         mpyi      1336,ir0              ; |481| 
     3837 000006a6 50280141-        ldiu      @CL316,ar0            ; |481| 
     3838 000006a7 40608000         ldfu      0.0000000000e+00,f0   ; |481| 
     3839 000006a8 14404000         stf       f0,*+ar0(ir0)         ; |481| 
     3840                           .line   423
     3841                   ;----------------------------------------------------------------------
     3842                   ; 482 | FC[i].PULSE_STAT                                = 0;                   
     3843                   ;----------------------------------------------------------------------
     3844 000006a9 50510301         ldiu      *+fp(1),ir0           ; |482| 
     3845 000006aa 08700000-        ldp       @CL317,DP
     3846 000006ab 0af10538         mpyi      1336,ir0              ; |482| 
     3847 000006ac 50280142-        ldiu      @CL317,ar0            ; |482| 
     3848 000006ad 50600000         ldiu      0,r0                  ; |482| 
     3849 000006ae 15404000         sti       r0,*+ar0(ir0)         ; |482| 
     3850                           .line   424
     3851                   ;----------------------------------------------------------------------
     3852                   ; 483 | FC[i].net_watercut                              = 0.0;                 
     3853                   ;----------------------------------------------------------------------
     3854 000006af 50510301         ldiu      *+fp(1),ir0           ; |483| 
     3855 000006b0 08700000-        ldp       @CL318,DP
     3856 000006b1 0af10538         mpyi      1336,ir0              ; |483| 
     3857 000006b2 50280143-        ldiu      @CL318,ar0            ; |483| 
     3858 000006b3 40608000         ldfu      0.0000000000e+00,f0   ; |483| 
     3859 000006b4 14404000         stf       f0,*+ar0(ir0)         ; |483| 
     3860                           .line   425
     3861                   ;----------------------------------------------------------------------
     3862                   ; 484 | FC[i].net_watercut_mass                 = 0.0;                         
     3863                   ;----------------------------------------------------------------------
     3864 000006b5 08700000-        ldp       @CL319,DP
     3865 000006b6 50510301         ldiu      *+fp(1),ir0           ; |484| 
     3866 000006b7 50280144-        ldiu      @CL319,ar0            ; |484| 
     3867 000006b8 0af10538         mpyi      1336,ir0              ; |484| 
     3868 000006b9 40608000         ldfu      0.0000000000e+00,f0   ; |484| 
     3869 000006ba 14404000         stf       f0,*+ar0(ir0)         ; |484| 
     3870                           .line   426
     3871                   ;----------------------------------------------------------------------
     3872                   ; 485 | FC[i].density_PDI_corrected     = API_error_num;                       
     3873                   ;----------------------------------------------------------------------
     3874 000006bb 08700000-        ldp       @CL320,DP
     3875 000006bc 50510301         ldiu      *+fp(1),ir0           ; |485| 
     3876 000006bd 50280145-        ldiu      @CL320,ar0            ; |485| 
     3877 000006be 08700000-        ldp       @CL265,DP
     3878 000006bf 0af10538         mpyi      1336,ir0              ; |485| 
     3879 000006c0 4020010e-        ldfu      @CL265,f0             ; |485| 
     3880 000006c1 14404000         stf       f0,*+ar0(ir0)         ; |485| 
     3881                           .line   428
     3882                   ;----------------------------------------------------------------------
     3883                   ; 487 | VAR_NaN(&FC[i].PULSE_FREQ);                                            
     3884                   ;----------------------------------------------------------------------
     3885 000006c2 504a0301         ldiu      *+fp(1),ar2           ; |487| 
     3886 000006c3 08700000-        ldp       @CL321,DP
     3887 000006c4 0aea0538         mpyi      1336,ar2              ; |487| 
     3888 000006c5 022a0146-        addi      @CL321,ar2            ; |487| Unsigned
TMS320C3x/4x COFF AssemblerVersion 5.12     Tue Mar 02 13:03:54 2021
Copyright (c) 1987-1999 Texas Instruments Incorporatedasm30.exe -@_8O8.AAB 

G:\workspace\EEA\V615\APP\SOURCE\ASM\main.asm                        PAGE   73

     3889 000006c6 08700000-        ldp       @CL127,DP
     3890 000006c7 50200082-        ldiu      @CL127,r0             ; |487| 
     3891 000006c8 70000000         callu     r0                    ; far call to _VAR_NaN  ; |487| 
     3892                                                           ; |487| Far Call Occurs
     3893                           .line   430
     3894                   ;----------------------------------------------------------------------
     3895                   ; 489 | if (FC[i].USE_PDI_SALINITY || !FC[i].MAN_SALINITY)                     
     3896                   ;----------------------------------------------------------------------
     3897 000006c9 08700000-        ldp       @CL322,DP
     3898 000006ca 50510301         ldiu      *+fp(1),ir0           ; |489| 
     3899 000006cb 50280147-        ldiu      @CL322,ar0            ; |489| 
     3900 000006cc 0af10538         mpyi      1336,ir0              ; |489| 
     3901 000006cd 50404000         ldiu      *+ar0(ir0),r0         ; |489| 
     3902 000006ce 04e00000         cmpi      0,r0                  ; |489| 
     3903 000006cf 6a060007         bne       L37                   ; |489| 
     3904                   ;*      Branch Occurs to L37            ; |489| 
     3905 000006d0 50510301         ldiu      *+fp(1),ir0           ; |489| 
     3906 000006d1 08700000-        ldp       @CL323,DP
     3907 000006d2 0af10538         mpyi      1336,ir0              ; |489| 
     3908 000006d3 50280148-        ldiu      @CL323,ar0            ; |489| 
     3909 000006d4 50404000         ldiu      *+ar0(ir0),r0         ; |489| 
     3910 000006d5 04e00000         cmpi      0,r0                  ; |489| 
     3911 000006d6 6a060007         bne       L38                   ; |489| 
     3912                   ;*      Branch Occurs to L38            ; |489| 
     3913 000006d7          L37:        
     3914                           .line   431
     3915                   ;----------------------------------------------------------------------
     3916                   ; 490 | VAR_NaN(&FC[i].salinity);                                              
     3917                   ;----------------------------------------------------------------------
     3918 000006d7 504a0301         ldiu      *+fp(1),ar2           ; |490| 
     3919 000006d8 08700000-        ldp       @CL324,DP
     3920 000006d9 0aea0538         mpyi      1336,ar2              ; |490| 
     3921 000006da 022a0149-        addi      @CL324,ar2            ; |490| Unsigned
     3922 000006db 08700000-        ldp       @CL127,DP
     3923 000006dc 50200082-        ldiu      @CL127,r0             ; |490| 
     3924 000006dd 70000000         callu     r0                    ; far call to _VAR_NaN  ; |490| 
     3925                                                           ; |490| Far Call Occurs
     3926 000006de          L38:        
     3927                           .line   433
     3928                   ;----------------------------------------------------------------------
     3929                   ; 492 | if (USE_PDI_WATERCUT.val || CALC_WC_DENSITY.val || !FC[i].MAN_WATERCUT)
     3930                   ;     |                                                                        
     3931                   ;----------------------------------------------------------------------
     3932 000006de 08700000-        ldp       @CL325,DP
     3933 000006df 5028014a-        ldiu      @CL325,ar0            ; |492| 
     3934 000006e0 5040c000         ldiu      *ar0,r0               ; |492| 
     3935 000006e1 04e00000         cmpi      0,r0                  ; |492| 
     3936 000006e2 6a06000c         bne       L41                   ; |492| 
     3937                   ;*      Branch Occurs to L41            ; |492| 
     3938 000006e3 08700000-        ldp       @CL326,DP
     3939 000006e4 5028014b-        ldiu      @CL326,ar0            ; |492| 
     3940 000006e5 5040c000         ldiu      *ar0,r0               ; |492| 
     3941 000006e6 04e00000         cmpi      0,r0                  ; |492| 
     3942 000006e7 6a060007         bne       L41                   ; |492| 
TMS320C3x/4x COFF AssemblerVersion 5.12     Tue Mar 02 13:03:54 2021
Copyright (c) 1987-1999 Texas Instruments Incorporatedasm30.exe -@_8O8.AAB 

G:\workspace\EEA\V615\APP\SOURCE\ASM\main.asm                        PAGE   74

     3943                   ;*      Branch Occurs to L41            ; |492| 
     3944 000006e8 50510301         ldiu      *+fp(1),ir0           ; |492| 
     3945 000006e9 08700000-        ldp       @CL327,DP
     3946 000006ea 0af10538         mpyi      1336,ir0              ; |492| 
     3947 000006eb 5028014c-        ldiu      @CL327,ar0            ; |492| 
     3948 000006ec 50404000         ldiu      *+ar0(ir0),r0         ; |492| 
     3949 000006ed 04e00000         cmpi      0,r0                  ; |492| 
     3950 000006ee 6a060007         bne       L42                   ; |492| 
     3951                   ;*      Branch Occurs to L42            ; |492| 
     3952 000006ef          L41:        
     3953                           .line   434
     3954                   ;----------------------------------------------------------------------
     3955                   ; 493 | VAR_NaN(&FC[i].watercut);                                              
     3956                   ;----------------------------------------------------------------------
     3957 000006ef 504a0301         ldiu      *+fp(1),ar2           ; |493| 
     3958 000006f0 08700000-        ldp       @CL328,DP
     3959 000006f1 0aea0538         mpyi      1336,ar2              ; |493| 
     3960 000006f2 022a014d-        addi      @CL328,ar2            ; |493| Unsigned
     3961 000006f3 08700000-        ldp       @CL127,DP
     3962 000006f4 50200082-        ldiu      @CL127,r0             ; |493| 
     3963 000006f5 70000000         callu     r0                    ; far call to _VAR_NaN  ; |493| 
     3964                                                           ; |493| Far Call Occurs
     3965 000006f6          L42:        
     3966                           .line   436
     3967                   ;----------------------------------------------------------------------
     3968                   ; 495 | if (!FC[i].MAN_PRESSURE)                                               
     3969                   ;----------------------------------------------------------------------
     3970 000006f6 50510301         ldiu      *+fp(1),ir0           ; |495| 
     3971 000006f7 08700000-        ldp       @CL329,DP
     3972 000006f8 0af10538         mpyi      1336,ir0              ; |495| 
     3973 000006f9 5028014e-        ldiu      @CL329,ar0            ; |495| 
     3974 000006fa 50404000         ldiu      *+ar0(ir0),r0         ; |495| 
     3975 000006fb 04e00000         cmpi      0,r0                  ; |495| 
     3976 000006fc 6a060007         bne       L44                   ; |495| 
     3977                   ;*      Branch Occurs to L44            ; |495| 
     3978                           .line   437
     3979                   ;----------------------------------------------------------------------
     3980                   ; 496 | VAR_NaN(&FC[i].pressure);                                              
     3981                   ;----------------------------------------------------------------------
     3982 000006fd 504a0301         ldiu      *+fp(1),ar2           ; |496| 
     3983 000006fe 08700000-        ldp       @CL330,DP
     3984 000006ff 0aea0538         mpyi      1336,ar2              ; |496| 
     3985 00000700 022a014f-        addi      @CL330,ar2            ; |496| Unsigned
     3986 00000701 08700000-        ldp       @CL127,DP
     3987 00000702 50200082-        ldiu      @CL127,r0             ; |496| 
     3988 00000703 70000000         callu     r0                    ; far call to _VAR_NaN  ; |496| 
     3989                                                           ; |496| Far Call Occurs
     3990 00000704          L44:        
     3991                           .line   439
     3992                   ;----------------------------------------------------------------------
     3993                   ; 498 | if (FC[i].USE_PDI_TEMP || !FC[i].MAN_TEMP)                             
     3994                   ;----------------------------------------------------------------------
     3995 00000704 50510301         ldiu      *+fp(1),ir0           ; |498| 
     3996 00000705 08700000-        ldp       @CL331,DP
TMS320C3x/4x COFF AssemblerVersion 5.12     Tue Mar 02 13:03:54 2021
Copyright (c) 1987-1999 Texas Instruments Incorporatedasm30.exe -@_8O8.AAB 

G:\workspace\EEA\V615\APP\SOURCE\ASM\main.asm                        PAGE   75

     3997 00000706 0af10538         mpyi      1336,ir0              ; |498| 
     3998 00000707 50280150-        ldiu      @CL331,ar0            ; |498| 
     3999 00000708 50404000         ldiu      *+ar0(ir0),r0         ; |498| 
     4000 00000709 04e00000         cmpi      0,r0                  ; |498| 
     4001 0000070a 6a060007         bne       L46                   ; |498| 
     4002                   ;*      Branch Occurs to L46            ; |498| 
     4003 0000070b 50510301         ldiu      *+fp(1),ir0           ; |498| 
     4004 0000070c 08700000-        ldp       @CL332,DP
     4005 0000070d 0af10538         mpyi      1336,ir0              ; |498| 
     4006 0000070e 50280151-        ldiu      @CL332,ar0            ; |498| 
     4007 0000070f 50404000         ldiu      *+ar0(ir0),r0         ; |498| 
     4008 00000710 04e00000         cmpi      0,r0                  ; |498| 
     4009 00000711 6a060007         bne       L47                   ; |498| 
     4010                   ;*      Branch Occurs to L47            ; |498| 
     4011 00000712          L46:        
     4012                           .line   440
     4013                   ;----------------------------------------------------------------------
     4014                   ; 499 | VAR_NaN(&FC[i].T);                                                     
     4015                   ;----------------------------------------------------------------------
     4016 00000712 504a0301         ldiu      *+fp(1),ar2           ; |499| 
     4017 00000713 08700000-        ldp       @CL333,DP
     4018 00000714 0aea0538         mpyi      1336,ar2              ; |499| 
     4019 00000715 022a0152-        addi      @CL333,ar2            ; |499| Unsigned
     4020 00000716 08700000-        ldp       @CL127,DP
     4021 00000717 50200082-        ldiu      @CL127,r0             ; |499| 
     4022 00000718 70000000         callu     r0                    ; far call to _VAR_NaN  ; |499| 
     4023                                                           ; |499| Far Call Occurs
     4024 00000719          L47:        
     4025                           .line   442
     4026                   ;----------------------------------------------------------------------
     4027                   ; 501 | if (!FC[i].MAN_FLOW)                                                   
     4028                   ;----------------------------------------------------------------------
     4029 00000719 50510301         ldiu      *+fp(1),ir0           ; |501| 
     4030 0000071a 08700000-        ldp       @CL334,DP
     4031 0000071b 0af10538         mpyi      1336,ir0              ; |501| 
     4032 0000071c 50280153-        ldiu      @CL334,ar0            ; |501| 
     4033 0000071d 50404000         ldiu      *+ar0(ir0),r0         ; |501| 
     4034 0000071e 04e00000         cmpi      0,r0                  ; |501| 
     4035 0000071f 6a060007         bne       L49                   ; |501| 
     4036                   ;*      Branch Occurs to L49            ; |501| 
     4037                           .line   443
     4038                   ;----------------------------------------------------------------------
     4039                   ; 502 | VAR_NaN(&FC[i].FLOW_TOTAL);                                            
     4040                   ;----------------------------------------------------------------------
     4041 00000720 504a0301         ldiu      *+fp(1),ar2           ; |502| 
     4042 00000721 08700000-        ldp       @CL335,DP
     4043 00000722 0aea0538         mpyi      1336,ar2              ; |502| 
     4044 00000723 022a0154-        addi      @CL335,ar2            ; |502| Unsigned
     4045 00000724 08700000-        ldp       @CL127,DP
     4046 00000725 50200082-        ldiu      @CL127,r0             ; |502| 
     4047 00000726 70000000         callu     r0                    ; far call to _VAR_NaN  ; |502| 
     4048                                                           ; |502| Far Call Occurs
     4049 00000727          L49:        
     4050                           .line   445
TMS320C3x/4x COFF AssemblerVersion 5.12     Tue Mar 02 13:03:54 2021
Copyright (c) 1987-1999 Texas Instruments Incorporatedasm30.exe -@_8O8.AAB 

G:\workspace\EEA\V615\APP\SOURCE\ASM\main.asm                        PAGE   76

     4051                   ;----------------------------------------------------------------------
     4052                   ; 504 | VAR_NaN(&FC[i].FLOW_WATER);                                            
     4053                   ;----------------------------------------------------------------------
     4054 00000727 504a0301         ldiu      *+fp(1),ar2           ; |504| 
     4055 00000728 08700000-        ldp       @CL336,DP
     4056 00000729 0aea0538         mpyi      1336,ar2              ; |504| 
     4057 0000072a 022a0155-        addi      @CL336,ar2            ; |504| Unsigned
     4058 0000072b 08700000-        ldp       @CL127,DP
     4059 0000072c 50200082-        ldiu      @CL127,r0             ; |504| 
     4060 0000072d 70000000         callu     r0                    ; far call to _VAR_NaN  ; |504| 
     4061                                                           ; |504| Far Call Occurs
     4062                           .line   446
     4063                   ;----------------------------------------------------------------------
     4064                   ; 505 | VAR_NaN(&FC[i].FLOW_OIL);                                              
     4065                   ;----------------------------------------------------------------------
     4066 0000072e 08700000-        ldp       @CL337,DP
     4067 0000072f 504a0301         ldiu      *+fp(1),ar2           ; |505| 
     4068 00000730 0aea0538         mpyi      1336,ar2              ; |505| 
     4069 00000731 022a0156-        addi      @CL337,ar2            ; |505| Unsigned
     4070 00000732 08700000-        ldp       @CL127,DP
     4071 00000733 50200082-        ldiu      @CL127,r0             ; |505| 
     4072 00000734 70000000         callu     r0                    ; far call to _VAR_NaN  ; |505| 
     4073                                                           ; |505| Far Call Occurs
     4074                           .line   447
     4075                   ;----------------------------------------------------------------------
     4076                   ; 506 | VAR_NaN(&FC[i].GROSS_TOTAL);                                           
     4077                   ;----------------------------------------------------------------------
     4078 00000735 08700000-        ldp       @CL338,DP
     4079 00000736 504a0301         ldiu      *+fp(1),ar2           ; |506| 
     4080 00000737 0aea0538         mpyi      1336,ar2              ; |506| 
     4081 00000738 022a0157-        addi      @CL338,ar2            ; |506| Unsigned
     4082 00000739 08700000-        ldp       @CL127,DP
     4083 0000073a 50200082-        ldiu      @CL127,r0             ; |506| 
     4084 0000073b 70000000         callu     r0                    ; far call to _VAR_NaN  ; |506| 
     4085                                                           ; |506| Far Call Occurs
     4086                           .line   448
     4087                   ;----------------------------------------------------------------------
     4088                   ; 507 | VAR_NaN(&FC[i].GROSS_WATER);                                           
     4089                   ;----------------------------------------------------------------------
     4090 0000073c 504a0301         ldiu      *+fp(1),ar2           ; |507| 
     4091 0000073d 08700000-        ldp       @CL339,DP
     4092 0000073e 0aea0538         mpyi      1336,ar2              ; |507| 
     4093 0000073f 022a0158-        addi      @CL339,ar2            ; |507| Unsigned
     4094 00000740 08700000-        ldp       @CL127,DP
     4095 00000741 50200082-        ldiu      @CL127,r0             ; |507| 
     4096 00000742 70000000         callu     r0                    ; far call to _VAR_NaN  ; |507| 
     4097                                                           ; |507| Far Call Occurs
     4098                           .line   449
     4099                   ;----------------------------------------------------------------------
     4100                   ; 508 | VAR_NaN(&FC[i].GROSS_OIL);                                             
     4101                   ;----------------------------------------------------------------------
     4102 00000743 08700000-        ldp       @CL340,DP
     4103 00000744 504a0301         ldiu      *+fp(1),ar2           ; |508| 
     4104 00000745 0aea0538         mpyi      1336,ar2              ; |508| 
TMS320C3x/4x COFF AssemblerVersion 5.12     Tue Mar 02 13:03:54 2021
Copyright (c) 1987-1999 Texas Instruments Incorporatedasm30.exe -@_8O8.AAB 

G:\workspace\EEA\V615\APP\SOURCE\ASM\main.asm                        PAGE   77

     4105 00000746 022a0159-        addi      @CL340,ar2            ; |508| Unsigned
     4106 00000747 08700000-        ldp       @CL127,DP
     4107 00000748 50200082-        ldiu      @CL127,r0             ; |508| 
     4108 00000749 70000000         callu     r0                    ; far call to _VAR_NaN  ; |508| 
     4109                                                           ; |508| Far Call Occurs
     4110                           .line   450
     4111                   ;----------------------------------------------------------------------
     4112                   ; 509 | VAR_NaN(&FC[i].NET_FLOW_TOTAL);                                        
     4113                   ;----------------------------------------------------------------------
     4114 0000074a 504a0301         ldiu      *+fp(1),ar2           ; |509| 
     4115 0000074b 08700000-        ldp       @CL341,DP
     4116 0000074c 0aea0538         mpyi      1336,ar2              ; |509| 
     4117 0000074d 022a015a-        addi      @CL341,ar2            ; |509| Unsigned
     4118 0000074e 08700000-        ldp       @CL127,DP
     4119 0000074f 50200082-        ldiu      @CL127,r0             ; |509| 
     4120 00000750 70000000         callu     r0                    ; far call to _VAR_NaN  ; |509| 
     4121                                                           ; |509| Far Call Occurs
     4122                           .line   451
     4123                   ;----------------------------------------------------------------------
     4124                   ; 510 | VAR_NaN(&FC[i].NET_FLOW_WATER);                                        
     4125                   ;----------------------------------------------------------------------
     4126 00000751 08700000-        ldp       @CL342,DP
     4127 00000752 504a0301         ldiu      *+fp(1),ar2           ; |510| 
     4128 00000753 0aea0538         mpyi      1336,ar2              ; |510| 
     4129 00000754 022a015b-        addi      @CL342,ar2            ; |510| Unsigned
     4130 00000755 08700000-        ldp       @CL127,DP
     4131 00000756 50200082-        ldiu      @CL127,r0             ; |510| 
     4132 00000757 70000000         callu     r0                    ; far call to _VAR_NaN  ; |510| 
     4133                                                           ; |510| Far Call Occurs
     4134                           .line   452
     4135                   ;----------------------------------------------------------------------
     4136                   ; 511 | VAR_NaN(&FC[i].NET_FLOW_OIL);                                          
     4137                   ;----------------------------------------------------------------------
     4138 00000758 08700000-        ldp       @CL343,DP
     4139 00000759 504a0301         ldiu      *+fp(1),ar2           ; |511| 
     4140 0000075a 0aea0538         mpyi      1336,ar2              ; |511| 
     4141 0000075b 022a015c-        addi      @CL343,ar2            ; |511| Unsigned
     4142 0000075c 08700000-        ldp       @CL127,DP
     4143 0000075d 50200082-        ldiu      @CL127,r0             ; |511| 
     4144 0000075e 70000000         callu     r0                    ; far call to _VAR_NaN  ; |511| 
     4145                                                           ; |511| Far Call Occurs
     4146                           .line   453
     4147                   ;----------------------------------------------------------------------
     4148                   ; 512 | VAR_NaN(&FC[i].NET_TOTAL);                                             
     4149                   ;----------------------------------------------------------------------
     4150 0000075f 504a0301         ldiu      *+fp(1),ar2           ; |512| 
     4151 00000760 08700000-        ldp       @CL344,DP
     4152 00000761 0aea0538         mpyi      1336,ar2              ; |512| 
     4153 00000762 022a015d-        addi      @CL344,ar2            ; |512| Unsigned
     4154 00000763 08700000-        ldp       @CL127,DP
     4155 00000764 50200082-        ldiu      @CL127,r0             ; |512| 
     4156 00000765 70000000         callu     r0                    ; far call to _VAR_NaN  ; |512| 
     4157                                                           ; |512| Far Call Occurs
     4158                           .line   454
TMS320C3x/4x COFF AssemblerVersion 5.12     Tue Mar 02 13:03:54 2021
Copyright (c) 1987-1999 Texas Instruments Incorporatedasm30.exe -@_8O8.AAB 

G:\workspace\EEA\V615\APP\SOURCE\ASM\main.asm                        PAGE   78

     4159                   ;----------------------------------------------------------------------
     4160                   ; 513 | VAR_NaN(&FC[i].NET_WATER);                                             
     4161                   ;----------------------------------------------------------------------
     4162 00000766 08700000-        ldp       @CL345,DP
     4163 00000767 504a0301         ldiu      *+fp(1),ar2           ; |513| 
     4164 00000768 0aea0538         mpyi      1336,ar2              ; |513| 
     4165 00000769 022a015e-        addi      @CL345,ar2            ; |513| Unsigned
     4166 0000076a 08700000-        ldp       @CL127,DP
     4167 0000076b 50200082-        ldiu      @CL127,r0             ; |513| 
     4168 0000076c 70000000         callu     r0                    ; far call to _VAR_NaN  ; |513| 
     4169                                                           ; |513| Far Call Occurs
     4170                           .line   455
     4171                   ;----------------------------------------------------------------------
     4172                   ; 514 | VAR_NaN(&FC[i].NET_OIL);                                               
     4173                   ; 516 | //accumulated whole number component of gross oil                      
     4174                   ;----------------------------------------------------------------------
     4175 0000076d 504a0301         ldiu      *+fp(1),ar2           ; |514| 
     4176 0000076e 08700000-        ldp       @CL346,DP
     4177 0000076f 0aea0538         mpyi      1336,ar2              ; |514| 
     4178 00000770 022a015f-        addi      @CL346,ar2            ; |514| Unsigned
     4179 00000771 08700000-        ldp       @CL127,DP
     4180 00000772 50200082-        ldiu      @CL127,r0             ; |514| 
     4181 00000773 70000000         callu     r0                    ; far call to _VAR_NaN  ; |514| 
     4182                                                           ; |514| Far Call Occurs
     4183                           .line   458
     4184                   ;----------------------------------------------------------------------
     4185                   ; 517 | FC[i].gross_oil_whole_part              = floor(FC[i].GROSS_OIL.calc_va
     4186                   ;     | l);                                                                    
     4187                   ; 519 | //accumulated fractional component of gross oil                        
     4188                   ;----------------------------------------------------------------------
     4189 00000774 50480301         ldiu      *+fp(1),ar0           ; |517| 
     4190 00000775 08700000-        ldp       @CL348,DP
     4191 00000776 0ae80538         mpyi      1336,ar0              ; |517| 
     4192 00000777 02280161-        addi      @CL348,ar0            ; |517| Unsigned
     4193 00000778 4040c000         ldfu      *ar0,f0               ; |517| 40b float hi half
     4194 00000779 08700000-        ldp       @CL349,DP
     4195 0000077a 50400001         ldiu      *+ar0,r0              ; |517| 40b float lo half
     4196 0000077b 50210162-        ldiu      @CL349,r1             ; |517| 
     4197 0000077c 11020000         rnd       f0,f2                 ; |517| Demote to low precision
     4198 0000077d 70000001         callu     r1                    ; far call to _floor    ; |517| 
     4199                                                           ; |517| Far Call Occurs
     4200 0000077e 50480301         ldiu      *+fp(1),ar0           ; |517| 
     4201 0000077f 506100ff         ldiu      255,r1                ; |517| 
     4202 00000780 08700000-        ldp       @CL347,DP
     4203 00000781 0ae80538         mpyi      1336,ar0              ; |517| 
     4204 00000782 02280160-        addi      @CL347,ar0            ; |517| Unsigned
     4205 00000783 03000001         andn      r1,f0                 ; |517| Bit mask for F32/F40 conversion
     4206 00000784 1440c000         stf       f0,*ar0               ; |517| Store high half
     4207 00000785 15400001         sti       r0,*+ar0              ; |517| Store low half
     4208                           .line   461
     4209                   ;----------------------------------------------------------------------
     4210                   ; 520 | FC[i].gross_oil_fract_part              = FC[i].GROSS_OIL.calc_val - fl
     4211                   ;     | oor(FC[0].GROSS_OIL.calc_val);                                         
     4212                   ; 522 | //accumulated whole number component of gross water                    
TMS320C3x/4x COFF AssemblerVersion 5.12     Tue Mar 02 13:03:54 2021
Copyright (c) 1987-1999 Texas Instruments Incorporatedasm30.exe -@_8O8.AAB 

G:\workspace\EEA\V615\APP\SOURCE\ASM\main.asm                        PAGE   79

     4213                   ;----------------------------------------------------------------------
     4214 00000786 08700000-        ldp       @CL348,DP
     4215 00000787 50280161-        ldiu      @CL348,ar0            ; |520| 
     4216 00000788 4040c000         ldfu      *ar0,f0               ; |520| 40b float hi half
     4217 00000789 50400001         ldiu      *+ar0,r0              ; |520| 40b float lo half
     4218 0000078a 08700000-        ldp       @CL349,DP
     4219 0000078b 11020000         rnd       f0,f2                 ; |520| Demote to low precision
     4220 0000078c 50210162-        ldiu      @CL349,r1             ; |520| 
     4221 0000078d 70000001         callu     r1                    ; far call to _floor    ; |520| 
     4222                                                           ; |520| Far Call Occurs
     4223 0000078e 50490301         ldiu      *+fp(1),ar1           ; |520| 
     4224 0000078f 506100ff         ldiu      255,r1                ; |520| 
     4225 00000790 0ae90538         mpyi      1336,ar1              ; |520| 
     4226 00000791 08700000-        ldp       @CL348,DP
     4227 00000792 03000001         andn      r1,f0                 ; |520| Bit mask for F32/F40 conversion
     4228 00000793 02290161-        addi      @CL348,ar1            ; |520| Unsigned
     4229 00000794 50480301         ldiu      *+fp(1),ar0           ; |520| 
     4230 00000795 4041c100         ldfu      *ar1,f1               ; |520| 40b float hi half
     4231 00000796 0ae80538         mpyi      1336,ar0              ; |520| 
     4232 00000797 08700000-        ldp       @CL350,DP
     4233 00000798 50410101         ldiu      *+ar1,r1              ; |520| 40b float lo half
     4234 00000799 02280163-        addi      @CL350,ar0            ; |520| Unsigned
     4235 0000079a 19000001         subrf     f1,f0                 ; |520| 
     4236 0000079b 1440c000         stf       f0,*ar0               ; |520| Store high half
     4237 0000079c 15400001         sti       r0,*+ar0              ; |520| Store low half
     4238                           .line   464
     4239                   ;----------------------------------------------------------------------
     4240                   ; 523 | FC[i].gross_water_whole_part    = floor(FC[i].GROSS_WATER.calc_val);
     4241                   ;     |                                                                        
     4242                   ; 525 | //accumulated fractional component of gross water                      
     4243                   ;----------------------------------------------------------------------
     4244 0000079d 50480301         ldiu      *+fp(1),ar0           ; |523| 
     4245 0000079e 08700000-        ldp       @CL352,DP
     4246 0000079f 0ae80538         mpyi      1336,ar0              ; |523| 
     4247 000007a0 02280165-        addi      @CL352,ar0            ; |523| Unsigned
     4248 000007a1 4041c000         ldfu      *ar0,f1               ; |523| 40b float hi half
     4249 000007a2 08700000-        ldp       @CL349,DP
     4250 000007a3 50410001         ldiu      *+ar0,r1              ; |523| 40b float lo half
     4251 000007a4 50200162-        ldiu      @CL349,r0             ; |523| 
     4252 000007a5 11020001         rnd       f1,f2                 ; |523| Demote to low precision
     4253 000007a6 70000000         callu     r0                    ; far call to _floor    ; |523| 
     4254                                                           ; |523| Far Call Occurs
     4255 000007a7 50480301         ldiu      *+fp(1),ar0           ; |523| 
     4256 000007a8 506100ff         ldiu      255,r1                ; |523| 
     4257 000007a9 08700000-        ldp       @CL351,DP
     4258 000007aa 0ae80538         mpyi      1336,ar0              ; |523| 
     4259 000007ab 02280164-        addi      @CL351,ar0            ; |523| Unsigned
     4260 000007ac 03000001         andn      r1,f0                 ; |523| Bit mask for F32/F40 conversion
     4261 000007ad 1440c000         stf       f0,*ar0               ; |523| Store high half
     4262 000007ae 15400001         sti       r0,*+ar0              ; |523| Store low half
     4263                           .line   467
     4264                   ;----------------------------------------------------------------------
     4265                   ; 526 | FC[i].gross_water_fract_part    = FC[i].GROSS_WATER.calc_val - floor(FC
     4266                   ;     | [0].GROSS_WATER.calc_val);                                             
TMS320C3x/4x COFF AssemblerVersion 5.12     Tue Mar 02 13:03:54 2021
Copyright (c) 1987-1999 Texas Instruments Incorporatedasm30.exe -@_8O8.AAB 

G:\workspace\EEA\V615\APP\SOURCE\ASM\main.asm                        PAGE   80

     4267                   ;----------------------------------------------------------------------
     4268 000007af 08700000-        ldp       @CL352,DP
     4269 000007b0 50280165-        ldiu      @CL352,ar0            ; |526| 
     4270 000007b1 4040c000         ldfu      *ar0,f0               ; |526| 40b float hi half
     4271 000007b2 08700000-        ldp       @CL349,DP
     4272 000007b3 50400001         ldiu      *+ar0,r0              ; |526| 40b float lo half
     4273 000007b4 50210162-        ldiu      @CL349,r1             ; |526| 
     4274 000007b5 11020000         rnd       f0,f2                 ; |526| Demote to low precision
     4275 000007b6 70000001         callu     r1                    ; far call to _floor    ; |526| 
     4276                                                           ; |526| Far Call Occurs
     4277 000007b7 50490301         ldiu      *+fp(1),ar1           ; |526| 
     4278 000007b8 50080009         ldiu      ar1,ar0               ; |526| 
     4279 000007b9 0ae80538         mpyi      1336,ar0              ; |526| 
     4280 000007ba 506100ff         ldiu      255,r1                ; |526| 
     4281 000007bb 0ae90538         mpyi      1336,ar1              ; |526| 
     4282 000007bc 08700000-        ldp       @CL352,DP
     4283 000007bd 02290165-        addi      @CL352,ar1            ; |526| Unsigned
     4284 000007be 4042c100         ldfu      *ar1,f2               ; |526| 40b float hi half
     4285 000007bf 08700000-        ldp       @CL353,DP
     4286 000007c0 50420101         ldiu      *+ar1,r2              ; |526| 40b float lo half
     4287 000007c1 03000001         andn      r1,f0                 ; |526| Bit mask for F32/F40 conversion
     4288 000007c2 02280166-        addi      @CL353,ar0            ; |526| Unsigned
     4289 000007c3 19000002         subrf     f2,f0                 ; |526| 
     4290 000007c4 1440c000         stf       f0,*ar0               ; |526| Store high half
     4291 000007c5 15400001         sti       r0,*+ar0              ; |526| Store low half
     4292                           .line   402
     4293 000007c6 50600001         ldiu      1,r0                  ; |461| 
     4294 000007c7 02400301         addi      *+fp(1),r0            ; |461| 
     4295 000007c8 15400301         sti       r0,*+fp(1)            ; |461| 
     4296 000007c9 04e00003         cmpi      3,r0                  ; |461| 
     4297 000007ca 6a07fe7e         blt       L35                   ; |461| 
     4298                   ;*      Branch Occurs to L35            ; |461| 
     4299 000007cb          L51:        
     4300                           .line   470
     4301                   ;----------------------------------------------------------------------
     4302                   ; 529 | ALYESKA.WATERCUT                = 0.0;                                 
     4303                   ;----------------------------------------------------------------------
     4304 000007cb 08700000-        ldp       @CL354,DP
     4305 000007cc 50280167-        ldiu      @CL354,ar0            ; |529| 
     4306 000007cd 40608000         ldfu      0.0000000000e+00,f0   ; |529| 
     4307 000007ce 1440c000         stf       f0,*ar0               ; |529| 
     4308                           .line   471
     4309                   ;----------------------------------------------------------------------
     4310                   ; 530 | ALYESKA.FLOW_RATE               = 0.0;                                 
     4311                   ;----------------------------------------------------------------------
     4312 000007cf 08700000-        ldp       @CL355,DP
     4313 000007d0 50280168-        ldiu      @CL355,ar0            ; |530| 
     4314 000007d1 40608000         ldfu      0.0000000000e+00,f0   ; |530| 
     4315 000007d2 1440c000         stf       f0,*ar0               ; |530| 
     4316                           .line   472
     4317                   ;----------------------------------------------------------------------
     4318                   ; 531 | ALYESKA.TEMPERATURE             = 0.0;                                 
     4319                   ;----------------------------------------------------------------------
     4320 000007d3 08700000-        ldp       @CL356,DP
TMS320C3x/4x COFF AssemblerVersion 5.12     Tue Mar 02 13:03:54 2021
Copyright (c) 1987-1999 Texas Instruments Incorporatedasm30.exe -@_8O8.AAB 

G:\workspace\EEA\V615\APP\SOURCE\ASM\main.asm                        PAGE   81

     4321 000007d4 50280169-        ldiu      @CL356,ar0            ; |531| 
     4322 000007d5 40608000         ldfu      0.0000000000e+00,f0   ; |531| 
     4323 000007d6 1440c000         stf       f0,*ar0               ; |531| 
     4324                           .line   473
     4325                   ;----------------------------------------------------------------------
     4326                   ; 532 | ALYESKA.DENSITY                 = 0.0;                                 
     4327                   ;----------------------------------------------------------------------
     4328 000007d7 08700000-        ldp       @CL357,DP
     4329 000007d8 5028016a-        ldiu      @CL357,ar0            ; |532| 
     4330 000007d9 40608000         ldfu      0.0000000000e+00,f0   ; |532| 
     4331 000007da 1440c000         stf       f0,*ar0               ; |532| 
     4332                           .line   474
     4333                   ;----------------------------------------------------------------------
     4334                   ; 533 | ALYESKA.VISCOSITY               = 0.0;                                 
     4335                   ;----------------------------------------------------------------------
     4336 000007db 08700000-        ldp       @CL358,DP
     4337 000007dc 5028016b-        ldiu      @CL358,ar0            ; |533| 
     4338 000007dd 40608000         ldfu      0.0000000000e+00,f0   ; |533| 
     4339 000007de 1440c000         stf       f0,*ar0               ; |533| 
     4340                           .line   475
     4341                   ;----------------------------------------------------------------------
     4342                   ; 534 | ALYESKA.iWATERCUTz              = 0;                                   
     4343                   ;----------------------------------------------------------------------
     4344 000007df 08700000-        ldp       @CL359,DP
     4345 000007e0 5028016c-        ldiu      @CL359,ar0            ; |534| 
     4346 000007e1 50600000         ldiu      0,r0                  ; |534| 
     4347 000007e2 1540c000         sti       r0,*ar0               ; |534| 
     4348                           .line   476
     4349                   ;----------------------------------------------------------------------
     4350                   ; 535 | ALYESKA.iWATERCUT               = 0;                                   
     4351                   ;----------------------------------------------------------------------
     4352 000007e3 08700000-        ldp       @CL360,DP
     4353 000007e4 5028016d-        ldiu      @CL360,ar0            ; |535| 
     4354 000007e5 1540c000         sti       r0,*ar0               ; |535| 
     4355                           .line   477
     4356                   ;----------------------------------------------------------------------
     4357                   ; 536 | ALYESKA.iFLOW_RATE              = 0;                                   
     4358                   ;----------------------------------------------------------------------
     4359 000007e6 08700000-        ldp       @CL361,DP
     4360 000007e7 5028016e-        ldiu      @CL361,ar0            ; |536| 
     4361 000007e8 1540c000         sti       r0,*ar0               ; |536| 
     4362                           .line   478
     4363                   ;----------------------------------------------------------------------
     4364                   ; 537 | ALYESKA.iTEMPERATURE    = 0;                                           
     4365                   ;----------------------------------------------------------------------
     4366 000007e9 08700000-        ldp       @CL362,DP
     4367 000007ea 5028016f-        ldiu      @CL362,ar0            ; |537| 
     4368 000007eb 1540c000         sti       r0,*ar0               ; |537| 
     4369                           .line   479
     4370                   ;----------------------------------------------------------------------
     4371                   ; 538 | ALYESKA.iDENSITY                = 0;                                   
     4372                   ;----------------------------------------------------------------------
     4373 000007ec 08700000-        ldp       @CL363,DP
     4374 000007ed 50280170-        ldiu      @CL363,ar0            ; |538| 
TMS320C3x/4x COFF AssemblerVersion 5.12     Tue Mar 02 13:03:54 2021
Copyright (c) 1987-1999 Texas Instruments Incorporatedasm30.exe -@_8O8.AAB 

G:\workspace\EEA\V615\APP\SOURCE\ASM\main.asm                        PAGE   82

     4375 000007ee 1540c000         sti       r0,*ar0               ; |538| 
     4376                           .line   480
     4377                   ;----------------------------------------------------------------------
     4378                   ; 539 | ALYESKA.iVISCOSITY              = 0;                                   
     4379                   ; 542 | //ALFAT INIT                                                           
     4380                   ;----------------------------------------------------------------------
     4381 000007ef 08700000-        ldp       @CL364,DP
     4382 000007f0 50280171-        ldiu      @CL364,ar0            ; |539| 
     4383 000007f1 1540c000         sti       r0,*ar0               ; |539| 
     4384                           .line   484
     4385                   ;----------------------------------------------------------------------
     4386                   ; 543 | ALFAT_STATUS_REG = 0x0;                                                
     4387                   ;----------------------------------------------------------------------
     4388 000007f2 08700000-        ldp       @CL365,DP
     4389 000007f3 50280172-        ldiu      @CL365,ar0            ; |543| 
     4390 000007f4 1540c000         sti       r0,*ar0               ; |543| 
     4391                           .line   485
     4392                   ;----------------------------------------------------------------------
     4393                   ; 544 | ALFAT_INIT_ALL = FALSE;                                                
     4394                   ;----------------------------------------------------------------------
     4395 000007f5 08700000-        ldp       @CL366,DP
     4396 000007f6 50280173-        ldiu      @CL366,ar0            ; |544| 
     4397 000007f7 1540c000         sti       r0,*ar0               ; |544| 
     4398                           .line   486
     4399                   ;----------------------------------------------------------------------
     4400                   ; 545 | ALFAT_APPEND_LF = FALSE;                                               
     4401                   ;----------------------------------------------------------------------
     4402 000007f8 08700000-        ldp       @CL367,DP
     4403 000007f9 50280174-        ldiu      @CL367,ar0            ; |545| 
     4404 000007fa 1540c000         sti       r0,*ar0               ; |545| 
     4405                           .line   487
     4406                   ;----------------------------------------------------------------------
     4407                   ; 546 | PORT[5].pvector_main = NULL_PTR;                                       
     4408                   ;----------------------------------------------------------------------
     4409 000007fb 08700000-        ldp       @CL368,DP
     4410 000007fc 50280175-        ldiu      @CL368,ar0            ; |546| 
     4411 000007fd 1540c000         sti       r0,*ar0               ; |546| 
     4412                           .line   489
     4413                   ;----------------------------------------------------------------------
     4414                   ; 548 | for (i=0;i<ALFAT_RX_MAX_SIZE;i++)                                      
     4415                   ;----------------------------------------------------------------------
     4416 000007fe 15400301         sti       r0,*+fp(1)            ; |548| 
     4417 000007ff 50610000         ldiu      0,r1                  ; |550| 
     4418 00000800 04e00080         cmpi      128,r0                ; |548| 
     4419 00000801 6a0a0009         bge       L53                   ; |548| 
     4420                   ;*      Branch Occurs to L53            ; |548| 
     4421 00000802          L52:        
     4422                           .line   491
     4423                   ;----------------------------------------------------------------------
     4424                   ; 550 | ALFAT_RX[i] = 0;                                                       
     4425                   ;----------------------------------------------------------------------
     4426 00000802 08700000-        ldp       @CL369,DP
     4427 00000803 50510301         ldiu      *+fp(1),ir0           ; |550| 
     4428 00000804 50280176-        ldiu      @CL369,ar0            ; |550| 
TMS320C3x/4x COFF AssemblerVersion 5.12     Tue Mar 02 13:03:54 2021
Copyright (c) 1987-1999 Texas Instruments Incorporatedasm30.exe -@_8O8.AAB 

G:\workspace\EEA\V615\APP\SOURCE\ASM\main.asm                        PAGE   83

     4429 00000805 15414000         sti       r1,*+ar0(ir0)         ; |550| 
     4430                           .line   489
     4431 00000806 50600001         ldiu      1,r0                  ; |548| 
     4432 00000807 02400301         addi      *+fp(1),r0            ; |548| 
     4433 00000808 15400301         sti       r0,*+fp(1)            ; |548| 
     4434 00000809 04e00080         cmpi      128,r0                ; |548| 
     4435 0000080a 6a07fff7         blt       L52                   ; |548| 
     4436                   ;*      Branch Occurs to L52            ; |548| 
     4437 0000080b          L53:        
     4438                           .line   494
     4439                   ;----------------------------------------------------------------------
     4440                   ; 553 | DEMO_Init(&DEMO_ANALYZER_MODE);                                        
     4441                   ;----------------------------------------------------------------------
     4442 0000080b 08700000-        ldp       @CL371,DP
     4443 0000080c 50200178-        ldiu      @CL371,r0             ; |553| 
     4444 0000080d 08700000-        ldp       @CL370,DP
     4445 0000080e 502a0177-        ldiu      @CL370,ar2            ; |553| 
     4446 0000080f 70000000         callu     r0                    ; far call to _DEMO_Init        ; |553| 
     4447                                                           ; |553| Far Call Occurs
     4448                           .line   495
     4449                                                           ; Begin Epilog Code
     4450 00000810 50410b01         ldiu      *-fp(1),r1
     4451 00000811 504bc300         ldiu      *fp,fp
     4452                                                           ; Unallocate the Frame
     4453 00000812 18740005         subi      5,sp
     4454 00000813 68000001         bu        r1
     4455                   ;*      Branch Occurs to r1 
     4456                           .endfunc        554,000000000h,3
     4457                   
     4458                   
     4459 00000814                  .sect    "initialization"
     4460                   
     4461                           .global _Initialize_Hardware
     4462                           .sym    _Initialize_Hardware,_Initialize_Hardware,32,2,0
     4463                           .func   569
     4464                   ;******************************************************************************
     4465                   ;* FUNCTION NAME: _Initialize_Hardware                                        *
     4466                   ;*                                                                            *
     4467                   ;*   Architecture       : TMS320C33                                           *
     4468                   ;*   Calling Convention : TI Standard Register Parameters                     *
     4469                   ;*   Function Uses Regs : f0,r0,f1,r1,f2,r2,r3,ar0,ar1,ar2,fp,ir0,ir1,sp,st,  *
     4470                   ;*                        rc                                                  *
     4471                   ;*   Regs Saved         :                                                     *
     4472                   ;*   Stack Frame        : Full (w/ debug)                                     *
     4473                   ;*   Total Frame Size   : 2 Call + 0 Parm + 69 Auto + 0 SOE = 71 words        *
     4474                   ;******************************************************************************
     4475 00000814          _Initialize_Hardware:
     4476                           .sym    _i,1,14,1,32
     4477                           .sym    _j,2,14,1,32
     4478                           .sym    _s,3,30,1,32
     4479                           .sym    _d,4,30,1,32
     4480                           .sym    _code_line,5,50,1,1312,,41
     4481                           .sym    _out_str,46,50,1,672,,21
     4482                           .sym    _fw,67,6,1,32
TMS320C3x/4x COFF AssemblerVersion 5.12     Tue Mar 02 13:03:54 2021
Copyright (c) 1987-1999 Texas Instruments Incorporatedasm30.exe -@_8O8.AAB 

G:\workspace\EEA\V615\APP\SOURCE\ASM\main.asm                        PAGE   84

     4483                           .sym    _hwu,68,4,1,32
     4484                           .sym    _hwl,69,4,1,32
     4485                           .line   1
     4486                   ;----------------------------------------------------------------------
     4487                   ; 569 | void Initialize_Hardware(void)                                         
     4488                   ; 571 | unsigned int i,j;       /* counters
     4489                   ;     |          */                                                            
     4490                   ; 572 | unsigned int* s;        /* branch table start
     4491                   ;     |  */                                                                    
     4492                   ; 573 | unsigned int* d;        /* program start address
     4493                   ;     |  */                                                                    
     4494                   ; 574 | char code_line[41];                                                    
     4495                   ; 575 | char out_str[21];                                                      
     4496                   ; 576 | float   fw;                     /* firmware version
     4497                   ;     |          */                                                            
     4498                   ; 577 | int             hwu,hwl;        /* hardware upper byte; lower byte
     4499                   ;     |  */                                                                    
     4500                   ;----------------------------------------------------------------------
     4501 00000814 0f2b0000         push      fp
     4502 00000815 500b0014         ldiu      sp,fp
     4503 00000816 02740045         addi      69,sp
     4504                           .line   11
     4505                   ;----------------------------------------------------------------------
     4506                   ; 579 | _GIE;                                                                  
     4507                   ;----------------------------------------------------------------------
     4508 00000817 13fb0001         rpts    1                       
     4509 00000818 03752000         andn    2000h, ST       
     4510                           .line   12
     4511                   ;----------------------------------------------------------------------
     4512                   ; 580 | DISABLE_WDOG;                                                          
     4513                   ;----------------------------------------------------------------------
     4514 00000819 0f350000         push    ST                      
     4515 0000081a 03752000         andn    2000h, ST       
     4516 0000081b 08700000-        ldp       @CL5,DP
     4517 0000081c 50280004-        ldiu      @CL5,ar0              ; |580| 
     4518 0000081d 506000f7         ldiu      247,r0                ; |580| 
     4519 0000081e 21a0c000         and3      r0,*ar0,r0            ; |580| 
     4520 0000081f 1540c000         sti       r0,*ar0               ; |580| 
     4521 00000820 0e350000         pop             ST                      
     4522                           .line   13
     4523                   ;----------------------------------------------------------------------
     4524                   ; 581 | HW_VER  = *XHW_VER & 0xFF;                                             
     4525                   ;----------------------------------------------------------------------
     4526 00000821 08700000-        ldp       @CL373,DP
     4527 00000822 5028017a-        ldiu      @CL373,ar0            ; |581| 
     4528 00000823 08700000-        ldp       @CL372,DP
     4529 00000824 506000ff         ldiu      255,r0                ; |581| 
     4530 00000825 50290179-        ldiu      @CL372,ar1            ; |581| 
     4531 00000826 21a0c000         and3      r0,*ar0,r0            ; |581| 
     4532 00000827 1540c100         sti       r0,*ar1               ; |581| 
     4533                           .line   15
     4534                   ;----------------------------------------------------------------------
     4535                   ; 583 | if (HW_VER&0x80)                                                       
     4536                   ;----------------------------------------------------------------------
TMS320C3x/4x COFF AssemblerVersion 5.12     Tue Mar 02 13:03:54 2021
Copyright (c) 1987-1999 Texas Instruments Incorporatedasm30.exe -@_8O8.AAB 

G:\workspace\EEA\V615\APP\SOURCE\ASM\main.asm                        PAGE   85

     4537 00000828 50280179-        ldiu      @CL372,ar0            ; |583| 
     4538 00000829 50600080         ldiu      128,r0                ; |583| 
     4539 0000082a 27c000c0         tstb3     *ar0,r0               ; |583| 
     4540 0000082b 6a050005         beq       L58                   ; |583| 
     4541                   ;*      Branch Occurs to L58            ; |583| 
     4542                           .line   16
     4543                   ;----------------------------------------------------------------------
     4544                   ; 584 | SA = TRUE;                                                             
     4545                   ; 585 | else                                                                   
     4546                   ;----------------------------------------------------------------------
     4547 0000082c 08700000-        ldp       @CL374,DP
     4548 0000082d 5028017b-        ldiu      @CL374,ar0            ; |584| 
     4549 0000082e 50600001         ldiu      1,r0                  ; |584| 
     4550 0000082f 1540c000         sti       r0,*ar0               ; |584| 
     4551 00000830 6a000004         bu        L59                   ; |568| 
     4552                   ;*      Branch Occurs to L59            ; |568| 
     4553 00000831          L58:        
     4554                           .line   18
     4555                   ;----------------------------------------------------------------------
     4556                   ; 586 | SA = FALSE;                                                            
     4557                   ;----------------------------------------------------------------------
     4558 00000831 08700000-        ldp       @CL374,DP
     4559 00000832 5028017b-        ldiu      @CL374,ar0            ; |586| 
     4560 00000833 50600000         ldiu      0,r0                  ; |586| 
     4561 00000834 1540c000         sti       r0,*ar0               ; |586| 
     4562 00000835          L59:        
     4563                           .line   20
     4564                   ;----------------------------------------------------------------------
     4565                   ; 588 | if (SA)                                                                
     4566                   ;----------------------------------------------------------------------
     4567 00000835 08700000-        ldp       @CL374,DP
     4568 00000836 5028017b-        ldiu      @CL374,ar0            ; |588| 
     4569 00000837 5040c000         ldiu      *ar0,r0               ; |588| 
     4570 00000838 04e00000         cmpi      0,r0                  ; |588| 
     4571 00000839 6a050011         beq       L63                   ; |588| 
     4572                   ;*      Branch Occurs to L63            ; |588| 
     4573                           .line   22
     4574                   ;----------------------------------------------------------------------
     4575                   ; 590 | if (HW_VER>=0xB7)                                                      
     4576                   ;----------------------------------------------------------------------
     4577 0000083a 08700000-        ldp       @CL372,DP
     4578 0000083b 50280179-        ldiu      @CL372,ar0            ; |590| 
     4579 0000083c 5040c000         ldiu      *ar0,r0               ; |590| 
     4580 0000083d 04e000b7         cmpi      183,r0                ; |590| 
     4581 0000083e 6a010006         blo       L62                   ; |590| 
     4582                   ;*      Branch Occurs to L62            ; |590| 
     4583                           .line   23
     4584                   ;----------------------------------------------------------------------
     4585                   ; 591 | SRAM_SCRATCHPAD = SRAM_SCRATCHPAD_EEA;                                 
     4586                   ; 592 | else                                                                   
     4587                   ;----------------------------------------------------------------------
     4588 0000083f 08700000-        ldp       @CL375,DP
     4589 00000840 5028017c-        ldiu      @CL375,ar0            ; |591| 
     4590 00000841 08700000-        ldp       @CL376,DP
TMS320C3x/4x COFF AssemblerVersion 5.12     Tue Mar 02 13:03:54 2021
Copyright (c) 1987-1999 Texas Instruments Incorporatedasm30.exe -@_8O8.AAB 

G:\workspace\EEA\V615\APP\SOURCE\ASM\main.asm                        PAGE   86

     4591 00000842 5020017d-        ldiu      @CL376,r0             ; |591| 
     4592 00000843 1540c000         sti       r0,*ar0               ; |591| 
     4593 00000844 6a00000b         bu        L64                   ; |568| 
     4594                   ;*      Branch Occurs to L64            ; |568| 
     4595 00000845          L62:        
     4596                           .line   25
     4597                   ;----------------------------------------------------------------------
     4598                   ; 593 | SRAM_SCRATCHPAD = SRAM_SCRATCHPAD_SA;                                  
     4599                   ; 595 | else                                                                   
     4600                   ;----------------------------------------------------------------------
     4601 00000845 08700000-        ldp       @CL375,DP
     4602 00000846 5028017c-        ldiu      @CL375,ar0            ; |593| 
     4603 00000847 08700000-        ldp       @CL377,DP
     4604 00000848 5020017e-        ldiu      @CL377,r0             ; |593| 
     4605 00000849 1540c000         sti       r0,*ar0               ; |593| 
     4606 0000084a 6a000005         bu        L64                   ; |568| 
     4607                   ;*      Branch Occurs to L64            ; |568| 
     4608 0000084b          L63:        
     4609                           .line   28
     4610                   ;----------------------------------------------------------------------
     4611                   ; 596 | SRAM_SCRATCHPAD = SRAM_SCRATCHPAD_EEA;                                 
     4612                   ;----------------------------------------------------------------------
     4613 0000084b 08700000-        ldp       @CL375,DP
     4614 0000084c 5028017c-        ldiu      @CL375,ar0            ; |596| 
     4615 0000084d 08700000-        ldp       @CL376,DP
     4616 0000084e 5020017d-        ldiu      @CL376,r0             ; |596| 
     4617 0000084f 1540c000         sti       r0,*ar0               ; |596| 
     4618 00000850          L64:        
     4619                           .line   30
     4620                   ;----------------------------------------------------------------------
     4621                   ; 598 | *PBCR  = (PBCR_SWW_RDYandCNT | PBCR_WTCNT_5);   /* ws=5 for 90ns flash,
     4622                   ;     |  or RDY */                                                             
     4623                   ;----------------------------------------------------------------------
     4624 00000850 08700000-        ldp       @CL378,DP
     4625 00000851 5028017f-        ldiu      @CL378,ar0            ; |598| 
     4626 00000852 506000b8         ldiu      184,r0                ; |598| 
     4627 00000853 1540c000         sti       r0,*ar0               ; |598| 
     4628                           .line   31
     4629                   ;----------------------------------------------------------------------
     4630                   ; 599 | DISABLE_BOOTINT;                                                       
     4631                   ;----------------------------------------------------------------------
     4632 00000854 0f350000         push    ST                      
     4633 00000855 03752000         andn    2000h, ST       
     4634 00000856 08700000-        ldp       @CL379,DP
     4635 00000857 50280180-        ldiu      @CL379,ar0            ; |599| 
     4636 00000858 50600010         ldiu      16,r0                 ; |599| 
     4637 00000859 25a0c000         or3       r0,*ar0,r0            ; |599| 
     4638 0000085a 1540c000         sti       r0,*ar0               ; |599| 
     4639 0000085b 0e350000         pop             ST                      
     4640                           .line   32
     4641                   ;----------------------------------------------------------------------
     4642                   ; 600 | CLEAR_INT_MASK;                                                        
     4643                   ;----------------------------------------------------------------------
     4644 0000085c 08760000         ldi             0h, IE
TMS320C3x/4x COFF AssemblerVersion 5.12     Tue Mar 02 13:03:54 2021
Copyright (c) 1987-1999 Texas Instruments Incorporatedasm30.exe -@_8O8.AAB 

G:\workspace\EEA\V615\APP\SOURCE\ASM\main.asm                        PAGE   87

     4645                           .line   33
     4646                   ;----------------------------------------------------------------------
     4647                   ; 601 | CLEAR_INT_PEND;                                                        
     4648                   ;----------------------------------------------------------------------
     4649 0000085d 08770000         ldi             0h, IF
     4650                           .line   34
     4651                   ;----------------------------------------------------------------------
     4652                   ; 602 | INITIALIZING = TRUE;                                                   
     4653                   ;----------------------------------------------------------------------
     4654 0000085e 08700000-        ldp       @CL380,DP
     4655 0000085f 50280181-        ldiu      @CL380,ar0            ; |602| 
     4656 00000860 50600001         ldiu      1,r0                  ; |602| 
     4657 00000861 1540c000         sti       r0,*ar0               ; |602| 
     4658                           .line   35
     4659                   ;----------------------------------------------------------------------
     4660                   ; 603 | XFINIT_OUTPUT;                                                         
     4661                   ;----------------------------------------------------------------------
     4662 00000862 08780022         ldi             22h,IOF         
     4663                           .line   36
     4664                   ;----------------------------------------------------------------------
     4665                   ; 604 | CACHE_ENABLE;                                                          
     4666                   ;----------------------------------------------------------------------
     4667 00000863 08751800         ldi             1800h, ST
     4668                           .line   37
     4669                   ;----------------------------------------------------------------------
     4670                   ; 605 | DISABLE_EXTINT0;                                                       
     4671                   ;----------------------------------------------------------------------
     4672 00000864 0f350000         push    ST                      
     4673 00000865 03752000         andn    2000h, ST       
     4674 00000866 08700000-        ldp       @CL379,DP
     4675 00000867 50280180-        ldiu      @CL379,ar0            ; |605| 
     4676 00000868 506000fe         ldiu      254,r0                ; |605| 
     4677 00000869 21a0c000         and3      r0,*ar0,r0            ; |605| 
     4678 0000086a 1540c000         sti       r0,*ar0               ; |605| 
     4679 0000086b 0e350000         pop             ST                      
     4680                           .line   38
     4681                   ;----------------------------------------------------------------------
     4682                   ; 606 | DISABLE_EXTINT1;                                                       
     4683                   ;----------------------------------------------------------------------
     4684 0000086c 0f350000         push    ST                      
     4685 0000086d 03752000         andn    2000h, ST       
     4686 0000086e 506000fd         ldiu      253,r0                ; |606| 
     4687 0000086f 21a0c000         and3      r0,*ar0,r0            ; |606| 
     4688 00000870 1540c000         sti       r0,*ar0               ; |606| 
     4689 00000871 0e350000         pop             ST                      
     4690                           .line   39
     4691                   ;----------------------------------------------------------------------
     4692                   ; 607 | DISABLE_EXTINT2;                                                       
     4693                   ;----------------------------------------------------------------------
     4694 00000872 0f350000         push    ST                      
     4695 00000873 03752000         andn    2000h, ST       
     4696 00000874 506000fb         ldiu      251,r0                ; |607| 
     4697 00000875 21a0c000         and3      r0,*ar0,r0            ; |607| 
     4698 00000876 1540c000         sti       r0,*ar0               ; |607| 
TMS320C3x/4x COFF AssemblerVersion 5.12     Tue Mar 02 13:03:54 2021
Copyright (c) 1987-1999 Texas Instruments Incorporatedasm30.exe -@_8O8.AAB 

G:\workspace\EEA\V615\APP\SOURCE\ASM\main.asm                        PAGE   88

     4699 00000877 0e350000         pop             ST                      
     4700                           .line   40
     4701                   ;----------------------------------------------------------------------
     4702                   ; 608 | DISABLE_EXTINT3;                                                       
     4703                   ;----------------------------------------------------------------------
     4704 00000878 0f350000         push    ST                      
     4705 00000879 03752000         andn    2000h, ST       
     4706 0000087a 506000f7         ldiu      247,r0                ; |608| 
     4707 0000087b 21a0c000         and3      r0,*ar0,r0            ; |608| 
     4708 0000087c 1540c000         sti       r0,*ar0               ; |608| 
     4709 0000087d 0e350000         pop             ST                      
     4710                           .line   43
     4711                   ;----------------------------------------------------------------------
     4712                   ; 611 | s = &INT0;                                                             
     4713                   ;----------------------------------------------------------------------
     4714 0000087e 08700000-        ldp       @CL381,DP
     4715 0000087f 50200182-        ldiu      @CL381,r0             ; |611| 
     4716 00000880 15400303         sti       r0,*+fp(3)            ; |611| 
     4717                           .line   44
     4718                   ;----------------------------------------------------------------------
     4719                   ; 612 | d = (unsigned int*) 0x00809FC1;                                        
     4720                   ;----------------------------------------------------------------------
     4721 00000881 08700000-        ldp       @CL382,DP
     4722 00000882 50200183-        ldiu      @CL382,r0             ; |612| 
     4723 00000883 15400304         sti       r0,*+fp(4)            ; |612| 
     4724                           .line   46
     4725                   ;----------------------------------------------------------------------
     4726                   ; 614 | for (i=0;i<0x3F;i++)                                                   
     4727                   ;----------------------------------------------------------------------
     4728 00000884 50600000         ldiu      0,r0                  ; |614| 
     4729 00000885 15400301         sti       r0,*+fp(1)            ; |614| 
     4730 00000886 04e0003f         cmpi      63,r0                 ; |614| 
     4731 00000887 6a04000b         bhs       L66                   ; |614| 
     4732                   ;*      Branch Occurs to L66            ; |614| 
     4733 00000888          L65:        
     4734                           .line   47
     4735                   ;----------------------------------------------------------------------
     4736                   ; 615 | d[i] = s[i];                                                           
     4737                   ;----------------------------------------------------------------------
     4738 00000888 50490301         ldiu      *+fp(1),ar1           ; |615| 
     4739 00000889 50510303         ldiu      *+fp(3),ir0           ; |615| 
     4740 0000088a 50520304         ldiu      *+fp(4),ir1           ; |615| 
     4741 0000088b 50080009         ldiu      ar1,ar0               ; |615| 
     4742 0000088c 50404100         ldiu      *+ar1(ir0),r0         ; |615| 
     4743 0000088d 15408000         sti       r0,*+ar0(ir1)         ; |615| 
     4744                           .line   46
     4745 0000088e 50600001         ldiu      1,r0                  ; |614| 
     4746 0000088f 02400301         addi      *+fp(1),r0            ; |614| Unsigned
     4747 00000890 15400301         sti       r0,*+fp(1)            ; |614| 
     4748 00000891 04e0003f         cmpi      63,r0                 ; |614| 
     4749 00000892 6a01fff5         blo       L65                   ; |614| 
     4750                   ;*      Branch Occurs to L65            ; |614| 
     4751 00000893          L66:        
     4752                           .line   50
TMS320C3x/4x COFF AssemblerVersion 5.12     Tue Mar 02 13:03:54 2021
Copyright (c) 1987-1999 Texas Instruments Incorporatedasm30.exe -@_8O8.AAB 

G:\workspace\EEA\V615\APP\SOURCE\ASM\main.asm                        PAGE   89

     4753                   ;----------------------------------------------------------------------
     4754                   ; 618 | d = (unsigned int*) &c_int00;                                          
     4755                   ;----------------------------------------------------------------------
     4756 00000893 08700000-        ldp       @CL383,DP
     4757 00000894 50200184-        ldiu      @CL383,r0             ; |618| 
     4758 00000895 15400304         sti       r0,*+fp(4)            ; |618| 
     4759                           .line   51
     4760                   ;----------------------------------------------------------------------
     4761                   ; 619 | s = (unsigned int*) FLASH_LOC;                                         
     4762                   ;----------------------------------------------------------------------
     4763 00000896 08700000-        ldp       @CL384,DP
     4764 00000897 50200185-        ldiu      @CL384,r0             ; |619| 
     4765 00000898 15400303         sti       r0,*+fp(3)            ; |619| 
     4766                           .line   53
     4767                   ;----------------------------------------------------------------------
     4768                   ; 621 | if ( (d >= s) && (d < (s + FLASH_MAX_SIZE)) )                          
     4769                   ;----------------------------------------------------------------------
     4770 00000899 50400304         ldiu      *+fp(4),r0            ; |621| 
     4771 0000089a 04c00303         cmpi      *+fp(3),r0            ; |621| 
     4772 0000089b 6a01000b         blo       L69                   ; |621| 
     4773                   ;*      Branch Occurs to L69            ; |621| 
     4774 0000089c 08700000-        ldp       @CL385,DP
     4775 0000089d 50010000         ldiu      r0,r1
     4776 0000089e 50200186-        ldiu      @CL385,r0             ; |621| 
     4777 0000089f 02400303         addi      *+fp(3),r0            ; |621| Unsigned
     4778 000008a0 23800100         cmpi3     r0,r1                 ; |621| 
     4779 000008a1 6a040005         bhs       L69                   ; |621| 
     4780                   ;*      Branch Occurs to L69            ; |621| 
     4781                           .line   54
     4782                   ;----------------------------------------------------------------------
     4783                   ; 622 | MEM = FALSE;                                                           
     4784                   ; 623 | else                                                                   
     4785                   ;----------------------------------------------------------------------
     4786 000008a2 08700000-        ldp       @CL2,DP
     4787 000008a3 50280001-        ldiu      @CL2,ar0              ; |622| 
     4788 000008a4 50600000         ldiu      0,r0                  ; |622| 
     4789 000008a5 1540c000         sti       r0,*ar0               ; |622| 
     4790 000008a6 6a000004         bu        L70                   ; |568| 
     4791                   ;*      Branch Occurs to L70            ; |568| 
     4792 000008a7          L69:        
     4793                           .line   56
     4794                   ;----------------------------------------------------------------------
     4795                   ; 624 | MEM = TRUE;                                                            
     4796                   ;----------------------------------------------------------------------
     4797 000008a7 08700000-        ldp       @CL2,DP
     4798 000008a8 50280001-        ldiu      @CL2,ar0              ; |624| 
     4799 000008a9 50600001         ldiu      1,r0                  ; |624| 
     4800 000008aa 1540c000         sti       r0,*ar0               ; |624| 
     4801 000008ab          L70:        
     4802                           .line   58
     4803                   ;----------------------------------------------------------------------
     4804                   ; 626 | RELAY1_OFF;                                                            
     4805                   ;----------------------------------------------------------------------
     4806 000008ab 0f350000         push    ST                      
TMS320C3x/4x COFF AssemblerVersion 5.12     Tue Mar 02 13:03:54 2021
Copyright (c) 1987-1999 Texas Instruments Incorporatedasm30.exe -@_8O8.AAB 

G:\workspace\EEA\V615\APP\SOURCE\ASM\main.asm                        PAGE   90

     4807 000008ac 03752000         andn    2000h, ST       
     4808 000008ad 08700000-        ldp       @CL74,DP
     4809 000008ae 5028004a-        ldiu      @CL74,ar0             ; |626| 
     4810 000008af 506000fe         ldiu      254,r0                ; |626| 
     4811 000008b0 21a0c000         and3      r0,*ar0,r0            ; |626| 
     4812 000008b1 1540c000         sti       r0,*ar0               ; |626| 
     4813 000008b2 0e350000         pop             ST                      
     4814                           .line   59
     4815                   ;----------------------------------------------------------------------
     4816                   ; 627 | RELAY2_OFF;                                                            
     4817                   ;----------------------------------------------------------------------
     4818 000008b3 0f350000         push    ST                      
     4819 000008b4 03752000         andn    2000h, ST       
     4820 000008b5 506000fd         ldiu      253,r0                ; |627| 
     4821 000008b6 21a0c000         and3      r0,*ar0,r0            ; |627| 
     4822 000008b7 1540c000         sti       r0,*ar0               ; |627| 
     4823 000008b8 0e350000         pop             ST                      
     4824                           .line   61
     4825                   ;----------------------------------------------------------------------
     4826                   ; 629 | CLOCK = CLOCK_DEFAULT;                                                 
     4827                   ;----------------------------------------------------------------------
     4828 000008b9 08700000-        ldp       @CL386,DP
     4829 000008ba 50280187-        ldiu      @CL386,ar0            ; |629| 
     4830 000008bb 08700000-        ldp       @CL387,DP
     4831 000008bc 50200188-        ldiu      @CL387,r0             ; |629| 
     4832 000008bd 1540c000         sti       r0,*ar0               ; |629| 
     4833                           .line   63
     4834                   ;----------------------------------------------------------------------
     4835                   ; 631 | LCD_INIT();                                                            
     4836                   ;----------------------------------------------------------------------
     4837 000008be 08700000-        ldp       @CL388,DP
     4838 000008bf 50200189-        ldiu      @CL388,r0             ; |631| 
     4839 000008c0 70000000         callu     r0                    ; far call to _LCD_INIT ; |631| 
     4840                                                           ; |631| Far Call Occurs
     4841                           .line   66
     4842                   ;----------------------------------------------------------------------
     4843                   ; 634 | for (i=0;i<4;i++)                                                      
     4844                   ;----------------------------------------------------------------------
     4845 000008c1 50600000         ldiu      0,r0                  ; |634| 
     4846 000008c2 15400301         sti       r0,*+fp(1)            ; |634| 
     4847 000008c3 04e00004         cmpi      4,r0                  ; |634| 
     4848 000008c4 6a040015         bhs       L74                   ; |634| 
     4849                   ;*      Branch Occurs to L74            ; |634| 
     4850 000008c5          L71:        
     4851                           .line   68
     4852                   ;----------------------------------------------------------------------
     4853                   ; 636 | for (j=0;j<101;j++)                                                    
     4854                   ;----------------------------------------------------------------------
     4855 000008c5 50600000         ldiu      0,r0                  ; |636| 
     4856 000008c6 15400302         sti       r0,*+fp(2)            ; |636| 
     4857 000008c7 04e00065         cmpi      101,r0                ; |636| 
     4858 000008c8 50610020         ldiu      32,r1                 ; |637| 
     4859 000008c9 6a04000b         bhs       L73                   ; |636| 
     4860                   ;*      Branch Occurs to L73            ; |636| 
TMS320C3x/4x COFF AssemblerVersion 5.12     Tue Mar 02 13:03:54 2021
Copyright (c) 1987-1999 Texas Instruments Incorporatedasm30.exe -@_8O8.AAB 

G:\workspace\EEA\V615\APP\SOURCE\ASM\main.asm                        PAGE   91

     4861 000008ca          L72:        
     4862                           .line   69
     4863                   ;----------------------------------------------------------------------
     4864                   ; 637 | LCD_DISPLAY[i][j] = 0x20;                                              
     4865                   ;----------------------------------------------------------------------
     4866 000008ca 50510301         ldiu      *+fp(1),ir0           ; |637| 
     4867 000008cb 08700000-        ldp       @CL389,DP
     4868 000008cc 0af10065         mpyi      101,ir0               ; |637| 
     4869 000008cd 5028018a-        ldiu      @CL389,ar0            ; |637| 
     4870 000008ce 02510302         addi      *+fp(2),ir0           ; |637| Unsigned
     4871 000008cf 15414000         sti       r1,*+ar0(ir0)         ; |637| 
     4872                           .line   68
     4873 000008d0 50600001         ldiu      1,r0                  ; |636| 
     4874 000008d1 02400302         addi      *+fp(2),r0            ; |636| Unsigned
     4875 000008d2 15400302         sti       r0,*+fp(2)            ; |636| 
     4876 000008d3 04e00065         cmpi      101,r0                ; |636| 
     4877 000008d4 6a01fff5         blo       L72                   ; |636| 
     4878                   ;*      Branch Occurs to L72            ; |636| 
     4879 000008d5          L73:        
     4880                           .line   66
     4881 000008d5 50600001         ldiu      1,r0                  ; |634| 
     4882 000008d6 02400301         addi      *+fp(1),r0            ; |634| Unsigned
     4883 000008d7 15400301         sti       r0,*+fp(1)            ; |634| 
     4884 000008d8 04e00004         cmpi      4,r0                  ; |634| 
     4885 000008d9 6a01ffeb         blo       L71                   ; |634| 
     4886                   ;*      Branch Occurs to L71            ; |634| 
     4887 000008da          L74:        
     4888                           .line   72
     4889                   ;----------------------------------------------------------------------
     4890                   ; 640 | hwu = (HW_VER & 0x0078)>>3;                                            
     4891                   ;----------------------------------------------------------------------
     4892 000008da 08700000-        ldp       @CL372,DP
     4893 000008db 50280179-        ldiu      @CL372,ar0            ; |640| 
     4894 000008dc 50600078         ldiu      120,r0                ; |640| 
     4895 000008dd 21a0c000         and3      r0,*ar0,r0            ; |640| 
     4896 000008de 09e0fffd         lsh       -3,r0                 ; |640| 
     4897 000008df 15400344         sti       r0,*+fp(68)           ; |640| 
     4898                           .line   73
     4899                   ;----------------------------------------------------------------------
     4900                   ; 641 | hwl = HW_VER & 0x0007;                                                 
     4901                   ;----------------------------------------------------------------------
     4902 000008e0 50280179-        ldiu      @CL372,ar0            ; |641| 
     4903 000008e1 50600007         ldiu      7,r0                  ; |641| 
     4904 000008e2 21a0c000         and3      r0,*ar0,r0            ; |641| 
     4905 000008e3 15400345         sti       r0,*+fp(69)           ; |641| 
     4906                           .line   74
     4907                   ;----------------------------------------------------------------------
     4908                   ; 642 | fw      = FIRMWARE_VERSION/100.0;                                      
     4909                   ;----------------------------------------------------------------------
     4910 000008e4 08700000-        ldp       @CL390,DP
     4911 000008e5 4020018b-        ldfu      @CL390,f0             ; |642| 
     4912 000008e6 14400343         stf       f0,*+fp(67)           ; |642| 
     4913                           .line   75
     4914                   ;----------------------------------------------------------------------
TMS320C3x/4x COFF AssemblerVersion 5.12     Tue Mar 02 13:03:54 2021
Copyright (c) 1987-1999 Texas Instruments Incorporatedasm30.exe -@_8O8.AAB 

G:\workspace\EEA\V615\APP\SOURCE\ASM\main.asm                        PAGE   92

     4915                   ; 643 | i       = FIRMWARE_SUBVERSION;                                         
     4916                   ; 648 | #ifndef RUSS_TRANSLATION_ENABLED                                       
     4917                   ;----------------------------------------------------------------------
     4918 000008e7 50600008         ldiu      8,r0                  ; |643| 
     4919 000008e8 15400301         sti       r0,*+fp(1)            ; |643| 
     4920                           .line   81
     4921                   ;----------------------------------------------------------------------
     4922                   ; 649 | sprintf(LCD_DISPLAY[0],"Phase Dynamics, Inc."); //R87                  
     4923                   ;----------------------------------------------------------------------
     4924 000008e9 08700000-        ldp       @CL391,DP
     4925 000008ea 5021018c-        ldiu      @CL391,r1             ; |649| 
     4926 000008eb 08700000-        ldp       @CL389,DP
     4927 000008ec 502a018a-        ldiu      @CL389,ar2            ; |649| 
     4928 000008ed 08700000-        ldp       @CL16,DP
     4929 000008ee 0f210000         push      r1                    ; |649| 
     4930 000008ef 5020000f-        ldiu      @CL16,r0              ; |649| 
     4931 000008f0 70000000         callu     r0                    ; far call to _sprintf  ; |649| 
     4932                                                           ; |649| Far Call Occurs
     4933 000008f1 18740001         subi      1,sp                  ; |649| 
     4934                           .line   82
     4935                   ;----------------------------------------------------------------------
     4936                   ; 650 | sprintf(LCD_DISPLAY[1],"Initializing Data..."); //R378                 
     4937                   ;----------------------------------------------------------------------
     4938 000008f2 08700000-        ldp       @CL393,DP
     4939 000008f3 5021018e-        ldiu      @CL393,r1             ; |650| 
     4940 000008f4 08700000-        ldp       @CL392,DP
     4941 000008f5 502a018d-        ldiu      @CL392,ar2            ; |650| 
     4942 000008f6 08700000-        ldp       @CL16,DP
     4943 000008f7 0f210000         push      r1                    ; |650| 
     4944 000008f8 5020000f-        ldiu      @CL16,r0              ; |650| 
     4945 000008f9 70000000         callu     r0                    ; far call to _sprintf  ; |650| 
     4946                                                           ; |650| Far Call Occurs
     4947 000008fa 18740001         subi      1,sp                  ; |650| 
     4948                           .line   83
     4949                   ;----------------------------------------------------------------------
     4950                   ; 651 | sprintf(LCD_DISPLAY[2],"HW Version:    %2d.%02d", hwu, hwl);    //R377
     4951                   ;     |                                                                        
     4952                   ;----------------------------------------------------------------------
     4953 000008fb 08700000-        ldp       @CL395,DP
     4954 000008fc 50210190-        ldiu      @CL395,r1             ; |651| 
     4955 000008fd 50420345         ldiu      *+fp(69),r2           ; |651| 
     4956 000008fe 0f220000         push      r2                    ; |651| 
     4957 000008ff 08700000-        ldp       @CL394,DP
     4958 00000900 50420344         ldiu      *+fp(68),r2           ; |651| 
     4959 00000901 502a018f-        ldiu      @CL394,ar2            ; |651| 
     4960 00000902 0f220000         push      r2                    ; |651| 
     4961 00000903 08700000-        ldp       @CL16,DP
     4962 00000904 0f210000         push      r1                    ; |651| 
     4963 00000905 5020000f-        ldiu      @CL16,r0              ; |651| 
     4964 00000906 70000000         callu     r0                    ; far call to _sprintf  ; |651| 
     4965                                                           ; |651| Far Call Occurs
     4966 00000907 18740003         subi      3,sp                  ; |651| 
     4967                           .line   84
     4968                   ;----------------------------------------------------------------------
TMS320C3x/4x COFF AssemblerVersion 5.12     Tue Mar 02 13:03:54 2021
Copyright (c) 1987-1999 Texas Instruments Incorporatedasm30.exe -@_8O8.AAB 

G:\workspace\EEA\V615\APP\SOURCE\ASM\main.asm                        PAGE   93

     4969                   ; 652 | sprintf(LCD_DISPLAY[3],"FW Version:  %4.2f.%02i", fw, i);       //R375 
     4970                   ; 653 | #endif                                                                 
     4971                   ;----------------------------------------------------------------------
     4972 00000908 08700000-        ldp       @CL397,DP
     4973 00000909 50220192-        ldiu      @CL397,r2             ; |652| 
     4974 0000090a 08700000-        ldp       @CL396,DP
     4975 0000090b 50410301         ldiu      *+fp(1),r1            ; |652| 
     4976 0000090c 502a0191-        ldiu      @CL396,ar2            ; |652| 
     4977 0000090d 0f210000         push      r1                    ; |652| 
     4978 0000090e 08700000-        ldp       @CL16,DP
     4979 0000090f 40410343         ldfu      *+fp(67),f1           ; |652| 
     4980 00000910 0fa10000         pushf     f1                    ; |652| 
     4981 00000911 5020000f-        ldiu      @CL16,r0              ; |652| 
     4982 00000912 0f220000         push      r2                    ; |652| 
     4983 00000913 70000000         callu     r0                    ; far call to _sprintf  ; |652| 
     4984                                                           ; |652| Far Call Occurs
     4985 00000914 18740003         subi      3,sp                  ; |652| 
     4986                           .line   118
     4987                   ;----------------------------------------------------------------------
     4988                   ; 686 | LCD_PAGE();                                                            
     4989                   ;----------------------------------------------------------------------
     4990 00000915 08700000-        ldp       @CL398,DP
     4991 00000916 50200193-        ldiu      @CL398,r0             ; |686| 
     4992 00000917 70000000         callu     r0                    ; far call to _LCD_PAGE ; |686| 
     4993                                                           ; |686| Far Call Occurs
     4994                           .line   119
     4995                   ;----------------------------------------------------------------------
     4996                   ; 687 | MENU_INIT();                                                           
     4997                   ;----------------------------------------------------------------------
     4998 00000918 08700000-        ldp       @CL399,DP
     4999 00000919 50200194-        ldiu      @CL399,r0             ; |687| 
     5000 0000091a 70000000         callu     r0                    ; far call to _MENU_INIT        ; |687| 
     5001                                                           ; |687| Far Call Occurs
     5002                           .line   120
     5003                   ;----------------------------------------------------------------------
     5004                   ; 688 | Initialize_Variables();                                                
     5005                   ; 690 | #ifndef RUSS_TRANSLATION_ENABLED                                       
     5006                   ; 691 | switch (ANALYZER_MODE.val)                                             
     5007                   ;----------------------------------------------------------------------
     5008 0000091b 08700000-        ldp       @CL400,DP
     5009 0000091c 50200195-        ldiu      @CL400,r0             ; |688| 
     5010 0000091d 70000000         callu     r0                    ; far call to _Initialize_Variables     ; |688| 
     5011                                                           ; |688| Far Call Occurs
     5012 0000091e 6a00003c         bu        L82                   ; |568| 
     5013                   ;*      Branch Occurs to L82            ; |568| 
     5014 0000091f          L75:        
     5015                           .line   125
     5016                   ;----------------------------------------------------------------------
     5017                   ; 693 | case SUB_LOW:           sprintf(LCD_DISPLAY[1]," Low Range Analyzer ");
     5018                   ;     |  break;                                                                
     5019                   ;----------------------------------------------------------------------
     5020 0000091f 08700000-        ldp       @CL401,DP
     5021 00000920 50210196-        ldiu      @CL401,r1             ; |693| 
     5022 00000921 08700000-        ldp       @CL392,DP
TMS320C3x/4x COFF AssemblerVersion 5.12     Tue Mar 02 13:03:54 2021
Copyright (c) 1987-1999 Texas Instruments Incorporatedasm30.exe -@_8O8.AAB 

G:\workspace\EEA\V615\APP\SOURCE\ASM\main.asm                        PAGE   94

     5023 00000922 502a018d-        ldiu      @CL392,ar2            ; |693| 
     5024 00000923 08700000-        ldp       @CL16,DP
     5025 00000924 0f210000         push      r1                    ; |693| 
     5026 00000925 5020000f-        ldiu      @CL16,r0              ; |693| 
     5027 00000926 70000000         callu     r0                    ; far call to _sprintf  ; |693| 
     5028                                                           ; |693| Far Call Occurs
     5029 00000927 18740001         subi      1,sp                  ; |693| 
     5030 00000928 6a000041         bu        L88                   ; |693| 
     5031                   ;*      Branch Occurs to L88            ; |693| 
     5032 00000929          L76:        
     5033                           .line   126
     5034                   ;----------------------------------------------------------------------
     5035                   ; 694 | case SUB_MID:           sprintf(LCD_DISPLAY[1]," Mid Range Analyzer ");
     5036                   ;     |  break;                                                                
     5037                   ;----------------------------------------------------------------------
     5038 00000929 08700000-        ldp       @CL402,DP
     5039 0000092a 50210197-        ldiu      @CL402,r1             ; |694| 
     5040 0000092b 08700000-        ldp       @CL392,DP
     5041 0000092c 502a018d-        ldiu      @CL392,ar2            ; |694| 
     5042 0000092d 08700000-        ldp       @CL16,DP
     5043 0000092e 0f210000         push      r1                    ; |694| 
     5044 0000092f 5020000f-        ldiu      @CL16,r0              ; |694| 
     5045 00000930 70000000         callu     r0                    ; far call to _sprintf  ; |694| 
     5046                                                           ; |694| Far Call Occurs
     5047 00000931 18740001         subi      1,sp                  ; |694| 
     5048 00000932 6a000037         bu        L88                   ; |694| 
     5049                   ;*      Branch Occurs to L88            ; |694| 
     5050 00000933          L77:        
     5051                           .line   127
     5052                   ;----------------------------------------------------------------------
     5053                   ; 695 | case SUB_HIGH:          sprintf(LCD_DISPLAY[1],"High Range Analyzer ");
     5054                   ;     |  break;                                                                
     5055                   ;----------------------------------------------------------------------
     5056 00000933 08700000-        ldp       @CL403,DP
     5057 00000934 50210198-        ldiu      @CL403,r1             ; |695| 
     5058 00000935 08700000-        ldp       @CL392,DP
     5059 00000936 502a018d-        ldiu      @CL392,ar2            ; |695| 
     5060 00000937 08700000-        ldp       @CL16,DP
     5061 00000938 0f210000         push      r1                    ; |695| 
     5062 00000939 5020000f-        ldiu      @CL16,r0              ; |695| 
     5063 0000093a 70000000         callu     r0                    ; far call to _sprintf  ; |695| 
     5064                                                           ; |695| Far Call Occurs
     5065 0000093b 18740001         subi      1,sp                  ; |695| 
     5066 0000093c 6a00002d         bu        L88                   ; |695| 
     5067                   ;*      Branch Occurs to L88            ; |695| 
     5068 0000093d          L78:        
     5069                           .line   128
     5070                   ;----------------------------------------------------------------------
     5071                   ; 696 | case SUB_FULL:          sprintf(LCD_DISPLAY[1],"Full Range Analyzer ");
     5072                   ;     |  break;                                                                
     5073                   ;----------------------------------------------------------------------
     5074 0000093d 08700000-        ldp       @CL404,DP
     5075 0000093e 50210199-        ldiu      @CL404,r1             ; |696| 
     5076 0000093f 08700000-        ldp       @CL392,DP
TMS320C3x/4x COFF AssemblerVersion 5.12     Tue Mar 02 13:03:54 2021
Copyright (c) 1987-1999 Texas Instruments Incorporatedasm30.exe -@_8O8.AAB 

G:\workspace\EEA\V615\APP\SOURCE\ASM\main.asm                        PAGE   95

     5077 00000940 502a018d-        ldiu      @CL392,ar2            ; |696| 
     5078 00000941 08700000-        ldp       @CL16,DP
     5079 00000942 0f210000         push      r1                    ; |696| 
     5080 00000943 5020000f-        ldiu      @CL16,r0              ; |696| 
     5081 00000944 70000000         callu     r0                    ; far call to _sprintf  ; |696| 
     5082                                                           ; |696| Far Call Occurs
     5083 00000945 18740001         subi      1,sp                  ; |696| 
     5084 00000946 6a000023         bu        L88                   ; |696| 
     5085                   ;*      Branch Occurs to L88            ; |696| 
     5086 00000947          L79:        
     5087                           .line   129
     5088                   ;----------------------------------------------------------------------
     5089                   ; 697 | case SUB_CCM:           sprintf(LCD_DISPLAY[1],"  CCM Application   ");
     5090                   ;     |  break;                                                                
     5091                   ;----------------------------------------------------------------------
     5092 00000947 08700000-        ldp       @CL405,DP
     5093 00000948 5021019a-        ldiu      @CL405,r1             ; |697| 
     5094 00000949 08700000-        ldp       @CL392,DP
     5095 0000094a 502a018d-        ldiu      @CL392,ar2            ; |697| 
     5096 0000094b 08700000-        ldp       @CL16,DP
     5097 0000094c 0f210000         push      r1                    ; |697| 
     5098 0000094d 5020000f-        ldiu      @CL16,r0              ; |697| 
     5099 0000094e 70000000         callu     r0                    ; far call to _sprintf  ; |697| 
     5100                                                           ; |697| Far Call Occurs
     5101 0000094f 18740001         subi      1,sp                  ; |697| 
     5102 00000950 6a000019         bu        L88                   ; |697| 
     5103                   ;*      Branch Occurs to L88            ; |697| 
     5104 00000951          L80:        
     5105                           .line   130
     5106                   ;----------------------------------------------------------------------
     5107                   ; 698 | case SUB_ANALYZER:      sprintf(LCD_DISPLAY[1],"      Analyzer      ");
     5108                   ;     |  break;                                                                
     5109                   ;----------------------------------------------------------------------
     5110 00000951 08700000-        ldp       @CL406,DP
     5111 00000952 5021019b-        ldiu      @CL406,r1             ; |698| 
     5112 00000953 08700000-        ldp       @CL392,DP
     5113 00000954 502a018d-        ldiu      @CL392,ar2            ; |698| 
     5114 00000955 08700000-        ldp       @CL16,DP
     5115 00000956 0f210000         push      r1                    ; |698| 
     5116 00000957 5020000f-        ldiu      @CL16,r0              ; |698| 
     5117 00000958 70000000         callu     r0                    ; far call to _sprintf  ; |698| 
     5118                                                           ; |698| Far Call Occurs
     5119 00000959 18740001         subi      1,sp                  ; |698| 
     5120 0000095a 6a00000f         bu        L88                   ; |698| 
     5121                   ;*      Branch Occurs to L88            ; |698| 
     5122                           .line   131
     5123                   ;----------------------------------------------------------------------
     5124                   ; 699 | default: break;                                                        
     5125                   ; 701 | #else                                                                  
     5126                   ; 702 | if(RUSS)                                                               
     5127                   ; 704 | switch (ANALYZER_MODE.val)                                             
     5128                   ; 706 |         case SUB_LOW:                                                  
     5129                   ; 707 |                 sprintf(code_line,"48B8B72EE0B861BE2E42BB61B46FBC6570")
     5130                   ;     | ; //R380                                                               
TMS320C3x/4x COFF AssemblerVersion 5.12     Tue Mar 02 13:03:54 2021
Copyright (c) 1987-1999 Texas Instruments Incorporatedasm30.exe -@_8O8.AAB 

G:\workspace\EEA\V615\APP\SOURCE\ASM\main.asm                        PAGE   96

     5131                   ; 708 |                 Make_Russian_Line(code_line, out_str);                 
     5132                   ; 709 |                 sprintf(LCD_DISPLAY[1],"%s",out_str);                  
     5133                   ; 710 |                 break;                                                 
     5134                   ; 711 |         case SUB_MID:                                                  
     5135                   ; 712 |                 sprintf(code_line,"4370E32EE0B861BE2E42BB61B46FBC6570")
     5136                   ;     | ; //R381                                                               
     5137                   ; 713 |                 Make_Russian_Line(code_line, out_str);                 
     5138                   ; 714 |                 sprintf(LCD_DISPLAY[1],"%s",out_str);                  
     5139                   ; 715 |                 break;                                                 
     5140                   ; 716 |         case SUB_HIGH:                                                 
     5141                   ; 717 |                 sprintf(code_line,"426570782EE0B861BE2E42BB61B46FBC6570
     5142                   ;     | "); //R376                                                             
     5143                   ; 718 |                 Make_Russian_Line(code_line, out_str);                 
     5144                   ; 719 |                 sprintf(LCD_DISPLAY[1],"%s",out_str);                  
     5145                   ; 720 |                 break;                                                 
     5146                   ; 721 |         case SUB_FULL:                                                 
     5147                   ; 722 |                 sprintf(code_line,"A86FBBBD2EE0B861BE2E42BB61B46FBC6570
     5148                   ;     | "); //R374                                                             
     5149                   ; 723 |                 Make_Russian_Line(code_line, out_str);                 
     5150                   ; 724 |                 sprintf(LCD_DISPLAY[1],"%s",out_str);                  
     5151                   ; 725 |                 break;                                                 
     5152                   ; 726 |         default: break;                                                
     5153                   ; 728 | else                                                                   
     5154                   ; 730 | case SUB_LOW:           sprintf(LCD_DISPLAY[1]," Low Range Analyzer ");
     5155                   ;     |  break;                                                                
     5156                   ; 731 | case SUB_MID:           sprintf(LCD_DISPLAY[1]," Mid Range Analyzer ");
     5157                   ;     |  break;                                                                
     5158                   ; 732 | case SUB_HIGH:          sprintf(LCD_DISPLAY[1],"High Range Analyzer ");
     5159                   ;     |  break;                                                                
     5160                   ; 733 | case SUB_FULL:          sprintf(LCD_DISPLAY[1],"Full Range Analyzer ");
     5161                   ;     |  break;                                                                
     5162                   ; 734 | case SUB_CCM:           sprintf(LCD_DISPLAY[1],"  CCM Application   ");
     5163                   ;     |  break;                                                                
     5164                   ; 735 | case SUB_ANALYZER:      sprintf(LCD_DISPLAY[1],"      Analyzer      ");
     5165                   ;     |  break;                                                                
     5166                   ; 736 | default: break;                                                        
     5167                   ; 738 | #endif                                                                 
     5168                   ;----------------------------------------------------------------------
     5169 0000095b          L82:        
     5170                           .line   123
     5171 0000095b 08700000-        ldp       @CL99,DP
     5172 0000095c 50280065-        ldiu      @CL99,ar0             ; |691| 
     5173 0000095d 5040c000         ldiu      *ar0,r0               ; |691| 
     5174 0000095e 04e00000         cmpi      0,r0                  ; |691| 
     5175 0000095f 6a05ffbf         beq       L75                   ; |691| 
     5176                   ;*      Branch Occurs to L75            ; |691| 
     5177 00000960 04e00001         cmpi      1,r0                  ; |691| 
     5178 00000961 6a05ffdb         beq       L78                   ; |691| 
     5179                   ;*      Branch Occurs to L78            ; |691| 
     5180 00000962 04e00002         cmpi      2,r0                  ; |691| 
     5181 00000963 6a05ffed         beq       L80                   ; |691| 
     5182                   ;*      Branch Occurs to L80            ; |691| 
     5183 00000964 04e00003         cmpi      3,r0                  ; |691| 
     5184 00000965 6a05ffc3         beq       L76                   ; |691| 
TMS320C3x/4x COFF AssemblerVersion 5.12     Tue Mar 02 13:03:54 2021
Copyright (c) 1987-1999 Texas Instruments Incorporatedasm30.exe -@_8O8.AAB 

G:\workspace\EEA\V615\APP\SOURCE\ASM\main.asm                        PAGE   97

     5185                   ;*      Branch Occurs to L76            ; |691| 
     5186 00000966 04e00004         cmpi      4,r0                  ; |691| 
     5187 00000967 6a05ffcb         beq       L77                   ; |691| 
     5188                   ;*      Branch Occurs to L77            ; |691| 
     5189 00000968 04e00006         cmpi      6,r0                  ; |691| 
     5190 00000969 6a05ffdd         beq       L79                   ; |691| 
     5191                   ;*      Branch Occurs to L79            ; |691| 
     5192 0000096a          L88:        
     5193                           .line   172
     5194                   ;----------------------------------------------------------------------
     5195                   ; 740 | LCD_PAGE();                                                            
     5196                   ;----------------------------------------------------------------------
     5197 0000096a 08700000-        ldp       @CL398,DP
     5198 0000096b 50200193-        ldiu      @CL398,r0             ; |740| 
     5199 0000096c 70000000         callu     r0                    ; far call to _LCD_PAGE ; |740| 
     5200                                                           ; |740| Far Call Occurs
     5201                           .line   173
     5202                   ;----------------------------------------------------------------------
     5203                   ; 741 | RTC_setup();                                                           
     5204                   ;----------------------------------------------------------------------
     5205 0000096d 08700000-        ldp       @CL407,DP
     5206 0000096e 5020019c-        ldiu      @CL407,r0             ; |741| 
     5207 0000096f 70000000         callu     r0                    ; far call to _RTC_setup        ; |741| 
     5208                                                           ; |741| Far Call Occurs
     5209                           .line   174
     5210                   ;----------------------------------------------------------------------
     5211                   ; 742 | Setup_Timer(0, 11.0/(2.0*115200.0));                                   
     5212                   ;----------------------------------------------------------------------
     5213 00000970 08700000-        ldp       @CL408,DP
     5214 00000971 4022019d-        ldfu      @CL408,f2             ; |742| 
     5215 00000972 08700000-        ldp       @CL409,DP
     5216 00000973 506a0000         ldiu      0,ar2                 ; |742| 
     5217 00000974 5020019e-        ldiu      @CL409,r0             ; |742| 
     5218 00000975 70000000         callu     r0                    ; far call to _Setup_Timer      ; |742| 
     5219                                                           ; |742| Far Call Occurs
     5220                           .line   175
     5221                   ;----------------------------------------------------------------------
     5222                   ; 743 | Setup_Timer(1, 0);                                                     
     5223                   ;----------------------------------------------------------------------
     5224 00000976 08700000-        ldp       @CL409,DP
     5225 00000977 506a0001         ldiu      1,ar2                 ; |743| 
     5226 00000978 5020019e-        ldiu      @CL409,r0             ; |743| 
     5227 00000979 40628000         ldfu      0.0000000000e+00,f2   ; |743| 
     5228 0000097a 70000000         callu     r0                    ; far call to _Setup_Timer      ; |743| 
     5229                                                           ; |743| Far Call Occurs
     5230                           .line   176
     5231                   ;----------------------------------------------------------------------
     5232                   ; 744 | VAR_DAMP_Init(0);                                                      
     5233                   ;----------------------------------------------------------------------
     5234 0000097b 08700000-        ldp       @CL410,DP
     5235 0000097c 5020019f-        ldiu      @CL410,r0             ; |744| 
     5236 0000097d 506a0000         ldiu      0,ar2                 ; |744| 
     5237 0000097e 70000000         callu     r0                    ; far call to _VAR_DAMP_Init    ; |744| 
     5238                                                           ; |744| Far Call Occurs
TMS320C3x/4x COFF AssemblerVersion 5.12     Tue Mar 02 13:03:54 2021
Copyright (c) 1987-1999 Texas Instruments Incorporatedasm30.exe -@_8O8.AAB 

G:\workspace\EEA\V615\APP\SOURCE\ASM\main.asm                        PAGE   98

     5239                           .line   177
     5240                   ;----------------------------------------------------------------------
     5241                   ; 745 | Initialize_Periodic_Events();                                          
     5242                   ;----------------------------------------------------------------------
     5243 0000097f 08700000-        ldp       @CL411,DP
     5244 00000980 502001a0-        ldiu      @CL411,r0             ; |745| 
     5245 00000981 70000000         callu     r0                    ; far call to _Initialize_Periodic_Events       ; |745| 
     5246                                                           ; |745| Far Call Occurs
     5247                           .line   178
     5248                   ;----------------------------------------------------------------------
     5249                   ; 746 | Setup_Serial_Port0();                                                  
     5250                   ;----------------------------------------------------------------------
     5251 00000982 08700000-        ldp       @CL412,DP
     5252 00000983 502001a1-        ldiu      @CL412,r0             ; |746| 
     5253 00000984 70000000         callu     r0                    ; far call to _Setup_Serial_Port0       ; |746| 
     5254                                                           ; |746| Far Call Occurs
     5255                           .line   180
     5256                   ;----------------------------------------------------------------------
     5257                   ; 748 | for (i=0;i<ADC_MAX;i++)                                                
     5258                   ;----------------------------------------------------------------------
     5259 00000985 50600000         ldiu      0,r0                  ; |748| 
     5260 00000986 15400301         sti       r0,*+fp(1)            ; |748| 
     5261 00000987 04e0000c         cmpi      12,r0                 ; |748| 
     5262 00000988 6a040009         bhs       L90                   ; |748| 
     5263                   ;*      Branch Occurs to L90            ; |748| 
     5264 00000989          L89:        
     5265                           .line   181
     5266                   ;----------------------------------------------------------------------
     5267                   ; 749 | Setup_ADC(i);                                                          
     5268                   ;----------------------------------------------------------------------
     5269 00000989 08700000-        ldp       @CL413,DP
     5270 0000098a 504a0301         ldiu      *+fp(1),ar2           ; |749| 
     5271 0000098b 502001a2-        ldiu      @CL413,r0             ; |749| 
     5272 0000098c 70000000         callu     r0                    ; far call to _Setup_ADC        ; |749| 
     5273                                                           ; |749| Far Call Occurs
     5274                           .line   180
     5275 0000098d 50600001         ldiu      1,r0                  ; |748| 
     5276 0000098e 02400301         addi      *+fp(1),r0            ; |748| Unsigned
     5277 0000098f 15400301         sti       r0,*+fp(1)            ; |748| 
     5278 00000990 04e0000c         cmpi      12,r0                 ; |748| 
     5279 00000991 6a01fff7         blo       L89                   ; |748| 
     5280                   ;*      Branch Occurs to L89            ; |748| 
     5281 00000992          L90:        
     5282                           .line   183
     5283                   ;----------------------------------------------------------------------
     5284                   ; 751 | for (i=0;i<DAC_MAX;i++)                                                
     5285                   ;----------------------------------------------------------------------
     5286 00000992 50600000         ldiu      0,r0                  ; |751| 
     5287 00000993 15400301         sti       r0,*+fp(1)            ; |751| 
     5288 00000994 04e0000c         cmpi      12,r0                 ; |751| 
     5289 00000995 6a040009         bhs       L92                   ; |751| 
     5290                   ;*      Branch Occurs to L92            ; |751| 
     5291 00000996          L91:        
     5292                           .line   184
TMS320C3x/4x COFF AssemblerVersion 5.12     Tue Mar 02 13:03:54 2021
Copyright (c) 1987-1999 Texas Instruments Incorporatedasm30.exe -@_8O8.AAB 

G:\workspace\EEA\V615\APP\SOURCE\ASM\main.asm                        PAGE   99

     5293                   ;----------------------------------------------------------------------
     5294                   ; 752 | Setup_DAC(i);                                                          
     5295                   ;----------------------------------------------------------------------
     5296 00000996 08700000-        ldp       @CL414,DP
     5297 00000997 504a0301         ldiu      *+fp(1),ar2           ; |752| 
     5298 00000998 502001a3-        ldiu      @CL414,r0             ; |752| 
     5299 00000999 70000000         callu     r0                    ; far call to _Setup_DAC        ; |752| 
     5300                                                           ; |752| Far Call Occurs
     5301                           .line   183
     5302 0000099a 50600001         ldiu      1,r0                  ; |751| 
     5303 0000099b 02400301         addi      *+fp(1),r0            ; |751| Unsigned
     5304 0000099c 15400301         sti       r0,*+fp(1)            ; |751| 
     5305 0000099d 04e0000c         cmpi      12,r0                 ; |751| 
     5306 0000099e 6a01fff7         blo       L91                   ; |751| 
     5307                   ;*      Branch Occurs to L91            ; |751| 
     5308 0000099f          L92:        
     5309                           .line   186
     5310                   ;----------------------------------------------------------------------
     5311                   ; 754 | if ((REG_TEMPERATURE_EXTERNAL.unit & 0xFF) == u_temp_C)                
     5312                   ;----------------------------------------------------------------------
     5313 0000099f 08700000-        ldp       @CL415,DP
     5314 000009a0 502801a4-        ldiu      @CL415,ar0            ; |754| 
     5315 000009a1 506000ff         ldiu      255,r0                ; |754| 
     5316 000009a2 21a0c000         and3      r0,*ar0,r0            ; |754| 
     5317 000009a3 04e00020         cmpi      32,r0                 ; |754| 
     5318 000009a4 6a060005         bne       L94                   ; |754| 
     5319                   ;*      Branch Occurs to L94            ; |754| 
     5320                           .line   187
     5321                   ;----------------------------------------------------------------------
     5322                   ; 755 | DIO_TEMP_C.val = TRUE;                                                 
     5323                   ; 756 | else                                                                   
     5324                   ;----------------------------------------------------------------------
     5325 000009a5 08700000-        ldp       @CL416,DP
     5326 000009a6 502801a5-        ldiu      @CL416,ar0            ; |755| 
     5327 000009a7 50600001         ldiu      1,r0                  ; |755| 
     5328 000009a8 1540c000         sti       r0,*ar0               ; |755| 
     5329 000009a9 6a000004         bu        L95                   ; |568| 
     5330                   ;*      Branch Occurs to L95            ; |568| 
     5331 000009aa          L94:        
     5332                           .line   189
     5333                   ;----------------------------------------------------------------------
     5334                   ; 757 | DIO_TEMP_C.val = FALSE;                                                
     5335                   ;----------------------------------------------------------------------
     5336 000009aa 08700000-        ldp       @CL416,DP
     5337 000009ab 502801a5-        ldiu      @CL416,ar0            ; |757| 
     5338 000009ac 50600000         ldiu      0,r0                  ; |757| 
     5339 000009ad 1540c000         sti       r0,*ar0               ; |757| 
     5340 000009ae          L95:        
     5341                           .line   191
     5342                   ;----------------------------------------------------------------------
     5343                   ; 759 | if (DIO_BUILT_IN_TEST_ENABLE.val)                                      
     5344                   ;----------------------------------------------------------------------
     5345 000009ae 08700000-        ldp       @CL417,DP
     5346 000009af 502801a6-        ldiu      @CL417,ar0            ; |759| 
TMS320C3x/4x COFF AssemblerVersion 5.12     Tue Mar 02 13:03:54 2021
Copyright (c) 1987-1999 Texas Instruments Incorporatedasm30.exe -@_8O8.AAB 

G:\workspace\EEA\V615\APP\SOURCE\ASM\main.asm                        PAGE  100

     5347 000009b0 5040c000         ldiu      *ar0,r0               ; |759| 
     5348 000009b1 04e00000         cmpi      0,r0                  ; |759| 
     5349 000009b2 6a050003         beq       L97                   ; |759| 
     5350                   ;*      Branch Occurs to L97            ; |759| 
     5351                           .line   192
     5352                   ;----------------------------------------------------------------------
     5353                   ; 760 | Self_Test_FULL();                                                      
     5354                   ;----------------------------------------------------------------------
     5355 000009b3 08700000-        ldp       @CL418,DP
     5356 000009b4 502001a7-        ldiu      @CL418,r0             ; |760| 
     5357 000009b5 70000000         callu     r0                    ; far call to _Self_Test_FULL   ; |760| 
     5358                                                           ; |760| Far Call Occurs
     5359 000009b6          L97:        
     5360                           .line   195
     5361                   ;----------------------------------------------------------------------
     5362                   ; 763 | ENABLE_EXTINT1;                                                        
     5363                   ;----------------------------------------------------------------------
     5364 000009b6 0f350000         push    ST                      
     5365 000009b7 03752000         andn    2000h, ST       
     5366 000009b8 08700000-        ldp       @CL379,DP
     5367 000009b9 50280180-        ldiu      @CL379,ar0            ; |763| 
     5368 000009ba 50600002         ldiu      2,r0                  ; |763| 
     5369 000009bb 25a0c000         or3       r0,*ar0,r0            ; |763| 
     5370 000009bc 1540c000         sti       r0,*ar0               ; |763| 
     5371 000009bd 0e350000         pop             ST                      
     5372                           .line   196
     5373                   ;----------------------------------------------------------------------
     5374                   ; 764 | ENABLE_INT1;                                                           
     5375                   ;----------------------------------------------------------------------
     5376 000009be 10760002         or              0002h, IE
     5377                           .line   197
     5378                   ;----------------------------------------------------------------------
     5379                   ; 765 | CLEAR_INT1;                                                            
     5380                   ;----------------------------------------------------------------------
     5381 000009bf 03770002         andn    0002h, IF
     5382                           .line   200
     5383                   ;----------------------------------------------------------------------
     5384                   ; 768 | ENABLE_IRDA; //enable IrDA (USB)                                       
     5385                   ;----------------------------------------------------------------------
     5386 000009c0 0f350000         push    ST                      
     5387 000009c1 03752000         andn    2000h, ST       
     5388 000009c2 08700000-        ldp       @CL5,DP
     5389 000009c3 50280004-        ldiu      @CL5,ar0              ; |768| 
     5390 000009c4 50600010         ldiu      16,r0                 ; |768| 
     5391 000009c5 25a0c000         or3       r0,*ar0,r0            ; |768| 
     5392 000009c6 1540c000         sti       r0,*ar0               ; |768| 
     5393 000009c7 0e350000         pop             ST                      
     5394                           .line   202
     5395                   ;----------------------------------------------------------------------
     5396                   ; 770 | if (LOG_STATUS == ALFAT_CONTINUE_LOG)                                  
     5397                   ;----------------------------------------------------------------------
     5398 000009c8 08700000-        ldp       @CL419,DP
     5399 000009c9 502801a8-        ldiu      @CL419,ar0            ; |770| 
     5400 000009ca 5040c000         ldiu      *ar0,r0               ; |770| 
TMS320C3x/4x COFF AssemblerVersion 5.12     Tue Mar 02 13:03:54 2021
Copyright (c) 1987-1999 Texas Instruments Incorporatedasm30.exe -@_8O8.AAB 

G:\workspace\EEA\V615\APP\SOURCE\ASM\main.asm                        PAGE  101

     5401 000009cb 04e00052         cmpi      82,r0                 ; |770| 
     5402 000009cc 6a060007         bne       L99                   ; |770| 
     5403                   ;*      Branch Occurs to L99            ; |770| 
     5404                           .line   204
     5405                   ;----------------------------------------------------------------------
     5406                   ; 772 | Timer_Insert(&TMR_ALFAT_LOG,0,TMR_action_replace);                     
     5407                   ;----------------------------------------------------------------------
     5408 000009cd 08700000-        ldp       @CL421,DP
     5409 000009ce 502001aa-        ldiu      @CL421,r0             ; |772| 
     5410 000009cf 50630001         ldiu      1,r3                  ; |772| 
     5411 000009d0 08700000-        ldp       @CL420,DP
     5412 000009d1 50620000         ldiu      0,r2                  ; |772| 
     5413 000009d2 502a01a9-        ldiu      @CL420,ar2            ; |772| 
     5414 000009d3 70000000         callu     r0                    ; far call to _Timer_Insert     ; |772| 
     5415                                                           ; |772| Far Call Occurs
     5416 000009d4          L99:        
     5417                           .line   207
     5418                   ;----------------------------------------------------------------------
     5419                   ; 775 | Port_Defaults(FALSE);                                                  
     5420                   ;----------------------------------------------------------------------
     5421 000009d4 08700000-        ldp       @CL422,DP
     5422 000009d5 506a0000         ldiu      0,ar2                 ; |775| 
     5423 000009d6 502001ab-        ldiu      @CL422,r0             ; |775| 
     5424 000009d7 70000000         callu     r0                    ; far call to _Port_Defaults    ; |775| 
     5425                                                           ; |775| Far Call Occurs
     5426                           .line   208
     5427                   ;----------------------------------------------------------------------
     5428                   ; 776 | Disable_Heater();                                                      
     5429                   ;----------------------------------------------------------------------
     5430 000009d8 08700000-        ldp       @CL423,DP
     5431 000009d9 502001ac-        ldiu      @CL423,r0             ; |776| 
     5432 000009da 70000000         callu     r0                    ; far call to _Disable_Heater   ; |776| 
     5433                                                           ; |776| Far Call Occurs
     5434                           .line   211
     5435                   ;----------------------------------------------------------------------
     5436                   ; 779 | RESET_COUNTER++;                                                       
     5437                   ;----------------------------------------------------------------------
     5438 000009db 08700000-        ldp       @CL424,DP
     5439 000009dc 502801ad-        ldiu      @CL424,ar0            ; |779| 
     5440 000009dd 50600001         ldiu      1,r0                  ; |779| 
     5441 000009de 2120c000         addi3     r0,*ar0,r0            ; |779| 
     5442 000009df 1540c000         sti       r0,*ar0               ; |779| 
     5443                           .line   212
     5444                   ;----------------------------------------------------------------------
     5445                   ; 780 | Write_CFG_USER();                                                      
     5446                   ;----------------------------------------------------------------------
     5447 000009e0 08700000-        ldp       @CL425,DP
     5448 000009e1 502001ae-        ldiu      @CL425,r0             ; |780| 
     5449 000009e2 70000000         callu     r0                    ; far call to _Write_CFG_USER   ; |780| 
     5450                                                           ; |780| Far Call Occurs
     5451                           .line   215
     5452                   ;----------------------------------------------------------------------
     5453                   ; 783 | if (!DEMO)                                                             
     5454                   ;----------------------------------------------------------------------
TMS320C3x/4x COFF AssemblerVersion 5.12     Tue Mar 02 13:03:54 2021
Copyright (c) 1987-1999 Texas Instruments Incorporatedasm30.exe -@_8O8.AAB 

G:\workspace\EEA\V615\APP\SOURCE\ASM\main.asm                        PAGE  102

     5455 000009e3 08700000-        ldp       @CL426,DP
     5456 000009e4 502801af-        ldiu      @CL426,ar0            ; |783| 
     5457 000009e5 5040c000         ldiu      *ar0,r0               ; |783| 
     5458 000009e6 04e00000         cmpi      0,r0                  ; |783| 
     5459 000009e7 6a060004         bne       L101                  ; |783| 
     5460                   ;*      Branch Occurs to L101           ; |783| 
     5461                           .line   216
     5462                   ;----------------------------------------------------------------------
     5463                   ; 784 | Clear_Accumulators(0);                                                 
     5464                   ;----------------------------------------------------------------------
     5465 000009e8 08700000-        ldp       @CL427,DP
     5466 000009e9 506a0000         ldiu      0,ar2                 ; |784| 
     5467 000009ea 502001b0-        ldiu      @CL427,r0             ; |784| 
     5468 000009eb 70000000         callu     r0                    ; far call to _Clear_Accumulators       ; |784| 
     5469                                                           ; |784| Far Call Occurs
     5470 000009ec          L101:        
     5471                           .line   219
     5472                   ;----------------------------------------------------------------------
     5473                   ; 787 | VT_SELECT       = 0;                                                   
     5474                   ;----------------------------------------------------------------------
     5475 000009ec 08700000-        ldp       @CL428,DP
     5476 000009ed 502801b1-        ldiu      @CL428,ar0            ; |787| 
     5477 000009ee 50600000         ldiu      0,r0                  ; |787| 
     5478 000009ef 1540c000         sti       r0,*ar0               ; |787| 
     5479                           .line   220
     5480                   ;----------------------------------------------------------------------
     5481                   ; 788 | OSWITCH         = 1;                                                   
     5482                   ;----------------------------------------------------------------------
     5483 000009f0 08700000-        ldp       @CL429,DP
     5484 000009f1 502801b2-        ldiu      @CL429,ar0            ; |788| 
     5485 000009f2 50600001         ldiu      1,r0                  ; |788| 
     5486 000009f3 1540c000         sti       r0,*ar0               ; |788| 
     5487                           .line   221
     5488                   ;----------------------------------------------------------------------
     5489                   ; 789 | SELECT_LOAD_EXT;                                                       
     5490                   ;----------------------------------------------------------------------
     5491 000009f4 0f350000         push    ST                      
     5492 000009f5 03752000         andn    2000h, ST       
     5493 000009f6 08700000-        ldp       @CL430,DP
     5494 000009f7 502801b3-        ldiu      @CL430,ar0            ; |789| 
     5495 000009f8 25a0c000         or3       r0,*ar0,r0            ; |789| 
     5496 000009f9 1540c000         sti       r0,*ar0               ; |789| 
     5497 000009fa 0e350000         pop             ST                      
     5498                           .line   223
     5499                   ;----------------------------------------------------------------------
     5500                   ; 791 | if (EXTUNE)                                                            
     5501                   ;----------------------------------------------------------------------
     5502 000009fb 08700000-        ldp       @CL431,DP
     5503 000009fc 502801b4-        ldiu      @CL431,ar0            ; |791| 
     5504 000009fd 5040c000         ldiu      *ar0,r0               ; |791| 
     5505 000009fe 04e00000         cmpi      0,r0                  ; |791| 
     5506 000009ff 6a05001b         beq       L103                  ; |791| 
     5507                   ;*      Branch Occurs to L103           ; |791| 
     5508                           .line   225
TMS320C3x/4x COFF AssemblerVersion 5.12     Tue Mar 02 13:03:54 2021
Copyright (c) 1987-1999 Texas Instruments Incorporatedasm30.exe -@_8O8.AAB 

G:\workspace\EEA\V615\APP\SOURCE\ASM\main.asm                        PAGE  103

     5509                   ;----------------------------------------------------------------------
     5510                   ; 793 | VAR_Update(&REG_DAC[DAC_VTUNE], REG_VTUNE_SET[VT_SELECT].calc_val, 0, 0
     5511                   ;     | );                                                                     
     5512                   ;----------------------------------------------------------------------
     5513 00000a00 08700000-        ldp       @CL428,DP
     5514 00000a01 502801b1-        ldiu      @CL428,ar0            ; |793| 
     5515 00000a02 08700000-        ldp       @CL432,DP
     5516 00000a03 5060002c         ldiu      44,r0                 ; |793| 
     5517 00000a04 502a01b5-        ldiu      @CL432,ar2            ; |793| 
     5518 00000a05 2528c000         mpyi3     r0,*ar0,ar0           ; |793| 
     5519 00000a06 08700000-        ldp       @CL433,DP
     5520 00000a07 507b0000         ldiu      0,rc                  ; |793| 
     5521 00000a08 022801b6-        addi      @CL433,ar0            ; |793| Unsigned
     5522 00000a09 08700000-        ldp       @CL67,DP
     5523 00000a0a 4042c000         ldfu      *ar0,f2               ; |793| 40b float hi half
     5524 00000a0b 50200042-        ldiu      @CL67,r0              ; |793| 
     5525 00000a0c 50420001         ldiu      *+ar0,r2              ; |793| 40b float lo half
     5526 00000a0d 50630000         ldiu      0,r3                  ; |793| 
     5527 00000a0e 70000000         callu     r0                    ; far call to _VAR_Update       ; |793| 
     5528                                                           ; |793| Far Call Occurs
     5529                           .line   226
     5530                   ;----------------------------------------------------------------------
     5531                   ; 794 | VAR_Update(&REG_DAC[DAC_TUNESEL], 5.0, 0, 0);                          
     5532                   ; 796 | else                                                                   
     5533                   ;----------------------------------------------------------------------
     5534 00000a0f 08700000-        ldp       @CL434,DP
     5535 00000a10 502a01b7-        ldiu      @CL434,ar2            ; |794| 
     5536 00000a11 08700000-        ldp       @CL67,DP
     5537 00000a12 50200042-        ldiu      @CL67,r0              ; |794| 
     5538 00000a13 08700000-        ldp       @CL435+0,DP
     5539 00000a14 402201b8-        ldfu      @CL435+0,f2           ; |794| 40b float hi half
     5540 00000a15 08700000-        ldp       @CL435+1,DP
     5541 00000a16 507b0000         ldiu      0,rc                  ; |794| 
     5542 00000a17 502201b9-        ldiu      @CL435+1,r2           ; |794| 40b float lo half
     5543 00000a18 50630000         ldiu      0,r3                  ; |794| 
     5544 00000a19 70000000         callu     r0                    ; far call to _VAR_Update       ; |794| 
     5545                                                           ; |794| Far Call Occurs
     5546 00000a1a 6a000016         bu        L104                  ; |568| 
     5547                   ;*      Branch Occurs to L104           ; |568| 
     5548 00000a1b          L103:        
     5549                           .line   230
     5550                   ;----------------------------------------------------------------------
     5551                   ; 798 | VAR_Update(&REG_DAC[DAC_VTUNE], 0.0, 0, 0);                            
     5552                   ;----------------------------------------------------------------------
     5553 00000a1b 08700000-        ldp       @CL432,DP
     5554 00000a1c 502a01b5-        ldiu      @CL432,ar2            ; |798| 
     5555 00000a1d 08700000-        ldp       @CL67,DP
     5556 00000a1e 50200042-        ldiu      @CL67,r0              ; |798| 
     5557 00000a1f 08700000-        ldp       @CL80+0,DP
     5558 00000a20 40220050-        ldfu      @CL80+0,f2            ; |798| 40b float hi half
     5559 00000a21 08700000-        ldp       @CL80+1,DP
     5560 00000a22 507b0000         ldiu      0,rc                  ; |798| 
     5561 00000a23 50220051-        ldiu      @CL80+1,r2            ; |798| 40b float lo half
     5562 00000a24 50630000         ldiu      0,r3                  ; |798| 
TMS320C3x/4x COFF AssemblerVersion 5.12     Tue Mar 02 13:03:54 2021
Copyright (c) 1987-1999 Texas Instruments Incorporatedasm30.exe -@_8O8.AAB 

G:\workspace\EEA\V615\APP\SOURCE\ASM\main.asm                        PAGE  104

     5563 00000a25 70000000         callu     r0                    ; far call to _VAR_Update       ; |798| 
     5564                                                           ; |798| Far Call Occurs
     5565                           .line   231
     5566                   ;----------------------------------------------------------------------
     5567                   ; 799 | VAR_Update(&REG_DAC[DAC_TUNESEL], 0.0, 0, 0);                          
     5568                   ;----------------------------------------------------------------------
     5569 00000a26 08700000-        ldp       @CL434,DP
     5570 00000a27 502a01b7-        ldiu      @CL434,ar2            ; |799| 
     5571 00000a28 08700000-        ldp       @CL67,DP
     5572 00000a29 50200042-        ldiu      @CL67,r0              ; |799| 
     5573 00000a2a 08700000-        ldp       @CL80+0,DP
     5574 00000a2b 40220050-        ldfu      @CL80+0,f2            ; |799| 40b float hi half
     5575 00000a2c 08700000-        ldp       @CL80+1,DP
     5576 00000a2d 507b0000         ldiu      0,rc                  ; |799| 
     5577 00000a2e 50220051-        ldiu      @CL80+1,r2            ; |799| 40b float lo half
     5578 00000a2f 50630000         ldiu      0,r3                  ; |799| 
     5579 00000a30 70000000         callu     r0                    ; far call to _VAR_Update       ; |799| 
     5580                                                           ; |799| Far Call Occurs
     5581 00000a31          L104:        
     5582                           .line   234
     5583                   ;----------------------------------------------------------------------
     5584                   ; 802 | if (!SA)                                                               
     5585                   ;----------------------------------------------------------------------
     5586 00000a31 08700000-        ldp       @CL374,DP
     5587 00000a32 5028017b-        ldiu      @CL374,ar0            ; |802| 
     5588 00000a33 5040c000         ldiu      *ar0,r0               ; |802| 
     5589 00000a34 04e00000         cmpi      0,r0                  ; |802| 
     5590 00000a35 6a060004         bne       L106                  ; |802| 
     5591                   ;*      Branch Occurs to L106           ; |802| 
     5592                           .line   235
     5593                   ;----------------------------------------------------------------------
     5594                   ; 803 | Write_DAC(DAC_TUNESEL);                                                
     5595                   ;----------------------------------------------------------------------
     5596 00000a36 08700000-        ldp       @CL436,DP
     5597 00000a37 506a000b         ldiu      11,ar2                ; |803| 
     5598 00000a38 502001ba-        ldiu      @CL436,r0             ; |803| 
     5599 00000a39 70000000         callu     r0                    ; far call to _Write_DAC        ; |803| 
     5600                                                           ; |803| Far Call Occurs
     5601 00000a3a          L106:        
     5602                           .line   237
     5603                   ;----------------------------------------------------------------------
     5604                   ; 805 | Write_DAC(DAC_VTUNE);                                                  
     5605                   ;----------------------------------------------------------------------
     5606 00000a3a 08700000-        ldp       @CL436,DP
     5607 00000a3b 506a000a         ldiu      10,ar2                ; |805| 
     5608 00000a3c 502001ba-        ldiu      @CL436,r0             ; |805| 
     5609 00000a3d 70000000         callu     r0                    ; far call to _Write_DAC        ; |805| 
     5610                                                           ; |805| Far Call Occurs
     5611                           .line   238
     5612                   ;----------------------------------------------------------------------
     5613                   ; 806 | Set_Research_Mode();            /* start sampling */                   
     5614                   ;----------------------------------------------------------------------
     5615 00000a3e 08700000-        ldp       @CL437,DP
     5616 00000a3f 502001bb-        ldiu      @CL437,r0             ; |806| 
TMS320C3x/4x COFF AssemblerVersion 5.12     Tue Mar 02 13:03:54 2021
Copyright (c) 1987-1999 Texas Instruments Incorporatedasm30.exe -@_8O8.AAB 

G:\workspace\EEA\V615\APP\SOURCE\ASM\main.asm                        PAGE  105

     5617 00000a40 70000000         callu     r0                    ; far call to _Set_Research_Mode        ; |806| 
     5618                                                           ; |806| Far Call Occurs
     5619                           .line   241
     5620                   ;----------------------------------------------------------------------
     5621                   ; 809 | if (MEM)                                                               
     5622                   ;----------------------------------------------------------------------
     5623 00000a41 08700000-        ldp       @CL2,DP
     5624 00000a42 50280001-        ldiu      @CL2,ar0              ; |809| 
     5625 00000a43 5040c000         ldiu      *ar0,r0               ; |809| 
     5626 00000a44 04e00000         cmpi      0,r0                  ; |809| 
     5627 00000a45 6a050003         beq       L108                  ; |809| 
     5628                   ;*      Branch Occurs to L108           ; |809| 
     5629                           .line   242
     5630                   ;----------------------------------------------------------------------
     5631                   ; 810 | Debug();                                                               
     5632                   ;----------------------------------------------------------------------
     5633 00000a46 08700000-        ldp       @CL438,DP
     5634 00000a47 502001bc-        ldiu      @CL438,r0             ; |810| 
     5635 00000a48 70000000         callu     r0                    ; far call to _Debug    ; |810| 
     5636                                                           ; |810| Far Call Occurs
     5637 00000a49          L108:        
     5638                           .line   244
     5639                   ;----------------------------------------------------------------------
     5640                   ; 812 | ENABLE_WDOG;                                                           
     5641                   ;----------------------------------------------------------------------
     5642 00000a49 0f350000         push    ST                      
     5643 00000a4a 03752000         andn    2000h, ST       
     5644 00000a4b 08700000-        ldp       @CL5,DP
     5645 00000a4c 50280004-        ldiu      @CL5,ar0              ; |812| 
     5646 00000a4d 50600008         ldiu      8,r0                  ; |812| 
     5647 00000a4e 25a0c000         or3       r0,*ar0,r0            ; |812| 
     5648 00000a4f 1540c000         sti       r0,*ar0               ; |812| 
     5649 00000a50 50600080         ldiu      128,r0                ; |812| 
     5650 00000a51 25a0c000         or3       r0,*ar0,r0            ; |812| 
     5651 00000a52 1540c000         sti       r0,*ar0               ; |812| 
     5652 00000a53 0e350000         pop             ST                      
     5653                           .line   245
     5654                   ;----------------------------------------------------------------------
     5655                   ; 813 | INITIALIZING = FALSE;                                                  
     5656                   ;----------------------------------------------------------------------
     5657 00000a54 08700000-        ldp       @CL380,DP
     5658 00000a55 50280181-        ldiu      @CL380,ar0            ; |813| 
     5659 00000a56 50600000         ldiu      0,r0                  ; |813| 
     5660 00000a57 1540c000         sti       r0,*ar0               ; |813| 
     5661                           .line   246
     5662                   ;----------------------------------------------------------------------
     5663                   ; 814 | GIE;                                                                   
     5664                   ;----------------------------------------------------------------------
     5665 00000a58 10752000         or              2000h, ST       
     5666                           .line   247
     5667                                                           ; Begin Epilog Code
     5668 00000a59 50410b01         ldiu      *-fp(1),r1
     5669 00000a5a 504bc300         ldiu      *fp,fp
     5670                                                           ; Unallocate the Frame
TMS320C3x/4x COFF AssemblerVersion 5.12     Tue Mar 02 13:03:54 2021
Copyright (c) 1987-1999 Texas Instruments Incorporatedasm30.exe -@_8O8.AAB 

G:\workspace\EEA\V615\APP\SOURCE\ASM\main.asm                        PAGE  106

     5671 00000a5b 18740047         subi      71,sp
     5672 00000a5c 68000001         bu        r1
     5673                   ;*      Branch Occurs to r1 
     5674                           .endfunc        815,000000000h,69
     5675                   
     5676                   
     5677 00000006                  .sect    ".text"
     5678                   
     5679                           .global _Make_Russian_Line
     5680                           .sym    _Make_Russian_Line,_Make_Russian_Line,32,2,0
     5681                           .func   817
     5682                   ;******************************************************************************
     5683                   ;* FUNCTION NAME: _Make_Russian_Line                                          *
     5684                   ;*                                                                            *
     5685                   ;*   Architecture       : TMS320C33                                           *
     5686                   ;*   Calling Convention : TI Standard Register Parameters                     *
     5687                   ;*   Function Uses Regs : r0,r1,r2,r3,ar0,ar1,ar2,fp,ir0,sp,st                *
     5688                   ;*   Regs Saved         :                                                     *
     5689                   ;*   Stack Frame        : Full (w/ debug)                                     *
     5690                   ;*   Total Frame Size   : 2 Call + 0 Parm + 8 Auto + 0 SOE = 10 words         *
     5691                   ;******************************************************************************
     5692 00000006          _Make_Russian_Line:
     5693                   ;* ar2   assigned to _code
     5694                           .sym    _code,10,18,17,32
     5695                   ;* r2    assigned to _out_str
     5696                           .sym    _out_str,2,18,17,32
     5697                           .sym    _code,1,18,1,32
     5698                           .sym    _out_str,2,18,1,32
     5699                           .sym    _i,3,4,1,32
     5700                           .sym    _l_code_val,4,5,1,32
     5701                           .sym    _code_val,5,12,1,32
     5702                           .sym    _c,6,50,1,96,,3
     5703                           .line   1
     5704                   ;----------------------------------------------------------------------
     5705                   ; 817 | void Make_Russian_Line(char code[], char out_str[])                    
     5706                   ;----------------------------------------------------------------------
     5707 00000006 0f2b0000         push      fp
     5708 00000007 500b0014         ldiu      sp,fp
     5709 00000008 02740008         addi      8,sp
     5710                           .line   2
     5711                   ;----------------------------------------------------------------------
     5712                   ; 819 | int i;                                                                 
     5713                   ; 820 | long int l_code_val;                                                   
     5714                   ; 821 | unsigned char code_val;                                                
     5715                   ; 822 | char c[3];                                                             
     5716                   ;----------------------------------------------------------------------
     5717 00000009 15420302         sti       r2,*+fp(2)            ; |818| 
     5718 0000000a 154a0301         sti       ar2,*+fp(1)           ; |818| 
     5719                           .line   8
     5720                   ;----------------------------------------------------------------------
     5721                   ; 824 | sprintf(out_str,"                    "); //clear string                
     5722                   ;----------------------------------------------------------------------
     5723 0000000b 08700000-        ldp       @CL439,DP
     5724 0000000c 502001bd-        ldiu      @CL439,r0             ; |824| 
TMS320C3x/4x COFF AssemblerVersion 5.12     Tue Mar 02 13:03:54 2021
Copyright (c) 1987-1999 Texas Instruments Incorporatedasm30.exe -@_8O8.AAB 

G:\workspace\EEA\V615\APP\SOURCE\ASM\main.asm                        PAGE  107

     5725 0000000d 08700000-        ldp       @CL16,DP
     5726 0000000e 0f200000         push      r0                    ; |824| 
     5727 0000000f 504a0302         ldiu      *+fp(2),ar2           ; |824| 
     5728 00000010 5020000f-        ldiu      @CL16,r0              ; |824| 
     5729 00000011 70000000         callu     r0                    ; far call to _sprintf  ; |824| 
     5730                                                           ; |824| Far Call Occurs
     5731 00000012 18740001         subi      1,sp                  ; |824| 
     5732                           .line   10
     5733                   ;----------------------------------------------------------------------
     5734                   ; 826 | c[2] = NULL;                                                           
     5735                   ;----------------------------------------------------------------------
     5736 00000013 5008000b         ldiu      fp,ar0                ; |826| 
     5737 00000014 02680008         addi      8,ar0                 ; |826| 
     5738 00000015 50600000         ldiu      0,r0                  ; |826| 
     5739 00000016 1540c000         sti       r0,*ar0               ; |826| 
     5740                           .line   12
     5741                   ;----------------------------------------------------------------------
     5742                   ; 828 | for(i=0;i<40;i=i+2) // LCD: 20-length line = 40-length character code  
     5743                   ;----------------------------------------------------------------------
     5744 00000017 15400303         sti       r0,*+fp(3)            ; |828| 
     5745 00000018 04e00028         cmpi      40,r0                 ; |828| 
     5746 00000019 6a0a002f         bge       L116                  ; |828| 
     5747                   ;*      Branch Occurs to L116           ; |828| 
     5748 0000001a          L112:        
     5749                           .line   14
     5750                   ;----------------------------------------------------------------------
     5751                   ; 830 | c[0] = code[i];                                                        
     5752                   ;----------------------------------------------------------------------
     5753 0000001a 5008000b         ldiu      fp,ar0                ; |830| 
     5754 0000001b 50510301         ldiu      *+fp(1),ir0           ; |830| 
     5755 0000001c 50490303         ldiu      *+fp(3),ar1           ; |830| 
     5756 0000001d 02680006         addi      6,ar0                 ; |830| 
     5757 0000001e 50404100         ldiu      *+ar1(ir0),r0         ; |830| 
     5758 0000001f 1540c000         sti       r0,*ar0               ; |830| 
     5759                           .line   15
     5760                   ;----------------------------------------------------------------------
     5761                   ; 831 | if (c[0] == NULL) //end of string - null terminated                    
     5762                   ;----------------------------------------------------------------------
     5763 00000020 5008000b         ldiu      fp,ar0                ; |831| 
     5764 00000021 02680006         addi      6,ar0                 ; |831| 
     5765 00000022 5040c000         ldiu      *ar0,r0               ; |831| 
     5766 00000023 04e00000         cmpi      0,r0                  ; |831| 
     5767 00000024 6a050024         beq       L116                  ; |831| 
     5768                   ;*      Branch Occurs to L116           ; |831| 
     5769                           .line   16
     5770                   ;----------------------------------------------------------------------
     5771                   ; 832 | break;                                                                 
     5772                   ;----------------------------------------------------------------------
     5773                           .line   18
     5774                   ;----------------------------------------------------------------------
     5775                   ; 834 | c[1] = code[i+1];                                                      
     5776                   ;----------------------------------------------------------------------
     5777 00000025 50490303         ldiu      *+fp(3),ar1           ; |834| 
     5778 00000026 5008000b         ldiu      fp,ar0                ; |834| 
TMS320C3x/4x COFF AssemblerVersion 5.12     Tue Mar 02 13:03:54 2021
Copyright (c) 1987-1999 Texas Instruments Incorporatedasm30.exe -@_8O8.AAB 

G:\workspace\EEA\V615\APP\SOURCE\ASM\main.asm                        PAGE  108

     5779 00000027 02490301         addi      *+fp(1),ar1           ; |834| Unsigned
     5780 00000028 02680007         addi      7,ar0                 ; |834| 
     5781 00000029 50400101         ldiu      *+ar1(1),r0           ; |834| 
     5782 0000002a 1540c000         sti       r0,*ar0               ; |834| 
     5783                           .line   19
     5784                   ;----------------------------------------------------------------------
     5785                   ; 835 | if (c[1] == NULL) //end of string - null terminated                    
     5786                   ;----------------------------------------------------------------------
     5787 0000002b 5008000b         ldiu      fp,ar0                ; |835| 
     5788 0000002c 02680007         addi      7,ar0                 ; |835| 
     5789 0000002d 5040c000         ldiu      *ar0,r0               ; |835| 
     5790 0000002e 04e00000         cmpi      0,r0                  ; |835| 
     5791 0000002f 6a050019         beq       L116                  ; |835| 
     5792                   ;*      Branch Occurs to L116           ; |835| 
     5793                           .line   20
     5794                   ;----------------------------------------------------------------------
     5795                   ; 836 | break;                                                                 
     5796                   ;----------------------------------------------------------------------
     5797                           .line   22
     5798                   ;----------------------------------------------------------------------
     5799                   ; 838 | l_code_val = strtol(c,NULL,16); //read in 2-char string as 2-digit hex 
     5800                   ;----------------------------------------------------------------------
     5801 00000030 08700000-        ldp       @CL440,DP
     5802 00000031 500a000b         ldiu      fp,ar2                ; |838| 
     5803 00000032 50630010         ldiu      16,r3                 ; |838| 
     5804 00000033 50620000         ldiu      0,r2                  ; |838| 
     5805 00000034 502001be-        ldiu      @CL440,r0             ; |838| 
     5806 00000035 026a0006         addi      6,ar2                 ; |838| 
     5807 00000036 70000000         callu     r0                    ; far call to _strtol   ; |838| 
     5808                                                           ; |838| Far Call Occurs
     5809 00000037 15400304         sti       r0,*+fp(4)            ; |838| 
     5810                           .line   24
     5811                   ;----------------------------------------------------------------------
     5812                   ; 840 | if (l_code_val > 0xFF) //error checking                                
     5813                   ;----------------------------------------------------------------------
     5814 00000038 04e000ff         cmpi      255,r0                ; |840| 
     5815 00000039 6a09000f         bgt       L116                  ; |840| 
     5816                   ;*      Branch Occurs to L116           ; |840| 
     5817                           .line   25
     5818                   ;----------------------------------------------------------------------
     5819                   ; 841 | break;                                                                 
     5820                   ;----------------------------------------------------------------------
     5821                           .line   26
     5822                   ;----------------------------------------------------------------------
     5823                   ; 842 | code_val = (unsigned char)l_code_val; //long char -> u_char            
     5824                   ;----------------------------------------------------------------------
     5825 0000003a 50400304         ldiu      *+fp(4),r0            ; |842| 
     5826 0000003b 15400305         sti       r0,*+fp(5)            ; |842| 
     5827                           .line   28
     5828                   ;----------------------------------------------------------------------
     5829                   ; 844 | out_str[i/2] = code_val; //this character string now has non-ascii char
     5830                   ;     | acters                                                                 
     5831                   ;----------------------------------------------------------------------
     5832 0000003c 50410303         ldiu      *+fp(3),r1            ; |844| 
TMS320C3x/4x COFF AssemblerVersion 5.12     Tue Mar 02 13:03:54 2021
Copyright (c) 1987-1999 Texas Instruments Incorporatedasm30.exe -@_8O8.AAB 

G:\workspace\EEA\V615\APP\SOURCE\ASM\main.asm                        PAGE  109

     5833 0000003d 50510302         ldiu      *+fp(2),ir0           ; |844| 
     5834 0000003e 50000001         ldiu      r1,r0                 ; |844| 
     5835 0000003f 09e0ffe1         lsh       -31,r0                ; |844| 
     5836 00000040 21080100         addi3     r0,r1,ar0             ; |844| 
     5837 00000041 03e8ffff         ash       -1,ar0                ; |844| 
     5838 00000042 50400305         ldiu      *+fp(5),r0            ; |844| 
     5839 00000043 15404000         sti       r0,*+ar0(ir0)         ; |844| 
     5840                           .line   12
     5841 00000044 50600002         ldiu      2,r0                  ; |828| 
     5842 00000045 02400303         addi      *+fp(3),r0            ; |828| 
     5843 00000046 15400303         sti       r0,*+fp(3)            ; |828| 
     5844 00000047 04e00028         cmpi      40,r0                 ; |828| 
     5845 00000048 6a07ffd1         blt       L112                  ; |828| 
     5846                   ;*      Branch Occurs to L112           ; |828| 
     5847 00000049          L116:        
     5848                           .line   31
     5849                   ;----------------------------------------------------------------------
     5850                   ; 847 | out_str[20] == NULL;  //append null after padding                      
     5851                   ;----------------------------------------------------------------------
     5852                           .line   32
     5853                                                           ; Begin Epilog Code
     5854 00000049 50410b01         ldiu      *-fp(1),r1
     5855 0000004a 504bc300         ldiu      *fp,fp
     5856                                                           ; Unallocate the Frame
     5857 0000004b 1874000a         subi      10,sp
     5858 0000004c 68000001         bu        r1
     5859                   ;*      Branch Occurs to r1 
     5860                           .endfunc        848,000000000h,8
     5861                   
     5862                   
     5863 00000000                  .sect    "internal_RAM"
     5864                   
     5865                           .global _main
     5866                           .sym    _main,_main,36,2,0
     5867                           .func   866
     5868                   ;******************************************************************************
     5869                   ;* FUNCTION NAME: _main                                                       *
     5870                   ;*                                                                            *
     5871                   ;*   Architecture       : TMS320C33                                           *
     5872                   ;*   Calling Convention : TI Standard Register Parameters                     *
     5873                   ;*   Function Uses Regs : r0,ar0                                              *
     5874                   ;*   Regs Saved         :                                                     *
     5875                   ;*   Stack Frame        : Full (w/ debug)                                     *
     5876                   ;*   Total Frame Size   : 2 Call + 0 Parm + 0 Auto + 0 SOE = 2 words          *
     5877                   ;******************************************************************************
     5878 00000000          _main:
     5879                           .line   1
     5880                   ;----------------------------------------------------------------------
     5881                   ; 866 | main()                                                                 
     5882                   ; 868 | while (TRUE)                                                           
     5883                   ;----------------------------------------------------------------------
     5884 00000000 0f2b0000         push      fp
     5885 00000001 500b0014         ldiu      sp,fp
     5886 00000002          L120:        
TMS320C3x/4x COFF AssemblerVersion 5.12     Tue Mar 02 13:03:54 2021
Copyright (c) 1987-1999 Texas Instruments Incorporatedasm30.exe -@_8O8.AAB 

G:\workspace\EEA\V615\APP\SOURCE\ASM\main.asm                        PAGE  110

     5887                           .line   5
     5888                   ;----------------------------------------------------------------------
     5889                   ; 870 | TICKLE_WATCHDOG;                                                       
     5890                   ;----------------------------------------------------------------------
     5891 00000002 0f350000         push    ST                      
     5892 00000003 03752000         andn    2000h, ST       
     5893 00000004 08700000-        ldp       @CL5,DP
     5894 00000005 50280004-        ldiu      @CL5,ar0              ; |870| 
     5895 00000006 50600080         ldiu      128,r0                ; |870| 
     5896 00000007 25a0c000         or3       r0,*ar0,r0            ; |870| 
     5897 00000008 1540c000         sti       r0,*ar0               ; |870| 
     5898 00000009 0e350000         pop             ST                      
     5899                           .line   7
     5900                   ;----------------------------------------------------------------------
     5901                   ; 872 | LCD_PAGE();                                                            
     5902                   ;----------------------------------------------------------------------
     5903 0000000a 08700000-        ldp       @CL398,DP
     5904 0000000b 50200193-        ldiu      @CL398,r0             ; |872| 
     5905 0000000c 70000000         callu     r0                    ; far call to _LCD_PAGE ; |872| 
     5906                                                           ; |872| Far Call Occurs
     5907                           .line   8
     5908                   ;----------------------------------------------------------------------
     5909                   ; 873 | Execute();                                                             
     5910                   ;----------------------------------------------------------------------
     5911 0000000d 62000000!        call      _Execute              ; |873| 
     5912                                                           ; |873| Call Occurs
     5913                           .line   9
     5914 0000000e 6a00fff3         bu        L120                  ; |874| 
     5915                   ;*      Branch Occurs to L120           ; |874| 
     5916                           .line   10
     5917                           .endfunc        875,000000000h,0
     5918                   
     5919                   
     5920                   ;******************************************************************************
     5921                   ;* STRINGS                                                                    *
     5922                   ;******************************************************************************
     5923 00000000                  .sect   ".const"
     5924 00000000 00000000 SL1:    .byte   0
     5925 00000001 00000043 SL2:    .byte   "COR%i Dampen Flow",0
          00000002 0000004f 
          00000003 00000052 
          00000004 00000025 
          00000005 00000069 
          00000006 00000020 
          00000007 00000044 
          00000008 00000061 
          00000009 0000006d 
          0000000a 00000070 
          0000000b 00000065 
          0000000c 0000006e 
          0000000d 00000020 
          0000000e 00000046 
          0000000f 0000006c 
          00000010 0000006f 
TMS320C3x/4x COFF AssemblerVersion 5.12     Tue Mar 02 13:03:54 2021
Copyright (c) 1987-1999 Texas Instruments Incorporatedasm30.exe -@_8O8.AAB 

G:\workspace\EEA\V615\APP\SOURCE\ASM\main.asm                        PAGE  111

          00000011 00000077 
          00000012 00000000 
     5926 00000013 00000043 SL3:    .byte   "COR%i Dampen Density",0
          00000014 0000004f 
          00000015 00000052 
          00000016 00000025 
          00000017 00000069 
          00000018 00000020 
          00000019 00000044 
          0000001a 00000061 
          0000001b 0000006d 
          0000001c 00000070 
          0000001d 00000065 
          0000001e 0000006e 
          0000001f 00000020 
          00000020 00000044 
          00000021 00000065 
          00000022 0000006e 
          00000023 00000073 
          00000024 00000069 
          00000025 00000074 
          00000026 00000079 
          00000027 00000000 
     5927 00000028 00000043 SL4:    .byte   "COR%i MFR Cutoff",0
          00000029 0000004f 
          0000002a 00000052 
          0000002b 00000025 
          0000002c 00000069 
          0000002d 00000020 
          0000002e 0000004d 
          0000002f 00000046 
          00000030 00000052 
          00000031 00000020 
          00000032 00000043 
          00000033 00000075 
          00000034 00000074 
          00000035 0000006f 
          00000036 00000066 
          00000037 00000066 
          00000038 00000000 
     5928 00000039 00000043 SL5:    .byte   "COR%i VFR Cutoff",0
          0000003a 0000004f 
          0000003b 00000052 
          0000003c 00000025 
          0000003d 00000069 
          0000003e 00000020 
          0000003f 00000056 
          00000040 00000046 
          00000041 00000052 
          00000042 00000020 
          00000043 00000043 
          00000044 00000075 
          00000045 00000074 
          00000046 0000006f 
TMS320C3x/4x COFF AssemblerVersion 5.12     Tue Mar 02 13:03:54 2021
Copyright (c) 1987-1999 Texas Instruments Incorporatedasm30.exe -@_8O8.AAB 

G:\workspace\EEA\V615\APP\SOURCE\ASM\main.asm                        PAGE  112

          00000047 00000066 
          00000048 00000066 
          00000049 00000000 
     5929 0000004a 00000043 SL6:    .byte   "COR%i MCF",0
          0000004b 0000004f 
          0000004c 00000052 
          0000004d 00000025 
          0000004e 00000069 
          0000004f 00000020 
          00000050 0000004d 
          00000051 00000043 
          00000052 00000046 
          00000053 00000000 
     5930 00000054 00000043 SL7:    .byte   "COR%i Address",0
          00000055 0000004f 
          00000056 00000052 
          00000057 00000025 
          00000058 00000069 
          00000059 00000020 
          0000005a 00000041 
          0000005b 00000064 
          0000005c 00000064 
          0000005d 00000072 
          0000005e 00000065 
          0000005f 00000073 
          00000060 00000073 
          00000061 00000000 
     5931 00000062 00000043 SL8:    .byte   "COR%i Mass Flow Unit",0
          00000063 0000004f 
          00000064 00000052 
          00000065 00000025 
          00000066 00000069 
          00000067 00000020 
          00000068 0000004d 
          00000069 00000061 
          0000006a 00000073 
          0000006b 00000073 
          0000006c 00000020 
          0000006d 00000046 
          0000006e 0000006c 
          0000006f 0000006f 
          00000070 00000077 
          00000071 00000020 
          00000072 00000055 
          00000073 0000006e 
          00000074 00000069 
          00000075 00000074 
          00000076 00000000 
     5932 00000077 00000043 SL9:    .byte   "COR%i Density Cutoff",0
          00000078 0000004f 
          00000079 00000052 
          0000007a 00000025 
          0000007b 00000069 
          0000007c 00000020 
TMS320C3x/4x COFF AssemblerVersion 5.12     Tue Mar 02 13:03:54 2021
Copyright (c) 1987-1999 Texas Instruments Incorporatedasm30.exe -@_8O8.AAB 

G:\workspace\EEA\V615\APP\SOURCE\ASM\main.asm                        PAGE  113

          0000007d 00000044 
          0000007e 00000065 
          0000007f 0000006e 
          00000080 00000073 
          00000081 00000069 
          00000082 00000074 
          00000083 00000079 
          00000084 00000020 
          00000085 00000043 
          00000086 00000075 
          00000087 00000074 
          00000088 0000006f 
          00000089 00000066 
          0000008a 00000066 
          0000008b 00000000 
     5933 0000008c 00000050 SL10:   .byte   "Phase Dynamics, Inc.",0
          0000008d 00000068 
          0000008e 00000061 
          0000008f 00000073 
          00000090 00000065 
          00000091 00000020 
          00000092 00000044 
          00000093 00000079 
          00000094 0000006e 
          00000095 00000061 
          00000096 0000006d 
          00000097 00000069 
          00000098 00000063 
          00000099 00000073 
          0000009a 0000002c 
          0000009b 00000020 
          0000009c 00000049 
          0000009d 0000006e 
          0000009e 00000063 
          0000009f 0000002e 
          000000a0 00000000 
     5934 000000a1 00000049 SL11:   .byte   "Initializing Data...",0
          000000a2 0000006e 
          000000a3 00000069 
          000000a4 00000074 
          000000a5 00000069 
          000000a6 00000061 
          000000a7 0000006c 
          000000a8 00000069 
          000000a9 0000007a 
          000000aa 00000069 
          000000ab 0000006e 
          000000ac 00000067 
          000000ad 00000020 
          000000ae 00000044 
          000000af 00000061 
          000000b0 00000074 
          000000b1 00000061 
          000000b2 0000002e 
TMS320C3x/4x COFF AssemblerVersion 5.12     Tue Mar 02 13:03:54 2021
Copyright (c) 1987-1999 Texas Instruments Incorporatedasm30.exe -@_8O8.AAB 

G:\workspace\EEA\V615\APP\SOURCE\ASM\main.asm                        PAGE  114

          000000b3 0000002e 
          000000b4 0000002e 
          000000b5 00000000 
     5935 000000b6 00000048 SL12:   .byte   "HW Version:    %2d.%02d",0
          000000b7 00000057 
          000000b8 00000020 
          000000b9 00000056 
          000000ba 00000065 
          000000bb 00000072 
          000000bc 00000073 
          000000bd 00000069 
          000000be 0000006f 
          000000bf 0000006e 
          000000c0 0000003a 
          000000c1 00000020 
          000000c2 00000020 
          000000c3 00000020 
          000000c4 00000020 
          000000c5 00000025 
          000000c6 00000032 
          000000c7 00000064 
          000000c8 0000002e 
          000000c9 00000025 
          000000ca 00000030 
          000000cb 00000032 
          000000cc 00000064 
          000000cd 00000000 
     5936 000000ce 00000046 SL13:   .byte   "FW Version:  %4.2f.%02i",0
          000000cf 00000057 
          000000d0 00000020 
          000000d1 00000056 
          000000d2 00000065 
          000000d3 00000072 
          000000d4 00000073 
          000000d5 00000069 
          000000d6 0000006f 
          000000d7 0000006e 
          000000d8 0000003a 
          000000d9 00000020 
          000000da 00000020 
          000000db 00000025 
          000000dc 00000034 
          000000dd 0000002e 
          000000de 00000032 
          000000df 00000066 
          000000e0 0000002e 
          000000e1 00000025 
          000000e2 00000030 
          000000e3 00000032 
          000000e4 00000069 
          000000e5 00000000 
     5937 000000e6 00000020 SL14:   .byte   " Low Range Analyzer ",0
          000000e7 0000004c 
          000000e8 0000006f 
TMS320C3x/4x COFF AssemblerVersion 5.12     Tue Mar 02 13:03:54 2021
Copyright (c) 1987-1999 Texas Instruments Incorporatedasm30.exe -@_8O8.AAB 

G:\workspace\EEA\V615\APP\SOURCE\ASM\main.asm                        PAGE  115

          000000e9 00000077 
          000000ea 00000020 
          000000eb 00000052 
          000000ec 00000061 
          000000ed 0000006e 
          000000ee 00000067 
          000000ef 00000065 
          000000f0 00000020 
          000000f1 00000041 
          000000f2 0000006e 
          000000f3 00000061 
          000000f4 0000006c 
          000000f5 00000079 
          000000f6 0000007a 
          000000f7 00000065 
          000000f8 00000072 
          000000f9 00000020 
          000000fa 00000000 
     5938 000000fb 00000020 SL15:   .byte   " Mid Range Analyzer ",0
          000000fc 0000004d 
          000000fd 00000069 
          000000fe 00000064 
          000000ff 00000020 
          00000100 00000052 
          00000101 00000061 
          00000102 0000006e 
          00000103 00000067 
          00000104 00000065 
          00000105 00000020 
          00000106 00000041 
          00000107 0000006e 
          00000108 00000061 
          00000109 0000006c 
          0000010a 00000079 
          0000010b 0000007a 
          0000010c 00000065 
          0000010d 00000072 
          0000010e 00000020 
          0000010f 00000000 
     5939 00000110 00000048 SL16:   .byte   "High Range Analyzer ",0
          00000111 00000069 
          00000112 00000067 
          00000113 00000068 
          00000114 00000020 
          00000115 00000052 
          00000116 00000061 
          00000117 0000006e 
          00000118 00000067 
          00000119 00000065 
          0000011a 00000020 
          0000011b 00000041 
          0000011c 0000006e 
          0000011d 00000061 
          0000011e 0000006c 
TMS320C3x/4x COFF AssemblerVersion 5.12     Tue Mar 02 13:03:54 2021
Copyright (c) 1987-1999 Texas Instruments Incorporatedasm30.exe -@_8O8.AAB 

G:\workspace\EEA\V615\APP\SOURCE\ASM\main.asm                        PAGE  116

          0000011f 00000079 
          00000120 0000007a 
          00000121 00000065 
          00000122 00000072 
          00000123 00000020 
          00000124 00000000 
     5940 00000125 00000046 SL17:   .byte   "Full Range Analyzer ",0
          00000126 00000075 
          00000127 0000006c 
          00000128 0000006c 
          00000129 00000020 
          0000012a 00000052 
          0000012b 00000061 
          0000012c 0000006e 
          0000012d 00000067 
          0000012e 00000065 
          0000012f 00000020 
          00000130 00000041 
          00000131 0000006e 
          00000132 00000061 
          00000133 0000006c 
          00000134 00000079 
          00000135 0000007a 
          00000136 00000065 
          00000137 00000072 
          00000138 00000020 
          00000139 00000000 
     5941 0000013a 00000020 SL18:   .byte   "  CCM Application   ",0
          0000013b 00000020 
          0000013c 00000043 
          0000013d 00000043 
          0000013e 0000004d 
          0000013f 00000020 
          00000140 00000041 
          00000141 00000070 
          00000142 00000070 
          00000143 0000006c 
          00000144 00000069 
          00000145 00000063 
          00000146 00000061 
          00000147 00000074 
          00000148 00000069 
          00000149 0000006f 
          0000014a 0000006e 
          0000014b 00000020 
          0000014c 00000020 
          0000014d 00000020 
          0000014e 00000000 
     5942 0000014f 00000020 SL19:   .byte   "      Analyzer      ",0
          00000150 00000020 
          00000151 00000020 
          00000152 00000020 
          00000153 00000020 
          00000154 00000020 
TMS320C3x/4x COFF AssemblerVersion 5.12     Tue Mar 02 13:03:54 2021
Copyright (c) 1987-1999 Texas Instruments Incorporatedasm30.exe -@_8O8.AAB 

G:\workspace\EEA\V615\APP\SOURCE\ASM\main.asm                        PAGE  117

          00000155 00000041 
          00000156 0000006e 
          00000157 00000061 
          00000158 0000006c 
          00000159 00000079 
          0000015a 0000007a 
          0000015b 00000065 
          0000015c 00000072 
          0000015d 00000020 
          0000015e 00000020 
          0000015f 00000020 
          00000160 00000020 
          00000161 00000020 
          00000162 00000020 
          00000163 00000000 
     5943 00000164 00000020 SL20:   .byte   "                    ",0
          00000165 00000020 
          00000166 00000020 
          00000167 00000020 
          00000168 00000020 
          00000169 00000020 
          0000016a 00000020 
          0000016b 00000020 
          0000016c 00000020 
          0000016d 00000020 
          0000016e 00000020 
          0000016f 00000020 
          00000170 00000020 
          00000171 00000020 
          00000172 00000020 
          00000173 00000020 
          00000174 00000020 
          00000175 00000020 
          00000176 00000020 
          00000177 00000020 
          00000178 00000000 
     5944                   ;******************************************************************************
     5945                   ;* CONSTANT TABLE                                                             *
     5946                   ;******************************************************************************
     5947 00000179                  .sect   ".const"
     5948 00000000                  .bss    CL1,1
     5949 00000001                  .bss    CL2,1
     5950 00000002                  .bss    CL3,1
     5951 00000003                  .bss    CL4,1
     5952 00000004                  .bss    CL5,1
     5953 00000005                  .bss    CL6,1
     5954 00000006                  .bss    CL7,1
     5955 00000007                  .bss    CL8,1
     5956 00000008                  .bss    CL9,1
     5957 00000009                  .bss    CL10,1
     5958 0000000a                  .bss    CL11,1
     5959 0000000b                  .bss    CL12,1
     5960 0000000c                  .bss    CL13,1
     5961 0000000d                  .bss    CL14,1
TMS320C3x/4x COFF AssemblerVersion 5.12     Tue Mar 02 13:03:54 2021
Copyright (c) 1987-1999 Texas Instruments Incorporatedasm30.exe -@_8O8.AAB 

G:\workspace\EEA\V615\APP\SOURCE\ASM\main.asm                        PAGE  118

     5962 0000000e                  .bss    CL15,1
     5963 0000000f                  .bss    CL16,1
     5964 00000010                  .bss    CL17,1
     5965 00000011                  .bss    CL18,1
     5966 00000012                  .bss    CL19,1
     5967 00000013                  .bss    CL20,1
     5968 00000014                  .bss    CL21,1
     5969 00000015                  .bss    CL22,1
     5970 00000016                  .bss    CL23,1
     5971 00000017                  .bss    CL24,1
     5972 00000018                  .bss    CL25,1
     5973 00000019                  .bss    CL26,1
     5974 0000001a                  .bss    CL27,1
     5975 0000001b                  .bss    CL28,1
     5976 0000001c                  .bss    CL29,1
     5977 0000001d                  .bss    CL30,1
     5978 0000001e                  .bss    CL31,1
     5979 0000001f                  .bss    CL32,1
     5980 00000020                  .bss    CL33,1
     5981 00000021                  .bss    CL34,1
     5982 00000022                  .bss    CL35,1
     5983 00000023                  .bss    CL36,1
     5984 00000024                  .bss    CL37,1
     5985 00000025                  .bss    CL38,1
     5986 00000026                  .bss    CL39,1
     5987 00000027                  .bss    CL40,1
     5988 00000028                  .bss    CL41,1
     5989 00000029                  .bss    CL42,1
     5990 0000002a                  .bss    CL43,1
     5991 0000002b                  .bss    CL44,1
     5992 0000002c                  .bss    CL45,1
     5993 0000002d                  .bss    CL46,1
     5994 0000002e                  .bss    CL47,1
     5995 0000002f                  .bss    CL48,1
     5996 00000030                  .bss    CL49,1
     5997 00000031                  .bss    CL50,1
     5998 00000032                  .bss    CL51,1
     5999 00000033                  .bss    CL52,1
     6000 00000034                  .bss    CL53,1
     6001 00000035                  .bss    CL54,1
     6002 00000036                  .bss    CL55,1
     6003 00000037                  .bss    CL56,1
     6004 00000038                  .bss    CL57,1
     6005 00000039                  .bss    CL58,1
     6006 0000003a                  .bss    CL59,1
     6007 0000003b                  .bss    CL60,1
     6008 0000003c                  .bss    CL61,1
     6009 0000003d                  .bss    CL62,1
     6010 0000003e                  .bss    CL63,1
     6011 0000003f                  .bss    CL64,1
     6012 00000040                  .bss    CL65,1
     6013 00000041                  .bss    CL66,1
     6014 00000042                  .bss    CL67,1
     6015 00000043                  .bss    CL68,1
TMS320C3x/4x COFF AssemblerVersion 5.12     Tue Mar 02 13:03:54 2021
Copyright (c) 1987-1999 Texas Instruments Incorporatedasm30.exe -@_8O8.AAB 

G:\workspace\EEA\V615\APP\SOURCE\ASM\main.asm                        PAGE  119

     6016 00000044                  .bss    CL69,1
     6017 00000045                  .bss    CL70,1
     6018 00000046                  .bss    CL71,1
     6019 00000047                  .bss    CL72,1
     6020 00000048                  .bss    CL73,2
     6021 0000004a                  .bss    CL74,1
     6022 0000004b                  .bss    CL75,1
     6023 0000004c                  .bss    CL76,1
     6024 0000004d                  .bss    CL77,1
     6025 0000004e                  .bss    CL78,1
     6026 0000004f                  .bss    CL79,1
     6027 00000050                  .bss    CL80,2
     6028 00000052                  .bss    CL81,1
     6029 00000053                  .bss    CL82,1
     6030 00000054                  .bss    CL83,1
     6031 00000055                  .bss    CL84,1
     6032 00000056                  .bss    CL85,1
     6033 00000057                  .bss    CL86,1
     6034 00000058                  .bss    CL87,1
     6035 00000059                  .bss    CL88,1
     6036 0000005a                  .bss    CL89,1
     6037 0000005b                  .bss    CL90,1
     6038 0000005c                  .bss    CL91,1
     6039 0000005d                  .bss    CL92,2
     6040 0000005f                  .bss    CL93,1
     6041 00000060                  .bss    CL94,1
     6042 00000061                  .bss    CL95,1
     6043 00000062                  .bss    CL96,1
     6044 00000063                  .bss    CL97,1
     6045 00000064                  .bss    CL98,1
     6046 00000065                  .bss    CL99,1
     6047 00000066                  .bss    CL100,1
     6048 00000067                  .bss    CL101,1
     6049 00000068                  .bss    CL102,1
     6050 00000069                  .bss    CL103,1
     6051 0000006a                  .bss    CL104,1
     6052 0000006b                  .bss    CL105,1
     6053 0000006c                  .bss    CL106,1
     6054 0000006d                  .bss    CL107,1
     6055 0000006e                  .bss    CL108,1
     6056 0000006f                  .bss    CL109,1
     6057 00000070                  .bss    CL110,1
     6058 00000071                  .bss    CL111,1
     6059 00000072                  .bss    CL112,1
     6060 00000073                  .bss    CL113,1
     6061 00000074                  .bss    CL114,1
     6062 00000075                  .bss    CL115,1
     6063 00000076                  .bss    CL116,1
     6064 00000077                  .bss    CL117,1
     6065 00000078                  .bss    CL118,1
     6066 00000079                  .bss    CL119,1
     6067 0000007a                  .bss    CL120,1
     6068 0000007b                  .bss    CL121,1
     6069 0000007c                  .bss    CL122,1
TMS320C3x/4x COFF AssemblerVersion 5.12     Tue Mar 02 13:03:54 2021
Copyright (c) 1987-1999 Texas Instruments Incorporatedasm30.exe -@_8O8.AAB 

G:\workspace\EEA\V615\APP\SOURCE\ASM\main.asm                        PAGE  120

     6070 0000007d                  .bss    CL123,1
     6071 0000007e                  .bss    CL124,1
     6072 0000007f                  .bss    CL125,2
     6073 00000081                  .bss    CL126,1
     6074 00000082                  .bss    CL127,1
     6075 00000083                  .bss    CL128,1
     6076 00000084                  .bss    CL129,1
     6077 00000085                  .bss    CL130,1
     6078 00000086                  .bss    CL131,1
     6079 00000087                  .bss    CL132,1
     6080 00000088                  .bss    CL133,1
     6081 00000089                  .bss    CL134,1
     6082 0000008a                  .bss    CL135,1
     6083 0000008b                  .bss    CL136,1
     6084 0000008c                  .bss    CL137,1
     6085 0000008d                  .bss    CL138,1
     6086 0000008e                  .bss    CL139,1
     6087 0000008f                  .bss    CL140,1
     6088 00000090                  .bss    CL141,1
     6089 00000091                  .bss    CL142,1
     6090 00000092                  .bss    CL143,1
     6091 00000093                  .bss    CL144,1
     6092 00000094                  .bss    CL145,1
     6093 00000095                  .bss    CL146,1
     6094 00000096                  .bss    CL147,1
     6095 00000097                  .bss    CL148,1
     6096 00000098                  .bss    CL149,1
     6097 00000099                  .bss    CL150,1
     6098 0000009a                  .bss    CL151,1
     6099 0000009b                  .bss    CL152,1
     6100 0000009c                  .bss    CL153,1
     6101 0000009d                  .bss    CL154,1
     6102 0000009e                  .bss    CL155,1
     6103 0000009f                  .bss    CL156,1
     6104 000000a0                  .bss    CL157,1
     6105 000000a1                  .bss    CL158,1
     6106 000000a2                  .bss    CL159,1
     6107 000000a3                  .bss    CL160,1
     6108 000000a4                  .bss    CL161,1
     6109 000000a5                  .bss    CL162,1
     6110 000000a6                  .bss    CL163,1
     6111 000000a7                  .bss    CL164,1
     6112 000000a8                  .bss    CL165,1
     6113 000000a9                  .bss    CL166,1
     6114 000000aa                  .bss    CL167,1
     6115 000000ab                  .bss    CL168,1
     6116 000000ac                  .bss    CL169,1
     6117 000000ad                  .bss    CL170,1
     6118 000000ae                  .bss    CL171,1
     6119 000000af                  .bss    CL172,1
     6120 000000b0                  .bss    CL173,1
     6121 000000b1                  .bss    CL174,1
     6122 000000b2                  .bss    CL175,1
     6123 000000b3                  .bss    CL176,1
TMS320C3x/4x COFF AssemblerVersion 5.12     Tue Mar 02 13:03:54 2021
Copyright (c) 1987-1999 Texas Instruments Incorporatedasm30.exe -@_8O8.AAB 

G:\workspace\EEA\V615\APP\SOURCE\ASM\main.asm                        PAGE  121

     6124 000000b4                  .bss    CL177,1
     6125 000000b5                  .bss    CL178,1
     6126 000000b6                  .bss    CL179,1
     6127 000000b7                  .bss    CL180,1
     6128 000000b8                  .bss    CL181,1
     6129 000000b9                  .bss    CL182,2
     6130 000000bb                  .bss    CL183,1
     6131 000000bc                  .bss    CL184,1
     6132 000000bd                  .bss    CL185,1
     6133 000000be                  .bss    CL186,1
     6134 000000bf                  .bss    CL187,1
     6135 000000c0                  .bss    CL188,1
     6136 000000c1                  .bss    CL189,1
     6137 000000c2                  .bss    CL190,1
     6138 000000c3                  .bss    CL191,1
     6139 000000c4                  .bss    CL192,1
     6140 000000c5                  .bss    CL193,1
     6141 000000c6                  .bss    CL194,1
     6142 000000c7                  .bss    CL195,1
     6143 000000c8                  .bss    CL196,1
     6144 000000c9                  .bss    CL197,1
     6145 000000ca                  .bss    CL198,1
     6146 000000cb                  .bss    CL199,1
     6147 000000cc                  .bss    CL200,1
     6148 000000cd                  .bss    CL201,1
     6149 000000ce                  .bss    CL202,1
     6150 000000cf                  .bss    CL203,1
     6151 000000d0                  .bss    CL204,1
     6152 000000d1                  .bss    CL205,1
     6153 000000d2                  .bss    CL206,1
     6154 000000d3                  .bss    CL207,1
     6155 000000d4                  .bss    CL208,1
     6156 000000d5                  .bss    CL209,1
     6157 000000d6                  .bss    CL210,1
     6158 000000d7                  .bss    CL211,1
     6159 000000d8                  .bss    CL212,1
     6160 000000d9                  .bss    CL213,1
     6161 000000da                  .bss    CL214,1
     6162 000000db                  .bss    CL215,1
     6163 000000dc                  .bss    CL216,1
     6164 000000dd                  .bss    CL217,1
     6165 000000de                  .bss    CL218,1
     6166 000000df                  .bss    CL219,1
     6167 000000e0                  .bss    CL220,1
     6168 000000e1                  .bss    CL221,1
     6169 000000e2                  .bss    CL222,1
     6170 000000e3                  .bss    CL223,1
     6171 000000e4                  .bss    CL224,1
     6172 000000e5                  .bss    CL225,1
     6173 000000e6                  .bss    CL226,1
     6174 000000e7                  .bss    CL227,1
     6175 000000e8                  .bss    CL228,1
     6176 000000e9                  .bss    CL229,1
     6177 000000ea                  .bss    CL230,1
TMS320C3x/4x COFF AssemblerVersion 5.12     Tue Mar 02 13:03:54 2021
Copyright (c) 1987-1999 Texas Instruments Incorporatedasm30.exe -@_8O8.AAB 

G:\workspace\EEA\V615\APP\SOURCE\ASM\main.asm                        PAGE  122

     6178 000000eb                  .bss    CL231,1
     6179 000000ec                  .bss    CL232,1
     6180 000000ed                  .bss    CL233,1
     6181 000000ee                  .bss    CL234,1
     6182 000000ef                  .bss    CL235,1
     6183 000000f0                  .bss    CL236,1
     6184 000000f1                  .bss    CL237,1
     6185 000000f2                  .bss    CL238,1
     6186 000000f3                  .bss    CL239,1
     6187 000000f4                  .bss    CL240,1
     6188 000000f5                  .bss    CL241,1
     6189 000000f6                  .bss    CL242,1
     6190 000000f7                  .bss    CL243,1
     6191 000000f8                  .bss    CL244,1
     6192 000000f9                  .bss    CL245,2
     6193 000000fb                  .bss    CL246,1
     6194 000000fc                  .bss    CL247,1
     6195 000000fd                  .bss    CL248,1
     6196 000000fe                  .bss    CL249,1
     6197 000000ff                  .bss    CL250,1
     6198 00000100                  .bss    CL251,1
     6199 00000101                  .bss    CL252,1
     6200 00000102                  .bss    CL253,1
     6201 00000103                  .bss    CL254,1
     6202 00000104                  .bss    CL255,1
     6203 00000105                  .bss    CL256,1
     6204 00000106                  .bss    CL257,1
     6205 00000107                  .bss    CL258,1
     6206 00000108                  .bss    CL259,1
     6207 00000109                  .bss    CL260,1
     6208 0000010a                  .bss    CL261,1
     6209 0000010b                  .bss    CL262,1
     6210 0000010c                  .bss    CL263,1
     6211 0000010d                  .bss    CL264,1
     6212 0000010e                  .bss    CL265,1
     6213 0000010f                  .bss    CL266,1
     6214 00000110                  .bss    CL267,1
     6215 00000111                  .bss    CL268,1
     6216 00000112                  .bss    CL269,1
     6217 00000113                  .bss    CL270,1
     6218 00000114                  .bss    CL271,1
     6219 00000115                  .bss    CL272,1
     6220 00000116                  .bss    CL273,1
     6221 00000117                  .bss    CL274,1
     6222 00000118                  .bss    CL275,1
     6223 00000119                  .bss    CL276,1
     6224 0000011a                  .bss    CL277,1
     6225 0000011b                  .bss    CL278,1
     6226 0000011c                  .bss    CL279,1
     6227 0000011d                  .bss    CL280,1
     6228 0000011e                  .bss    CL281,1
     6229 0000011f                  .bss    CL282,1
     6230 00000120                  .bss    CL283,1
     6231 00000121                  .bss    CL284,1
TMS320C3x/4x COFF AssemblerVersion 5.12     Tue Mar 02 13:03:54 2021
Copyright (c) 1987-1999 Texas Instruments Incorporatedasm30.exe -@_8O8.AAB 

G:\workspace\EEA\V615\APP\SOURCE\ASM\main.asm                        PAGE  123

     6232 00000122                  .bss    CL285,1
     6233 00000123                  .bss    CL286,1
     6234 00000124                  .bss    CL287,1
     6235 00000125                  .bss    CL288,1
     6236 00000126                  .bss    CL289,1
     6237 00000127                  .bss    CL290,1
     6238 00000128                  .bss    CL291,1
     6239 00000129                  .bss    CL292,1
     6240 0000012a                  .bss    CL293,1
     6241 0000012b                  .bss    CL294,1
     6242 0000012c                  .bss    CL295,1
     6243 0000012d                  .bss    CL296,1
     6244 0000012e                  .bss    CL297,1
     6245 0000012f                  .bss    CL298,1
     6246 00000130                  .bss    CL299,1
     6247 00000131                  .bss    CL300,1
     6248 00000132                  .bss    CL301,1
     6249 00000133                  .bss    CL302,1
     6250 00000134                  .bss    CL303,1
     6251 00000135                  .bss    CL304,1
     6252 00000136                  .bss    CL305,1
     6253 00000137                  .bss    CL306,1
     6254 00000138                  .bss    CL307,1
     6255 00000139                  .bss    CL308,1
     6256 0000013a                  .bss    CL309,1
     6257 0000013b                  .bss    CL310,1
     6258 0000013c                  .bss    CL311,1
     6259 0000013d                  .bss    CL312,1
     6260 0000013e                  .bss    CL313,1
     6261 0000013f                  .bss    CL314,1
     6262 00000140                  .bss    CL315,1
     6263 00000141                  .bss    CL316,1
     6264 00000142                  .bss    CL317,1
     6265 00000143                  .bss    CL318,1
     6266 00000144                  .bss    CL319,1
     6267 00000145                  .bss    CL320,1
     6268 00000146                  .bss    CL321,1
     6269 00000147                  .bss    CL322,1
     6270 00000148                  .bss    CL323,1
     6271 00000149                  .bss    CL324,1
     6272 0000014a                  .bss    CL325,1
     6273 0000014b                  .bss    CL326,1
     6274 0000014c                  .bss    CL327,1
     6275 0000014d                  .bss    CL328,1
     6276 0000014e                  .bss    CL329,1
     6277 0000014f                  .bss    CL330,1
     6278 00000150                  .bss    CL331,1
     6279 00000151                  .bss    CL332,1
     6280 00000152                  .bss    CL333,1
     6281 00000153                  .bss    CL334,1
     6282 00000154                  .bss    CL335,1
     6283 00000155                  .bss    CL336,1
     6284 00000156                  .bss    CL337,1
     6285 00000157                  .bss    CL338,1
TMS320C3x/4x COFF AssemblerVersion 5.12     Tue Mar 02 13:03:54 2021
Copyright (c) 1987-1999 Texas Instruments Incorporatedasm30.exe -@_8O8.AAB 

G:\workspace\EEA\V615\APP\SOURCE\ASM\main.asm                        PAGE  124

     6286 00000158                  .bss    CL339,1
     6287 00000159                  .bss    CL340,1
     6288 0000015a                  .bss    CL341,1
     6289 0000015b                  .bss    CL342,1
     6290 0000015c                  .bss    CL343,1
     6291 0000015d                  .bss    CL344,1
     6292 0000015e                  .bss    CL345,1
     6293 0000015f                  .bss    CL346,1
     6294 00000160                  .bss    CL347,1
     6295 00000161                  .bss    CL348,1
     6296 00000162                  .bss    CL349,1
     6297 00000163                  .bss    CL350,1
     6298 00000164                  .bss    CL351,1
     6299 00000165                  .bss    CL352,1
     6300 00000166                  .bss    CL353,1
     6301 00000167                  .bss    CL354,1
     6302 00000168                  .bss    CL355,1
     6303 00000169                  .bss    CL356,1
     6304 0000016a                  .bss    CL357,1
     6305 0000016b                  .bss    CL358,1
     6306 0000016c                  .bss    CL359,1
     6307 0000016d                  .bss    CL360,1
     6308 0000016e                  .bss    CL361,1
     6309 0000016f                  .bss    CL362,1
     6310 00000170                  .bss    CL363,1
     6311 00000171                  .bss    CL364,1
     6312 00000172                  .bss    CL365,1
     6313 00000173                  .bss    CL366,1
     6314 00000174                  .bss    CL367,1
     6315 00000175                  .bss    CL368,1
     6316 00000176                  .bss    CL369,1
     6317 00000177                  .bss    CL370,1
     6318 00000178                  .bss    CL371,1
     6319 00000179                  .bss    CL372,1
     6320 0000017a                  .bss    CL373,1
     6321 0000017b                  .bss    CL374,1
     6322 0000017c                  .bss    CL375,1
     6323 0000017d                  .bss    CL376,1
     6324 0000017e                  .bss    CL377,1
     6325 0000017f                  .bss    CL378,1
     6326 00000180                  .bss    CL379,1
     6327 00000181                  .bss    CL380,1
     6328 00000182                  .bss    CL381,1
     6329 00000183                  .bss    CL382,1
     6330 00000184                  .bss    CL383,1
     6331 00000185                  .bss    CL384,1
     6332 00000186                  .bss    CL385,1
     6333 00000187                  .bss    CL386,1
     6334 00000188                  .bss    CL387,1
     6335 00000189                  .bss    CL388,1
     6336 0000018a                  .bss    CL389,1
     6337 0000018b                  .bss    CL390,1
     6338 0000018c                  .bss    CL391,1
     6339 0000018d                  .bss    CL392,1
TMS320C3x/4x COFF AssemblerVersion 5.12     Tue Mar 02 13:03:54 2021
Copyright (c) 1987-1999 Texas Instruments Incorporatedasm30.exe -@_8O8.AAB 

G:\workspace\EEA\V615\APP\SOURCE\ASM\main.asm                        PAGE  125

     6340 0000018e                  .bss    CL393,1
     6341 0000018f                  .bss    CL394,1
     6342 00000190                  .bss    CL395,1
     6343 00000191                  .bss    CL396,1
     6344 00000192                  .bss    CL397,1
     6345 00000193                  .bss    CL398,1
     6346 00000194                  .bss    CL399,1
     6347 00000195                  .bss    CL400,1
     6348 00000196                  .bss    CL401,1
     6349 00000197                  .bss    CL402,1
     6350 00000198                  .bss    CL403,1
     6351 00000199                  .bss    CL404,1
     6352 0000019a                  .bss    CL405,1
     6353 0000019b                  .bss    CL406,1
     6354 0000019c                  .bss    CL407,1
     6355 0000019d                  .bss    CL408,1
     6356 0000019e                  .bss    CL409,1
     6357 0000019f                  .bss    CL410,1
     6358 000001a0                  .bss    CL411,1
     6359 000001a1                  .bss    CL412,1
     6360 000001a2                  .bss    CL413,1
     6361 000001a3                  .bss    CL414,1
     6362 000001a4                  .bss    CL415,1
     6363 000001a5                  .bss    CL416,1
     6364 000001a6                  .bss    CL417,1
     6365 000001a7                  .bss    CL418,1
     6366 000001a8                  .bss    CL419,1
     6367 000001a9                  .bss    CL420,1
     6368 000001aa                  .bss    CL421,1
     6369 000001ab                  .bss    CL422,1
     6370 000001ac                  .bss    CL423,1
     6371 000001ad                  .bss    CL424,1
     6372 000001ae                  .bss    CL425,1
     6373 000001af                  .bss    CL426,1
     6374 000001b0                  .bss    CL427,1
     6375 000001b1                  .bss    CL428,1
     6376 000001b2                  .bss    CL429,1
     6377 000001b3                  .bss    CL430,1
     6378 000001b4                  .bss    CL431,1
     6379 000001b5                  .bss    CL432,1
     6380 000001b6                  .bss    CL433,1
     6381 000001b7                  .bss    CL434,1
     6382 000001b8                  .bss    CL435,2
     6383 000001ba                  .bss    CL436,1
     6384 000001bb                  .bss    CL437,1
     6385 000001bc                  .bss    CL438,1
     6386 000001bd                  .bss    CL439,1
     6387 000001be                  .bss    CL440,1
     6388                   
     6389 00000000                  .sect   ".cinit"
     6390 00000000 000001bf         .field          447,32
     6391 00000001 00000000-        .field          CL1+0,32
     6392 00000002 00000000!        .field          _InitLog,32
     6393 00000003 00000000!        .field          _MEM,32
TMS320C3x/4x COFF AssemblerVersion 5.12     Tue Mar 02 13:03:54 2021
Copyright (c) 1987-1999 Texas Instruments Incorporatedasm30.exe -@_8O8.AAB 

G:\workspace\EEA\V615\APP\SOURCE\ASM\main.asm                        PAGE  126

     6394 00000004 00000000!        .field          _Setup_Basics,32
     6395 00000005 00000000!        .field          _Restore_CFG,32
     6396 00000006 00900004         .field          9437188,32
     6397 00000007 00000000!        .field          _DIAG_TEMP,32
     6398 00000008 00000001!        .field          _DIAG_TEMP+1,32
     6399 00000009 00000000!        .field          _DIAGNOSTICS,32
     6400 0000000a 00000001!        .field          _DIAGNOSTICS+1,32
     6401 0000000b 00000000!        .field          _DIAGNOSTICS_MSG_CODE,32
     6402 0000000c 00000000!        .field          _DIAGNOSTICS_ERROR_CODE,32
     6403 0000000d 00000000!        .field          _CHANGE,32
     6404 0000000e 00000000!        .field          _DATA_CHANGE,32
     6405 0000000f 00000000+        .field          SL1,32
     6406 00000010 00000000!        .field          _E_STRING,32
     6407 00000011 00000000!        .field          _sprintf,32
     6408 00000012 00000000!        .field          _Execute_Init,32
     6409 00000013 00000000!        .field          _IDEC_PORT,32
     6410 00000014 00000000!        .field          _IDEC_SA,32
     6411 00000015 00000001!        .field          _IDEC_SA+1,32
     6412 00000016 00000002!        .field          _IDEC_SA+2,32
     6413 00000017 0000000f!        .field          _IDEC_SA+15,32
     6414 00000018 00000000!        .field          _Set_Time,32
     6415 00000019 00000019!        .field          _IDEC_SA+25,32
     6416 0000001a 00000000!        .field          _Set_IDEC_Port,32
     6417 0000001b 00000000!        .field          _ESN_MFGR,32
     6418 0000001c 00000000!        .field          _FLASH_READ_ESN_MFGR,32
     6419 0000001d 00000000!        .field          _ESN_USER,32
     6420 0000001e 00000000!        .field          _FLASH_READ_ESN_USER,32
     6421 0000001f 00000000!        .field          _LOCKOUT,32
     6422 00000020 00000003!        .field          _DIO_LOCK+3,32
     6423 00000021 00000006!        .field          _DIO_LOCK+6,32
     6424 00000022 00000009!        .field          _DIO_LOCK+9,32
     6425 00000023 00000000!        .field          _RESEARCH_FORCE_MODE,32
     6426 00000024 00000000!        .field          _SAMPLE_PENDING,32
     6427 00000025 00000000!        .field          _SN_PIPE,32
     6428 00000026 00ffffff         .field          16777215,32
     6429 00000027 00000000!        .field          _DUMMY,32
     6430 00000028 00000000!        .field          _PORT2_LIQ_TEMP,32
     6431 00000029 00000000!        .field          _PORT2_GAS_TEMP,32
     6432 0000002a 00000000!        .field          _PORT3_TEMP,32
     6433 0000002b 00000000!        .field          _MM_LIQ_fail,32
     6434 0000002c 00000000!        .field          _MM_GAS_fail,32
     6435 0000002d 00000000!        .field          _Rosemount_fail,32
     6436 0000002e 00000000!        .field          _DIO_ERROR,32
     6437 0000002f 00000000!        .field          _DIO_ALARM,32
     6438 00000030 00000000!        .field          _DIO_SYSTEM_RESET,32
     6439 00000031 00000000!        .field          _DIO_BUILT_IN_TEST,32
     6440 00000032 00000000!        .field          _DIO_BEEP,32
     6441 00000033 00000000!        .field          _DIO_uP_GET,32
     6442 00000034 00000000!        .field          _DIO_uP_SET,32
     6443 00000035 00000000!        .field          _DIO_COMM_GET,32
     6444 00000036 00000000!        .field          _DIO_COMM_SET,32
     6445 00000037 00000000!        .field          _DIO_POWER_GET,32
     6446 00000038 00000000!        .field          _DIO_POWER_SET,32
     6447 00000039 00000000!        .field          _DIO_DISPLAY_GET,32
TMS320C3x/4x COFF AssemblerVersion 5.12     Tue Mar 02 13:03:54 2021
Copyright (c) 1987-1999 Texas Instruments Incorporatedasm30.exe -@_8O8.AAB 

G:\workspace\EEA\V615\APP\SOURCE\ASM\main.asm                        PAGE  127

     6448 0000003a 00000000!        .field          _DIO_DISPLAY_SET,32
     6449 0000003b 00000000!        .field          _DIO_MOTHERBOARD_GET,32
     6450 0000003c 00000000!        .field          _DIO_MOTHERBOARD_SET,32
     6451 0000003d 00000000!        .field          _DIO_ANALYZER_GET,32
     6452 0000003e 00000000!        .field          _DIO_ANALYZER_SET,32
     6453 0000003f 00000000!        .field          _DIO_ANALOGIO_GET,32
     6454 00000040 00000000!        .field          _DIO_ANALOGIO_SET,32
     6455 00000041 00000000!        .field          _DIO_PV_PERCMASS,32
     6456 00000042 00000000!        .field          _LED_GREEN,32
     6457 00000043 00000000!        .field          _REG_FREQ_OIL_LO,32
     6458 00000044 00000000!        .field          _VAR_Update,32
     6459 00000045 00000000!        .field          _REG_FREQ_OIL_HI,32
     6460 00000046 00000000!        .field          _REG_FREQ_WATER_LO,32
     6461 00000047 00000000!        .field          _REG_FREQ_WATER_HI,32
     6462 00000048 00000000!        .field          _EXTENDED_FW_VERSION_ENABLE,32
     6463 00000049 00000009!        .field          _EXTENDED_FW_VERSION_ENABLE+9,32
     6464 0000004a 06760000         .word           006760000H ; ldouble 1.230000000000000e+02
     6465 0000004b 76000000         .word           076000000H ; ldouble
     6466 0000004c 00900001         .field          9437185,32
     6467 0000004d 00000000!        .field          _DIPSWITCH,32
     6468 0000004e 00000001!        .field          _DIPSWITCH+1,32
     6469 0000004f 00000000!        .field          _REG_TIME,32
     6470 00000050 00000000!        .field          _N_TEMP,32
     6471 00000051 00000000!        .field          _SUM_TEMP,32
     6472 00000052 80000000         .word           080000000H ; ldouble 0.000000000000000e+00
     6473 00000053 00000000         .word           000000000H ; ldouble
     6474 00000054 00000000!        .field          _AVG_TEMP,32
     6475 00000055 00000000!        .field          _cycles,32
     6476 00000056 00000000!        .field          _previous_phase,32
     6477 00000057 00000000!        .field          _phase,32
     6478 00000058 00000000!        .field          _phase_rollover_count,32
     6479 00000059 00000000!        .field          _N_WC,32
     6480 0000005a 00000000!        .field          _WC_SUM,32
     6481 0000005b 00000000!        .field          _WC_SAMPLE,32
     6482 0000005c 00000000!        .field          _N_FREQ,32
     6483 0000005d 00000000!        .field          _HSALT_FREQ_TRIGGER,32
     6484 0000005e 00000000!        .field          _REG_FREQ_VARIANCE_RATIO,32
     6485 0000005f 00400000         .word           000400000H ; ldouble 1.500000000000000e+00
     6486 00000060 40000000         .word           040000000H ; ldouble
     6487 00000061 00000000!        .field          _TEMP_SAMPLE,32
     6488 00000062 00000000!        .field          _LAST_TEMP_RESET,32
     6489 00000063 00000000!        .field          _HSALT_TEMP_TRIGGER,32
     6490 00000064 00000000!        .field          _GAS_ENTRAINED_DENS_DETECT,32
     6491 00000065 00000000!        .field          _gas_routine_reset_needed,32
     6492 00000066 00000000!        .field          _boxcar_reset_needed,32
     6493 00000067 00000000!        .field          _ANALYZER_MODE,32
     6494 00000068 00000003!        .field          _REG_WATERCUT_DENSITY+3,32
     6495 00000069 00000000!        .field          _TRIM_RTD_LO,32
     6496 0000006a 00000000!        .field          _TRIM_RTD_HI,32
     6497 0000006b 00000000!        .field          _CAP_WATER_STOP,32
     6498 0000006c 00000000!        .field          _CAP_OIL_STOP,32
     6499 0000006d 00000000!        .field          _PV_SAMPLES,32
     6500 0000006e 00000000!        .field          _Clear,32
     6501 0000006f 00000000!        .field          _PV_SAMPLES_24hr,32
TMS320C3x/4x COFF AssemblerVersion 5.12     Tue Mar 02 13:03:54 2021
Copyright (c) 1987-1999 Texas Instruments Incorporatedasm30.exe -@_8O8.AAB 

G:\workspace\EEA\V615\APP\SOURCE\ASM\main.asm                        PAGE  128

     6502 00000070 00000000!        .field          _PV_SAMPLES_5min,32
     6503 00000071 00000131!        .field          _PV_SAMPLES+305,32
     6504 00000072 80000000         .field          -2147483648,32
     6505 00000073 00000131!        .field          _PV_SAMPLES_24hr+305,32
     6506 00000074 00000000!        .field          _REG_PV_AVG_24hr,32
     6507 00000075 00000131!        .field          _PV_SAMPLES_5min+305,32
     6508 00000076 00000000!        .field          _REG_PV_AVG_5min,32
     6509 00000077 00000000!        .field          _REG_PV_AVG_1sec,32
     6510 00000078 00000000!        .field          _REG_PV_AVG_CNT,32
     6511 00000079 00000000!        .field          _Mirror_From_Stream_Table,32
     6512 0000007a 00000000!        .field          _WC,32
     6513 0000007b 00000000!        .field          _REG_WATERCUT_RAW,32
     6514 0000007c 00000009!        .field          _REG_CAL_OIL+9,32
     6515 0000007d 00000000!        .field          _REG_CAL_OIL,32
     6516 0000007e 00000009!        .field          _REG_CAL_WATER+9,32
     6517 0000007f 00000000!        .field          _REG_CAL_WATER,32
     6518 00000080 00000000!        .field          _REG_EMULSION_PHASE,32
     6519 00000081 01000000         .word           001000000H ; ldouble 2.000000000000000e+00
     6520 00000082 00000000         .word           000000000H ; ldouble
     6521 00000083 00000000!        .field          _REG_WATERCUT,32
     6522 00000084 00000000!        .field          _VAR_NaN,32
     6523 00000085 00000000!        .field          _REG_TEMPERATURE_USER,32
     6524 00000086 00000000!        .field          _REG_TEMPERATURE_AVG,32
     6525 00000087 00000000!        .field          _REG_TEMPERATURE_EXTERNAL,32
     6526 00000088 00000000!        .field          _REG_DUMMY,32
     6527 00000089 00000000!        .field          _VAR_SELECT_DVIN,32
     6528 0000008a 00000001!        .field          _VAR_SELECT_DVIN+1,32
     6529 0000008b 00000000!        .field          _VAR_SET_STR_DVIN,32
     6530 0000008c 00000000!        .field          _VAR_SELECT_DV,32
     6531 0000008d 00000001!        .field          _VAR_SELECT_DV+1,32
     6532 0000008e 00000000!        .field          _VAR_SET_STR_DV,32
     6533 0000008f 0000002c!        .field          _AO+44,32
     6534 00000090 00000000!        .field          _PID_Init,32
     6535 00000091 00000108!        .field          _AI+264,32
     6536 00000092 00000000!        .field          _AI,32
     6537 00000093 0000002c!        .field          _AI+44,32
     6538 00000094 0000013d!        .field          _AI+317,32
     6539 00000095 00000000!        .field          _NaN_val_flt,32
     6540 00000096 00000000!        .field          _i_CCM_Level_Setpoint,32
     6541 00000097 00000000!        .field          _i_CCM_Level,32
     6542 00000098 00000000!        .field          _i_CCM_Pressure_Setpoint,32
     6543 00000099 00000000!        .field          _i_CCM_Pressure,32
     6544 0000009a 00000000!        .field          _i_CCM_Gas_Valve,32
     6545 0000009b 00000000!        .field          _i_CCM_Liquid_Valve,32
     6546 0000009c 00000000!        .field          _i_CCM_Flow,32
     6547 0000009d 00000000!        .field          _i_CCM_Flow_Oil,32
     6548 0000009e 00000000!        .field          _i_CCM_Flow_Water,32
     6549 0000009f 00000000!        .field          _i_CCM_Flow_Gas,32
     6550 000000a0 00000000!        .field          _CCM_24_GAS,32
     6551 000000a1 00000000!        .field          _CCM_24_TOTAL,32
     6552 000000a2 00000000!        .field          _CCM_24_OIL,32
     6553 000000a3 00000000!        .field          _CCM_24_WATER,32
     6554 000000a4 00000000!        .field          _CCM_REMAINING,32
     6555 000000a5 00000000!        .field          _CCM_REMAINING_S,32
TMS320C3x/4x COFF AssemblerVersion 5.12     Tue Mar 02 13:03:54 2021
Copyright (c) 1987-1999 Texas Instruments Incorporatedasm30.exe -@_8O8.AAB 

G:\workspace\EEA\V615\APP\SOURCE\ASM\main.asm                        PAGE  129

     6556 000000a6 00000000!        .field          _CCM_ELAPSED_S,32
     6557 000000a7 00000000!        .field          _DIO_CCM_START,32
     6558 000000a8 00000000!        .field          _DIO_CCM_PURGE_STAT,32
     6559 000000a9 00000000!        .field          _REG_CCM_TEST_STAT,32
     6560 000000aa 00000000!        .field          _REG_CCM_PURGE_STAT,32
     6561 000000ab 00000000!        .field          _CCM_GAS_FLOW,32
     6562 000000ac 00000000!        .field          _CCM_GAS_TOTAL,32
     6563 000000ad 00000000!        .field          _CCM_VESSEL_LEVEL,32
     6564 000000ae 0000002c!        .field          _CCM_VESSEL_LEVEL+44,32
     6565 000000af 00000000!        .field          _CCM_VESSEL_PRESSURE,32
     6566 000000b0 0000002c!        .field          _CCM_VESSEL_PRESSURE+44,32
     6567 000000b1 00000000!        .field          _CCM_TIME_START,32
     6568 000000b2 00000000!        .field          _CLEAR_TIME,32
     6569 000000b3 00000000!        .field          _CCM_TIME_STOP,32
     6570 000000b4 00000000!        .field          _CCM_TIME_REMAINING,32
     6571 000000b5 00000000!        .field          _CCM_TIME_ELAPSED,32
     6572 000000b6 00000000!        .field          _REG_VINC,32
     6573 000000b7 00000000!        .field          _REG_VREF,32
     6574 000000b8 00000000!        .field          _REG_FREQ,32
     6575 000000b9 00000000!        .field          _REG_VTUNE,32
     6576 000000ba 00000000!        .field          _TMP_VINC,32
     6577 000000bb ff800000         .word           0FF800000H ; ldouble -1.000000000000000e+00
     6578 000000bc 80000000         .word           080000000H ; ldouble
     6579 000000bd 00000000!        .field          _TMP_VREF,32
     6580 000000be 00000000!        .field          _TMP_FREQ,32
     6581 000000bf 00000000!        .field          _TMP_VTUNE,32
     6582 000000c0 00000000!        .field          _REG_VINC_O,32
     6583 000000c1 00000000!        .field          _REG_VREF_O,32
     6584 000000c2 00000000!        .field          _REG_FREQ_O,32
     6585 000000c3 00000000!        .field          _REG_VINC_W,32
     6586 000000c4 00000000!        .field          _REG_VREF_W,32
     6587 000000c5 00000000!        .field          _REG_FREQ_W,32
     6588 000000c6 00000000!        .field          _FREQ_O,32
     6589 000000c7 00000000!        .field          _IP_O,32
     6590 000000c8 00000000!        .field          _RP_O,32
     6591 000000c9 00000000!        .field          _IP_RP_O,32
     6592 000000ca 00000000!        .field          _DB_IP_RP_O,32
     6593 000000cb 00000000!        .field          _FREQ_W,32
     6594 000000cc 00000000!        .field          _IP_W,32
     6595 000000cd 00000000!        .field          _RP_W,32
     6596 000000ce 00000000!        .field          _IP_RP_W,32
     6597 000000cf 00000000!        .field          _DB_IP_RP_W,32
     6598 000000d0 00000000!        .field          _i_FREQ_O,32
     6599 000000d1 00000000!        .field          _i_IP_O,32
     6600 000000d2 00000000!        .field          _i_RP_O,32
     6601 000000d3 00000000!        .field          _i_FREQ_W,32
     6602 000000d4 00000000!        .field          _i_IP_W,32
     6603 000000d5 00000000!        .field          _i_RP_W,32
     6604 000000d6 00000000!        .field          _i_TEMP,32
     6605 000000d7 00000000!        .field          _i_WC,32
     6606 000000d8 00000000!        .field          _compatibility_dummy,32
     6607 000000d9 00000000!        .field          _i_LV,32
     6608 000000da 00000000!        .field          _il_LV,32
     6609 000000db 00000000!        .field          _f_LV,32
TMS320C3x/4x COFF AssemblerVersion 5.12     Tue Mar 02 13:03:54 2021
Copyright (c) 1987-1999 Texas Instruments Incorporatedasm30.exe -@_8O8.AAB 

G:\workspace\EEA\V615\APP\SOURCE\ASM\main.asm                        PAGE  130

     6610 000000dc 00000000!        .field          _COR,32
     6611 000000dd 00000001!        .field          _COR+1,32
     6612 000000de 00000003!        .field          _COR+3,32
     6613 000000df 0000001b!        .field          _COR+27,32
     6614 000000e0 00000000!        .field          _VAR_Initialize,32
     6615 000000e1 00000031!        .field          _COR+49,32
     6616 000000e2 00000001+        .field          SL2,32
     6617 000000e3 00000021!        .field          _COR+33,32
     6618 000000e4 0000001d!        .field          _COR+29,32
     6619 000000e5 00000000!        .field          _CORIOLIS_CFG,32
     6620 000000e6 00000047!        .field          _COR+71,32
     6621 000000e7 0000005d!        .field          _COR+93,32
     6622 000000e8 00000013+        .field          SL3,32
     6623 000000e9 0000004d!        .field          _COR+77,32
     6624 000000ea 00000049!        .field          _COR+73,32
     6625 000000eb 00000073!        .field          _COR+115,32
     6626 000000ec 097a0000         .word           0097A0000H ; double  1.000000000000000e+03
     6627 000000ed 00000089!        .field          _COR+137,32
     6628 000000ee 00000028+        .field          SL4,32
     6629 000000ef 00000079!        .field          _COR+121,32
     6630 000000f0 00000075!        .field          _COR+117,32
     6631 000000f1 0000009f!        .field          _COR+159,32
     6632 000000f2 000000b5!        .field          _COR+181,32
     6633 000000f3 00000039+        .field          SL5,32
     6634 000000f4 000000a5!        .field          _COR+165,32
     6635 000000f5 000000a1!        .field          _COR+161,32
     6636 000000f6 000000cb!        .field          _COR+203,32
     6637 000000f7 10435000         .word           010435000H ; double  1.000000000000000e+05
     6638 000000f8 000000e1!        .field          _COR+225,32
     6639 000000f9 0000004a+        .field          SL6,32
     6640 000000fa 000000d1!        .field          _COR+209,32
     6641 000000fb 00000000         .word           000000000H ; ldouble 1.000000000000000e+00
     6642 000000fc 00000000         .word           000000000H ; ldouble
     6643 000000fd 000000cd!        .field          _COR+205,32
     6644 000000fe 000000f7!        .field          _COR+247,32
     6645 000000ff 0000010d!        .field          _COR+269,32
     6646 00000100 00000054+        .field          SL7,32
     6647 00000101 000000fd!        .field          _COR+253,32
     6648 00000102 000000f9!        .field          _COR+249,32
     6649 00000103 00000000!        .field          _CORIOLIS_INT_CFG,32
     6650 00000104 00000123!        .field          _COR+291,32
     6651 00000105 00000139!        .field          _COR+313,32
     6652 00000106 00000062+        .field          SL8,32
     6653 00000107 00000129!        .field          _COR+297,32
     6654 00000108 00000125!        .field          _COR+293,32
     6655 00000109 0000014f!        .field          _COR+335,32
     6656 0000010a 00000165!        .field          _COR+357,32
     6657 0000010b 00000077+        .field          SL9,32
     6658 0000010c 00000155!        .field          _COR+341,32
     6659 0000010d 00000151!        .field          _COR+337,32
     6660 0000010e 00000004!        .field          _COR+4,32
     6661 0000010f 00000006!        .field          _COR+6,32
     6662 00000110 06ba0000         .word           006BA0000H ; double  -9.900000000000000e+01
     6663 00000111 00000005!        .field          _COR+5,32
TMS320C3x/4x COFF AssemblerVersion 5.12     Tue Mar 02 13:03:54 2021
Copyright (c) 1987-1999 Texas Instruments Incorporatedasm30.exe -@_8O8.AAB 

G:\workspace\EEA\V615\APP\SOURCE\ASM\main.asm                        PAGE  131

     6664 00000112 00000007!        .field          _COR+7,32
     6665 00000113 00000013!        .field          _COR+19,32
     6666 00000114 00000014!        .field          _COR+20,32
     6667 00000115 00000008!        .field          _COR+8,32
     6668 00000116 00000009!        .field          _COR+9,32
     6669 00000117 0000000a!        .field          _COR+10,32
     6670 00000118 0000000c!        .field          _COR+12,32
     6671 00000119 0000000e!        .field          _COR+14,32
     6672 0000011a 0000000f!        .field          _COR+15,32
     6673 0000011b 00000011!        .field          _COR+17,32
     6674 0000011c 00000015!        .field          _COR+21,32
     6675 0000011d 00000016!        .field          _COR+22,32
     6676 0000011e 00000017!        .field          _COR+23,32
     6677 0000011f 00000018!        .field          _COR+24,32
     6678 00000120 00000019!        .field          _COR+25,32
     6679 00000121 0000001a!        .field          _COR+26,32
     6680 00000122 00000012!        .field          _COR+18,32
     6681 00000123 0000000b!        .field          _COR+11,32
     6682 00000124 0000000d!        .field          _COR+13,32
     6683 00000125 00000010!        .field          _COR+16,32
     6684 00000126 00000002!        .field          _COR+2,32
     6685 00000127 0000017b!        .field          _COR+379,32
     6686 00000128 0000017c!        .field          _COR+380,32
     6687 00000129 00000000!        .field          _CORIOLIS_ZERO1,32
     6688 0000012a 000002fa!        .field          _COR+762,32
     6689 0000012b 00000000!        .field          _CORIOLIS_ZERO2,32
     6690 0000012c 00000478!        .field          _COR+1144,32
     6691 0000012d 00000000!        .field          _CORIOLIS_ZERO3,32
     6692 0000012e 000005f6!        .field          _COR+1526,32
     6693 0000012f 00000000!        .field          _CORIOLIS_ZERO4,32
     6694 00000130 0000017d!        .field          _COR+381,32
     6695 00000131 000002fb!        .field          _COR+763,32
     6696 00000132 00000479!        .field          _COR+1145,32
     6697 00000133 000005f7!        .field          _COR+1527,32
     6698 00000134 00000006!        .field          _PRESS+6,32
     6699 00000135 00000007!        .field          _PRESS+7,32
     6700 00000136 00000008!        .field          _PRESS+8,32
     6701 00000137 00000000!        .field          _PRESS,32
     6702 00000138 00000001!        .field          _PRESS+1,32
     6703 00000139 00000002!        .field          _PRESS+2,32
     6704 0000013a 00000003!        .field          _PRESS+3,32
     6705 0000013b 00000004!        .field          _PRESS+4,32
     6706 0000013c 00000005!        .field          _PRESS+5,32
     6707 0000013d 00000000!        .field          _TMPTRANS,32
     6708 0000013e 00000001!        .field          _TMPTRANS+1,32
     6709 0000013f 00000002!        .field          _TMPTRANS+2,32
     6710 00000140 00000003!        .field          _TMPTRANS+3,32
     6711 00000141 00000004!        .field          _TMPTRANS+4,32
     6712 00000142 00000005!        .field          _TMPTRANS+5,32
     6713 00000143 000001ec!        .field          _FC+492,32
     6714 00000144 000004e7!        .field          _FC+1255,32
     6715 00000145 000001ea!        .field          _FC+490,32
     6716 00000146 000001eb!        .field          _FC+491,32
     6717 00000147 000000b0!        .field          _FC+176,32
TMS320C3x/4x COFF AssemblerVersion 5.12     Tue Mar 02 13:03:54 2021
Copyright (c) 1987-1999 Texas Instruments Incorporatedasm30.exe -@_8O8.AAB 

G:\workspace\EEA\V615\APP\SOURCE\ASM\main.asm                        PAGE  132

     6718 00000148 000004b6!        .field          _FC+1206,32
     6719 00000149 0000052c!        .field          _FC+1324,32
     6720 0000014a 0000052f!        .field          _FC+1327,32
     6721 0000014b 00000162!        .field          _FC+354,32
     6722 0000014c 00000000!        .field          _USE_PDI_WATERCUT,32
     6723 0000014d 00000000!        .field          _CALC_WC_DENSITY,32
     6724 0000014e 00000530!        .field          _FC+1328,32
     6725 0000014f 00000000!        .field          _FC,32
     6726 00000150 00000532!        .field          _FC+1330,32
     6727 00000151 00000058!        .field          _FC+88,32
     6728 00000152 0000052b!        .field          _FC+1323,32
     6729 00000153 0000052e!        .field          _FC+1326,32
     6730 00000154 0000002c!        .field          _FC+44,32
     6731 00000155 00000533!        .field          _FC+1331,32
     6732 00000156 00000431!        .field          _FC+1073,32
     6733 00000157 00000405!        .field          _FC+1029,32
     6734 00000158 000003d9!        .field          _FC+985,32
     6735 00000159 00000381!        .field          _FC+897,32
     6736 0000015a 00000351!        .field          _FC+849,32
     6737 0000015b 00000321!        .field          _FC+801,32
     6738 0000015c 00000245!        .field          _FC+581,32
     6739 0000015d 00000219!        .field          _FC+537,32
     6740 0000015e 000001ed!        .field          _FC+493,32
     6741 0000015f 000002c9!        .field          _FC+713,32
     6742 00000160 0000029d!        .field          _FC+669,32
     6743 00000161 00000271!        .field          _FC+625,32
     6744 00000162 0000034d!        .field          _FC+845,32
     6745 00000163 0000032a!        .field          _FC+810,32
     6746 00000164 00000000!        .field          _floor,32
     6747 00000165 0000034f!        .field          _FC+847,32
     6748 00000166 0000037d!        .field          _FC+893,32
     6749 00000167 0000035a!        .field          _FC+858,32
     6750 00000168 0000037f!        .field          _FC+895,32
     6751 00000169 00000000!        .field          _ALYESKA,32
     6752 0000016a 00000001!        .field          _ALYESKA+1,32
     6753 0000016b 00000002!        .field          _ALYESKA+2,32
     6754 0000016c 00000003!        .field          _ALYESKA+3,32
     6755 0000016d 00000004!        .field          _ALYESKA+4,32
     6756 0000016e 00000005!        .field          _ALYESKA+5,32
     6757 0000016f 00000006!        .field          _ALYESKA+6,32
     6758 00000170 00000007!        .field          _ALYESKA+7,32
     6759 00000171 00000008!        .field          _ALYESKA+8,32
     6760 00000172 00000009!        .field          _ALYESKA+9,32
     6761 00000173 0000000a!        .field          _ALYESKA+10,32
     6762 00000174 00000000!        .field          _ALFAT_STATUS_REG,32
     6763 00000175 00000000!        .field          _ALFAT_INIT_ALL,32
     6764 00000176 00000000!        .field          _ALFAT_APPEND_LF,32
     6765 00000177 0000018b!        .field          _PORT+395,32
     6766 00000178 00000000!        .field          _ALFAT_RX,32
     6767 00000179 00000000!        .field          _DEMO_ANALYZER_MODE,32
     6768 0000017a 00000000!        .field          _DEMO_Init,32
     6769 0000017b 00000000!        .field          _HW_VER,32
     6770 0000017c 00900000         .field          9437184,32
     6771 0000017d 00000000!        .field          _SA,32
TMS320C3x/4x COFF AssemblerVersion 5.12     Tue Mar 02 13:03:54 2021
Copyright (c) 1987-1999 Texas Instruments Incorporatedasm30.exe -@_8O8.AAB 

G:\workspace\EEA\V615\APP\SOURCE\ASM\main.asm                        PAGE  133

     6772 0000017e 00000000!        .field          _SRAM_SCRATCHPAD,32
     6773 0000017f 00a38000         .field          10715136,32
     6774 00000180 00b00000         .field          11534336,32
     6775 00000181 00808064         .field          8421476,32
     6776 00000182 00900006         .field          9437190,32
     6777 00000183 00000000!        .field          _INITIALIZING,32
     6778 00000184 00000000!        .field          _INT0,32
     6779 00000185 00809fc1         .field          8429505,32
     6780 00000186 00000000!        .field          _c_int00,32
     6781 00000187 00400000         .field          4194304,32
     6782 00000188 00400000         .field          4194304,32
     6783 00000189 00000000!        .field          _CLOCK,32
     6784 0000018a 034bc000         .field          55296000,32
     6785 0000018b 00000000!        .field          _LCD_INIT,32
     6786 0000018c 00000000!        .field          _LCD_DISPLAY,32
     6787 0000018d 0244cccd         .word           00244CCCDH ; double  6.150000000000000e+00
     6788 0000018e 0000008c+        .field          SL10,32
     6789 0000018f 00000065!        .field          _LCD_DISPLAY+101,32
     6790 00000190 000000a1+        .field          SL11,32
     6791 00000191 000000ca!        .field          _LCD_DISPLAY+202,32
     6792 00000192 000000b6+        .field          SL12,32
     6793 00000193 0000012f!        .field          _LCD_DISPLAY+303,32
     6794 00000194 000000ce+        .field          SL13,32
     6795 00000195 00000000!        .field          _LCD_PAGE,32
     6796 00000196 00000000!        .field          _MENU_INIT,32
     6797 00000197 00000000+        .field          _Initialize_Variables,32
     6798 00000198 000000e6+        .field          SL14,32
     6799 00000199 000000fb+        .field          SL15,32
     6800 0000019a 00000110+        .field          SL16,32
     6801 0000019b 00000125+        .field          SL17,32
     6802 0000019c 0000013a+        .field          SL18,32
     6803 0000019d 0000014f+        .field          SL19,32
     6804 0000019e 00000000!        .field          _RTC_setup,32
     6805 0000019f f1483fb7         .word           0F1483FB7H ; double  4.774305555555556e-05
     6806 000001a0 00000000!        .field          _Setup_Timer,32
     6807 000001a1 00000000!        .field          _VAR_DAMP_Init,32
     6808 000001a2 00000000!        .field          _Initialize_Periodic_Events,32
     6809 000001a3 00000000!        .field          _Setup_Serial_Port0,32
     6810 000001a4 00000000!        .field          _Setup_ADC,32
     6811 000001a5 00000000!        .field          _Setup_DAC,32
     6812 000001a6 0000000d!        .field          _REG_TEMPERATURE_EXTERNAL+13,32
     6813 000001a7 00000000!        .field          _DIO_TEMP_C,32
     6814 000001a8 00000000!        .field          _DIO_BUILT_IN_TEST_ENABLE,32
     6815 000001a9 00000000!        .field          _Self_Test_FULL,32
     6816 000001aa 00000000!        .field          _LOG_STATUS,32
     6817 000001ab 00000000!        .field          _TMR_ALFAT_LOG,32
     6818 000001ac 00000000!        .field          _Timer_Insert,32
     6819 000001ad 00000000!        .field          _Port_Defaults,32
     6820 000001ae 00000000!        .field          _Disable_Heater,32
     6821 000001af 00000000!        .field          _RESET_COUNTER,32
     6822 000001b0 00000000!        .field          _Write_CFG_USER,32
     6823 000001b1 00000000!        .field          _DEMO,32
     6824 000001b2 00000000!        .field          _Clear_Accumulators,32
     6825 000001b3 00000000!        .field          _VT_SELECT,32
TMS320C3x/4x COFF AssemblerVersion 5.12     Tue Mar 02 13:03:54 2021
Copyright (c) 1987-1999 Texas Instruments Incorporatedasm30.exe -@_8O8.AAB 

G:\workspace\EEA\V615\APP\SOURCE\ASM\main.asm                        PAGE  134

     6826 000001b4 00000000!        .field          _OSWITCH,32
     6827 000001b5 00900013         .field          9437203,32
     6828 000001b6 00000000!        .field          _EXTUNE,32
     6829 000001b7 000001b8!        .field          _REG_DAC+440,32
     6830 000001b8 00000009!        .field          _REG_VTUNE_SET+9,32
     6831 000001b9 000001e4!        .field          _REG_DAC+484,32
     6832 000001ba 02200000         .word           002200000H ; ldouble 5.000000000000000e+00
     6833 000001bb 20000000         .word           020000000H ; ldouble
     6834 000001bc 00000000!        .field          _Write_DAC,32
     6835 000001bd 00000000!        .field          _Set_Research_Mode,32
     6836 000001be 00000000'        .field          _Debug,32
     6837 000001bf 00000164+        .field          SL20,32
     6838 000001c0 00000000!        .field          _strtol,32
     6839                   
     6840 0000004d                  .sect   ".text"
     6841                   ;******************************************************************************
     6842                   ;* UNDEFINED EXTERNAL REFERENCES                                              *
     6843                   ;******************************************************************************
     6844                   
     6845                           .global _sprintf
     6846                   
     6847                           .global _strtol
     6848                   
     6849                           .global _floor
     6850                   
     6851                           .global _VAR_Initialize
     6852                   
     6853                           .global _VAR_DAMP_Init
     6854                   
     6855                           .global _VAR_NaN
     6856                   
     6857                           .global _VAR_Update
     6858                   
     6859                           .global _Clear
     6860                   
     6861                           .global _Setup_Timer
     6862                   
     6863                           .global _Timer_Insert
     6864                   
     6865                           .global _CLEAR_TIME
     6866                   
     6867                           .global _RTC_setup
     6868                   
     6869                           .global _LCD_PAGE
     6870                   
     6871                           .global _LCD_DISPLAY
     6872                   
     6873                           .global _LCD_INIT
     6874                   
     6875                           .global _DIAG_TEMP
     6876                   
     6877                           .global _DIAGNOSTICS
     6878                   
     6879                           .global _DIAGNOSTICS_MSG_CODE
TMS320C3x/4x COFF AssemblerVersion 5.12     Tue Mar 02 13:03:54 2021
Copyright (c) 1987-1999 Texas Instruments Incorporatedasm30.exe -@_8O8.AAB 

G:\workspace\EEA\V615\APP\SOURCE\ASM\main.asm                        PAGE  135

     6880                   
     6881                           .global _DIAGNOSTICS_ERROR_CODE
     6882                   
     6883                           .global _E_STRING
     6884                   
     6885                           .global _DIO_ERROR
     6886                   
     6887                           .global _DIO_ALARM
     6888                   
     6889                           .global _PORT
     6890                   
     6891                           .global _Setup_Serial_Port0
     6892                   
     6893                           .global _Port_Defaults
     6894                   
     6895                           .global _AI
     6896                   
     6897                           .global _Setup_ADC
     6898                   
     6899                           .global _Setup_DAC
     6900                   
     6901                           .global _Write_DAC
     6902                   
     6903                           .global _PID_Init
     6904                   
     6905                           .global _AO
     6906                   
     6907                           .global _Execute_Init
     6908                   
     6909                           .global _SRAM_SCRATCHPAD
     6910                   
     6911                           .global _FLASH_READ_ESN_MFGR
     6912                   
     6913                           .global _FLASH_READ_ESN_USER
     6914                   
     6915                           .global _InitLog
     6916                   
     6917                           .global _DEMO_Init
     6918                   
     6919                           .global _Self_Test_FULL
     6920                   
     6921                           .global _MENU_INIT
     6922                   
     6923                           .global _CLOCK
     6924                   
     6925                           .global _LED_GREEN
     6926                   
     6927                           .global _OSWITCH
     6928                   
     6929                           .global _c_int00
     6930                   
     6931                           .global _ESN_USER
     6932                   
     6933                           .global _ESN_MFGR
TMS320C3x/4x COFF AssemblerVersion 5.12     Tue Mar 02 13:03:54 2021
Copyright (c) 1987-1999 Texas Instruments Incorporatedasm30.exe -@_8O8.AAB 

G:\workspace\EEA\V615\APP\SOURCE\ASM\main.asm                        PAGE  136

     6934                   
     6935                           .global _RESEARCH_FORCE_MODE
     6936                   
     6937                           .global _DIO_uP_GET
     6938                   
     6939                           .global _DIO_uP_SET
     6940                   
     6941                           .global _DIO_COMM_GET
     6942                   
     6943                           .global _DIO_COMM_SET
     6944                   
     6945                           .global _DIO_ANALYZER_GET
     6946                   
     6947                           .global _DIO_ANALYZER_SET
     6948                   
     6949                           .global _DIO_POWER_GET
     6950                   
     6951                           .global _DIO_POWER_SET
     6952                   
     6953                           .global _DIO_ANALOGIO_GET
     6954                   
     6955                           .global _DIO_ANALOGIO_SET
     6956                   
     6957                           .global _DIO_DISPLAY_GET
     6958                   
     6959                           .global _DIO_DISPLAY_SET
     6960                   
     6961                           .global _DIO_MOTHERBOARD_GET
     6962                   
     6963                           .global _DIO_MOTHERBOARD_SET
     6964                   
     6965                           .global _DIO_BEEP
     6966                   
     6967                           .global _DIO_PV_PERCMASS
     6968                   
     6969                           .global _VAR_SELECT_DV
     6970                   
     6971                           .global _VAR_SELECT_DVIN
     6972                   
     6973                           .global _i_LV
     6974                   
     6975                           .global _il_LV
     6976                   
     6977                           .global _f_LV
     6978                   
     6979                           .global _DATA_CHANGE
     6980                   
     6981                           .global _SA
     6982                   
     6983                           .global _EXTUNE
     6984                   
     6985                           .global _PV_SAMPLES
     6986                   
     6987                           .global _PV_SAMPLES_24hr
TMS320C3x/4x COFF AssemblerVersion 5.12     Tue Mar 02 13:03:54 2021
Copyright (c) 1987-1999 Texas Instruments Incorporatedasm30.exe -@_8O8.AAB 

G:\workspace\EEA\V615\APP\SOURCE\ASM\main.asm                        PAGE  137

     6988                   
     6989                           .global _PV_SAMPLES_5min
     6990                   
     6991                           .global _VT_SELECT
     6992                   
     6993                           .global _INITIALIZING
     6994                   
     6995                           .global _MEM
     6996                   
     6997                           .global _DIPSWITCH
     6998                   
     6999                           .global _DUMMY
     7000                   
     7001                           .global _CHANGE
     7002                   
     7003                           .global _IDEC_SA
     7004                   
     7005                           .global _IDEC_PORT
     7006                   
     7007                           .global _i_FREQ_O
     7008                   
     7009                           .global _i_IP_O
     7010                   
     7011                           .global _i_RP_O
     7012                   
     7013                           .global _i_FREQ_W
     7014                   
     7015                           .global _i_IP_W
     7016                   
     7017                           .global _i_RP_W
     7018                   
     7019                           .global _i_TEMP
     7020                   
     7021                           .global _i_WC
     7022                   
     7023                           .global _FREQ_O
     7024                   
     7025                           .global _IP_O
     7026                   
     7027                           .global _RP_O
     7028                   
     7029                           .global _IP_RP_O
     7030                   
     7031                           .global _DB_IP_RP_O
     7032                   
     7033                           .global _FREQ_W
     7034                   
     7035                           .global _IP_W
     7036                   
     7037                           .global _RP_W
     7038                   
     7039                           .global _IP_RP_W
     7040                   
     7041                           .global _DB_IP_RP_W
TMS320C3x/4x COFF AssemblerVersion 5.12     Tue Mar 02 13:03:54 2021
Copyright (c) 1987-1999 Texas Instruments Incorporatedasm30.exe -@_8O8.AAB 

G:\workspace\EEA\V615\APP\SOURCE\ASM\main.asm                        PAGE  138

     7042                   
     7043                           .global _HW_VER
     7044                   
     7045                           .global _i_CCM_Level_Setpoint
     7046                   
     7047                           .global _i_CCM_Level
     7048                   
     7049                           .global _i_CCM_Pressure_Setpoint
     7050                   
     7051                           .global _i_CCM_Pressure
     7052                   
     7053                           .global _i_CCM_Gas_Valve
     7054                   
     7055                           .global _i_CCM_Liquid_Valve
     7056                   
     7057                           .global _i_CCM_Flow
     7058                   
     7059                           .global _i_CCM_Flow_Oil
     7060                   
     7061                           .global _i_CCM_Flow_Water
     7062                   
     7063                           .global _i_CCM_Flow_Gas
     7064                   
     7065                           .global _CCM_TIME_START
     7066                   
     7067                           .global _CCM_TIME_STOP
     7068                   
     7069                           .global _CCM_TIME_REMAINING
     7070                   
     7071                           .global _CCM_TIME_ELAPSED
     7072                   
     7073                           .global _CCM_VESSEL_LEVEL
     7074                   
     7075                           .global _CCM_VESSEL_PRESSURE
     7076                   
     7077                           .global _CCM_REMAINING
     7078                   
     7079                           .global _CCM_REMAINING_S
     7080                   
     7081                           .global _CCM_ELAPSED_S
     7082                   
     7083                           .global _CCM_24_GAS
     7084                   
     7085                           .global _CCM_24_OIL
     7086                   
     7087                           .global _CCM_24_WATER
     7088                   
     7089                           .global _CCM_24_TOTAL
     7090                   
     7091                           .global _CCM_GAS_TOTAL
     7092                   
     7093                           .global _CCM_GAS_FLOW
     7094                   
     7095                           .global _ANALYZER_MODE
TMS320C3x/4x COFF AssemblerVersion 5.12     Tue Mar 02 13:03:54 2021
Copyright (c) 1987-1999 Texas Instruments Incorporatedasm30.exe -@_8O8.AAB 

G:\workspace\EEA\V615\APP\SOURCE\ASM\main.asm                        PAGE  139

     7096                   
     7097                           .global _DEMO
     7098                   
     7099                           .global _DEMO_ANALYZER_MODE
     7100                   
     7101                           .global _REG_TIME
     7102                   
     7103                           .global _SAMPLE_PENDING
     7104                   
     7105                           .global _RESET_COUNTER
     7106                   
     7107                           .global _SN_PIPE
     7108                   
     7109                           .global _NaN_val_flt
     7110                   
     7111                           .global _DIO_SYSTEM_RESET
     7112                   
     7113                           .global _DIO_BUILT_IN_TEST_ENABLE
     7114                   
     7115                           .global _DIO_BUILT_IN_TEST
     7116                   
     7117                           .global _DIO_TEMP_C
     7118                   
     7119                           .global _DIO_CCM_START
     7120                   
     7121                           .global _REG_CCM_TEST_STAT
     7122                   
     7123                           .global _DIO_CCM_PURGE_STAT
     7124                   
     7125                           .global _REG_CCM_PURGE_STAT
     7126                   
     7127                           .global _REG_DUMMY
     7128                   
     7129                           .global _WC
     7130                   
     7131                           .global _REG_WATERCUT_RAW
     7132                   
     7133                           .global _REG_PV_AVG_24hr
     7134                   
     7135                           .global _REG_PV_AVG_5min
     7136                   
     7137                           .global _REG_PV_AVG_1sec
     7138                   
     7139                           .global _REG_PV_AVG_CNT
     7140                   
     7141                           .global _REG_WATERCUT
     7142                   
     7143                           .global _REG_WATERCUT_DENSITY
     7144                   
     7145                           .global _TMP_VTUNE
     7146                   
     7147                           .global _REG_VINC
     7148                   
     7149                           .global _TMP_VINC
TMS320C3x/4x COFF AssemblerVersion 5.12     Tue Mar 02 13:03:54 2021
Copyright (c) 1987-1999 Texas Instruments Incorporatedasm30.exe -@_8O8.AAB 

G:\workspace\EEA\V615\APP\SOURCE\ASM\main.asm                        PAGE  140

     7150                   
     7151                           .global _REG_VREF
     7152                   
     7153                           .global _TMP_VREF
     7154                   
     7155                           .global _REG_TEMPERATURE_USER
     7156                   
     7157                           .global _REG_TEMPERATURE_AVG
     7158                   
     7159                           .global _REG_TEMPERATURE_EXTERNAL
     7160                   
     7161                           .global _REG_FREQ
     7162                   
     7163                           .global _REG_FREQ_O
     7164                   
     7165                           .global _REG_VINC_O
     7166                   
     7167                           .global _REG_VREF_O
     7168                   
     7169                           .global _REG_FREQ_W
     7170                   
     7171                           .global _REG_VINC_W
     7172                   
     7173                           .global _REG_VREF_W
     7174                   
     7175                           .global _AVG_TEMP
     7176                   
     7177                           .global _SUM_TEMP
     7178                   
     7179                           .global _N_TEMP
     7180                   
     7181                           .global _cycles
     7182                   
     7183                           .global _previous_phase
     7184                   
     7185                           .global _phase
     7186                   
     7187                           .global _phase_rollover_count
     7188                   
     7189                           .global _N_WC
     7190                   
     7191                           .global _WC_SAMPLE
     7192                   
     7193                           .global _WC_SUM
     7194                   
     7195                           .global _PORT2_LIQ_TEMP
     7196                   
     7197                           .global _PORT2_GAS_TEMP
     7198                   
     7199                           .global _PORT3_TEMP
     7200                   
     7201                           .global _MM_LIQ_fail
     7202                   
     7203                           .global _MM_GAS_fail
TMS320C3x/4x COFF AssemblerVersion 5.12     Tue Mar 02 13:03:54 2021
Copyright (c) 1987-1999 Texas Instruments Incorporatedasm30.exe -@_8O8.AAB 

G:\workspace\EEA\V615\APP\SOURCE\ASM\main.asm                        PAGE  141

     7204                   
     7205                           .global _Rosemount_fail
     7206                   
     7207                           .global _N_FREQ
     7208                   
     7209                           .global _HSALT_FREQ_TRIGGER
     7210                   
     7211                           .global _REG_FREQ_VARIANCE_RATIO
     7212                   
     7213                           .global _TEMP_SAMPLE
     7214                   
     7215                           .global _LAST_TEMP_RESET
     7216                   
     7217                           .global _HSALT_TEMP_TRIGGER
     7218                   
     7219                           .global _EXTENDED_FW_VERSION_ENABLE
     7220                   
     7221                           .global _GAS_ENTRAINED_DENS_DETECT
     7222                   
     7223                           .global _gas_routine_reset_needed
     7224                   
     7225                           .global _boxcar_reset_needed
     7226                   
     7227                           .global _TRIM_RTD_LO
     7228                   
     7229                           .global _TRIM_RTD_HI
     7230                   
     7231                           .global _CAP_WATER_STOP
     7232                   
     7233                           .global _CAP_OIL_STOP
     7234                   
     7235                           .global _TMP_FREQ
     7236                   
     7237                           .global _REG_FREQ_OIL_LO
     7238                   
     7239                           .global _REG_FREQ_OIL_HI
     7240                   
     7241                           .global _REG_FREQ_WATER_LO
     7242                   
     7243                           .global _REG_FREQ_WATER_HI
     7244                   
     7245                           .global _REG_VTUNE_SET
     7246                   
     7247                           .global _REG_VTUNE
     7248                   
     7249                           .global _REG_EMULSION_PHASE
     7250                   
     7251                           .global _REG_CAL_OIL
     7252                   
     7253                           .global _REG_CAL_WATER
     7254                   
     7255                           .global _DIO_LOCK
     7256                   
     7257                           .global _LOCKOUT
TMS320C3x/4x COFF AssemblerVersion 5.12     Tue Mar 02 13:03:54 2021
Copyright (c) 1987-1999 Texas Instruments Incorporatedasm30.exe -@_8O8.AAB 

G:\workspace\EEA\V615\APP\SOURCE\ASM\main.asm                        PAGE  142

     7258                   
     7259                           .global _REG_DAC
     7260                   
     7261                           .global _COR
     7262                   
     7263                           .global _PRESS
     7264                   
     7265                           .global _TMPTRANS
     7266                   
     7267                           .global _USE_PDI_WATERCUT
     7268                   
     7269                           .global _CALC_WC_DENSITY
     7270                   
     7271                           .global _FC
     7272                   
     7273                           .global _ALYESKA
     7274                   
     7275                           .global _compatibility_dummy
     7276                   
     7277                           .global _ALFAT_RX
     7278                   
     7279                           .global _LOG_STATUS
     7280                   
     7281                           .global _ALFAT_INIT_ALL
     7282                   
     7283                           .global _ALFAT_STATUS_REG
     7284                   
     7285                           .global _ALFAT_APPEND_LF
     7286                   
     7287                           .global _Setup_Basics
     7288                   
     7289                           .global _Initialize_Periodic_Events
     7290                   
     7291                           .global _Disable_Heater
     7292                   
     7293                           .global _Set_IDEC_Port
     7294                   
     7295                           .global _Set_Time
     7296                   
     7297                           .global _VAR_SET_STR_DV
     7298                   
     7299                           .global _VAR_SET_STR_DVIN
     7300                   
     7301                           .global _Clear_Accumulators
     7302                   
     7303                           .global _TMR_ALFAT_LOG
     7304                   
     7305                           .global _Write_CFG_USER
     7306                   
     7307                           .global _Restore_CFG
     7308                   
     7309                           .global _Set_Research_Mode
     7310                   
     7311                           .global _Mirror_From_Stream_Table
TMS320C3x/4x COFF AssemblerVersion 5.12     Tue Mar 02 13:03:54 2021
Copyright (c) 1987-1999 Texas Instruments Incorporatedasm30.exe -@_8O8.AAB 

G:\workspace\EEA\V615\APP\SOURCE\ASM\main.asm                        PAGE  143

     7312                   
     7313                           .global _CORIOLIS_ZERO1
     7314                   
     7315                           .global _CORIOLIS_ZERO2
     7316                   
     7317                           .global _CORIOLIS_ZERO3
     7318                   
     7319                           .global _CORIOLIS_ZERO4
     7320                   
     7321                           .global _CORIOLIS_CFG
     7322                   
     7323                           .global _CORIOLIS_INT_CFG
     7324                   
     7325                           .global _INT0
     7326                           .global _Execute

 No Errors,  No Warnings
TMS320C3x/4x COFF AssemblerVersion 5.12     Tue Mar 02 13:03:54 2021
Copyright (c) 1987-1999 Texas Instruments Incorporatedasm30.exe -@_8O8.AAB 

G:\workspace\EEA\V615\APP\SOURCE\ASM\main.asm                        PAGE  144

LABEL                            VALUE       DEFN    REF

.BIGMODEL                        00000001       0 
.C30                             00000000       0 
.C30INTERRUPT                    00000000       0 
.C31                             00000000       0 
.C32                             00000000       0 
.C33                             00000001       0 
.C3X                             00000001       0 
.C3x                             00000001       0 
.C40                             00000000       0 
.C44                             00000000       0 
.C4X                             00000000       0 
.C4x                             00000000       0 
.REGPARM                         00000001       0 
.TMS320C30                       00000001       0 
.TMS320C31                       00000000       0 
.TMS320C32                       00000000       0 
.TMS320C40                       00000000       0 
.TMS320C44                       00000000       0 
.TMS320xx                        00000021       0 
.tms320C30                       00000001       0 
.tms320C31                       00000000       0 
.tms320C32                       00000000       0 
.tms320C40                       00000000       0 
.tms320C44                       00000000       0 
.tms320xx                        00000021       0 
.tmx320C40                       00000000       0 
CL1                              00000000-   5948    792    793   6391 
CL10                             00000009-   5957    883    884 
CL100                            00000066-   6047   1661   1662 
CL101                            00000067-   6048   1671   1672 
CL102                            00000068-   6049   1679   1680 
CL103                            00000069-   6050   1686   1687 
CL104                            0000006a-   6051   1693   1694 
CL105                            0000006b-   6052   1702   1703 
CL106                            0000006c-   6053   1700   1701   1710   1711 
                                                    1720   1721 
CL107                            0000006d-   6054   1712   1713 
CL108                            0000006e-   6055   1722   1723 
CL109                            0000006f-   6056   1731   1732 
CL11                             0000000a-   5958    891    892 
CL110                            00000070-   6057   1733   1734   1742   1743 
                                                    1759   1760 
CL111                            00000071-   6058   1740   1741 
CL112                            00000072-   6059   1749   1750 
CL113                            00000073-   6060   1757   1758 
CL114                            00000074-   6061   1766   1767 
CL115                            00000075-   6062   1774   1775 
CL116                            00000076-   6063   1782   1783 
CL117                            00000077-   6064   1790   1791 
CL118                            00000078-   6065   1800   1801 
CL119                            00000079-   6066   1808   1809 
TMS320C3x/4x COFF AssemblerVersion 5.12     Tue Mar 02 13:03:54 2021
Copyright (c) 1987-1999 Texas Instruments Incorporatedasm30.exe -@_8O8.AAB 

G:\workspace\EEA\V615\APP\SOURCE\ASM\main.asm                        PAGE  145

LABEL                            VALUE       DEFN    REF

CL12                             0000000b-   5959    899    900 
CL120                            0000007a-   6067   1816   1817 
CL121                            0000007b-   6068   1828   1829 
CL122                            0000007c-   6069   1836   1837 
CL123                            0000007d-   6070   1848   1849 
CL124                            0000007e-   6071   1862   1865 
CL125                            0000007f-   6072   1858   1859   1860   1861 
CL126                            00000081-   6073   1874   1875 
CL127                            00000082-   6074   1872   1873   1882   1883 
                                                    1892   1893   1902   1903 
                                                    1912   1913   1978   1979 
                                                    2017   2018   2029   2030 
                                                    2041   2042   2227   2228 
                                                    2237   2238   2247   2248 
                                                    2257   2258   2267   2268 
                                                    2277   2278   2341   2342 
                                                    2353   2354   2365   2366 
                                                    2377   2378   2449   2450 
                                                    2459   2460   2469   2470 
                                                    2479   2480   2489   2490 
                                                    2499   2500   3889   3890 
                                                    3922   3923   3961   3962 
                                                    3986   3987   4020   4021 
                                                    4045   4046   4058   4059 
                                                    4070   4071   4082   4083 
                                                    4094   4095   4106   4107 
                                                    4118   4119   4130   4131 
                                                    4142   4143   4154   4155 
                                                    4166   4167   4179   4180 
CL128                            00000083-   6075   1884   1885 
CL129                            00000084-   6076   1894   1895 
CL13                             0000000c-   5960    906    907 
CL130                            00000085-   6077   1904   1905 
CL131                            00000086-   6078   1914   1915 
CL132                            00000087-   6079   1922   1923 
CL133                            00000088-   6080   1930   1931 
CL134                            00000089-   6081   1932   1933 
CL135                            0000008a-   6082   1939   1940 
CL136                            0000008b-   6083   1947   1948 
CL137                            0000008c-   6084   1949   1950   1957 
CL138                            0000008d-   6085   1975   1977 
CL139                            0000008e-   6086   1986   1987 
CL14                             0000000d-   5961    914    915 
CL140                            0000008f-   6087   2014   2016 
CL141                            00000090-   6088   2025   2028 
CL142                            00000091-   6089   2037   2040 
CL143                            00000092-   6090   2052   2054 
CL144                            00000093-   6091   2049   2051 
CL145                            00000094-   6092   2069   2070 
CL146                            00000095-   6093   2077   2078 
CL147                            00000096-   6094   2084   2085 
TMS320C3x/4x COFF AssemblerVersion 5.12     Tue Mar 02 13:03:54 2021
Copyright (c) 1987-1999 Texas Instruments Incorporatedasm30.exe -@_8O8.AAB 

G:\workspace\EEA\V615\APP\SOURCE\ASM\main.asm                        PAGE  146

LABEL                            VALUE       DEFN    REF

CL148                            00000097-   6095   2091   2092 
CL149                            00000098-   6096   2098   2099 
CL15                             0000000e-   5962    918    920 
CL150                            00000099-   6097   2105   2106 
CL151                            0000009a-   6098   2112   2113 
CL152                            0000009b-   6099   2119   2120 
CL153                            0000009c-   6100   2126   2127 
CL154                            0000009d-   6101   2133   2134 
CL155                            0000009e-   6102   2140   2141 
CL156                            0000009f-   6103   2148   2149 
CL157                            000000a0-   6104   2156   2157 
CL158                            000000a1-   6105   2164   2165 
CL159                            000000a2-   6106   2172   2173 
CL16                             0000000f-   5963    916    917   2768   2769 
                                                    2846   2847   2925   2926 
                                                    3004   3005   3083   3084 
                                                    3161   3162   3240   3241 
                                                    3301   3302   4928   4930 
                                                    4942   4944   4961   4963 
                                                    4978   4981   5024   5026 
                                                    5042   5044   5060   5062 
                                                    5078   5080   5096   5098 
                                                    5114   5116   5725   5728 
CL160                            000000a3-   6107   2180   2181 
CL161                            000000a4-   6108   2188   2189 
CL162                            000000a5-   6109   2196   2197 
CL163                            000000a6-   6110   2204   2205 
CL164                            000000a7-   6111   2211   2212 
CL165                            000000a8-   6112   2219   2220 
CL166                            000000a9-   6113   2229   2230 
CL167                            000000aa-   6114   2239   2240 
CL168                            000000ab-   6115   2249   2250 
CL169                            000000ac-   6116   2259   2260 
CL17                             00000010-   5964    928    929 
CL170                            000000ad-   6117   2269   2270 
CL171                            000000ae-   6118   2279   2280 
CL172                            000000af-   6119   2289   2290 
CL173                            000000b0-   6120   2287   2288   2297   2298 
                                                    2307   2308   2317   2318 
CL174                            000000b1-   6121   2299   2300 
CL175                            000000b2-   6122   2309   2310 
CL176                            000000b3-   6123   2319   2320 
CL177                            000000b4-   6124   2338   2340 
CL178                            000000b5-   6125   2349   2352 
CL179                            000000b6-   6126   2361   2364 
CL18                             00000011-   5965    936    937 
CL180                            000000b7-   6127   2374   2376 
CL181                            000000b8-   6128   2385   2388 
CL182                            000000b9-   6129   2389   2390   2391   2392 
                                                    2403   2404   2405   2406 
                                                    2417   2418   2419   2420 
                                                    2431   2432   2433   2434 
TMS320C3x/4x COFF AssemblerVersion 5.12     Tue Mar 02 13:03:54 2021
Copyright (c) 1987-1999 Texas Instruments Incorporatedasm30.exe -@_8O8.AAB 

G:\workspace\EEA\V615\APP\SOURCE\ASM\main.asm                        PAGE  147

LABEL                            VALUE       DEFN    REF

CL183                            000000bb-   6130   2400   2402 
CL184                            000000bc-   6131   2414   2416 
CL185                            000000bd-   6132   2428   2430 
CL186                            000000be-   6133   2451   2452 
CL187                            000000bf-   6134   2461   2462 
CL188                            000000c0-   6135   2471   2472 
CL189                            000000c1-   6136   2481   2482 
CL19                             00000012-   5966    957    959    992    993 
CL190                            000000c2-   6137   2491   2492 
CL191                            000000c3-   6138   2501   2502 
CL192                            000000c4-   6139   2509   2510 
CL193                            000000c5-   6140   2517   2518 
CL194                            000000c6-   6141   2525   2526 
CL195                            000000c7-   6142   2533   2534 
CL196                            000000c8-   6143   2541   2542 
CL197                            000000c9-   6144   2549   2550 
CL198                            000000ca-   6145   2557   2558 
CL199                            000000cb-   6146   2565   2566 
CL2                              00000001-   5949    800    801   4786   4787 
                                                    4797   4798   5623   5624 
CL20                             00000013-   5967    965    967 
CL200                            000000cc-   6147   2573   2574 
CL201                            000000cd-   6148   2581   2582 
CL202                            000000ce-   6149   2589   2590 
CL203                            000000cf-   6150   2597   2598 
CL204                            000000d0-   6151   2604   2605 
CL205                            000000d1-   6152   2611   2612 
CL206                            000000d2-   6153   2618   2619 
CL207                            000000d3-   6154   2625   2626 
CL208                            000000d4-   6155   2632   2633 
CL209                            000000d5-   6156   2639   2640 
CL21                             00000014-   5968    983    984 
CL210                            000000d6-   6157   2647   2648 
CL211                            000000d7-   6158   2668   2670 
CL212                            000000d8-   6159   2676   2677 
CL213                            000000d9-   6160   2684   2685 
CL214                            000000da-   6161   2711   2713 
CL215                            000000db-   6162   2720   2722 
CL216                            000000dc-   6163   2730   2732 
CL217                            000000dd-   6164   2743   2746   2792   2794 
CL218                            000000de-   6165   2747   2749   2824   2827 
                                                    2901   2902   2980   2981 
                                                    3060   3062   3138   3139 
                                                    3219   3221   3277   3278 
CL219                            000000df-   6166   2765   2767 
CL22                             00000015-   5969   1000   1001 
CL220                            000000e0-   6167   2760   2762 
CL221                            000000e1-   6168   2779   2782 
CL222                            000000e2-   6169   2807   2808 
CL223                            000000e3-   6170   2810   2812   2888   2890 
                                                    2967   2969   3046   3048 
                                                    3125   3127   3343   3345 
TMS320C3x/4x COFF AssemblerVersion 5.12     Tue Mar 02 13:03:54 2021
Copyright (c) 1987-1999 Texas Instruments Incorporatedasm30.exe -@_8O8.AAB 

G:\workspace\EEA\V615\APP\SOURCE\ASM\main.asm                        PAGE  148

LABEL                            VALUE       DEFN    REF

CL224                            000000e4-   6171   2821   2823   2869   2872 
CL225                            000000e5-   6172   2843   2845 
CL226                            000000e6-   6173   2836   2837 
CL227                            000000e7-   6174   2858   2860 
CL228                            000000e8-   6175   2885   2887 
CL229                            000000e9-   6176   2898   2900   2949   2951 
CL23                             00000016-   5970   1002   1003 
CL230                            000000ea-   6177   2903   2905   2982   2986 
                                                    3281   3283 
CL231                            000000eb-   6178   2922   2924 
CL232                            000000ec-   6179   2915   2918 
CL233                            000000ed-   6180   2934   2936 
CL234                            000000ee-   6181   2964   2965 
CL235                            000000ef-   6182   2976   2979   3028   3030 
CL236                            000000f0-   6183   2999   3003 
CL237                            000000f1-   6184   2995   2997 
CL238                            000000f2-   6185   3013   3016 
CL239                            000000f3-   6186   3043   3045 
CL24                             00000017-   5971   1009   1010 
CL240                            000000f4-   6187   3057   3059   3107   3109 
CL241                            000000f5-   6188   3063   3065 
CL242                            000000f6-   6189   3079   3082 
CL243                            000000f7-   6190   3073   3077 
CL244                            000000f8-   6191   3094   3097 
CL245                            000000f9-   6192   3110   3111   3112   3113 
                                                    3188   3189   3190   3192 
CL246                            000000fb-   6193   3122   3124 
CL247                            000000fc-   6194   3135   3137   3185   3187 
CL248                            000000fd-   6195   3153   3160 
CL249                            000000fe-   6196   3151   3152 
CL25                             00000018-   5972   1011   1012 
CL250                            000000ff-   6197   3173   3175 
CL251                            00000100-   6198   3201   3202 
CL252                            00000101-   6199   3204   3206   3264   3266 
CL253                            00000102-   6200   3215   3217 
CL254                            00000103-   6201   3237   3239 
CL255                            00000104-   6202   3232   3234 
CL256                            00000105-   6203   3250   3254 
CL257                            00000106-   6204   3261   3262 
CL258                            00000107-   6205   3274   3276   3325   3327 
CL259                            00000108-   6206   3297   3300 
CL26                             00000019-   5973   1020   1021 
CL260                            00000109-   6207   3291   3295 
CL261                            0000010a-   6208   3310   3313 
CL262                            0000010b-   6209   3340   3342 
CL263                            0000010c-   6210   3352   3354 
CL264                            0000010d-   6211   3361   3363 
CL265                            0000010e-   6212   3364   3366   3877   3879 
CL266                            0000010f-   6213   3373   3375 
CL267                            00000110-   6214   3383   3385 
CL268                            00000111-   6215   3393   3395 
TMS320C3x/4x COFF AssemblerVersion 5.12     Tue Mar 02 13:03:54 2021
Copyright (c) 1987-1999 Texas Instruments Incorporatedasm30.exe -@_8O8.AAB 

G:\workspace\EEA\V615\APP\SOURCE\ASM\main.asm                        PAGE  149

LABEL                            VALUE       DEFN    REF

CL269                            00000112-   6216   3403   3405 
CL27                             0000001a-   5974   1018   1019 
CL270                            00000113-   6217   3413   3415 
CL271                            00000114-   6218   3423   3425 
CL272                            00000115-   6219   3433   3435 
CL273                            00000116-   6220   3443   3445 
CL274                            00000117-   6221   3453   3455 
CL275                            00000118-   6222   3462   3464 
CL276                            00000119-   6223   3472   3475 
CL277                            0000011a-   6224   3483   3485 
CL278                            0000011b-   6225   3493   3495 
CL279                            0000011c-   6226   3502   3504 
CL28                             0000001b-   5975   1030   1031 
CL280                            0000011d-   6227   3513   3515 
CL281                            0000011e-   6228   3522   3524 
CL282                            0000011f-   6229   3532   3533 
CL283                            00000120-   6230   3543   3545 
CL284                            00000121-   6231   3553   3556 
CL285                            00000122-   6232   3563   3565 
CL286                            00000123-   6233   3573   3575 
CL287                            00000124-   6234   3582   3584 
CL288                            00000125-   6235   3590   3592 
CL289                            00000126-   6236   3608   3609 
CL29                             0000001c-   5976   1028   1029 
CL290                            00000127-   6237   3610   3611 
CL291                            00000128-   6238   3617   3618 
CL292                            00000129-   6239   3619   3620 
CL293                            0000012a-   6240   3626   3627 
CL294                            0000012b-   6241   3628   3629 
CL295                            0000012c-   6242   3635   3636 
CL296                            0000012d-   6243   3637   3638 
CL297                            0000012e-   6244   3645   3646 
CL298                            0000012f-   6245   3653   3654 
CL299                            00000130-   6246   3660   3661 
CL3                              00000002-   5950    811    812 
CL30                             0000001d-   5977   1039   1040 
CL300                            00000131-   6247   3667   3668 
CL301                            00000132-   6248   3684   3686 
CL302                            00000133-   6249   3693   3695 
CL303                            00000134-   6250   3703   3705 
CL304                            00000135-   6251   3713   3715 
CL305                            00000136-   6252   3723   3725 
CL306                            00000137-   6253   3734   3736 
CL307                            00000138-   6254   3743   3745 
CL308                            00000139-   6255   3753   3754 
CL309                            0000013a-   6256   3764   3766 
CL31                             0000001e-   5978   1047   1048 
CL310                            0000013b-   6257   3774   3776 
CL311                            0000013c-   6258   3783   3785 
CL312                            0000013d-   6259   3794   3796 
CL313                            0000013e-   6260   3803   3805 
TMS320C3x/4x COFF AssemblerVersion 5.12     Tue Mar 02 13:03:54 2021
Copyright (c) 1987-1999 Texas Instruments Incorporatedasm30.exe -@_8O8.AAB 

G:\workspace\EEA\V615\APP\SOURCE\ASM\main.asm                        PAGE  150

LABEL                            VALUE       DEFN    REF

CL314                            0000013f-   6261   3813   3815 
CL315                            00000140-   6262   3824   3826 
CL316                            00000141-   6263   3835   3837 
CL317                            00000142-   6264   3845   3847 
CL318                            00000143-   6265   3855   3857 
CL319                            00000144-   6266   3864   3866 
CL32                             0000001f-   5979   1055   1056 
CL320                            00000145-   6267   3874   3876 
CL321                            00000146-   6268   3886   3888 
CL322                            00000147-   6269   3897   3899 
CL323                            00000148-   6270   3906   3908 
CL324                            00000149-   6271   3919   3921 
CL325                            0000014a-   6272   3932   3933 
CL326                            0000014b-   6273   3938   3939 
CL327                            0000014c-   6274   3945   3947 
CL328                            0000014d-   6275   3958   3960 
CL329                            0000014e-   6276   3971   3973 
CL33                             00000020-   5980   1062   1063 
CL330                            0000014f-   6277   3983   3985 
CL331                            00000150-   6278   3996   3998 
CL332                            00000151-   6279   4004   4006 
CL333                            00000152-   6280   4017   4019 
CL334                            00000153-   6281   4030   4032 
CL335                            00000154-   6282   4042   4044 
CL336                            00000155-   6283   4055   4057 
CL337                            00000156-   6284   4066   4069 
CL338                            00000157-   6285   4078   4081 
CL339                            00000158-   6286   4091   4093 
CL34                             00000021-   5981   1069   1070 
CL340                            00000159-   6287   4102   4105 
CL341                            0000015a-   6288   4115   4117 
CL342                            0000015b-   6289   4126   4129 
CL343                            0000015c-   6290   4138   4141 
CL344                            0000015d-   6291   4151   4153 
CL345                            0000015e-   6292   4162   4165 
CL346                            0000015f-   6293   4176   4178 
CL347                            00000160-   6294   4202   4204 
CL348                            00000161-   6295   4190   4192   4214   4215 
                                                    4226   4228 
CL349                            00000162-   6296   4194   4196   4218   4220 
                                                    4249   4251   4271   4273 
CL35                             00000022-   5982   1078   1079 
CL350                            00000163-   6297   4232   4234 
CL351                            00000164-   6298   4257   4259 
CL352                            00000165-   6299   4245   4247   4268   4269 
                                                    4282   4283 
CL353                            00000166-   6300   4285   4288 
CL354                            00000167-   6301   4304   4305 
CL355                            00000168-   6302   4312   4313 
CL356                            00000169-   6303   4320   4321 
CL357                            0000016a-   6304   4328   4329 
TMS320C3x/4x COFF AssemblerVersion 5.12     Tue Mar 02 13:03:54 2021
Copyright (c) 1987-1999 Texas Instruments Incorporatedasm30.exe -@_8O8.AAB 

G:\workspace\EEA\V615\APP\SOURCE\ASM\main.asm                        PAGE  151

LABEL                            VALUE       DEFN    REF

CL358                            0000016b-   6305   4336   4337 
CL359                            0000016c-   6306   4344   4345 
CL36                             00000023-   5983   1085   1086 
CL360                            0000016d-   6307   4352   4353 
CL361                            0000016e-   6308   4359   4360 
CL362                            0000016f-   6309   4366   4367 
CL363                            00000170-   6310   4373   4374 
CL364                            00000171-   6311   4381   4382 
CL365                            00000172-   6312   4388   4389 
CL366                            00000173-   6313   4395   4396 
CL367                            00000174-   6314   4402   4403 
CL368                            00000175-   6315   4409   4410 
CL369                            00000176-   6316   4426   4428 
CL37                             00000024-   5984   1087   1088 
CL370                            00000177-   6317   4444   4445 
CL371                            00000178-   6318   4442   4443 
CL372                            00000179-   6319   4528   4530   4537   4577 
                                                    4578   4892   4893   4902 
CL373                            0000017a-   6320   4526   4527 
CL374                            0000017b-   6321   4547   4548   4558   4559 
                                                    4567   4568   5586   5587 
CL375                            0000017c-   6322   4588   4589   4601   4602 
                                                    4613   4614 
CL376                            0000017d-   6323   4590   4591   4615   4616 
CL377                            0000017e-   6324   4603   4604 
CL378                            0000017f-   6325   4624   4625 
CL379                            00000180-   6326   4634   4635   4674   4675 
                                                    5366   5367 
CL38                             00000025-   5985   1095   1096 
CL380                            00000181-   6327   4654   4655   5657   5658 
CL381                            00000182-   6328   4714   4715 
CL382                            00000183-   6329   4721   4722 
CL383                            00000184-   6330   4756   4757 
CL384                            00000185-   6331   4763   4764 
CL385                            00000186-   6332   4774   4776 
CL386                            00000187-   6333   4828   4829 
CL387                            00000188-   6334   4830   4831 
CL388                            00000189-   6335   4837   4838 
CL389                            0000018a-   6336   4867   4869   4926   4927 
CL39                             00000026-   5986   1104   1105 
CL390                            0000018b-   6337   4910   4911 
CL391                            0000018c-   6338   4924   4925 
CL392                            0000018d-   6339   4940   4941   5022   5023 
                                                    5040   5041   5058   5059 
                                                    5076   5077   5094   5095 
                                                    5112   5113 
CL393                            0000018e-   6340   4938   4939 
CL394                            0000018f-   6341   4957   4959 
CL395                            00000190-   6342   4953   4954 
CL396                            00000191-   6343   4974   4976 
CL397                            00000192-   6344   4972   4973 
TMS320C3x/4x COFF AssemblerVersion 5.12     Tue Mar 02 13:03:54 2021
Copyright (c) 1987-1999 Texas Instruments Incorporatedasm30.exe -@_8O8.AAB 

G:\workspace\EEA\V615\APP\SOURCE\ASM\main.asm                        PAGE  152

LABEL                            VALUE       DEFN    REF

CL398                            00000193-   6345   4990   4991   5197   5198 
                                                    5903   5904 
CL399                            00000194-   6346   4998   4999 
CL4                              00000003-   5951    822    823 
CL40                             00000027-   5987   1111   1112 
CL400                            00000195-   6347   5008   5009 
CL401                            00000196-   6348   5020   5021 
CL402                            00000197-   6349   5038   5039 
CL403                            00000198-   6350   5056   5057 
CL404                            00000199-   6351   5074   5075 
CL405                            0000019a-   6352   5092   5093 
CL406                            0000019b-   6353   5110   5111 
CL407                            0000019c-   6354   5205   5206 
CL408                            0000019d-   6355   5213   5214 
CL409                            0000019e-   6356   5215   5217   5224   5226 
CL41                             00000028-   5988   1118   1119 
CL410                            0000019f-   6357   5234   5235 
CL411                            000001a0-   6358   5243   5244 
CL412                            000001a1-   6359   5251   5252 
CL413                            000001a2-   6360   5269   5271 
CL414                            000001a3-   6361   5296   5298 
CL415                            000001a4-   6362   5313   5314 
CL416                            000001a5-   6363   5325   5326   5336   5337 
CL417                            000001a6-   6364   5345   5346 
CL418                            000001a7-   6365   5355   5356 
CL419                            000001a8-   6366   5398   5399 
CL42                             00000029-   5989   1125   1126 
CL420                            000001a9-   6367   5411   5413 
CL421                            000001aa-   6368   5408   5409 
CL422                            000001ab-   6369   5421   5423 
CL423                            000001ac-   6370   5430   5431 
CL424                            000001ad-   6371   5438   5439 
CL425                            000001ae-   6372   5447   5448 
CL426                            000001af-   6373   5455   5456 
CL427                            000001b0-   6374   5465   5467 
CL428                            000001b1-   6375   5475   5476   5513   5514 
CL429                            000001b2-   6376   5483   5484 
CL43                             0000002a-   5990   1133   1134 
CL430                            000001b3-   6377   5493   5494 
CL431                            000001b4-   6378   5502   5503 
CL432                            000001b5-   6379   5515   5517   5553   5554 
CL433                            000001b6-   6380   5519   5521 
CL434                            000001b7-   6381   5534   5535   5569   5570 
CL435                            000001b8-   6382   5538   5539   5540   5542 
CL436                            000001ba-   6383   5596   5598   5606   5608 
CL437                            000001bb-   6384   5615   5616 
CL438                            000001bc-   6385   5633   5634 
CL439                            000001bd-   6386   5723   5724 
CL44                             0000002b-   5991   1140   1141 
CL440                            000001be-   6387   5801   5805 
CL45                             0000002c-   5992   1147   1148 
TMS320C3x/4x COFF AssemblerVersion 5.12     Tue Mar 02 13:03:54 2021
Copyright (c) 1987-1999 Texas Instruments Incorporatedasm30.exe -@_8O8.AAB 

G:\workspace\EEA\V615\APP\SOURCE\ASM\main.asm                        PAGE  153

LABEL                            VALUE       DEFN    REF

CL46                             0000002d-   5993   1155   1156 
CL47                             0000002e-   5994   1162   1163 
CL48                             0000002f-   5995   1169   1170 
CL49                             00000030-   5996   1176   1177 
CL5                              00000004-   5952    834    835   4516   4517 
                                                    5388   5389   5644   5645 
                                                    5893   5894 
CL50                             00000031-   5997   1183   1184 
CL51                             00000032-   5998   1190   1191 
CL52                             00000033-   5999   1197   1198 
CL53                             00000034-   6000   1204   1205 
CL54                             00000035-   6001   1211   1212 
CL55                             00000036-   6002   1218   1219 
CL56                             00000037-   6003   1225   1226 
CL57                             00000038-   6004   1232   1233 
CL58                             00000039-   6005   1239   1240 
CL59                             0000003a-   6006   1246   1247 
CL6                              00000005-   5953    852    853 
CL60                             0000003b-   6007   1253   1254 
CL61                             0000003c-   6008   1260   1261 
CL62                             0000003d-   6009   1267   1268 
CL63                             0000003e-   6010   1274   1275 
CL64                             0000003f-   6011   1281   1282 
CL65                             00000040-   6012   1288   1289 
CL66                             00000041-   6013   1296   1297   1305   1307 
CL67                             00000042-   6014   1302   1304   1319   1322 
                                                    1339   1341   1363   1366 
                                                    1586   1587   1856   1857 
                                                    2789   2790   2867   2868 
                                                    2946   2947   3025   3027 
                                                    3104   3106   3182   3184 
                                                    3322   3324   5522   5524 
                                                    5536   5537   5555   5556 
                                                    5571   5572 
CL68                             00000043-   6015   1315   1316   1323   1325 
CL69                             00000044-   6016   1334   1335   1342   1344 
CL7                              00000006-   5954    860    861 
CL70                             00000045-   6017   1359   1360   1367   1369 
CL71                             00000046-   6018   1377   1378 
CL72                             00000047-   6019   1385   1386 
CL73                             00000048-   6020   1387   1388   1389   1390 
CL74                             0000004a-   6021   1397   1398   1428   1429 
                                                    4808   4809 
CL75                             0000004b-   6022   1408   1409   1419   1420 
CL76                             0000004c-   6023   1439   1440   1450   1451 
CL77                             0000004d-   6024   1459   1460 
CL78                             0000004e-   6025   1467   1468 
CL79                             0000004f-   6026   1474   1475 
CL8                              00000007-   5955    867    868 
TMS320C3x/4x COFF AssemblerVersion 5.12     Tue Mar 02 13:03:54 2021
Copyright (c) 1987-1999 Texas Instruments Incorporatedasm30.exe -@_8O8.AAB 

G:\workspace\EEA\V615\APP\SOURCE\ASM\main.asm                        PAGE  154

LABEL                            VALUE       DEFN    REF

CL80                             00000050-   6027   1476   1477   1478   1479 
                                                    1488   1489   1490   1491 
                                                    1818   1819   1820   1821 
                                                    1838   1839   1840   1841 
                                                    2795   2796   2797   2799 
                                                    2873   2874   2875   2877 
                                                    2952   2953   2954   2955 
                                                    3031   3032   3033   3035 
                                                    3328   3329   3330   3332 
                                                    5557   5558   5559   5561 
                                                    5573   5574   5575   5577 
CL81                             00000052-   6028   1486   1487 
CL82                             00000053-   6029   1498   1499 
CL83                             00000054-   6030   1506   1507 
CL84                             00000055-   6031   1513   1514 
CL85                             00000056-   6032   1520   1521 
CL86                             00000057-   6033   1527   1528 
CL87                             00000058-   6034   1535   1536 
CL88                             00000059-   6035   1554   1556 
CL89                             0000005a-   6036   1570   1571 
CL9                              00000008-   5956    875    876 
CL90                             0000005b-   6037   1579   1580 
CL91                             0000005c-   6038   1593   1595 
CL92                             0000005d-   6039   1588   1589   1590   1592 
CL93                             0000005f-   6040   1602   1603   1610 
CL94                             00000060-   6041   1611   1612 
CL95                             00000061-   6042   1620   1621 
CL96                             00000062-   6043   1628   1629 
CL97                             00000063-   6044   1635   1636 
CL98                             00000064-   6045   1643   1644 
CL99                             00000065-   6046   1650   1651   5171   5172 
FP                               0000000b       7 
L10                              00000053+    951    975 
L101                             000009ec+   5470   5459 
L103                             00000a1b+   5548   5506 
L104                             00000a31+   5581   5546 
L106                             00000a3a+   5601   5590 
L108                             00000a49+   5637   5627 
L11                              00000062+    977    949 
L112                             0000001a'   5748   5845 
L116                             00000049'   5847   5746   5767   5791   5815 
L120                             00000002+   5886   5914 
L13                              0000013a+   1414   1401 
L14                              0000013e+   1423   1412 
L16                              00000148+   1445   1432 
L17                              0000014c+   1454   1443 
L18                              0000017d+   1549   1563 
L19                              00000186+   1565   1547 
L21                              000001ba+   1666   1655 
L23                              00000256+   1969   1996 
L24                              00000266+   1998   1967 
TMS320C3x/4x COFF AssemblerVersion 5.12     Tue Mar 02 13:03:54 2021
Copyright (c) 1987-1999 Texas Instruments Incorporatedasm30.exe -@_8O8.AAB 

G:\workspace\EEA\V615\APP\SOURCE\ASM\main.asm                        PAGE  155

LABEL                            VALUE       DEFN    REF

L25                              0000026a+   2008   2062 
L26                              0000028c+   2064   2006 
L27                              0000030c+   2332   2442 
L28                              00000355+   2444   2330 
L29                              000003bf+   2663   2693 
L30                              000003d0+   2695   2661 
L31                              000003d4+   2705   3601 
L34                              00000625+   3603   2703 
L35                              00000649+   3678   4297 
L37                              000006d7+   3913   3903 
L38                              000006de+   3926   3911 
L41                              000006ef+   3952   3936   3942 
L42                              000006f6+   3965   3950 
L44                              00000704+   3990   3976 
L46                              00000712+   4011   4001 
L47                              00000719+   4024   4009 
L49                              00000727+   4049   4035 
L51                              000007cb+   4299   3676 
L52                              00000802+   4421   4435 
L53                              0000080b+   4437   4419 
L58                              00000831+   4553   4540 
L59                              00000835+   4562   4551 
L6                               00000011+    817    804 
L62                              00000845+   4595   4581 
L63                              0000084b+   4608   4571 
L64                              00000850+   4618   4593   4606 
L65                              00000888+   4733   4749 
L66                              00000893+   4751   4731 
L69                              000008a7+   4792   4772   4779 
L7                               00000015+    827    815 
L70                              000008ab+   4801   4790 
L71                              000008c5+   4850   4885 
L72                              000008ca+   4861   4877 
L73                              000008d5+   4879   4859 
L74                              000008da+   4887   4848 
L75                              0000091f+   5014   5175 
L76                              00000929+   5032   5184 
L77                              00000933+   5050   5187 
L78                              0000093d+   5068   5178 
L79                              00000947+   5086   5190 
L80                              00000951+   5104   5181 
L82                              0000095b+   5169   5012 
L88                              0000096a+   5192   5030   5048   5066   5084 
                                                    5102   5120 
L89                              00000989+   5264   5279 
L9                               0000003d+    909    846 
L90                              00000992+   5281   5262 
L91                              00000996+   5291   5306 
L92                              0000099f+   5308   5289 
L94                              000009aa+   5331   5318 
L95                              000009ae+   5340   5329 
TMS320C3x/4x COFF AssemblerVersion 5.12     Tue Mar 02 13:03:54 2021
Copyright (c) 1987-1999 Texas Instruments Incorporatedasm30.exe -@_8O8.AAB 

G:\workspace\EEA\V615\APP\SOURCE\ASM\main.asm                        PAGE  156

LABEL                            VALUE       DEFN    REF

L97                              000009b6+   5359   5349 
L99                              000009d4+   5416   5402 
SL1                              00000000+   5924   6405 
SL10                             0000008c+   5933   6788 
SL11                             000000a1+   5934   6790 
SL12                             000000b6+   5935   6792 
SL13                             000000ce+   5936   6794 
SL14                             000000e6+   5937   6798 
SL15                             000000fb+   5938   6799 
SL16                             00000110+   5939   6800 
SL17                             00000125+   5940   6801 
SL18                             0000013a+   5941   6802 
SL19                             0000014f+   5942   6803 
SL2                              00000001+   5925   6616 
SL20                             00000164+   5943   6837 
SL3                              00000013+   5926   6622 
SL4                              00000028+   5927   6628 
SL5                              00000039+   5928   6633 
SL6                              0000004a+   5929   6639 
SL7                              00000054+   5930   6646 
SL8                              00000062+   5931   6652 
SL9                              00000077+   5932   6657 
_AI                              REF                6535   6536   6537   6538 
                                                    6895 
_ALFAT_APPEND_LF                 REF                6764   7285 
_ALFAT_INIT_ALL                  REF                6763   7281 
_ALFAT_RX                        REF                6766   7277 
_ALFAT_STATUS_REG                REF                6762   7283 
_ALYESKA                         REF                6751   6752   6753   6754 
                                                    6755   6756   6757   6758 
                                                    6759   6760   6761   7273 
_ANALYZER_MODE                   REF                6493   7095 
_AO                              REF                6533   6905 
_AVG_TEMP                        REF                6474   7175 
_CALC_WC_DENSITY                 REF                6723   7269 
_CAP_OIL_STOP                    REF                6498   7233 
_CAP_WATER_STOP                  REF                6497   7231 
_CCM_24_GAS                      REF                6550   7083 
_CCM_24_OIL                      REF                6552   7085 
_CCM_24_TOTAL                    REF                6551   7089 
_CCM_24_WATER                    REF                6553   7087 
_CCM_ELAPSED_S                   REF                6556   7081 
_CCM_GAS_FLOW                    REF                6561   7093 
_CCM_GAS_TOTAL                   REF                6562   7091 
_CCM_REMAINING                   REF                6554   7077 
_CCM_REMAINING_S                 REF                6555   7079 
_CCM_TIME_ELAPSED                REF                6571   7071 
_CCM_TIME_REMAINING              REF                6570   7069 
_CCM_TIME_START                  REF                6567   7065 
_CCM_TIME_STOP                   REF                6569   7067 
_CCM_VESSEL_LEVEL                REF                6563   6564   7073 
TMS320C3x/4x COFF AssemblerVersion 5.12     Tue Mar 02 13:03:54 2021
Copyright (c) 1987-1999 Texas Instruments Incorporatedasm30.exe -@_8O8.AAB 

G:\workspace\EEA\V615\APP\SOURCE\ASM\main.asm                        PAGE  157

LABEL                            VALUE       DEFN    REF

_CCM_VESSEL_PRESSURE             REF                6565   6566   7075 
_CHANGE                          REF                6403   7001 
_CLEAR_TIME                      REF                6568   6865 
_CLOCK                           REF                6783   6923 
_COR                             REF                6610   6611   6612   6613 
                                                    6615   6617   6618   6620 
                                                    6621   6623   6624   6625 
                                                    6627   6629   6630   6631 
                                                    6632   6634   6635   6636 
                                                    6638   6640   6643   6644 
                                                    6645   6647   6648   6650 
                                                    6651   6653   6654   6655 
                                                    6656   6658   6659   6660 
                                                    6661   6663   6664   6665 
                                                    6666   6667   6668   6669 
                                                    6670   6671   6672   6673 
                                                    6674   6675   6676   6677 
                                                    6678   6679   6680   6681 
                                                    6682   6683   6684   6685 
                                                    6686   6688   6690   6692 
                                                    6694   6695   6696   6697 
                                                    7261 
_CORIOLIS_CFG                    REF                6619   7321 
_CORIOLIS_INT_CFG                REF                6649   7323 
_CORIOLIS_ZERO1                  REF                6687   7313 
_CORIOLIS_ZERO2                  REF                6689   7315 
_CORIOLIS_ZERO3                  REF                6691   7317 
_CORIOLIS_ZERO4                  REF                6693   7319 
_Clear                           REF                6500   6859 
_Clear_Accumulators              REF                6824   7301 
_DATA_CHANGE                     REF                6404   6979 
_DB_IP_RP_O                      REF                6592   7031 
_DB_IP_RP_W                      REF                6597   7041 
_DEMO                            REF                6823   7097 
_DEMO_ANALYZER_MODE              REF                6767   7099 
_DEMO_Init                       REF                6768   6917 
_DIAGNOSTICS                     REF                6399   6400   6877 
_DIAGNOSTICS_ERROR_CODE          REF                6402   6881 
_DIAGNOSTICS_MSG_CODE            REF                6401   6879 
_DIAG_TEMP                       REF                6397   6398   6875 
_DIO_ALARM                       REF                6437   6887 
_DIO_ANALOGIO_GET                REF                6453   6953 
_DIO_ANALOGIO_SET                REF                6454   6955 
_DIO_ANALYZER_GET                REF                6451   6945 
_DIO_ANALYZER_SET                REF                6452   6947 
_DIO_BEEP                        REF                6440   6965 
_DIO_BUILT_IN_TEST               REF                6439   7115 
_DIO_BUILT_IN_TEST_ENABLE        REF                6814   7113 
_DIO_CCM_PURGE_STAT              REF                6558   7123 
_DIO_CCM_START                   REF                6557   7119 
_DIO_COMM_GET                    REF                6443   6941 
TMS320C3x/4x COFF AssemblerVersion 5.12     Tue Mar 02 13:03:54 2021
Copyright (c) 1987-1999 Texas Instruments Incorporatedasm30.exe -@_8O8.AAB 

G:\workspace\EEA\V615\APP\SOURCE\ASM\main.asm                        PAGE  158

LABEL                            VALUE       DEFN    REF

_DIO_COMM_SET                    REF                6444   6943 
_DIO_DISPLAY_GET                 REF                6447   6957 
_DIO_DISPLAY_SET                 REF                6448   6959 
_DIO_ERROR                       REF                6436   6885 
_DIO_LOCK                        REF                6422   6423   6424   7255 
_DIO_MOTHERBOARD_GET             REF                6449   6961 
_DIO_MOTHERBOARD_SET             REF                6450   6963 
_DIO_POWER_GET                   REF                6445   6949 
_DIO_POWER_SET                   REF                6446   6951 
_DIO_PV_PERCMASS                 REF                6455   6967 
_DIO_SYSTEM_RESET                REF                6438   7111 
_DIO_TEMP_C                      REF                6813   7117 
_DIO_uP_GET                      REF                6441   6937 
_DIO_uP_SET                      REF                6442   6939 
_DIPSWITCH                       REF                6467   6468   6997 
_DUMMY                           REF                6429   6999 
_Debug                           00000000'    734    721    722    722   6836 
_Disable_Heater                  REF                6820   7291 
_ESN_MFGR                        REF                6417   6933 
_ESN_USER                        REF                6419   6931 
_EXTENDED_FW_VERSION_ENABLE      REF                6462   6463   7219 
_EXTUNE                          REF                6828   6983 
_E_STRING                        REF                6406   6883 
_Execute                         REF                5911   7326 
_Execute_Init                    REF                6408   6907 
_FC                              REF                6713   6714   6715   6716 
                                                    6717   6718   6719   6720 
                                                    6721   6724   6725   6726 
                                                    6727   6728   6729   6730 
                                                    6731   6732   6733   6734 
                                                    6735   6736   6737   6738 
                                                    6739   6740   6741   6742 
                                                    6743   6744   6745   6747 
                                                    6748   6749   6750   7271 
_FLASH_READ_ESN_MFGR             REF                6418   6911 
_FLASH_READ_ESN_USER             REF                6420   6913 
_FREQ_O                          REF                6588   7023 
_FREQ_W                          REF                6593   7033 
_GAS_ENTRAINED_DENS_DETECT       REF                6490   7221 
_HSALT_FREQ_TRIGGER              REF                6483   7209 
_HSALT_TEMP_TRIGGER              REF                6489   7217 
_HW_VER                          REF                6769   7043 
_IDEC_PORT                       REF                6409   7005 
_IDEC_SA                         REF                6410   6411   6412   6413 
                                                    6415   7003 
_INITIALIZING                    REF                6777   6993 
_INT0                            REF                6778   7325 
_IP_O                            REF                6589   7025 
_IP_RP_O                         REF                6591   7029 
_IP_RP_W                         REF                6596   7039 
_IP_W                            REF                6594   7035 
TMS320C3x/4x COFF AssemblerVersion 5.12     Tue Mar 02 13:03:54 2021
Copyright (c) 1987-1999 Texas Instruments Incorporatedasm30.exe -@_8O8.AAB 

G:\workspace\EEA\V615\APP\SOURCE\ASM\main.asm                        PAGE  159

LABEL                            VALUE       DEFN    REF

_InitLog                         REF                6392   6915 
_Initialize_Hardware             00000814+   4475   4461   4462   4462 
_Initialize_Periodic_Events      REF                6808   7289 
_Initialize_Variables            00000000+    768    754    755    755   6797 
_LAST_TEMP_RESET                 REF                6488   7215 
_LCD_DISPLAY                     REF                6786   6789   6791   6793 
                                                    6871 
_LCD_INIT                        REF                6785   6873 
_LCD_PAGE                        REF                6795   6869 
_LED_GREEN                       REF                6456   6925 
_LOCKOUT                         REF                6421   7257 
_LOG_STATUS                      REF                6816   7279 
_MEM                             REF                6393   6995 
_MENU_INIT                       REF                6796   6921 
_MM_GAS_fail                     REF                6434   7203 
_MM_LIQ_fail                     REF                6433   7201 
_Make_Russian_Line               00000006'   5692   5679   5680   5680 
_Mirror_From_Stream_Table        REF                6511   7311 
_N_FREQ                          REF                6482   7207 
_N_TEMP                          REF                6470   7179 
_N_WC                            REF                6479   7189 
_NaN_val_flt                     REF                6539   7109 
_OSWITCH                         REF                6826   6927 
_PID_Init                        REF                6534   6903 
_PORT                            REF                6765   6889 
_PORT2_GAS_TEMP                  REF                6431   7197 
_PORT2_LIQ_TEMP                  REF                6430   7195 
_PORT3_TEMP                      REF                6432   7199 
_PRESS                           REF                6698   6699   6700   6701 
                                                    6702   6703   6704   6705 
                                                    6706   7263 
_PV_SAMPLES                      REF                6499   6503   6985 
_PV_SAMPLES_24hr                 REF                6501   6505   6987 
_PV_SAMPLES_5min                 REF                6502   6507   6989 
_Port_Defaults                   REF                6819   6893 
_REG_CAL_OIL                     REF                6514   6515   7251 
_REG_CAL_WATER                   REF                6516   6517   7253 
_REG_CCM_PURGE_STAT              REF                6560   7125 
_REG_CCM_TEST_STAT               REF                6559   7121 
_REG_DAC                         REF                6829   6831   7259 
_REG_DUMMY                       REF                6526   7127 
_REG_EMULSION_PHASE              REF                6518   7249 
_REG_FREQ                        REF                6574   7161 
_REG_FREQ_O                      REF                6584   7163 
_REG_FREQ_OIL_HI                 REF                6459   7239 
_REG_FREQ_OIL_LO                 REF                6457   7237 
_REG_FREQ_VARIANCE_RATIO         REF                6484   7211 
_REG_FREQ_W                      REF                6587   7169 
_REG_FREQ_WATER_HI               REF                6461   7243 
_REG_FREQ_WATER_LO               REF                6460   7241 
_REG_PV_AVG_1sec                 REF                6509   7137 
TMS320C3x/4x COFF AssemblerVersion 5.12     Tue Mar 02 13:03:54 2021
Copyright (c) 1987-1999 Texas Instruments Incorporatedasm30.exe -@_8O8.AAB 

G:\workspace\EEA\V615\APP\SOURCE\ASM\main.asm                        PAGE  160

LABEL                            VALUE       DEFN    REF

_REG_PV_AVG_24hr                 REF                6506   7133 
_REG_PV_AVG_5min                 REF                6508   7135 
_REG_PV_AVG_CNT                  REF                6510   7139 
_REG_TEMPERATURE_AVG             REF                6524   7157 
_REG_TEMPERATURE_EXTERNAL        REF                6525   6812   7159 
_REG_TEMPERATURE_USER            REF                6523   7155 
_REG_TIME                        REF                6469   7101 
_REG_VINC                        REF                6572   7147 
_REG_VINC_O                      REF                6582   7165 
_REG_VINC_W                      REF                6585   7171 
_REG_VREF                        REF                6573   7151 
_REG_VREF_O                      REF                6583   7167 
_REG_VREF_W                      REF                6586   7173 
_REG_VTUNE                       REF                6575   7247 
_REG_VTUNE_SET                   REF                6830   7245 
_REG_WATERCUT                    REF                6521   7141 
_REG_WATERCUT_DENSITY            REF                6494   7143 
_REG_WATERCUT_RAW                REF                6513   7131 
_RESEARCH_FORCE_MODE             REF                6425   6935 
_RESET_COUNTER                   REF                6821   7105 
_RP_O                            REF                6590   7027 
_RP_W                            REF                6595   7037 
_RTC_setup                       REF                6804   6867 
_Restore_CFG                     REF                6395   7307 
_Rosemount_fail                  REF                6435   7205 
_SA                              REF                6771   6981 
_SAMPLE_PENDING                  REF                6426   7103 
_SN_PIPE                         REF                6427   7107 
_SRAM_SCRATCHPAD                 REF                6772   6909 
_SUM_TEMP                        REF                6471   7177 
_Self_Test_FULL                  REF                6815   6919 
_Set_IDEC_Port                   REF                6416   7293 
_Set_Research_Mode               REF                6835   7309 
_Set_Time                        REF                6414   7295 
_Setup_ADC                       REF                6810   6897 
_Setup_Basics                    REF                6394   7287 
_Setup_DAC                       REF                6811   6899 
_Setup_Serial_Port0              REF                6809   6891 
_Setup_Timer                     REF                6806   6861 
_TEMP_SAMPLE                     REF                6487   7213 
_TMPTRANS                        REF                6707   6708   6709   6710 
                                                    6711   6712   7265 
_TMP_FREQ                        REF                6580   7235 
_TMP_VINC                        REF                6576   7149 
_TMP_VREF                        REF                6579   7153 
_TMP_VTUNE                       REF                6581   7145 
_TMR_ALFAT_LOG                   REF                6817   7303 
_TRIM_RTD_HI                     REF                6496   7229 
_TRIM_RTD_LO                     REF                6495   7227 
_Timer_Insert                    REF                6818   6863 
_USE_PDI_WATERCUT                REF                6722   7267 
TMS320C3x/4x COFF AssemblerVersion 5.12     Tue Mar 02 13:03:54 2021
Copyright (c) 1987-1999 Texas Instruments Incorporatedasm30.exe -@_8O8.AAB 

G:\workspace\EEA\V615\APP\SOURCE\ASM\main.asm                        PAGE  161

LABEL                            VALUE       DEFN    REF

_VAR_DAMP_Init                   REF                6807   6853 
_VAR_Initialize                  REF                6614   6851 
_VAR_NaN                         REF                6522   6855 
_VAR_SELECT_DV                   REF                6530   6531   6969 
_VAR_SELECT_DVIN                 REF                6527   6528   6971 
_VAR_SET_STR_DV                  REF                6532   7297 
_VAR_SET_STR_DVIN                REF                6529   7299 
_VAR_Update                      REF                6458   6857 
_VT_SELECT                       REF                6825   6991 
_WC                              REF                6512   7129 
_WC_SAMPLE                       REF                6481   7191 
_WC_SUM                          REF                6480   7193 
_Write_CFG_USER                  REF                6822   7305 
_Write_DAC                       REF                6834   6901 
_boxcar_reset_needed             REF                6492   7225 
_c_int00                         REF                6780   6929 
_compatibility_dummy             REF                6606   7275 
_cycles                          REF                6475   7181 
_f_LV                            REF                6609   6977 
_floor                           REF                6746   6849 
_gas_routine_reset_needed        REF                6491   7223 
_i_CCM_Flow                      REF                6546   7057 
_i_CCM_Flow_Gas                  REF                6549   7063 
_i_CCM_Flow_Oil                  REF                6547   7059 
_i_CCM_Flow_Water                REF                6548   7061 
_i_CCM_Gas_Valve                 REF                6544   7053 
_i_CCM_Level                     REF                6541   7047 
_i_CCM_Level_Setpoint            REF                6540   7045 
_i_CCM_Liquid_Valve              REF                6545   7055 
_i_CCM_Pressure                  REF                6543   7051 
_i_CCM_Pressure_Setpoint         REF                6542   7049 
_i_FREQ_O                        REF                6598   7007 
_i_FREQ_W                        REF                6601   7013 
_i_IP_O                          REF                6599   7009 
_i_IP_W                          REF                6602   7015 
_i_LV                            REF                6607   6973 
_i_RP_O                          REF                6600   7011 
_i_RP_W                          REF                6603   7017 
_i_TEMP                          REF                6604   7019 
_i_WC                            REF                6605   7021 
_il_LV                           REF                6608   6975 
_main                            00000000+   5878   5865   5866   5866 
_phase                           REF                6477   7185 
_phase_rollover_count            REF                6478   7187 
_previous_phase                  REF                6476   7183 
_sprintf                         REF                6407   6845 
_strtol                          REF                6838   6847 
TMS320C3x/4x COFF AssemblerVersion 5.12     Tue Mar 02 13:03:54 2021
Copyright (c) 1987-1999 Texas Instruments Incorporatedasm30.exe -@_8O8.AAB 

G:\workspace\EEA\V615\APP\SOURCE\ASM\main.asm                        PAGE  162

LABEL                            VALUE       DEFN    REF

fp                               0000000b       6   3724   3733   3744   3755 
                                                    3763   3773   3784   3793 
                                                    3804   3814   3823   3834 
                                                    3844   3854   3865   3875 
                                                    3885   3898   3905   3918 
                                                    3944   3957   3970   3982 
                                                    3995   4003   4016   4029 
                                                    4041   4054   4067   4079 
                                                    4090   4103   4114   4127 
                                                    4139   4150   4163   4175 
                                                    4189   4200   4223   4229 
                                                    4244   4255   4277   4294 
                                                    4295   4416   4427   4432 
                                                    4433   4450   4451   4451 
                                                    4501   4502   4716   4723 
                                                    4729   4738   4739   4740 
                                                    4746   4747   4758   4765 
                                                    4770   4771   4777   4846 
                                                    4856   4866   4870   4874 
                                                    4875   4882   4883   4897 
                                                    4905   4912   4919   4955 
                                                    4958   4975   4979   5260 
                                                    5270   5276   5277   5287 
                                                    5297   5303   5304   5668 
                                                    5669   5669   5707   5708 
                                                    5717   5718   5727   5736 
                                                    5744   5753   5754   5755 
                                                    5763   5777   5778   5779 
                                                    5787   5802   5809   5825 
                                                    5826   5832   5833   5838 
                                                    5842   5843   5854   5855 
                                                    5855   5884   5885 
