TMS320C3x/4x COFF AssemblerVersion 5.12     Thu Sep 02 10:22:21 2021
Copyright (c) 1987-1999 Texas Instruments Incorporatedasm30.exe -@_6UK.AAB 

Y:\workspace\EEA\V615\APP\SOURCE\ASM\selftest.asm                    PAGE    1

        1                   ;******************************************************************************
        2                   ;* TMS320C3x/4x ANSI C Code Generator                            Version 5.11 *
        3                   ;* Date/Time created: Thu Sep  2 10:22:21 2021                                *
        4                   ;******************************************************************************
        5                           .regalias       ; enable floating point register aliases
        6          0000000b fp      .set    ar3
        7          0000000b FP      .set    ar3
        8                   ;******************************************************************************
        9                   ;* GLOBAL FILE PARAMETERS                                                     *
       10                   ;*                                                                            *
       11                   ;*   Optimization       : Always Choose Smaller Code Size                     *
       12                   ;*   Memory             : Big Memory Model                                    *
       13                   ;*   Float-to-Int       : Normal Conversions (round toward zero)              *
       14                   ;*   Multiply           : in Software (32 bits)                               *
       15                   ;*   Memory Info        : Unmapped Memory Exists                              *
       16                   ;*   Repeat Loops       : Use RPTS and/or RPTB                                *
       17                   ;*   Calls              : Normal Library ASM calls                            *
       18                   ;*   Debug Info         : Standard TI Debug Information                       *
       19                   ;******************************************************************************
       20                   ;       C:\tic3x4x\c3x4x\cgtools\bin\ac30.exe -@_6UK.AAA 
       21                           .file   "selftest.c"
       22                           .file   "Y:\workspace\EEA\V615\APP\SOURCE\INCLUDE\GLBLS.H"
       23                           .file   "Y:\workspace\EEA\V615\INCLUDE\stdarg.h"
       24                           .sym    _va_list,0,18,13,32
       25                           .file   "Y:\workspace\EEA\V615\INCLUDE\format.h"
       26                           .stag   .fake0,128
       27                           .member _flags,0,14,8,32
       28                           .member _fwidth,32,4,8,32
       29                           .member _precision,64,4,8,32
       30                           .member _conv,96,2,8,32
       31                           .eos
       32                           .sym    __PFIELD,0,8,13,128,.fake0
       33                           .stag   .fake1,3200
       34                           .member _flags,0,14,8,32
       35                           .member _fwidth,32,4,8,32
       36                           .member _precision,64,4,8,32
       37                           .member _scanset,96,50,8,3072,,96
       38                           .member _conv,3168,2,8,32
       39                           .eos
       40                           .sym    __SFIELD,0,8,13,3200,.fake1
       41                           .file   "Y:\workspace\EEA\V615\INCLUDE\string.h"
       42                           .sym    _size_t,0,14,13,32
       43                           .file   "Y:\workspace\EEA\V615\INCLUDE\stdio.h"
       44                           .stag   .fake2,224
       45                           .member _fd,0,4,8,32
       46                           .member _buf,32,28,8,32
       47                           .member _pos,64,28,8,32
       48                           .member _bufend,96,28,8,32
       49                           .member _buff_stop,128,28,8,32
       50                           .member _flags,160,14,8,32
       51                           .member _index,192,4,8,32
       52                           .eos
       53                           .sym    _FILE,0,8,13,224,.fake2
       54                           .sym    _fpos_t,0,5,13,32
TMS320C3x/4x COFF AssemblerVersion 5.12     Thu Sep 02 10:22:21 2021
Copyright (c) 1987-1999 Texas Instruments Incorporatedasm30.exe -@_6UK.AAB 

Y:\workspace\EEA\V615\APP\SOURCE\ASM\selftest.asm                    PAGE    2

       55                           .stag   .fake3,544
       56                           .member _name,0,50,8,288,,9
       57                           .member _flags,288,13,8,32
       58                           .member _OPEN,320,148,8,32
       59                           .member _CLOSE,352,148,8,32
       60                           .member _READ,384,148,8,32
       61                           .member _WRITE,416,148,8,32
       62                           .member _LSEEK,448,149,8,32
       63                           .member _UNLINK,480,148,8,32
       64                           .member _RENAME,512,148,8,32
       65                           .eos
       66                           .sym    __DEVICE,0,8,13,544,.fake3
       67                           .file   "Y:\workspace\EEA\V615\INCLUDE\stdlib.h"
       68                           .sym    _wchar_t,0,2,13,32
       69                           .stag   __div_t,64
       70                           .member _quot,0,4,8,32
       71                           .member _rem,32,4,8,32
       72                           .eos
       73                           .sym    _div_t,0,8,13,64,__div_t
       74                           .sym    _ldiv_t,0,8,13,64,__div_t
       75                           .file   "Y:\workspace\EEA\V615\INCLUDE\math.h"
       76                           .file   "Y:\workspace\EEA\V615\INCLUDE\time.h"
       77                           .sym    _clock_t,0,15,13,32
       78                           .sym    _time_t,0,15,13,32
       79                           .stag   _tm,288
       80                           .member _tm_sec,0,4,8,32
       81                           .member _tm_min,32,4,8,32
       82                           .member _tm_hour,64,4,8,32
       83                           .member _tm_mday,96,4,8,32
       84                           .member _tm_mon,128,4,8,32
       85                           .member _tm_year,160,4,8,32
       86                           .member _tm_wday,192,4,8,32
       87                           .member _tm_yday,224,4,8,32
       88                           .member _tm_isdst,256,4,8,32
       89                           .eos
       90                           .stag   _tmzone,320
       91                           .member _daylight,0,3,8,32
       92                           .member _timezone,32,5,8,32
       93                           .member _tzname,64,50,8,128,,4
       94                           .member _dstname,192,50,8,128,,4
       95                           .eos
       96                           .file   "Y:\workspace\EEA\V615\INCLUDE\ETC.H"
       97                           .sym    _BOOL,0,14,13,32
       98                           .file   "Y:\workspace\EEA\V615\INCLUDE\LIST.H"
       99                           .stag   .fake4,96
      100                           .member _head,0,20,8,32
      101                           .member _tail,32,20,8,32
      102                           .member _n,64,4,8,32
      103                           .eos
      104                           .sym    _LIST,0,8,13,96,.fake4
      105                           .stag   .fake5,64
      106                           .member _prev,0,20,8,32
      107                           .member _next,32,20,8,32
      108                           .eos
TMS320C3x/4x COFF AssemblerVersion 5.12     Thu Sep 02 10:22:21 2021
Copyright (c) 1987-1999 Texas Instruments Incorporatedasm30.exe -@_6UK.AAB 

Y:\workspace\EEA\V615\APP\SOURCE\ASM\selftest.asm                    PAGE    3

      109                           .sym    _GENERIC,0,8,13,64,.fake5
      110                           .file   "Y:\workspace\EEA\V615\APP\SOURCE\INCLUDE\VARIABLE.H"
      111                           .stag   .fake6,1408
      112                           .member _val,0,6,8,32
      113                           .member _vect1,32,20,8,32
      114                           .member _vect2,64,20,8,32
      115                           .member _STAT,96,4,8,32
      116                           .member _dampening,128,6,8,32
      117                           .member _damp_count,160,4,8,32
      118                           .member _aux,192,4,8,32
      119                           .member _val1,224,6,8,32
      120                           .member _val2,256,6,8,32
      121                           .member _calc_val,288,11,8,64
      122                           .member _base_val,352,11,8,64
      123                           .member _unit,416,4,8,32
      124                           .member _calc_unit,448,4,8,32
      125                           .member _class,480,4,8,32
      126                           .member _scale,512,6,8,32
      127                           .member _scale_long,544,6,8,32
      128                           .member _bound_hi_set,576,6,8,32
      129                           .member _bound_lo_set,608,6,8,32
      130                           .member _alarm_hi_set,640,6,8,32
      131                           .member _alarm_lo_set,672,6,8,32
      132                           .member _name,704,50,8,672,,21
      133                           .member _name_r,1376,4,8,32
      134                           .eos
      135                           .sym    _VAR,0,8,13,1408,.fake6
      136                           .stag   .fake7,96
      137                           .member _val,0,14,8,32
      138                           .member _vect,32,20,8,32
      139                           .member _vect2,64,20,8,32
      140                           .eos
      141                           .sym    _COIL,0,8,13,96,.fake7
      142                           .stag   .fake8,64
      143                           .member _val,0,4,8,32
      144                           .member _vect,32,20,8,32
      145                           .eos
      146                           .sym    _REGVECT,0,8,13,64,.fake8
      147                           .stag   .fake9,96
      148                           .member _prev,0,20,8,32
      149                           .member _next,32,20,8,32
      150                           .member _v,64,24,8,32,.fake6
      151                           .eos
      152                           .sym    _DPKT,0,8,13,96,.fake9
      153                           .file   "Y:\workspace\EEA\V615\APP\SOURCE\INCLUDE\BUFFER.H"
      154                           .stag   .fake10,9824
      155                           .member _head,0,4,8,32
      156                           .member _tail,32,4,8,32
      157                           .member _n,64,4,8,32
      158                           .member _GSEED,96,14,8,32
      159                           .member _CRC16,128,14,8,32
      160                           .member _buff,160,62,8,9600,,300
      161                           .member _sum,9760,4,8,32
      162                           .member _locked,9792,14,8,32
TMS320C3x/4x COFF AssemblerVersion 5.12     Thu Sep 02 10:22:21 2021
Copyright (c) 1987-1999 Texas Instruments Incorporatedasm30.exe -@_6UK.AAB 

Y:\workspace\EEA\V615\APP\SOURCE\ASM\selftest.asm                    PAGE    4

      163                           .eos
      164                           .sym    _BFR,0,8,13,9824,.fake10
      165                           .file   "Y:\workspace\EEA\V615\INCLUDE\UNITS.H"
      166                           .file   "Y:\workspace\EEA\V615\APP\SOURCE\INCLUDE\TIMER.H"
      167                           .stag   .fake11,320
      168                           .member _prev,0,20,8,32
      169                           .member _next,32,20,8,32
      170                           .member _vect,64,20,8,32
      171                           .member _priority,96,4,8,32
      172                           .member _parent,128,20,8,32
      173                           .member _n,160,4,8,32
      174                           .member _prev_n,192,4,8,32
      175                           .member _countdown,224,4,8,32
      176                           .member _preset_time,256,4,8,32
      177                           .member _t,288,6,8,32
      178                           .eos
      179                           .sym    _TPKT,0,8,13,320,.fake11
      180                           .file   "Y:\workspace\EEA\V615\INCLUDE\I2C.H"
      181                           .file   "Y:\workspace\EEA\V615\APP\SOURCE\INCLUDE\ERRORS.H"
      182                           .file   "Y:\workspace\EEA\V615\APP\SOURCE\INCLUDE\SERIAL.H"
      183                           .stag   .fake12,2272
      184                           .member _Slave,0,4,8,32
      185                           .member _SNUM,32,4,8,32
      186                           .member _PRESENT,64,14,8,32
      187                           .member _TX_complete,96,14,8,32
      188                           .member _RX_pending,128,14,8,32
      189                           .member _BUSY,160,14,8,32
      190                           .member _IGNORE_RX,192,14,8,32
      191                           .member _STAT,224,12,8,32
      192                           .member _DAT,256,12,8,32
      193                           .member _broadcast,288,14,8,32
      194                           .member _TMR_Network_WDOG,320,4,8,32
      195                           .member _TMR_EOT_Delay,352,4,8,32
      196                           .member _TMR_Prefix_Delay,384,4,8,32
      197                           .member _TMR_Suffix_Delay,416,4,8,32
      198                           .member _TMR_Char,448,4,8,32
      199                           .member _TMR_Poll,480,8,8,320,.fake11
      200                           .member _TMR_Retry,800,8,8,320,.fake11
      201                           .member _nr,1120,4,8,32
      202                           .member _Received_PKT,1152,14,8,32
      203                           .member _TMR_enabled,1184,14,8,32
      204                           .member _tvector,1216,20,8,32
      205                           .member _pvector,1248,20,8,32
      206                           .member _pvector_main,1280,20,8,32
      207                           .member _tvector_main,1312,20,8,32
      208                           .member _fvector,1344,20,8,32
      209                           .member _actual_baud_rate,1376,6,8,32
      210                           .member _c,1408,14,8,32
      211                           .member _r,1440,14,8,32
      212                           .member _n,1472,4,8,32
      213                           .member _n_exp,1504,4,8,32
      214                           .member _ai,1536,4,8,32
      215                           .member _start,1568,4,8,32
      216                           .member _i,1600,4,8,32
TMS320C3x/4x COFF AssemblerVersion 5.12     Thu Sep 02 10:22:21 2021
Copyright (c) 1987-1999 Texas Instruments Incorporatedasm30.exe -@_6UK.AAB 

Y:\workspace\EEA\V615\APP\SOURCE\ASM\selftest.asm                    PAGE    5

      217                           .member _i_main,1632,4,8,32
      218                           .member _func,1664,14,8,32
      219                           .member _ERROR_COUNT,1696,14,8,32
      220                           .member _WDOG_COUNT,1728,14,8,32
      221                           .member _INV_CMD_COUNT,1760,14,8,32
      222                           .member _INV_PKT_COUNT,1792,14,8,32
      223                           .member _SUCCESS,1824,14,8,32
      224                           .member _NUM_RETRIES,1856,14,8,32
      225                           .member _FLAG1,1888,14,8,32
      226                           .member _FLAG2,1920,14,8,32
      227                           .member _FLAG3,1952,14,8,32
      228                           .member _LONG_ADDRESS,1984,14,8,32
      229                           .member _MASTER,2016,8,8,96,.fake4
      230                           .member _p,2112,20,8,32
      231                           .member _data,2144,14,8,32
      232                           .member _f,2176,22,8,32
      233                           .member _l,2208,30,8,32
      234                           .member _failed,2240,14,8,32
      235                           .eos
      236                           .sym    _PORTV,0,8,13,2272,.fake12
      237                           .stag   .fake13,11488
      238                           .member _PREFIX,0,8,8,1408,.fake6
      239                           .member _SUFFIX,1408,8,8,1408,.fake6
      240                           .member _NETWDOG,2816,8,8,1408,.fake6
      241                           .member _Slave_ID,4224,8,8,1408,.fake6
      242                           .member _Baud_Rate,5632,8,8,1408,.fake6
      243                           .member _Parity,7040,4,8,32
      244                           .member _n_bits,7072,4,8,32
      245                           .member _STP,7104,4,8,32
      246                           .member _N,7136,4,8,32
      247                           .member _N_retry,7168,4,8,32
      248                           .member _EOT_Delay,7200,8,8,1408,.fake6
      249                           .member _Retry_Time,8608,8,8,1408,.fake6
      250                           .member _Num_Retry,10016,8,8,1408,.fake6
      251                           .member _poll_time,11424,4,8,32
      252                           .member _timeout,11456,4,8,32
      253                           .eos
      254                           .sym    _PORTC,0,8,13,11488,.fake13
      255                           .stag   .fake14,672
      256                           .member _prev,0,20,8,32
      257                           .member _next,32,20,8,32
      258                           .member _rxvect,64,20,8,32
      259                           .member _txvect,96,20,8,32
      260                           .member _n,128,4,8,32
      261                           .member _slave,160,4,8,32
      262                           .member _func,192,4,8,32
      263                           .member _addr,224,4,8,32
      264                           .member _num,256,4,8,32
      265                           .member _v,288,54,8,320,,10
      266                           .member _flt_ptr,608,22,8,32
      267                           .member _int_ptr,640,20,8,32
      268                           .eos
      269                           .sym    _MPKT,0,8,13,672,.fake14
      270                           .file   "Y:\workspace\EEA\V615\APP\SOURCE\INCLUDE\ADC.H"
TMS320C3x/4x COFF AssemblerVersion 5.12     Thu Sep 02 10:22:21 2021
Copyright (c) 1987-1999 Texas Instruments Incorporatedasm30.exe -@_6UK.AAB 

Y:\workspace\EEA\V615\APP\SOURCE\ASM\selftest.asm                    PAGE    6

      271                           .stag   .fake15,10176
      272                           .member _CURRENT,0,8,8,1408,.fake6
      273                           .member _CURRENT_PERCENT_OF_RANGE,1408,8,8,1408,.fake6
      274                           .member _LRV,2816,8,8,1408,.fake6
      275                           .member _URV,4224,8,8,1408,.fake6
      276                           .member _TRIM_MIN,5632,8,8,1408,.fake6
      277                           .member _TRIM_MAX,7040,8,8,1408,.fake6
      278                           .member _VALUE,8448,8,8,1408,.fake6
      279                           .member _TRIM_MIN_C,9856,6,8,32
      280                           .member _TRIM_MAX_C,9888,6,8,32
      281                           .member _v,9920,8,8,64,.fake8
      282                           .member _class,9984,8,8,64,.fake8
      283                           .member _unit,10048,8,8,64,.fake8
      284                           .member _present,10112,14,8,32
      285                           .member _val,10144,6,8,32
      286                           .eos
      287                           .sym    _LOOPDATA_I,0,8,13,10176,.fake15
      288                           .file   "Y:\workspace\EEA\V615\APP\SOURCE\INCLUDE\DAC.H"
      289                           .stag   .fake16,13408
      290                           .member _CURRENT,0,8,8,1408,.fake6
      291                           .member _CURRENT_PERCENT_OF_RANGE,1408,8,8,1408,.fake6
      292                           .member _LRV,2816,8,8,1408,.fake6
      293                           .member _URV,4224,8,8,1408,.fake6
      294                           .member _TRIM_MIN,5632,8,8,1408,.fake6
      295                           .member _TRIM_MAX,7040,8,8,1408,.fake6
      296                           .member _TRIM_MIN_C,8448,6,8,32
      297                           .member _TRIM_MAX_C,8480,6,8,32
      298                           .member _ALARM_SELECT,8512,4,8,32
      299                           .member _MINSPAN,8544,6,8,32
      300                           .member _v,8576,8,8,64,.fake8
      301                           .member _class,8640,8,8,64,.fake8
      302                           .member _unit,8704,8,8,64,.fake8
      303                           .member _MANUAL,8768,4,8,32
      304                           .member _MANUAL_PERCENT,8800,6,8,32
      305                           .member _REVERSE,8832,4,8,32
      306                           .member _PID_input,8864,6,8,32
      307                           .member _PID_setpoint,8896,6,8,32
      308                           .member _P,8928,8,8,1408,.fake6
      309                           .member _I,10336,8,8,1408,.fake6
      310                           .member _D,11744,8,8,1408,.fake6
      311                           .member _pid_lastcycle,13152,4,8,32
      312                           .member _pid_output,13184,6,8,32
      313                           .member _pid_propband,13216,6,8,32
      314                           .member _pid_error,13248,6,8,32
      315                           .member _pid_bias,13280,6,8,32
      316                           .member _present,13312,14,8,32
      317                           .member _PID_fail,13344,14,8,32
      318                           .member _PID_enable_failsafe,13376,14,8,32
      319                           .eos
      320                           .sym    _LOOPDATA_O,0,8,13,13408,.fake16
      321                           .file   "Y:\workspace\EEA\V615\APP\SOURCE\INCLUDE\EXECUTE.H"
      322                           .stag   .fake17,128
      323                           .member _prev,0,20,8,32
      324                           .member _next,32,20,8,32
TMS320C3x/4x COFF AssemblerVersion 5.12     Thu Sep 02 10:22:21 2021
Copyright (c) 1987-1999 Texas Instruments Incorporatedasm30.exe -@_6UK.AAB 

Y:\workspace\EEA\V615\APP\SOURCE\ASM\selftest.asm                    PAGE    7

      325                           .member _vect,64,20,8,32
      326                           .member _priority,96,4,8,32
      327                           .eos
      328                           .sym    _EPKT,0,8,13,128,.fake17
      329                           .file   "Y:\workspace\EEA\V615\INCLUDE\FLASH.H"
      330                           .file   "Y:\workspace\EEA\V615\APP\SOURCE\INCLUDE\LOG.H"
      331                           .stag   .fake18,384
      332                           .member _log_len,0,14,8,32
      333                           .member _log_n_sectors,32,14,8,32
      334                           .member _log_n_max_per_sector,64,14,8,32
      335                           .member _log_n,96,14,8,32
      336                           .member _log_current_sector,128,14,8,32
      337                           .member _log_absolute_index,160,14,8,32
      338                           .member _log_start,192,30,8,32
      339                           .member _log_sector_size,224,14,8,32
      340                           .member _log_record_size,256,14,8,32
      341                           .member _log_end,288,14,8,32
      342                           .member _LOG_ERASE,320,14,8,32
      343                           .member _erased_sector,352,14,8,32
      344                           .eos
      345                           .sym    _LOG,0,8,13,384,.fake18
      346                           .file   "Y:\workspace\EEA\V615\APP\SOURCE\INCLUDE\DEMO.H"
      347                           .file   "Y:\workspace\EEA\V615\APP\SOURCE\INCLUDE\SELFTEST.H"
      348                           .file   "Y:\workspace\EEA\V615\APP\SOURCE\INCLUDE\MENU.H"
      349                           .stag   .fake19,16288
      350                           .member _INIT,0,14,8,32
      351                           .member _FRESH,32,14,8,32
      352                           .member _MENU,64,14,8,32
      353                           .member _SELECT,96,14,8,32
      354                           .member _VALUE,128,14,8,32
      355                           .member _ENTER,160,14,8,32
      356                           .member _DIR,192,4,8,32
      357                           .member _DIR_CHANGE,224,14,8,32
      358                           .member _M,256,14,8,32
      359                           .member _S,288,14,8,32
      360                           .member _V,320,14,8,32
      361                           .member _E,352,14,8,32
      362                           .member _CURSOR_ENABLED,384,14,8,32
      363                           .member _CURSOR_ROW,416,4,8,32
      364                           .member _CURSOR_COL,448,4,8,32
      365                           .member _CNT,480,14,8,32
      366                           .member _MENU_CNT,512,14,8,32
      367                           .member _SELECT_CNT,544,14,8,32
      368                           .member _VALUE_CNT,576,14,8,32
      369                           .member _k,608,14,8,32
      370                           .member _MODE_LOCKDOWN,640,14,8,32
      371                           .member _MODE_WPROT,672,14,8,32
      372                           .member _MODE_DEFINE,704,14,8,32
      373                           .member _MODE_USER,736,14,8,32
      374                           .member _MODE_TECH,768,14,8,32
      375                           .member _MODE_NORMAL,800,14,8,32
      376                           .member _menu_list_top,832,14,8,32
      377                           .member _menu_list_operations,864,14,8,32
      378                           .member _menu_list_configurations,896,14,8,32
TMS320C3x/4x COFF AssemblerVersion 5.12     Thu Sep 02 10:22:21 2021
Copyright (c) 1987-1999 Texas Instruments Incorporatedasm30.exe -@_6UK.AAB 

Y:\workspace\EEA\V615\APP\SOURCE\ASM\selftest.asm                    PAGE    8

      379                           .member _menu_list_security_info,928,14,8,32
      380                           .member _menu_list_measurements,960,14,8,32
      381                           .member _menu_list_changed,992,14,8,32
      382                           .member _PAGE,1024,14,8,32
      383                           .member _SUBPAGE,1056,14,8,32
      384                           .member _MENU_TRAP,1088,14,8,32
      385                           .member _DIP,1120,62,8,128,,4
      386                           .member _tmpf,1248,54,8,320,,10
      387                           .member _tmpi,1568,52,8,320,,10
      388                           .member _str,1888,242,8,12928,,4,101
      389                           .member _tmpv,14816,8,8,1408,.fake6
      390                           .member _ptmpv,16224,24,8,32,.fake6
      391                           .member _tbl,16256,20,8,32
      392                           .eos
      393                           .sym    _MENU_STRUCT,0,8,13,16288,.fake19
      394                           .file   "Y:\workspace\EEA\V615\APP\SOURCE\INCLUDE\FLOAT1.H"
      395                           .file   "Y:\workspace\EEA\V615\APP\SOURCE\INCLUDE\GLBLS.H"
      396                           .stag   .fake20,480
      397                           .member _i,0,4,8,32
      398                           .member _Watercut,32,6,8,32
      399                           .member _Temperature,64,6,8,32
      400                           .member _Salinity,96,6,8,32
      401                           .member _Frequency_Oil,128,6,8,32
      402                           .member _Frequency_Water,160,6,8,32
      403                           .member _RefPower_Oil,192,6,8,32
      404                           .member _RefPower_Water,224,6,8,32
      405                           .member _Dadj,256,6,8,32
      406                           .member _Time_HH,288,4,8,32
      407                           .member _Time_MM,320,4,8,32
      408                           .member _Time_MONTH,352,4,8,32
      409                           .member _Time_DAY,384,4,8,32
      410                           .member _Time_DAY_OF_WEEK,416,4,8,32
      411                           .member _Time_YEAR,448,4,8,32
      412                           .eos
      413                           .sym    _CAPDATA,0,8,13,480,.fake20
      414                           .stag   .fake21,640
      415                           .member _Watercut,0,54,8,64,,2
      416                           .member _Temperature,64,54,8,64,,2
      417                           .member _Salinity,128,54,8,64,,2
      418                           .member _Frequency_Oil,192,54,8,64,,2
      419                           .member _Frequency_Water,256,54,8,64,,2
      420                           .member _RefPower_Oil,320,54,8,64,,2
      421                           .member _RefPower_Water,384,54,8,64,,2
      422                           .member _Dadj,448,54,8,64,,2
      423                           .member _Time_MONTH_DAY_HH_MM,512,52,8,64,,2
      424                           .member _CLRSTAT_Time_YEAR,576,52,8,64,,2
      425                           .eos
      426                           .sym    _CAPRECORD,0,8,13,640,.fake21
      427                           .stag   .fake22,800
      428                           .member _Start_HH,0,4,8,32
      429                           .member _Start_MM,32,4,8,32
      430                           .member _Start_SS,64,4,8,32
      431                           .member _Start_MONTH,96,4,8,32
      432                           .member _Start_DAY,128,4,8,32
TMS320C3x/4x COFF AssemblerVersion 5.12     Thu Sep 02 10:22:21 2021
Copyright (c) 1987-1999 Texas Instruments Incorporatedasm30.exe -@_6UK.AAB 

Y:\workspace\EEA\V615\APP\SOURCE\ASM\selftest.asm                    PAGE    9

      433                           .member _Start_YEAR,160,4,8,32
      434                           .member _Stop_HH,192,4,8,32
      435                           .member _Stop_MM,224,4,8,32
      436                           .member _Stop_SS,256,4,8,32
      437                           .member _Stop_MONTH,288,4,8,32
      438                           .member _Stop_DAY,320,4,8,32
      439                           .member _Stop_YEAR,352,4,8,32
      440                           .member _stream,384,6,8,32
      441                           .member _elapsed_s,416,6,8,32
      442                           .member _duration,448,6,8,32
      443                           .member _purge,480,6,8,32
      444                           .member _gross_gas,512,6,8,32
      445                           .member _gross_oil,544,6,8,32
      446                           .member _gross_water,576,6,8,32
      447                           .member _gross_total,608,6,8,32
      448                           .member _gas24,640,6,8,32
      449                           .member _oil24,672,6,8,32
      450                           .member _water24,704,6,8,32
      451                           .member _total24,736,6,8,32
      452                           .member _watercut,768,6,8,32
      453                           .eos
      454                           .sym    _CCMRECORD,0,8,13,800,.fake22
      455                           .stag   .fake23,224
      456                           .member _SNUM,0,4,8,32
      457                           .member _ADDR,32,4,8,32
      458                           .member _BNUM,64,4,8,32
      459                           .member _REV,96,4,8,32
      460                           .member _MONTH,128,4,8,32
      461                           .member _DAY,160,4,8,32
      462                           .member _YEAR,192,4,8,32
      463                           .eos
      464                           .sym    _BOARD,0,8,13,224,.fake23
      465                           .etag   _Pulse_Input_Type,32
      466                           .member _PULSE_GAS_TEMP,1,4,16,32
      467                           .member _PULSE_SALINITY,2,4,16,32
      468                           .member _PULSE_STREAM_SELECT,3,4,16,32
      469                           .member _PULSE_USER_TEMP,4,4,16,32
      470                           .member _PULSE_FC_WC,5,4,16,32
      471                           .member _PULSE_FC_TEMP,6,4,16,32
      472                           .member _PULSE_FC_TOTAL_FLOW,7,4,16,32
      473                           .member _PULSE_FC_PRESSURE,8,4,16,32
      474                           .member _PULSE_FC_DENSITY,9,4,16,32
      475                           .member _PULSE_FC_SALINITY,10,4,16,32
      476                           .member _PULSE_FC_OIL_DENSITY,11,4,16,32
      477                           .member _PULSE_FC_OIL_DENSITY_ST,12,4,16,32
      478                           .member _PULSE_FC_WATER_DENSITY,13,4,16,32
      479                           .member _PULSE_FC_WATER_DENSITY_ST,14,4,16,32
      480                           .member _PULSE_NONE,15,4,16,32
      481                           .eos
      482                           .stag   .fake24,64
      483                           .member _freq,0,6,8,32
      484                           .member _counter,32,4,8,32
      485                           .eos
      486                           .sym    _Boxcar_Var,0,8,13,64,.fake24
TMS320C3x/4x COFF AssemblerVersion 5.12     Thu Sep 02 10:22:21 2021
Copyright (c) 1987-1999 Texas Instruments Incorporatedasm30.exe -@_6UK.AAB 

Y:\workspace\EEA\V615\APP\SOURCE\ASM\selftest.asm                    PAGE   10

      487                           .stag   .fake25,1088
      488                           .member _data,0,54,8,960,,30
      489                           .member _head,960,4,8,32
      490                           .member _tail,992,4,8,32
      491                           .member _length,1024,4,8,32
      492                           .member _average,1056,6,8,32
      493                           .eos
      494                           .sym    _bubble_struct,0,8,13,1088,.fake25
      495                           .stag   .fake26,3008
      496                           .member _data,0,54,8,2880,,90
      497                           .member _head,2880,4,8,32
      498                           .member _tail,2912,4,8,32
      499                           .member _length,2944,4,8,32
      500                           .member _average,2976,6,8,32
      501                           .eos
      502                           .sym    _pattern_struct,0,8,13,3008,.fake26
      503                           .stag   .fake27,320
      504                           .member _MODE,0,4,8,32
      505                           .member _STATUS_MASK,32,4,8,32
      506                           .member _v,64,8,8,64,.fake8
      507                           .member _setpoint,128,6,8,32
      508                           .member _ON,160,8,8,96,.fake7
      509                           .member _class,256,4,8,32
      510                           .member _unit,288,4,8,32
      511                           .eos
      512                           .sym    _RELAYDATA,0,8,13,320,.fake27
      513                           .stag   .fake28,12224
      514                           .member _diag,0,6,8,32
      515                           .member _mfr,32,6,8,32
      516                           .member _u_mfr,64,4,8,32
      517                           .member _density,96,6,8,32
      518                           .member _u_density,128,4,8,32
      519                           .member _density_PDI_corrected,160,6,8,32
      520                           .member _density_corrected,192,6,8,32
      521                           .member _u_density_corrected,224,4,8,32
      522                           .member _T,256,6,8,32
      523                           .member _u_T,288,4,8,32
      524                           .member _vfr,320,6,8,32
      525                           .member _u_vfr,352,4,8,32
      526                           .member _visc,384,6,8,32
      527                           .member _u_visc,416,4,8,32
      528                           .member _press,448,6,8,32
      529                           .member _mass_total,480,6,8,32
      530                           .member _u_m,512,4,8,32
      531                           .member _volume_total,544,6,8,32
      532                           .member _u_v,576,4,8,32
      533                           .member _u_P,608,4,8,32
      534                           .member _P,640,6,8,32
      535                           .member _mass_inv,672,6,8,32
      536                           .member _volume_inv,704,6,8,32
      537                           .member _raw_tube_freq,736,6,8,32
      538                           .member _left_pickup_value,768,6,8,32
      539                           .member _right_pickup_value,800,6,8,32
      540                           .member _drive_gain,832,6,8,32
TMS320C3x/4x COFF AssemblerVersion 5.12     Thu Sep 02 10:22:21 2021
Copyright (c) 1987-1999 Texas Instruments Incorporatedasm30.exe -@_6UK.AAB 

Y:\workspace\EEA\V615\APP\SOURCE\ASM\selftest.asm                    PAGE   11

      541                           .member _damp_flow_rate,864,8,8,1408,.fake6
      542                           .member _damp_density,2272,8,8,1408,.fake6
      543                           .member _mfr_cutoff,3680,8,8,1408,.fake6
      544                           .member _vfr_cutoff,5088,8,8,1408,.fake6
      545                           .member _mcf,6496,8,8,1408,.fake6
      546                           .member _address,7904,8,8,1408,.fake6
      547                           .member _mass_unit,9312,8,8,1408,.fake6
      548                           .member _density_cutoff,10720,8,8,1408,.fake6
      549                           .member _Z,12128,8,8,96,.fake7
      550                           .eos
      551                           .sym    _CORIOLIS,0,8,13,12224,.fake28
      552                           .stag   .fake29,288
      553                           .member _p_delta,0,6,8,32
      554                           .member _p_static,32,6,8,32
      555                           .member _T,64,6,8,32
      556                           .member _diag0,96,6,8,32
      557                           .member _diag1,128,6,8,32
      558                           .member _diag2,160,6,8,32
      559                           .member _u_DP,192,4,8,32
      560                           .member _u_SP,224,4,8,32
      561                           .member _u_PT,256,4,8,32
      562                           .eos
      563                           .sym    _PRESSURE,0,8,13,288,.fake29
      564                           .stag   .fake30,192
      565                           .member _T,0,6,8,32
      566                           .member _etc0,32,6,8,32
      567                           .member _etc1,64,6,8,32
      568                           .member _etc2,96,6,8,32
      569                           .member _etc3,128,6,8,32
      570                           .member _etc4,160,6,8,32
      571                           .eos
      572                           .sym    _TMPT,0,8,13,192,.fake30
      573                           .stag   .fake31,42752
      574                           .member _watercut,0,8,8,1408,.fake6
      575                           .member _T,1408,8,8,1408,.fake6
      576                           .member _pressure,2816,8,8,1408,.fake6
      577                           .member _density,4224,8,8,1408,.fake6
      578                           .member _density_PDI_corrected,5632,6,8,32
      579                           .member _density_adj,5664,6,8,32
      580                           .member _density_oilST,5696,8,8,1408,.fake6
      581                           .member _density_oil,7104,8,8,1408,.fake6
      582                           .member _density_waterST,8512,8,8,1408,.fake6
      583                           .member _density_water,9920,8,8,1408,.fake6
      584                           .member _salinity,11328,8,8,1408,.fake6
      585                           .member _API_TABLE,12736,4,8,32
      586                           .member _a,12768,6,8,32
      587                           .member _Meter_Factor,12800,8,8,1408,.fake6
      588                           .member _Shrinkage,14208,8,8,1408,.fake6
      589                           .member _VCFo,15616,6,8,32
      590                           .member _VCFw,15648,6,8,32
      591                           .member _net_watercut,15680,6,8,32
      592                           .member _net_watercut_mass,15712,6,8,32
      593                           .member _Dadj,15744,6,8,32
      594                           .member _NET_FLOW_OIL,15776,8,8,1408,.fake6
TMS320C3x/4x COFF AssemblerVersion 5.12     Thu Sep 02 10:22:21 2021
Copyright (c) 1987-1999 Texas Instruments Incorporatedasm30.exe -@_6UK.AAB 

Y:\workspace\EEA\V615\APP\SOURCE\ASM\selftest.asm                    PAGE   12

      595                           .member _NET_FLOW_WATER,17184,8,8,1408,.fake6
      596                           .member _NET_FLOW_TOTAL,18592,8,8,1408,.fake6
      597                           .member _NET_OIL,20000,8,8,1408,.fake6
      598                           .member _NET_WATER,21408,8,8,1408,.fake6
      599                           .member _NET_TOTAL,22816,8,8,1408,.fake6
      600                           .member _AVG_NET_TOTAL,24224,8,8,1408,.fake6
      601                           .member _GROSS_OIL,25632,8,8,1408,.fake6
      602                           .member _gross_oil_whole_part,27040,11,8,64
      603                           .member _gross_oil_fract_part,27104,11,8,64
      604                           .member _GROSS_WATER,27168,8,8,1408,.fake6
      605                           .member _gross_water_whole_part,28576,11,8,64
      606                           .member _gross_water_fract_part,28640,11,8,64
      607                           .member _GROSS_TOTAL,28704,8,8,1408,.fake6
      608                           .member _AVG_GROSS_TOTAL,30112,8,8,1408,.fake6
      609                           .member _FLOW_OIL,31520,8,8,1408,.fake6
      610                           .member _FLOW_WATER,32928,8,8,1408,.fake6
      611                           .member _FLOW_TOTAL,34336,8,8,1408,.fake6
      612                           .member _PULSES_PER_ACCUM_UNIT,35744,14,8,32
      613                           .member _PULSE_TOTAL,35776,8,8,1408,.fake6
      614                           .member _PULSE_FLOW,37184,8,8,1408,.fake6
      615                           .member _PULSE_FREQ,38592,8,8,1408,.fake6
      616                           .member _PULSE_COUNTER,40000,14,8,32
      617                           .member _PULSE,40032,4,8,32
      618                           .member _CNT,40064,4,8,32
      619                           .member _PULSE_DELTA,40096,4,8,32
      620                           .member _PULSE_FACTOR,40128,6,8,32
      621                           .member _PULSE_STAT,40160,4,8,32
      622                           .member _enable_NET,40192,14,8,32
      623                           .member _enable_GROSS,40224,14,8,32
      624                           .member _enable_FLOW,40256,14,8,32
      625                           .member _enable_DENSITY,40288,14,8,32
      626                           .member _enable_PULSE,40320,14,8,32
      627                           .member _flow_class,40352,8,8,64,.fake8
      628                           .member _flow_unit,40416,8,8,64,.fake8
      629                           .member _accum_unit,40480,8,8,64,.fake8
      630                           .member _Z,40544,8,8,96,.fake7
      631                           .member _use_totalizer,40640,8,8,96,.fake7
      632                           .member _pulse_v,40736,8,8,64,.fake8
      633                           .member _pulse_class,40800,8,8,64,.fake8
      634                           .member _pulse_unit,40864,8,8,64,.fake8
      635                           .member _pulse_VALUE,40928,8,8,1408,.fake6
      636                           .member _USE_PDI_TEMP,42336,14,8,32
      637                           .member _USE_PDI_SALINITY,42368,14,8,32
      638                           .member _CALC_WC_DENSITY,42400,14,8,32
      639                           .member _MAN_TEMP,42432,14,8,32
      640                           .member _MAN_SALINITY,42464,14,8,32
      641                           .member _MAN_WATERCUT,42496,14,8,32
      642                           .member _MAN_DENSITY,42528,14,8,32
      643                           .member _MAN_PRESSURE,42560,14,8,32
      644                           .member _MAN_FLOW,42592,14,8,32
      645                           .member _AUTHORIZATION_CODE1,42624,14,8,32
      646                           .member _AUTHORIZATION_CODE2,42656,14,8,32
      647                           .member _AUTHORIZATION_CODE3,42688,14,8,32
      648                           .member _AUTHORIZATION_CODE4,42720,14,8,32
TMS320C3x/4x COFF AssemblerVersion 5.12     Thu Sep 02 10:22:21 2021
Copyright (c) 1987-1999 Texas Instruments Incorporatedasm30.exe -@_6UK.AAB 

Y:\workspace\EEA\V615\APP\SOURCE\ASM\selftest.asm                    PAGE   13

      649                           .eos
      650                           .sym    _FLOW_COMP,0,8,13,42752,.fake31
      651                           .stag   .fake32,2176
      652                           .member _WATERCUT,0,6,8,32
      653                           .member _FLOW_RATE,32,6,8,32
      654                           .member _TEMPERATURE,64,6,8,32
      655                           .member _DENSITY,96,6,8,32
      656                           .member _VISCOSITY,128,6,8,32
      657                           .member _iWATERCUTz,160,4,8,32
      658                           .member _iWATERCUT,192,4,8,32
      659                           .member _iFLOW_RATE,224,4,8,32
      660                           .member _iTEMPERATURE,256,4,8,32
      661                           .member _iDENSITY,288,4,8,32
      662                           .member _iVISCOSITY,320,4,8,32
      663                           .member _maxWATERCUTz,352,6,8,32
      664                           .member _maxWATERCUT,384,6,8,32
      665                           .member _maxFLOW_RATE,416,6,8,32
      666                           .member _maxTEMPERATURE,448,6,8,32
      667                           .member _maxDENSITY,480,6,8,32
      668                           .member _maxVISCOSITY,512,6,8,32
      669                           .member _minWATERCUTz,544,6,8,32
      670                           .member _minWATERCUT,576,6,8,32
      671                           .member _minFLOW_RATE,608,6,8,32
      672                           .member _minTEMPERATURE,640,6,8,32
      673                           .member _minDENSITY,672,6,8,32
      674                           .member _minVISCOSITY,704,6,8,32
      675                           .member _ENABLED,736,14,8,32
      676                           .member _DESTINATION_ADDRESS,768,8,8,1408,.fake6
      677                           .eos
      678                           .sym    _ALYESKA_STRUCT,0,8,13,2176,.fake32
      679                           .stag   .fake33,2464
      680                           .member _ENABLED,0,8,8,96,.fake7
      681                           .member _flow_threshold,96,8,8,1408,.fake6
      682                           .member _S3,1504,6,8,32
      683                           .member _S2,1536,6,8,32
      684                           .member _S1,1568,6,8,32
      685                           .member _S0,1600,6,8,32
      686                           .member _Fmin,1632,6,8,32
      687                           .member _Dmin,1664,6,8,32
      688                           .member _Dmax,1696,6,8,32
      689                           .member _CHANGED,1728,14,8,32
      690                           .member _PURGING,1760,14,8,32
      691                           .member _TEST_IN_PROGRESS,1792,14,8,32
      692                           .member _SP3A,1824,6,8,32
      693                           .member _SP2A,1856,6,8,32
      694                           .member _SP1A,1888,6,8,32
      695                           .member _SP0A,1920,6,8,32
      696                           .member _SPLOA,1952,6,8,32
      697                           .member _SPHIA,1984,6,8,32
      698                           .member _SP3B,2016,6,8,32
      699                           .member _SP2B,2048,6,8,32
      700                           .member _SP1B,2080,6,8,32
      701                           .member _SP0B,2112,6,8,32
      702                           .member _SPLOB,2144,6,8,32
TMS320C3x/4x COFF AssemblerVersion 5.12     Thu Sep 02 10:22:21 2021
Copyright (c) 1987-1999 Texas Instruments Incorporatedasm30.exe -@_6UK.AAB 

Y:\workspace\EEA\V615\APP\SOURCE\ASM\selftest.asm                    PAGE   14

      703                           .member _SPHIB,2176,6,8,32
      704                           .member _FBHI3,2208,6,8,32
      705                           .member _FBHI2,2240,6,8,32
      706                           .member _FBHI1,2272,6,8,32
      707                           .member _FBHI0,2304,6,8,32
      708                           .member _FBLO3,2336,6,8,32
      709                           .member _FBLO2,2368,6,8,32
      710                           .member _FBLO1,2400,6,8,32
      711                           .member _FBLO0,2432,6,8,32
      712                           .eos
      713                           .sym    _HS_STRUCT,0,8,13,2464,.fake33
      714                           .file   "Y:\workspace\EEA\V615\APP\SOURCE\INCLUDE\HART.H"
      715                           .file   "Y:\workspace\EEA\V615\APP\SOURCE\INCLUDE\MODBUSRTU.H"
      716                           .file   "Y:\workspace\EEA\V615\APP\SOURCE\INCLUDE\MISC.H"
      717                           .file   "Y:\workspace\EEA\V615\APP\SOURCE\INCLUDE\API.H"
      718                           .file   "selftest.c"
      719 00000000                  .sect    ".text"
      720                   
      721                           .global _Clear_Diagnostics
      722                           .sym    _Clear_Diagnostics,_Clear_Diagnostics,32,2,0
      723                           .func   41
      724                   ;******************************************************************************
      725                   ;* FUNCTION NAME: _Clear_Diagnostics                                          *
      726                   ;*                                                                            *
      727                   ;*   Architecture       : TMS320C33                                           *
      728                   ;*   Calling Convention : TI Standard Register Parameters                     *
      729                   ;*   Function Uses Regs : r0,ar0                                              *
      730                   ;*   Regs Saved         :                                                     *
      731                   ;*   Stack Frame        : Full (w/ debug)                                     *
      732                   ;*   Total Frame Size   : 2 Call + 0 Parm + 0 Auto + 0 SOE = 2 words          *
      733                   ;******************************************************************************
      734 00000000          _Clear_Diagnostics:
      735                           .line   1
      736                   ;----------------------------------------------------------------------
      737                   ;  41 | void Clear_Diagnostics(void)                                           
      738                   ;----------------------------------------------------------------------
      739 00000000 0f2b0000         push      fp
      740 00000001 500b0014         ldiu      sp,fp
      741                           .line   3
      742                   ;----------------------------------------------------------------------
      743                   ;  43 | DIO_ALARM.val                   = FALSE;                               
      744                   ;----------------------------------------------------------------------
      745 00000002 08700000-        ldp       @CL1,DP
      746 00000003 5028006b-        ldiu      @CL1,ar0              ; |43| 
      747 00000004 50600000         ldiu      0,r0                  ; |43| 
      748 00000005 1540c000         sti       r0,*ar0               ; |43| 
      749                           .line   4
      750                   ;----------------------------------------------------------------------
      751                   ;  44 | DIO_ERROR.val                   = FALSE;                               
      752                   ;----------------------------------------------------------------------
      753 00000006 08700000-        ldp       @CL2,DP
      754 00000007 5028006c-        ldiu      @CL2,ar0              ; |44| 
      755 00000008 1540c000         sti       r0,*ar0               ; |44| 
      756                           .line   5
TMS320C3x/4x COFF AssemblerVersion 5.12     Thu Sep 02 10:22:21 2021
Copyright (c) 1987-1999 Texas Instruments Incorporatedasm30.exe -@_6UK.AAB 

Y:\workspace\EEA\V615\APP\SOURCE\ASM\selftest.asm                    PAGE   15

      757                   ;----------------------------------------------------------------------
      758                   ;  45 | DIAGNOSTICS[0]                  = ERROR_NONE;                          
      759                   ;----------------------------------------------------------------------
      760 00000009 08700000-        ldp       @CL3,DP
      761 0000000a 5028006d-        ldiu      @CL3,ar0              ; |45| 
      762 0000000b 1540c000         sti       r0,*ar0               ; |45| 
      763                           .line   6
      764                   ;----------------------------------------------------------------------
      765                   ;  46 | DIAGNOSTICS[1]                  = ERROR_NONE;                          
      766                   ;----------------------------------------------------------------------
      767 0000000c 08700000-        ldp       @CL4,DP
      768 0000000d 5028006e-        ldiu      @CL4,ar0              ; |46| 
      769 0000000e 1540c000         sti       r0,*ar0               ; |46| 
      770                           .line   7
      771                   ;----------------------------------------------------------------------
      772                   ;  47 | DIAGNOSTICS_ERROR_CODE  = E_ERROR_NONE;                                
      773                   ;----------------------------------------------------------------------
      774 0000000f 08700000-        ldp       @CL5,DP
      775 00000010 5028006f-        ldiu      @CL5,ar0              ; |47| 
      776 00000011 1540c000         sti       r0,*ar0               ; |47| 
      777                           .line   8
      778                   ;----------------------------------------------------------------------
      779                   ;  48 | DIAGNOSTICS_MSG_CODE    = M_ERROR_RESET;                               
      780                   ;----------------------------------------------------------------------
      781 00000012 08700000-        ldp       @CL6,DP
      782 00000013 50280070-        ldiu      @CL6,ar0              ; |48| 
      783 00000014 5060000f         ldiu      15,r0                 ; |48| 
      784 00000015 1540c000         sti       r0,*ar0               ; |48| 
      785                           .line   10
      786                   ;----------------------------------------------------------------------
      787                   ;  50 | Set_Diag_Status();                                                     
      788                   ;----------------------------------------------------------------------
      789 00000016 08700000-        ldp       @CL7,DP
      790 00000017 50200071-        ldiu      @CL7,r0               ; |50| 
      791 00000018 70000000         callu     r0                    ; far call to _Set_Diag_Status  ; |50| 
      792                                                           ; |50| Far Call Occurs
      793                           .line   11
      794                                                           ; Begin Epilog Code
      795 00000019 50410b01         ldiu      *-fp(1),r1
      796 0000001a 504bc300         ldiu      *fp,fp
      797                                                           ; Unallocate the Frame
      798 0000001b 18740002         subi      2,sp
      799 0000001c 68000001         bu        r1
      800                   ;*      Branch Occurs to r1 
      801                           .endfunc        51,000000000h,0
      802                   
      803                   
      804 0000001d                  .sect    ".text"
      805                   
      806                           .global _Set_Diag_Status
      807                           .sym    _Set_Diag_Status,_Set_Diag_Status,32,2,0
      808                           .func   65
      809                   ;******************************************************************************
      810                   ;* FUNCTION NAME: _Set_Diag_Status                                            *
TMS320C3x/4x COFF AssemblerVersion 5.12     Thu Sep 02 10:22:21 2021
Copyright (c) 1987-1999 Texas Instruments Incorporatedasm30.exe -@_6UK.AAB 

Y:\workspace\EEA\V615\APP\SOURCE\ASM\selftest.asm                    PAGE   16

      811                   ;*                                                                            *
      812                   ;*   Architecture       : TMS320C33                                           *
      813                   ;*   Calling Convention : TI Standard Register Parameters                     *
      814                   ;*   Function Uses Regs : f0,r0,f1,r1,f2,r2,r3,f6,ar0,ar1,ar2,fp,sp,st,rs,rc  *
      815                   ;*   Regs Saved         : f6                                                  *
      816                   ;*   Stack Frame        : Full (w/ debug)                                     *
      817                   ;*   Total Frame Size   : 2 Call + 0 Parm + 29 Auto + 1 SOE = 32 words        *
      818                   ;******************************************************************************
      819 0000001d          _Set_Diag_Status:
      820                           .sym    _rec,1,62,1,256,,8
      821                           .sym    _i,9,14,1,32
      822                           .sym    _j,10,14,1,32
      823                           .sym    _s,11,50,1,544,,17
      824                           .sym    _t,28,6,1,32
      825                           .sym    _e,29,14,1,32
      826                           .line   1
      827                   ;----------------------------------------------------------------------
      828                   ;  65 | void Set_Diag_Status(void)                                             
      829                   ;  67 | unsigned int rec[SYS_log_record_size];  /* Log record */               
      830                   ;  68 | unsigned int i,j;                                               /* coun
      831                   ;     | ter; diagnostic check */                                               
      832                   ;  69 | char s[17];
      833                   ;     |  /* not used */                                                        
      834                   ;  70 | float t;
      835                   ;     |  /* temp message code */                                               
      836                   ;  71 | unsigned int e;                                                 /* erro
      837                   ;     | r code checked against j */                                            
      838                   ;----------------------------------------------------------------------
      839 0000001d 0f2b0000         push      fp
      840 0000001e 500b0014         ldiu      sp,fp
      841 0000001f 0274001d         addi      29,sp
      842 00000020 0fa60000         pushf     f6
      843                           .line   9
      844                   ;----------------------------------------------------------------------
      845                   ;  73 | _GIEP;                                                                 
      846                   ;----------------------------------------------------------------------
      847 00000021 0f350000         push    ST                      
      848 00000022 03752000         andn    2000h, ST       
      849                           .line   11
      850                   ;----------------------------------------------------------------------
      851                   ;  75 | if (CHANGE) /* check save */                                           
      852                   ;----------------------------------------------------------------------
      853 00000023 08700000-        ldp       @CL8,DP
      854 00000024 50280072-        ldiu      @CL8,ar0              ; |75| 
      855 00000025 5040c000         ldiu      *ar0,r0               ; |75| 
      856 00000026 04e00000         cmpi      0,r0                  ; |75| 
      857 00000027 6a050005         beq       L6                    ; |75| 
      858                   ;*      Branch Occurs to L6             ; |75| 
      859                           .line   12
      860                   ;----------------------------------------------------------------------
      861                   ;  76 | DATA_CHANGE.val = FALSE;                                               
      862                   ;  77 | else                                                                   
      863                   ;----------------------------------------------------------------------
      864 00000028 08700000-        ldp       @CL9,DP
TMS320C3x/4x COFF AssemblerVersion 5.12     Thu Sep 02 10:22:21 2021
Copyright (c) 1987-1999 Texas Instruments Incorporatedasm30.exe -@_6UK.AAB 

Y:\workspace\EEA\V615\APP\SOURCE\ASM\selftest.asm                    PAGE   17

      865 00000029 50280073-        ldiu      @CL9,ar0              ; |76| 
      866 0000002a 50600000         ldiu      0,r0                  ; |76| 
      867 0000002b 1540c000         sti       r0,*ar0               ; |76| 
      868 0000002c 6a000004         bu        L7                    ; |64| 
      869                   ;*      Branch Occurs to L7             ; |64| 
      870 0000002d          L6:        
      871                           .line   14
      872                   ;----------------------------------------------------------------------
      873                   ;  78 | DATA_CHANGE.val = TRUE;                                                
      874                   ;----------------------------------------------------------------------
      875 0000002d 08700000-        ldp       @CL9,DP
      876 0000002e 50280073-        ldiu      @CL9,ar0              ; |78| 
      877 0000002f 50600001         ldiu      1,r0                  ; |78| 
      878 00000030 1540c000         sti       r0,*ar0               ; |78| 
      879 00000031          L7:        
      880                           .line   17
      881                   ;----------------------------------------------------------------------
      882                   ;  81 | DIAGNOSTICS[0] &= DIAGNOSTICS_MASK[0];                                 
      883                   ;----------------------------------------------------------------------
      884 00000031 08700000-        ldp       @CL3,DP
      885 00000032 5028006d-        ldiu      @CL3,ar0              ; |81| 
      886 00000033 08700000-        ldp       @CL10,DP
      887 00000034 50290074-        ldiu      @CL10,ar1             ; |81| 
      888 00000035 21e0c1c0         and3      *ar0,*ar1,r0          ; |81| 
      889 00000036 1540c000         sti       r0,*ar0               ; |81| 
      890                           .line   18
      891                   ;----------------------------------------------------------------------
      892                   ;  82 | DIAGNOSTICS[1] &= DIAGNOSTICS_MASK[1];                                 
      893                   ;----------------------------------------------------------------------
      894 00000037 08700000-        ldp       @CL3,DP
      895 00000038 5028006d-        ldiu      @CL3,ar0              ; |82| 
      896 00000039 08700000-        ldp       @CL11,DP
      897 0000003a 50290075-        ldiu      @CL11,ar1             ; |82| 
      898 0000003b 21e0c100         and3      *+ar0,*ar1,r0         ; |82| 
      899 0000003c 15400001         sti       r0,*+ar0(1)           ; |82| 
      900                           .line   21
      901                   ;----------------------------------------------------------------------
      902                   ;  85 | if (DIAGNOSTICS[0] & ERROR_RESET_BASICS)                               
      903                   ;----------------------------------------------------------------------
      904 0000003d 08700000-        ldp       @CL3,DP
      905 0000003e 5028006d-        ldiu      @CL3,ar0              ; |85| 
      906 0000003f 5040c000         ldiu      *ar0,r0               ; |85| 
      907 00000040 1a608000         tstb      32768,r0              ; |85| 
      908 00000041 6a050005         beq       L9                    ; |85| 
      909                   ;*      Branch Occurs to L9             ; |85| 
      910                           .line   22
      911                   ;----------------------------------------------------------------------
      912                   ;  86 | DIAGNOSTICS_ERROR_CODE = E_ERROR_FLASH_FAIL_RESET_BASICS;              
      913                   ;----------------------------------------------------------------------
      914 00000042 08700000-        ldp       @CL5,DP
      915 00000043 5028006f-        ldiu      @CL5,ar0              ; |86| 
      916 00000044 50600010         ldiu      16,r0                 ; |86| 
      917 00000045 1540c000         sti       r0,*ar0               ; |86| 
      918 00000046 6a000059         bu        L27                   ; |64| 
TMS320C3x/4x COFF AssemblerVersion 5.12     Thu Sep 02 10:22:21 2021
Copyright (c) 1987-1999 Texas Instruments Incorporatedasm30.exe -@_6UK.AAB 

Y:\workspace\EEA\V615\APP\SOURCE\ASM\selftest.asm                    PAGE   18

      919                   ;*      Branch Occurs to L27            ; |64| 
      920 00000047          L9:        
      921                           .line   23
      922                   ;----------------------------------------------------------------------
      923                   ;  87 | else if ((DIAGNOSTICS[0] & ERROR_FLASH_MEMORY) || (DIAGNOSTICS[0] & ERR
      924                   ;     | OR_FLASH_WPROT))                                                       
      925                   ;----------------------------------------------------------------------
      926 00000047 08700000-        ldp       @CL3,DP
      927 00000048 5028006d-        ldiu      @CL3,ar0              ; |87| 
      928 00000049 50600008         ldiu      8,r0                  ; |87| 
      929 0000004a 27c000c0         tstb3     *ar0,r0               ; |87| 
      930 0000004b 6a060005         bne       L11                   ; |87| 
      931                   ;*      Branch Occurs to L11            ; |87| 
      932 0000004c 08700000-        ldp       @CL3,DP
      933 0000004d 5028006d-        ldiu      @CL3,ar0              ; |87| 
      934 0000004e 50600010         ldiu      16,r0                 ; |87| 
      935 0000004f 27c000c0         tstb3     *ar0,r0               ; |87| 
      936 00000050 6a050005         beq       L12                   ; |87| 
      937                   ;*      Branch Occurs to L12            ; |87| 
      938 00000051          L11:        
      939                           .line   24
      940                   ;----------------------------------------------------------------------
      941                   ;  88 | DIAGNOSTICS_ERROR_CODE = E_ERROR_FLASH_FAIL;                           
      942                   ;----------------------------------------------------------------------
      943 00000051 08700000-        ldp       @CL5,DP
      944 00000052 5028006f-        ldiu      @CL5,ar0              ; |88| 
      945 00000053 50600008         ldiu      8,r0                  ; |88| 
      946 00000054 1540c000         sti       r0,*ar0               ; |88| 
      947 00000055 6a00004a         bu        L27                   ; |64| 
      948                   ;*      Branch Occurs to L27            ; |64| 
      949 00000056          L12:        
      950                           .line   25
      951                   ;----------------------------------------------------------------------
      952                   ;  89 | else if (DIAGNOSTICS[0] & ERROR_MEMORY)                                
      953                   ;----------------------------------------------------------------------
      954 00000056 08700000-        ldp       @CL3,DP
      955 00000057 5028006d-        ldiu      @CL3,ar0              ; |89| 
      956 00000058 50600001         ldiu      1,r0                  ; |89| 
      957 00000059 27c000c0         tstb3     *ar0,r0               ; |89| 
      958 0000005a 6a050005         beq       L14                   ; |89| 
      959                   ;*      Branch Occurs to L14            ; |89| 
      960                           .line   26
      961                   ;----------------------------------------------------------------------
      962                   ;  90 | DIAGNOSTICS_ERROR_CODE = E_ERROR_EXTRAM_FAIL;                          
      963                   ;----------------------------------------------------------------------
      964 0000005b 08700000-        ldp       @CL5,DP
      965 0000005c 5028006f-        ldiu      @CL5,ar0              ; |90| 
      966 0000005d 5060000a         ldiu      10,r0                 ; |90| 
      967 0000005e 1540c000         sti       r0,*ar0               ; |90| 
      968 0000005f 6a000040         bu        L27                   ; |64| 
      969                   ;*      Branch Occurs to L27            ; |64| 
      970 00000060          L14:        
      971                           .line   27
      972                   ;----------------------------------------------------------------------
TMS320C3x/4x COFF AssemblerVersion 5.12     Thu Sep 02 10:22:21 2021
Copyright (c) 1987-1999 Texas Instruments Incorporatedasm30.exe -@_6UK.AAB 

Y:\workspace\EEA\V615\APP\SOURCE\ASM\selftest.asm                    PAGE   19

      973                   ;  91 | else if (DIAGNOSTICS[0] & ERROR_INTERNAL_MEMORY)                       
      974                   ;----------------------------------------------------------------------
      975 00000060 08700000-        ldp       @CL3,DP
      976 00000061 5028006d-        ldiu      @CL3,ar0              ; |91| 
      977 00000062 50600080         ldiu      128,r0                ; |91| 
      978 00000063 27c000c0         tstb3     *ar0,r0               ; |91| 
      979 00000064 6a050005         beq       L16                   ; |91| 
      980                   ;*      Branch Occurs to L16            ; |91| 
      981                           .line   28
      982                   ;----------------------------------------------------------------------
      983                   ;  92 | DIAGNOSTICS_ERROR_CODE = E_ERROR_INTRAM_FAIL;                          
      984                   ;----------------------------------------------------------------------
      985 00000065 08700000-        ldp       @CL5,DP
      986 00000066 5028006f-        ldiu      @CL5,ar0              ; |92| 
      987 00000067 50600009         ldiu      9,r0                  ; |92| 
      988 00000068 1540c000         sti       r0,*ar0               ; |92| 
      989 00000069 6a000036         bu        L27                   ; |64| 
      990                   ;*      Branch Occurs to L27            ; |64| 
      991 0000006a          L16:        
      992                           .line   29
      993                   ;----------------------------------------------------------------------
      994                   ;  93 | else if (REG_WATERCUT.STAT & var_aux)                           /* roll
      995                   ;     | ed over */                                                             
      996                   ;----------------------------------------------------------------------
      997 0000006a 08700000-        ldp       @CL12,DP
      998 0000006b 50280076-        ldiu      @CL12,ar0             ; |93| 
      999 0000006c 50600400         ldiu      1024,r0               ; |93| 
     1000 0000006d 27c000c0         tstb3     *ar0,r0               ; |93| 
     1001 0000006e 6a050005         beq       L18                   ; |93| 
     1002                   ;*      Branch Occurs to L18            ; |93| 
     1003                           .line   30
     1004                   ;----------------------------------------------------------------------
     1005                   ;  94 | DIAGNOSTICS_ERROR_CODE = E_ERROR_RP_THRESH;                            
     1006                   ;----------------------------------------------------------------------
     1007 0000006f 08700000-        ldp       @CL5,DP
     1008 00000070 5028006f-        ldiu      @CL5,ar0              ; |94| 
     1009 00000071 50600014         ldiu      20,r0                 ; |94| 
     1010 00000072 1540c000         sti       r0,*ar0               ; |94| 
     1011 00000073 6a00002c         bu        L27                   ; |64| 
     1012                   ;*      Branch Occurs to L27            ; |64| 
     1013 00000074          L18:        
     1014                           .line   32
     1015                   ;----------------------------------------------------------------------
     1016                   ;  96 | else if ((REG_WATERCUT.STAT & var_alarm_lo) || (DIAGNOSTICS[0] & ERROR_
     1017                   ;     | WC_UNDERRANGE))                                                        
     1018                   ;----------------------------------------------------------------------
     1019 00000074 08700000-        ldp       @CL12,DP
     1020 00000075 50280076-        ldiu      @CL12,ar0             ; |96| 
     1021 00000076 50600080         ldiu      128,r0                ; |96| 
     1022 00000077 27c000c0         tstb3     *ar0,r0               ; |96| 
     1023 00000078 6a060005         bne       L20                   ; |96| 
     1024                   ;*      Branch Occurs to L20            ; |96| 
     1025 00000079 08700000-        ldp       @CL3,DP
     1026 0000007a 5028006d-        ldiu      @CL3,ar0              ; |96| 
TMS320C3x/4x COFF AssemblerVersion 5.12     Thu Sep 02 10:22:21 2021
Copyright (c) 1987-1999 Texas Instruments Incorporatedasm30.exe -@_6UK.AAB 

Y:\workspace\EEA\V615\APP\SOURCE\ASM\selftest.asm                    PAGE   20

     1027 0000007b 50601000         ldiu      4096,r0               ; |96| 
     1028 0000007c 27c000c0         tstb3     *ar0,r0               ; |96| 
     1029 0000007d 6a050005         beq       L21                   ; |96| 
     1030                   ;*      Branch Occurs to L21            ; |96| 
     1031 0000007e          L20:        
     1032                           .line   33
     1033                   ;----------------------------------------------------------------------
     1034                   ;  97 | DIAGNOSTICS_ERROR_CODE = E_ERROR_WATERCUT_UNDERRANGE;                  
     1035                   ;----------------------------------------------------------------------
     1036 0000007e 08700000-        ldp       @CL5,DP
     1037 0000007f 5028006f-        ldiu      @CL5,ar0              ; |97| 
     1038 00000080 5060000b         ldiu      11,r0                 ; |97| 
     1039 00000081 1540c000         sti       r0,*ar0               ; |97| 
     1040 00000082 6a00001d         bu        L27                   ; |64| 
     1041                   ;*      Branch Occurs to L27            ; |64| 
     1042 00000083          L21:        
     1043                           .line   34
     1044                   ;----------------------------------------------------------------------
     1045                   ;  98 | else if ((REG_WATERCUT.STAT & var_alarm_hi) || (DIAGNOSTICS[0] & ERROR_
     1046                   ;     | WC_OVERRANGE))                                                         
     1047                   ;----------------------------------------------------------------------
     1048 00000083 08700000-        ldp       @CL12,DP
     1049 00000084 50280076-        ldiu      @CL12,ar0             ; |98| 
     1050 00000085 50600040         ldiu      64,r0                 ; |98| 
     1051 00000086 27c000c0         tstb3     *ar0,r0               ; |98| 
     1052 00000087 6a060005         bne       L23                   ; |98| 
     1053                   ;*      Branch Occurs to L23            ; |98| 
     1054 00000088 08700000-        ldp       @CL3,DP
     1055 00000089 5028006d-        ldiu      @CL3,ar0              ; |98| 
     1056 0000008a 50602000         ldiu      8192,r0               ; |98| 
     1057 0000008b 27c000c0         tstb3     *ar0,r0               ; |98| 
     1058 0000008c 6a050005         beq       L24                   ; |98| 
     1059                   ;*      Branch Occurs to L24            ; |98| 
     1060 0000008d          L23:        
     1061                           .line   35
     1062                   ;----------------------------------------------------------------------
     1063                   ;  99 | DIAGNOSTICS_ERROR_CODE = E_ERROR_WATERCUT_OVERRANGE;                   
     1064                   ;----------------------------------------------------------------------
     1065 0000008d 08700000-        ldp       @CL5,DP
     1066 0000008e 5028006f-        ldiu      @CL5,ar0              ; |99| 
     1067 0000008f 50600013         ldiu      19,r0                 ; |99| 
     1068 00000090 1540c000         sti       r0,*ar0               ; |99| 
     1069 00000091 6a00000e         bu        L27                   ; |64| 
     1070                   ;*      Branch Occurs to L27            ; |64| 
     1071 00000092          L24:        
     1072                           .line   36
     1073                   ;----------------------------------------------------------------------
     1074                   ; 100 | else if (RTC_PRESENT && (DIAGNOSTICS[1] & ERROR2_TIME_RESET))          
     1075                   ;----------------------------------------------------------------------
     1076 00000092 08700000-        ldp       @CL13,DP
     1077 00000093 50280077-        ldiu      @CL13,ar0             ; |100| 
     1078 00000094 5040c000         ldiu      *ar0,r0               ; |100| 
     1079 00000095 04e00000         cmpi      0,r0                  ; |100| 
     1080 00000096 6a050009         beq       L27                   ; |100| 
TMS320C3x/4x COFF AssemblerVersion 5.12     Thu Sep 02 10:22:21 2021
Copyright (c) 1987-1999 Texas Instruments Incorporatedasm30.exe -@_6UK.AAB 

Y:\workspace\EEA\V615\APP\SOURCE\ASM\selftest.asm                    PAGE   21

     1081                   ;*      Branch Occurs to L27            ; |100| 
     1082 00000097 08700000-        ldp       @CL4,DP
     1083 00000098 5028006e-        ldiu      @CL4,ar0              ; |100| 
     1084 00000099 50600001         ldiu      1,r0                  ; |100| 
     1085 0000009a 27c000c0         tstb3     *ar0,r0               ; |100| 
     1086 0000009b 6a050004         beq       L27                   ; |100| 
     1087                   ;*      Branch Occurs to L27            ; |100| 
     1088                           .line   37
     1089                   ;----------------------------------------------------------------------
     1090                   ; 101 | DIAGNOSTICS_ERROR_CODE = E_ERROR_TIME_RESET;                           
     1091                   ;----------------------------------------------------------------------
     1092 0000009c 08700000-        ldp       @CL5,DP
     1093 0000009d 5028006f-        ldiu      @CL5,ar0              ; |101| 
     1094 0000009e 50600023         ldiu      35,r0                 ; |101| 
     1095 0000009f 1540c000         sti       r0,*ar0               ; |101| 
     1096 000000a0          L27:        
     1097                           .line   40
     1098                   ;----------------------------------------------------------------------
     1099                   ; 104 | if (DIAGNOSTICS_ERROR_CODE == E_ERROR_FLASH_FAIL_RESET_BASICS)         
     1100                   ;----------------------------------------------------------------------
     1101 000000a0 08700000-        ldp       @CL5,DP
     1102 000000a1 5028006f-        ldiu      @CL5,ar0              ; |104| 
     1103 000000a2 5040c000         ldiu      *ar0,r0               ; |104| 
     1104 000000a3 04e00010         cmpi      16,r0                 ; |104| 
     1105 000000a4 6a06001f         bne       L29                   ; |104| 
     1106                   ;*      Branch Occurs to L29            ; |104| 
     1107                           .line   42
     1108                   ;----------------------------------------------------------------------
     1109                   ; 106 | LED_GREEN               = 2;                                           
     1110                   ;----------------------------------------------------------------------
     1111 000000a5 08700000-        ldp       @CL14,DP
     1112 000000a6 50280078-        ldiu      @CL14,ar0             ; |106| 
     1113 000000a7 50600002         ldiu      2,r0                  ; |106| 
     1114 000000a8 1540c000         sti       r0,*ar0               ; |106| 
     1115                           .line   43
     1116                   ;----------------------------------------------------------------------
     1117                   ; 107 | DIO_ERROR.val   = TRUE;                                                
     1118                   ;----------------------------------------------------------------------
     1119 000000a9 08700000-        ldp       @CL2,DP
     1120 000000aa 5028006c-        ldiu      @CL2,ar0              ; |107| 
     1121 000000ab 50600001         ldiu      1,r0                  ; |107| 
     1122 000000ac 1540c000         sti       r0,*ar0               ; |107| 
     1123                           .line   45
     1124                   ;----------------------------------------------------------------------
     1125                   ; 109 | Timer_Create(&TMR_LEDOFF, 0.05, 1, (int*)STATUS_LED_off, 0);           
     1126                   ;----------------------------------------------------------------------
     1127 000000ad 08700000-        ldp       @CL18,DP
     1128 000000ae 5020007c-        ldiu      @CL18,r0              ; |109| 
     1129 000000af 08700000-        ldp       @CL17,DP
     1130 000000b0 503b007b-        ldiu      @CL17,rc              ; |109| 
     1131 000000b1 08700000-        ldp       @CL16,DP
     1132 000000b2 50790000         ldiu      0,rs                  ; |109| 
     1133 000000b3 4022007a-        ldfu      @CL16,f2              ; |109| 
     1134 000000b4 08700000-        ldp       @CL15,DP
TMS320C3x/4x COFF AssemblerVersion 5.12     Thu Sep 02 10:22:21 2021
Copyright (c) 1987-1999 Texas Instruments Incorporatedasm30.exe -@_6UK.AAB 

Y:\workspace\EEA\V615\APP\SOURCE\ASM\selftest.asm                    PAGE   22

     1135 000000b5 50630001         ldiu      1,r3                  ; |109| 
     1136 000000b6 502a0079-        ldiu      @CL15,ar2             ; |109| 
     1137 000000b7 70000000         callu     r0                    ; far call to _Timer_Create     ; |109| 
     1138                                                           ; |109| Far Call Occurs
     1139                           .line   46
     1140                   ;----------------------------------------------------------------------
     1141                   ; 110 | Timer_Create(&TMR_LEDON, 0.20, 1, (int*)STATUS_LED_on, 0);             
     1142                   ;----------------------------------------------------------------------
     1143 000000b8 08700000-        ldp       @CL18,DP
     1144 000000b9 5020007c-        ldiu      @CL18,r0              ; |110| 
     1145 000000ba 08700000-        ldp       @CL21,DP
     1146 000000bb 503b007f-        ldiu      @CL21,rc              ; |110| 
     1147 000000bc 08700000-        ldp       @CL20,DP
     1148 000000bd 4022007e-        ldfu      @CL20,f2              ; |110| 
     1149 000000be 08700000-        ldp       @CL19,DP
     1150 000000bf 50790000         ldiu      0,rs                  ; |110| 
     1151 000000c0 502a007d-        ldiu      @CL19,ar2             ; |110| 
     1152 000000c1 50630001         ldiu      1,r3                  ; |110| 
     1153 000000c2 70000000         callu     r0                    ; far call to _Timer_Create     ; |110| 
     1154                                                           ; |110| Far Call Occurs
     1155 000000c3 6a00009a         bu        L44                   ; |64| 
     1156                   ;*      Branch Occurs to L44            ; |64| 
     1157 000000c4          L29:        
     1158                           .line   48
     1159                   ;----------------------------------------------------------------------
     1160                   ; 112 | else if ((!DIAGNOSTICS[0]) && (!DIAGNOSTICS[1]))                       
     1161                   ;----------------------------------------------------------------------
     1162 000000c4 08700000-        ldp       @CL3,DP
     1163 000000c5 5028006d-        ldiu      @CL3,ar0              ; |112| 
     1164 000000c6 5040c000         ldiu      *ar0,r0               ; |112| 
     1165 000000c7 04e00000         cmpi      0,r0                  ; |112| 
     1166 000000c8 6a060036         bne       L36                   ; |112| 
     1167                   ;*      Branch Occurs to L36            ; |112| 
     1168 000000c9 08700000-        ldp       @CL4,DP
     1169 000000ca 5028006e-        ldiu      @CL4,ar0              ; |112| 
     1170 000000cb 5040c000         ldiu      *ar0,r0               ; |112| 
     1171 000000cc 04e00000         cmpi      0,r0                  ; |112| 
     1172 000000cd 6a060031         bne       L36                   ; |112| 
     1173                   ;*      Branch Occurs to L36            ; |112| 
     1174                           .line   50
     1175                   ;----------------------------------------------------------------------
     1176                   ; 114 | DIO_ERROR.val                   = FALSE;                               
     1177                   ;----------------------------------------------------------------------
     1178 000000ce 08700000-        ldp       @CL2,DP
     1179 000000cf 5028006c-        ldiu      @CL2,ar0              ; |114| 
     1180 000000d0 50600000         ldiu      0,r0                  ; |114| 
     1181 000000d1 1540c000         sti       r0,*ar0               ; |114| 
     1182                           .line   51
     1183                   ;----------------------------------------------------------------------
     1184                   ; 115 | DIAGNOSTICS_MSG_CODE    = M_ERROR_NONE;                                
     1185                   ;----------------------------------------------------------------------
     1186 000000d2 08700000-        ldp       @CL6,DP
     1187 000000d3 50280070-        ldiu      @CL6,ar0              ; |115| 
     1188 000000d4 1540c000         sti       r0,*ar0               ; |115| 
TMS320C3x/4x COFF AssemblerVersion 5.12     Thu Sep 02 10:22:21 2021
Copyright (c) 1987-1999 Texas Instruments Incorporatedasm30.exe -@_6UK.AAB 

Y:\workspace\EEA\V615\APP\SOURCE\ASM\selftest.asm                    PAGE   23

     1189                           .line   53
     1190                   ;----------------------------------------------------------------------
     1191                   ; 117 | if ((SA) && (HW_VER>=0xB7))                                            
     1192                   ;----------------------------------------------------------------------
     1193 000000d5 08700000-        ldp       @CL22,DP
     1194 000000d6 50280080-        ldiu      @CL22,ar0             ; |117| 
     1195 000000d7 5040c000         ldiu      *ar0,r0               ; |117| 
     1196 000000d8 04e00000         cmpi      0,r0                  ; |117| 
     1197 000000d9 6a05000a         beq       L34                   ; |117| 
     1198                   ;*      Branch Occurs to L34            ; |117| 
     1199 000000da 08700000-        ldp       @CL23,DP
     1200 000000db 50280081-        ldiu      @CL23,ar0             ; |117| 
     1201 000000dc 5040c000         ldiu      *ar0,r0               ; |117| 
     1202 000000dd 04e000b7         cmpi      183,r0                ; |117| 
     1203 000000de 6a010005         blo       L34                   ; |117| 
     1204                   ;*      Branch Occurs to L34            ; |117| 
     1205                           .line   54
     1206                   ;----------------------------------------------------------------------
     1207                   ; 118 | LED_GREEN = TRUE;                                                      
     1208                   ; 119 | else                                                                   
     1209                   ;----------------------------------------------------------------------
     1210 000000df 08700000-        ldp       @CL14,DP
     1211 000000e0 50280078-        ldiu      @CL14,ar0             ; |118| 
     1212 000000e1 50600001         ldiu      1,r0                  ; |118| 
     1213 000000e2 1540c000         sti       r0,*ar0               ; |118| 
     1214 000000e3 6a000004         bu        L35                   ; |64| 
     1215                   ;*      Branch Occurs to L35            ; |64| 
     1216 000000e4          L34:        
     1217                           .line   56
     1218                   ;----------------------------------------------------------------------
     1219                   ; 120 | LED_GREEN = FALSE;                                                     
     1220                   ;----------------------------------------------------------------------
     1221 000000e4 08700000-        ldp       @CL14,DP
     1222 000000e5 50280078-        ldiu      @CL14,ar0             ; |120| 
     1223 000000e6 50600000         ldiu      0,r0                  ; |120| 
     1224 000000e7 1540c000         sti       r0,*ar0               ; |120| 
     1225 000000e8          L35:        
     1226                           .line   58
     1227                   ;----------------------------------------------------------------------
     1228                   ; 122 | Timer_Create(&TMR_LEDOFF, 0.05, 1, (int*)STATUS_LED_off, 0);           
     1229                   ;----------------------------------------------------------------------
     1230 000000e8 08700000-        ldp       @CL18,DP
     1231 000000e9 5020007c-        ldiu      @CL18,r0              ; |122| 
     1232 000000ea 08700000-        ldp       @CL17,DP
     1233 000000eb 503b007b-        ldiu      @CL17,rc              ; |122| 
     1234 000000ec 08700000-        ldp       @CL16,DP
     1235 000000ed 50790000         ldiu      0,rs                  ; |122| 
     1236 000000ee 4022007a-        ldfu      @CL16,f2              ; |122| 
     1237 000000ef 08700000-        ldp       @CL15,DP
     1238 000000f0 50630001         ldiu      1,r3                  ; |122| 
     1239 000000f1 502a0079-        ldiu      @CL15,ar2             ; |122| 
     1240 000000f2 70000000         callu     r0                    ; far call to _Timer_Create     ; |122| 
     1241                                                           ; |122| Far Call Occurs
     1242                           .line   59
TMS320C3x/4x COFF AssemblerVersion 5.12     Thu Sep 02 10:22:21 2021
Copyright (c) 1987-1999 Texas Instruments Incorporatedasm30.exe -@_6UK.AAB 

Y:\workspace\EEA\V615\APP\SOURCE\ASM\selftest.asm                    PAGE   24

     1243                   ;----------------------------------------------------------------------
     1244                   ; 123 | Timer_Create(&TMR_LEDON,  0.95, 1, (int*)STATUS_LED_on,  0);           
     1245                   ; 125 | else                                                                   
     1246                   ;----------------------------------------------------------------------
     1247 000000f3 08700000-        ldp       @CL18,DP
     1248 000000f4 5020007c-        ldiu      @CL18,r0              ; |123| 
     1249 000000f5 08700000-        ldp       @CL21,DP
     1250 000000f6 503b007f-        ldiu      @CL21,rc              ; |123| 
     1251 000000f7 08700000-        ldp       @CL24,DP
     1252 000000f8 50790000         ldiu      0,rs                  ; |123| 
     1253 000000f9 40220082-        ldfu      @CL24,f2              ; |123| 
     1254 000000fa 08700000-        ldp       @CL19,DP
     1255 000000fb 50630001         ldiu      1,r3                  ; |123| 
     1256 000000fc 502a007d-        ldiu      @CL19,ar2             ; |123| 
     1257 000000fd 70000000         callu     r0                    ; far call to _Timer_Create     ; |123| 
     1258                                                           ; |123| Far Call Occurs
     1259 000000fe 6a00005f         bu        L44                   ; |64| 
     1260                   ;*      Branch Occurs to L44            ; |64| 
     1261 000000ff          L36:        
     1262                           .line   63
     1263                   ;----------------------------------------------------------------------
     1264                   ; 127 | DIO_ERROR.val   = TRUE;                                                
     1265                   ;----------------------------------------------------------------------
     1266 000000ff 08700000-        ldp       @CL2,DP
     1267 00000100 5028006c-        ldiu      @CL2,ar0              ; |127| 
     1268 00000101 50600001         ldiu      1,r0                  ; |127| 
     1269 00000102 1540c000         sti       r0,*ar0               ; |127| 
     1270                           .line   64
     1271                   ;----------------------------------------------------------------------
     1272                   ; 128 | LED_GREEN               = FALSE;                                       
     1273                   ;----------------------------------------------------------------------
     1274 00000103 08700000-        ldp       @CL14,DP
     1275 00000104 50280078-        ldiu      @CL14,ar0             ; |128| 
     1276 00000105 50600000         ldiu      0,r0                  ; |128| 
     1277 00000106 1540c000         sti       r0,*ar0               ; |128| 
     1278                           .line   66
     1279                   ;----------------------------------------------------------------------
     1280                   ; 130 | Timer_Create(&TMR_LEDOFF, 0.05, 1, (int*)STATUS_LED_off, 0);           
     1281                   ;----------------------------------------------------------------------
     1282 00000107 08700000-        ldp       @CL18,DP
     1283 00000108 5020007c-        ldiu      @CL18,r0              ; |130| 
     1284 00000109 08700000-        ldp       @CL17,DP
     1285 0000010a 503b007b-        ldiu      @CL17,rc              ; |130| 
     1286 0000010b 08700000-        ldp       @CL16,DP
     1287 0000010c 50790000         ldiu      0,rs                  ; |130| 
     1288 0000010d 4022007a-        ldfu      @CL16,f2              ; |130| 
     1289 0000010e 08700000-        ldp       @CL15,DP
     1290 0000010f 50630001         ldiu      1,r3                  ; |130| 
     1291 00000110 502a0079-        ldiu      @CL15,ar2             ; |130| 
     1292 00000111 70000000         callu     r0                    ; far call to _Timer_Create     ; |130| 
     1293                                                           ; |130| Far Call Occurs
     1294                           .line   67
     1295                   ;----------------------------------------------------------------------
     1296                   ; 131 | Timer_Create(&TMR_LEDON,  0.45, 1, (int*)STATUS_LED_on,  0);           
TMS320C3x/4x COFF AssemblerVersion 5.12     Thu Sep 02 10:22:21 2021
Copyright (c) 1987-1999 Texas Instruments Incorporatedasm30.exe -@_6UK.AAB 

Y:\workspace\EEA\V615\APP\SOURCE\ASM\selftest.asm                    PAGE   25

     1297                   ;----------------------------------------------------------------------
     1298 00000112 08700000-        ldp       @CL18,DP
     1299 00000113 5020007c-        ldiu      @CL18,r0              ; |131| 
     1300 00000114 08700000-        ldp       @CL21,DP
     1301 00000115 503b007f-        ldiu      @CL21,rc              ; |131| 
     1302 00000116 08700000-        ldp       @CL25,DP
     1303 00000117 40220083-        ldfu      @CL25,f2              ; |131| 
     1304 00000118 08700000-        ldp       @CL19,DP
     1305 00000119 50790000         ldiu      0,rs                  ; |131| 
     1306 0000011a 502a007d-        ldiu      @CL19,ar2             ; |131| 
     1307 0000011b 50630001         ldiu      1,r3                  ; |131| 
     1308 0000011c 70000000         callu     r0                    ; far call to _Timer_Create     ; |131| 
     1309                                                           ; |131| Far Call Occurs
     1310                           .line   69
     1311                   ;----------------------------------------------------------------------
     1312                   ; 133 | e = (DIAGNOSTICS[1]<<16) | (DIAGNOSTICS[0]&0xFFFF);                    
     1313                   ;----------------------------------------------------------------------
     1314 0000011d 08700000-        ldp       @CL3,DP
     1315 0000011e 50600010         ldiu      16,r0                 ; |133| 
     1316 0000011f 5029006d-        ldiu      @CL3,ar1              ; |133| 
     1317 00000120 08700000-        ldp       @CL4,DP
     1318 00000121 5041c100         ldiu      *ar1,r1               ; |133| 
     1319 00000122 5028006e-        ldiu      @CL4,ar0              ; |133| 
     1320 00000123 02e1ffff         and       65535,r1              ; |133| 
     1321 00000124 22a0c000         ash3      r0,*ar0,r0            ; |133| 
     1322 00000125 25800100         or3       r0,r1,r0              ; |133| 
     1323 00000126 1540031d         sti       r0,*+fp(29)           ; |133| 
     1324                           .line   72
     1325                   ;----------------------------------------------------------------------
     1326                   ; 136 | j = 0x80000000;                                                        
     1327                   ;----------------------------------------------------------------------
     1328 00000127 08700000-        ldp       @CL26,DP
     1329 00000128 50200084-        ldiu      @CL26,r0              ; |136| 
     1330 00000129 1540030a         sti       r0,*+fp(10)           ; |136| 
     1331                           .line   74
     1332                   ;----------------------------------------------------------------------
     1333                   ; 138 | for (i=0;i<32;i++)                                                     
     1334                   ;----------------------------------------------------------------------
     1335 0000012a 50600000         ldiu      0,r0                  ; |138| 
     1336 0000012b 15400309         sti       r0,*+fp(9)            ; |138| 
     1337 0000012c 04e00020         cmpi      32,r0                 ; |138| 
     1338 0000012d 6a04000c         bhs       L41                   ; |138| 
     1339                   ;*      Branch Occurs to L41            ; |138| 
     1340 0000012e          L37:        
     1341                           .line   76
     1342                   ;----------------------------------------------------------------------
     1343                   ; 140 | if (j & e)                                                             
     1344                   ;----------------------------------------------------------------------
     1345 0000012e 5040031d         ldiu      *+fp(29),r0           ; |140| 
     1346 0000012f 1a40030a         tstb      *+fp(10),r0           ; |140| 
     1347 00000130 6a050001         beq       L40                   ; |140| 
     1348                   ;*      Branch Occurs to L40            ; |140| 
     1349                           .line   77
     1350                   ;----------------------------------------------------------------------
TMS320C3x/4x COFF AssemblerVersion 5.12     Thu Sep 02 10:22:21 2021
Copyright (c) 1987-1999 Texas Instruments Incorporatedasm30.exe -@_6UK.AAB 

Y:\workspace\EEA\V615\APP\SOURCE\ASM\selftest.asm                    PAGE   26

     1351                   ; 141 | break;                                                                 
     1352                   ; 142 | else                                                                   
     1353                   ;----------------------------------------------------------------------
     1354 00000131 6a000008         bu        L41                   ; |141| 
     1355                   ;*      Branch Occurs to L41            ; |141| 
     1356 00000132          L40:        
     1357                           .line   79
     1358                   ;----------------------------------------------------------------------
     1359                   ; 143 | j = j>>1;                                                              
     1360                   ;----------------------------------------------------------------------
     1361 00000132 5040030a         ldiu      *+fp(10),r0           ; |143| 
     1362 00000133 09e0ffff         lsh       -1,r0                 ; |143| 
     1363 00000134 1540030a         sti       r0,*+fp(10)           ; |143| 
     1364                           .line   74
     1365 00000135 50600001         ldiu      1,r0                  ; |138| 
     1366 00000136 02400309         addi      *+fp(9),r0            ; |138| Unsigned
     1367 00000137 15400309         sti       r0,*+fp(9)            ; |138| 
     1368 00000138 04e00020         cmpi      32,r0                 ; |138| 
     1369 00000139 6a01fff4         blo       L37                   ; |138| 
     1370                   ;*      Branch Occurs to L37            ; |138| 
     1371 0000013a          L41:        
     1372                           .line   82
     1373                   ;----------------------------------------------------------------------
     1374                   ; 146 | if (j==0)                                                              
     1375                   ;----------------------------------------------------------------------
     1376 0000013a 5040030a         ldiu      *+fp(10),r0           ; |146| 
     1377 0000013b 04e00000         cmpi      0,r0                  ; |146| 
     1378 0000013c 6a060005         bne       L43                   ; |146| 
     1379                   ;*      Branch Occurs to L43            ; |146| 
     1380                           .line   83
     1381                   ;----------------------------------------------------------------------
     1382                   ; 147 | DIAGNOSTICS_MSG_CODE = M_ERROR_NONE;                                   
     1383                   ; 148 | else                                                                   
     1384                   ;----------------------------------------------------------------------
     1385 0000013d 08700000-        ldp       @CL6,DP
     1386 0000013e 50280070-        ldiu      @CL6,ar0              ; |147| 
     1387 0000013f 50600000         ldiu      0,r0                  ; |147| 
     1388 00000140 1540c000         sti       r0,*ar0               ; |147| 
     1389 00000141 6a00001c         bu        L44                   ; |64| 
     1390                   ;*      Branch Occurs to L44            ; |64| 
     1391 00000142          L43:        
     1392                           .line   86
     1393                   ;----------------------------------------------------------------------
     1394                   ; 150 | t                                        = j;                          
     1395                   ;----------------------------------------------------------------------
     1396 00000142 08700000-        ldp       @CL27,DP
     1397 00000143 05c0030a         float     *+fp(10),f0           ; |150| 
     1398 00000144 43a10085-        ldflt     @CL27,f1              ; |150| 
     1399 00000145 45618000         ldfge     0.0000000000e+00,f1   ; |150| 
     1400 00000146 20800100         addf3     f0,f1,f0              ; |150| 
     1401 00000147 1440031c         stf       f0,*+fp(28)           ; |150| 
     1402                           .line   87
     1403                   ;----------------------------------------------------------------------
     1404                   ; 151 | t                                        = log(t)/log(2.0);            
TMS320C3x/4x COFF AssemblerVersion 5.12     Thu Sep 02 10:22:21 2021
Copyright (c) 1987-1999 Texas Instruments Incorporatedasm30.exe -@_6UK.AAB 

Y:\workspace\EEA\V615\APP\SOURCE\ASM\selftest.asm                    PAGE   27

     1405                   ;----------------------------------------------------------------------
     1406 00000148 08700000-        ldp       @CL28,DP
     1407 00000149 40020000         ldfu      f0,f2
     1408 0000014a 50200086-        ldiu      @CL28,r0              ; |151| 
     1409 0000014b 70000000         callu     r0                    ; far call to _log      ; |151| 
     1410                                                           ; |151| Far Call Occurs
     1411 0000014c 08700000-        ldp       @CL28,DP
     1412 0000014d 50210086-        ldiu      @CL28,r1              ; |151| 
     1413 0000014e 40060000         ldfu      f0,f6                 ; |151| 
     1414 0000014f 40621000         ldfu      2.0000000000e+00,f2   ; |151| 
     1415 00000150 70000001         callu     r1                    ; far call to _log      ; |151| 
     1416                                                           ; |151| Far Call Occurs
     1417 00000151 40010000         ldfu      f0,f1                 ; |151| 
     1418 00000152 40000006         ldfu      f6,f0                 ; |151| 
     1419 00000153 62000000!        call      DIV_F30               ; |151| 
     1420                                                           ; |151| Call Occurs
     1421 00000154 1440031c         stf       f0,*+fp(28)           ; |151| 
     1422                           .line   88
     1423                   ;----------------------------------------------------------------------
     1424                   ; 152 | DIAGNOSTICS_MSG_CODE = t;                                              
     1425                   ;----------------------------------------------------------------------
     1426 00000155 08700000-        ldp       @CL6,DP
     1427 00000156 50280070-        ldiu      @CL6,ar0              ; |152| 
     1428 00000157 40010000         ldfu      f0,f1                 ; |152| 
     1429 00000158 0b800001         negf      f1,f0                 ; |152| 
     1430 00000159 05010001         fix       f1,r1                 ; |152| 
     1431 0000015a 05000000         fix       f0,r0                 ; |152| 
     1432 0000015b 0c000000         negi      r0,r0                 ; |152| 
     1433 0000015c 54010000         ldile     r0,r1                 ; |152| 
     1434 0000015d 1541c000         sti       r1,*ar0               ; |152| 
     1435 0000015e          L44:        
     1436                           .line   93
     1437                   ;----------------------------------------------------------------------
     1438                   ; 157 | VAR_Update(&REG_DIAG[0], DIAGNOSTICS[0],                 0, 0);        
     1439                   ;----------------------------------------------------------------------
     1440 0000015e 08700000-        ldp       @CL3,DP
     1441 0000015f 5028006d-        ldiu      @CL3,ar0              ; |157| 
     1442 00000160 08700000-        ldp       @CL29,DP
     1443 00000161 507b0000         ldiu      0,rc                  ; |157| 
     1444 00000162 502a0087-        ldiu      @CL29,ar2             ; |157| 
     1445 00000163 5041c000         ldiu      *ar0,r1               ; |157| 
     1446 00000164 08700000-        ldp       @CL30,DP
     1447 00000165 05820001         float     r1,f2                 ; |157| 
     1448 00000166 50200088-        ldiu      @CL30,r0              ; |157| 
     1449 00000167 50630000         ldiu      0,r3                  ; |157| 
     1450 00000168 70000000         callu     r0                    ; far call to _VAR_Update       ; |157| 
     1451                                                           ; |157| Far Call Occurs
     1452                           .line   94
     1453                   ;----------------------------------------------------------------------
     1454                   ; 158 | VAR_Update(&REG_DIAG[1], DIAGNOSTICS[1],                 0, 0);        
     1455                   ;----------------------------------------------------------------------
     1456 00000169 08700000-        ldp       @CL4,DP
     1457 0000016a 5028006e-        ldiu      @CL4,ar0              ; |158| 
     1458 0000016b 08700000-        ldp       @CL31,DP
TMS320C3x/4x COFF AssemblerVersion 5.12     Thu Sep 02 10:22:21 2021
Copyright (c) 1987-1999 Texas Instruments Incorporatedasm30.exe -@_6UK.AAB 

Y:\workspace\EEA\V615\APP\SOURCE\ASM\selftest.asm                    PAGE   28

     1459 0000016c 502a0089-        ldiu      @CL31,ar2             ; |158| 
     1460 0000016d 507b0000         ldiu      0,rc                  ; |158| 
     1461 0000016e 08700000-        ldp       @CL30,DP
     1462 0000016f 5041c000         ldiu      *ar0,r1               ; |158| 
     1463 00000170 50200088-        ldiu      @CL30,r0              ; |158| 
     1464 00000171 05820001         float     r1,f2                 ; |158| 
     1465 00000172 50630000         ldiu      0,r3                  ; |158| 
     1466 00000173 70000000         callu     r0                    ; far call to _VAR_Update       ; |158| 
     1467                                                           ; |158| Far Call Occurs
     1468                           .line   95
     1469                   ;----------------------------------------------------------------------
     1470                   ; 159 | VAR_Update(&REG_DIAG[2], DIAGNOSTICS_ERROR_CODE, 0, 0);                
     1471                   ;----------------------------------------------------------------------
     1472 00000174 08700000-        ldp       @CL5,DP
     1473 00000175 5028006f-        ldiu      @CL5,ar0              ; |159| 
     1474 00000176 08700000-        ldp       @CL32,DP
     1475 00000177 502a008a-        ldiu      @CL32,ar2             ; |159| 
     1476 00000178 08700000-        ldp       @CL30,DP
     1477 00000179 5041c000         ldiu      *ar0,r1               ; |159| 
     1478 0000017a 05820001         float     r1,f2                 ; |159| 
     1479 0000017b 50200088-        ldiu      @CL30,r0              ; |159| 
     1480 0000017c 507b0000         ldiu      0,rc                  ; |159| 
     1481 0000017d 50630000         ldiu      0,r3                  ; |159| 
     1482 0000017e 70000000         callu     r0                    ; far call to _VAR_Update       ; |159| 
     1483                                                           ; |159| Far Call Occurs
     1484                           .line   96
     1485                   ;----------------------------------------------------------------------
     1486                   ; 160 | VAR_Update(&REG_DIAG[3], DIAGNOSTICS_MSG_CODE,   0, 0);                
     1487                   ;----------------------------------------------------------------------
     1488 0000017f 08700000-        ldp       @CL6,DP
     1489 00000180 50280070-        ldiu      @CL6,ar0              ; |160| 
     1490 00000181 08700000-        ldp       @CL33,DP
     1491 00000182 502a008b-        ldiu      @CL33,ar2             ; |160| 
     1492 00000183 08700000-        ldp       @CL30,DP
     1493 00000184 507b0000         ldiu      0,rc                  ; |160| 
     1494 00000185 5041c000         ldiu      *ar0,r1               ; |160| 
     1495 00000186 05820001         float     r1,f2                 ; |160| 
     1496 00000187 50200088-        ldiu      @CL30,r0              ; |160| 
     1497 00000188 50630000         ldiu      0,r3                  ; |160| 
     1498 00000189 70000000         callu     r0                    ; far call to _VAR_Update       ; |160| 
     1499                                                           ; |160| Far Call Occurs
     1500                           .line   98
     1501                   ;----------------------------------------------------------------------
     1502                   ; 162 | if ((SYS_LOG_ENABLED & LOG_ERROR) && ((DIAGNOSTICS[0] != DIAG_TEMP[0])
     1503                   ;     | || (DIAGNOSTICS[1] != DIAG_TEMP[1])))                                  
     1504                   ;----------------------------------------------------------------------
     1505 0000018a 08700000-        ldp       @CL34,DP
     1506 0000018b 5028008c-        ldiu      @CL34,ar0             ; |162| 
     1507 0000018c 50600004         ldiu      4,r0                  ; |162| 
     1508 0000018d 27c000c0         tstb3     *ar0,r0               ; |162| 
     1509 0000018e 6a050216         beq       L97                   ; |162| 
     1510                   ;*      Branch Occurs to L97            ; |162| 
     1511 0000018f 08700000-        ldp       @CL35,DP
     1512 00000190 5028008d-        ldiu      @CL35,ar0             ; |162| 
TMS320C3x/4x COFF AssemblerVersion 5.12     Thu Sep 02 10:22:21 2021
Copyright (c) 1987-1999 Texas Instruments Incorporatedasm30.exe -@_6UK.AAB 

Y:\workspace\EEA\V615\APP\SOURCE\ASM\selftest.asm                    PAGE   29

     1513 00000191 08700000-        ldp       @CL3,DP
     1514 00000192 5029006d-        ldiu      @CL3,ar1              ; |162| 
     1515 00000193 23e0c1c0         cmpi3     *ar0,*ar1             ; |162| 
     1516 00000194 6a060006         bne       L47                   ; |162| 
     1517                   ;*      Branch Occurs to L47            ; |162| 
     1518 00000195 08700000-        ldp       @CL36,DP
     1519 00000196 5028008e-        ldiu      @CL36,ar0             ; |162| 
     1520 00000197 08700000-        ldp       @CL4,DP
     1521 00000198 5029006e-        ldiu      @CL4,ar1              ; |162| 
     1522 00000199 23e0c1c0         cmpi3     *ar0,*ar1             ; |162| 
     1523 0000019a 6a05020a         beq       L97                   ; |162| 
     1524                   ;*      Branch Occurs to L97            ; |162| 
     1525 0000019b          L47:        
     1526                           .line   100
     1527                   ;----------------------------------------------------------------------
     1528                   ; 164 | DIAG_TEMP[0] = DIAGNOSTICS[0];                                         
     1529                   ;----------------------------------------------------------------------
     1530 0000019b 08700000-        ldp       @CL3,DP
     1531 0000019c 5028006d-        ldiu      @CL3,ar0              ; |164| 
     1532 0000019d 08700000-        ldp       @CL35,DP
     1533 0000019e 5029008d-        ldiu      @CL35,ar1             ; |164| 
     1534 0000019f 5040c000         ldiu      *ar0,r0               ; |164| 
     1535 000001a0 1540c100         sti       r0,*ar1               ; |164| 
     1536                           .line   101
     1537                   ;----------------------------------------------------------------------
     1538                   ; 165 | DIAG_TEMP[1] = DIAGNOSTICS[1];                                         
     1539                   ;----------------------------------------------------------------------
     1540 000001a1 08700000-        ldp       @CL4,DP
     1541 000001a2 5029006e-        ldiu      @CL4,ar1              ; |165| 
     1542 000001a3 08700000-        ldp       @CL36,DP
     1543 000001a4 5028008e-        ldiu      @CL36,ar0             ; |165| 
     1544 000001a5 5040c100         ldiu      *ar1,r0               ; |165| 
     1545 000001a6 1540c000         sti       r0,*ar0               ; |165| 
     1546                           .line   103
     1547                   ;----------------------------------------------------------------------
     1548                   ; 167 | RecordLogEntry(&SYS, LOG_ERROR, rec);                                  
     1549                   ; 170 | switch(DIAGNOSTICS_ERROR_CODE)                                         
     1550                   ; 172 | case E_ERROR_NONE:                                                     
     1551                   ;----------------------------------------------------------------------
     1552 000001a7 5003000b         ldiu      fp,r3                 ; |167| 
     1553 000001a8 08700000-        ldp       @CL38,DP
     1554 000001a9 50620004         ldiu      4,r2                  ; |167| 
     1555 000001aa 50200090-        ldiu      @CL38,r0              ; |167| 
     1556 000001ab 08700000-        ldp       @CL37,DP
     1557 000001ac 02630001         addi      1,r3                  ; |167| 
     1558 000001ad 502a008f-        ldiu      @CL37,ar2             ; |167| 
     1559 000001ae 70000000         callu     r0                    ; far call to _RecordLogEntry   ; |167| 
     1560                                                           ; |167| Far Call Occurs
     1561 000001af 6a0001f5         bu        L97                   ; |64| 
     1562                   ;*      Branch Occurs to L97            ; |64| 
     1563 000001b0          L48:        
     1564                           .line   109
     1565                   ;----------------------------------------------------------------------
     1566                   ; 173 | if (RUSS)                                                              
TMS320C3x/4x COFF AssemblerVersion 5.12     Thu Sep 02 10:22:21 2021
Copyright (c) 1987-1999 Texas Instruments Incorporatedasm30.exe -@_6UK.AAB 

Y:\workspace\EEA\V615\APP\SOURCE\ASM\selftest.asm                    PAGE   30

     1567                   ;----------------------------------------------------------------------
     1568 000001b0 08700000-        ldp       @CL39,DP
     1569 000001b1 50280091-        ldiu      @CL39,ar0             ; |173| 
     1570 000001b2 5040c000         ldiu      *ar0,r0               ; |173| 
     1571 000001b3 04e00000         cmpi      0,r0                  ; |173| 
     1572 000001b4 6a050011         beq       L50                   ; |173| 
     1573                   ;*      Branch Occurs to L50            ; |173| 
     1574                           .line   111
     1575                   ;----------------------------------------------------------------------
     1576                   ; 175 | Get_Russ_Line(382,OUT_STR,0);                                          
     1577                   ;----------------------------------------------------------------------
     1578 000001b5 08700000-        ldp       @CL41,DP
     1579 000001b6 50200093-        ldiu      @CL41,r0              ; |175| 
     1580 000001b7 506a017e         ldiu      382,ar2               ; |175| 
     1581 000001b8 08700000-        ldp       @CL40,DP
     1582 000001b9 50630000         ldiu      0,r3                  ; |175| 
     1583 000001ba 50220092-        ldiu      @CL40,r2              ; |175| 
     1584 000001bb 70000000         callu     r0                    ; far call to _Get_Russ_Line    ; |175| 
     1585                                                           ; |175| Far Call Occurs
     1586                           .line   112
     1587                   ;----------------------------------------------------------------------
     1588                   ; 176 | sprintf(E_STRING,OUT_STR);                                             
     1589                   ; 178 | else                                                                   
     1590                   ;----------------------------------------------------------------------
     1591 000001bc 08700000-        ldp       @CL40,DP
     1592 000001bd 50210092-        ldiu      @CL40,r1              ; |176| 
     1593 000001be 08700000-        ldp       @CL43,DP
     1594 000001bf 50200095-        ldiu      @CL43,r0              ; |176| 
     1595 000001c0 08700000-        ldp       @CL42,DP
     1596 000001c1 0f210000         push      r1                    ; |176| 
     1597 000001c2 502a0094-        ldiu      @CL42,ar2             ; |176| 
     1598 000001c3 70000000         callu     r0                    ; far call to _sprintf  ; |176| 
     1599                                                           ; |176| Far Call Occurs
     1600 000001c4 18740001         subi      1,sp                  ; |176| 
     1601 000001c5 6a000203         bu        L115                  ; |64| 
     1602                   ;*      Branch Occurs to L115           ; |64| 
     1603 000001c6          L50:        
     1604                           .line   115
     1605                   ;----------------------------------------------------------------------
     1606                   ; 179 | sprintf(E_STRING,"NO ERRORS");  //R382                                 
     1607                   ;----------------------------------------------------------------------
     1608 000001c6 08700000-        ldp       @CL44,DP
     1609 000001c7 50210096-        ldiu      @CL44,r1              ; |179| 
     1610 000001c8 08700000-        ldp       @CL43,DP
     1611 000001c9 50200095-        ldiu      @CL43,r0              ; |179| 
     1612 000001ca 08700000-        ldp       @CL42,DP
     1613 000001cb 0f210000         push      r1                    ; |179| 
     1614 000001cc 502a0094-        ldiu      @CL42,ar2             ; |179| 
     1615 000001cd 70000000         callu     r0                    ; far call to _sprintf  ; |179| 
     1616                                                           ; |179| Far Call Occurs
     1617 000001ce 18740001         subi      1,sp                  ; |179| 
     1618                           .line   116
     1619                   ;----------------------------------------------------------------------
     1620                   ; 180 | break;                                                                 
TMS320C3x/4x COFF AssemblerVersion 5.12     Thu Sep 02 10:22:21 2021
Copyright (c) 1987-1999 Texas Instruments Incorporatedasm30.exe -@_6UK.AAB 

Y:\workspace\EEA\V615\APP\SOURCE\ASM\selftest.asm                    PAGE   31

     1621                   ; 181 | case E_ERROR_FREQ:                                                     
     1622                   ;----------------------------------------------------------------------
     1623 000001cf 6a0001f9         bu        L115                  ; |180| 
     1624                   ;*      Branch Occurs to L115           ; |180| 
     1625 000001d0          L51:        
     1626                           .line   118
     1627                   ;----------------------------------------------------------------------
     1628                   ; 182 | if (RUSS)                                                              
     1629                   ;----------------------------------------------------------------------
     1630 000001d0 08700000-        ldp       @CL39,DP
     1631 000001d1 50280091-        ldiu      @CL39,ar0             ; |182| 
     1632 000001d2 5040c000         ldiu      *ar0,r0               ; |182| 
     1633 000001d3 04e00000         cmpi      0,r0                  ; |182| 
     1634 000001d4 6a050011         beq       L53                   ; |182| 
     1635                   ;*      Branch Occurs to L53            ; |182| 
     1636                           .line   120
     1637                   ;----------------------------------------------------------------------
     1638                   ; 184 | Get_Russ_Line(351,OUT_STR,0);                                          
     1639                   ;----------------------------------------------------------------------
     1640 000001d5 08700000-        ldp       @CL41,DP
     1641 000001d6 50200093-        ldiu      @CL41,r0              ; |184| 
     1642 000001d7 506a015f         ldiu      351,ar2               ; |184| 
     1643 000001d8 08700000-        ldp       @CL40,DP
     1644 000001d9 50630000         ldiu      0,r3                  ; |184| 
     1645 000001da 50220092-        ldiu      @CL40,r2              ; |184| 
     1646 000001db 70000000         callu     r0                    ; far call to _Get_Russ_Line    ; |184| 
     1647                                                           ; |184| Far Call Occurs
     1648                           .line   121
     1649                   ;----------------------------------------------------------------------
     1650                   ; 185 | sprintf(E_STRING,OUT_STR);                                             
     1651                   ; 187 | else                                                                   
     1652                   ;----------------------------------------------------------------------
     1653 000001dc 08700000-        ldp       @CL40,DP
     1654 000001dd 50210092-        ldiu      @CL40,r1              ; |185| 
     1655 000001de 08700000-        ldp       @CL43,DP
     1656 000001df 50200095-        ldiu      @CL43,r0              ; |185| 
     1657 000001e0 08700000-        ldp       @CL42,DP
     1658 000001e1 0f210000         push      r1                    ; |185| 
     1659 000001e2 502a0094-        ldiu      @CL42,ar2             ; |185| 
     1660 000001e3 70000000         callu     r0                    ; far call to _sprintf  ; |185| 
     1661                                                           ; |185| Far Call Occurs
     1662 000001e4 18740001         subi      1,sp                  ; |185| 
     1663 000001e5 6a0001e3         bu        L115                  ; |64| 
     1664                   ;*      Branch Occurs to L115           ; |64| 
     1665 000001e6          L53:        
     1666                           .line   124
     1667                   ;----------------------------------------------------------------------
     1668                   ; 188 | sprintf(E_STRING,"ERROR: Frequency");   //R351                         
     1669                   ;----------------------------------------------------------------------
     1670 000001e6 08700000-        ldp       @CL45,DP
     1671 000001e7 50210097-        ldiu      @CL45,r1              ; |188| 
     1672 000001e8 08700000-        ldp       @CL43,DP
     1673 000001e9 50200095-        ldiu      @CL43,r0              ; |188| 
     1674 000001ea 08700000-        ldp       @CL42,DP
TMS320C3x/4x COFF AssemblerVersion 5.12     Thu Sep 02 10:22:21 2021
Copyright (c) 1987-1999 Texas Instruments Incorporatedasm30.exe -@_6UK.AAB 

Y:\workspace\EEA\V615\APP\SOURCE\ASM\selftest.asm                    PAGE   32

     1675 000001eb 0f210000         push      r1                    ; |188| 
     1676 000001ec 502a0094-        ldiu      @CL42,ar2             ; |188| 
     1677 000001ed 70000000         callu     r0                    ; far call to _sprintf  ; |188| 
     1678                                                           ; |188| Far Call Occurs
     1679 000001ee 18740001         subi      1,sp                  ; |188| 
     1680                           .line   125
     1681                   ;----------------------------------------------------------------------
     1682                   ; 189 | break;                                                                 
     1683                   ; 191 | case E_ERROR_FLASH_FAIL:                                               
     1684                   ;----------------------------------------------------------------------
     1685 000001ef 6a0001d9         bu        L115                  ; |189| 
     1686                   ;*      Branch Occurs to L115           ; |189| 
     1687 000001f0          L54:        
     1688                           .line   128
     1689                   ;----------------------------------------------------------------------
     1690                   ; 192 | if (RUSS)                                                              
     1691                   ;----------------------------------------------------------------------
     1692 000001f0 08700000-        ldp       @CL39,DP
     1693 000001f1 50280091-        ldiu      @CL39,ar0             ; |192| 
     1694 000001f2 5040c000         ldiu      *ar0,r0               ; |192| 
     1695 000001f3 04e00000         cmpi      0,r0                  ; |192| 
     1696 000001f4 6a050011         beq       L56                   ; |192| 
     1697                   ;*      Branch Occurs to L56            ; |192| 
     1698                           .line   130
     1699                   ;----------------------------------------------------------------------
     1700                   ; 194 | Get_Russ_Line(350,OUT_STR,0);                                          
     1701                   ;----------------------------------------------------------------------
     1702 000001f5 08700000-        ldp       @CL41,DP
     1703 000001f6 50200093-        ldiu      @CL41,r0              ; |194| 
     1704 000001f7 506a015e         ldiu      350,ar2               ; |194| 
     1705 000001f8 08700000-        ldp       @CL40,DP
     1706 000001f9 50630000         ldiu      0,r3                  ; |194| 
     1707 000001fa 50220092-        ldiu      @CL40,r2              ; |194| 
     1708 000001fb 70000000         callu     r0                    ; far call to _Get_Russ_Line    ; |194| 
     1709                                                           ; |194| Far Call Occurs
     1710                           .line   131
     1711                   ;----------------------------------------------------------------------
     1712                   ; 195 | sprintf(E_STRING,OUT_STR);                                             
     1713                   ; 197 | else                                                                   
     1714                   ;----------------------------------------------------------------------
     1715 000001fc 08700000-        ldp       @CL40,DP
     1716 000001fd 50210092-        ldiu      @CL40,r1              ; |195| 
     1717 000001fe 08700000-        ldp       @CL43,DP
     1718 000001ff 50200095-        ldiu      @CL43,r0              ; |195| 
     1719 00000200 08700000-        ldp       @CL42,DP
     1720 00000201 0f210000         push      r1                    ; |195| 
     1721 00000202 502a0094-        ldiu      @CL42,ar2             ; |195| 
     1722 00000203 70000000         callu     r0                    ; far call to _sprintf  ; |195| 
     1723                                                           ; |195| Far Call Occurs
     1724 00000204 18740001         subi      1,sp                  ; |195| 
     1725 00000205 6a0001c3         bu        L115                  ; |64| 
     1726                   ;*      Branch Occurs to L115           ; |64| 
     1727 00000206          L56:        
     1728                           .line   134
TMS320C3x/4x COFF AssemblerVersion 5.12     Thu Sep 02 10:22:21 2021
Copyright (c) 1987-1999 Texas Instruments Incorporatedasm30.exe -@_6UK.AAB 

Y:\workspace\EEA\V615\APP\SOURCE\ASM\selftest.asm                    PAGE   33

     1729                   ;----------------------------------------------------------------------
     1730                   ; 198 | sprintf(E_STRING,"ERROR: FLASH Memory");        //R350                 
     1731                   ;----------------------------------------------------------------------
     1732 00000206 08700000-        ldp       @CL46,DP
     1733 00000207 50210098-        ldiu      @CL46,r1              ; |198| 
     1734 00000208 08700000-        ldp       @CL43,DP
     1735 00000209 50200095-        ldiu      @CL43,r0              ; |198| 
     1736 0000020a 08700000-        ldp       @CL42,DP
     1737 0000020b 0f210000         push      r1                    ; |198| 
     1738 0000020c 502a0094-        ldiu      @CL42,ar2             ; |198| 
     1739 0000020d 70000000         callu     r0                    ; far call to _sprintf  ; |198| 
     1740                                                           ; |198| Far Call Occurs
     1741 0000020e 18740001         subi      1,sp                  ; |198| 
     1742                           .line   135
     1743                   ;----------------------------------------------------------------------
     1744                   ; 199 | break;                                                                 
     1745                   ; 201 | case E_ERROR_INTRAM_FAIL:                                              
     1746                   ;----------------------------------------------------------------------
     1747 0000020f 6a0001b9         bu        L115                  ; |199| 
     1748                   ;*      Branch Occurs to L115           ; |199| 
     1749 00000210          L57:        
     1750                           .line   138
     1751                   ;----------------------------------------------------------------------
     1752                   ; 202 | if (RUSS)                                                              
     1753                   ;----------------------------------------------------------------------
     1754 00000210 08700000-        ldp       @CL39,DP
     1755 00000211 50280091-        ldiu      @CL39,ar0             ; |202| 
     1756 00000212 5040c000         ldiu      *ar0,r0               ; |202| 
     1757 00000213 04e00000         cmpi      0,r0                  ; |202| 
     1758 00000214 6a050011         beq       L59                   ; |202| 
     1759                   ;*      Branch Occurs to L59            ; |202| 
     1760                           .line   140
     1761                   ;----------------------------------------------------------------------
     1762                   ; 204 | Get_Russ_Line(354,OUT_STR,0);                                          
     1763                   ;----------------------------------------------------------------------
     1764 00000215 08700000-        ldp       @CL41,DP
     1765 00000216 50200093-        ldiu      @CL41,r0              ; |204| 
     1766 00000217 506a0162         ldiu      354,ar2               ; |204| 
     1767 00000218 08700000-        ldp       @CL40,DP
     1768 00000219 50630000         ldiu      0,r3                  ; |204| 
     1769 0000021a 50220092-        ldiu      @CL40,r2              ; |204| 
     1770 0000021b 70000000         callu     r0                    ; far call to _Get_Russ_Line    ; |204| 
     1771                                                           ; |204| Far Call Occurs
     1772                           .line   141
     1773                   ;----------------------------------------------------------------------
     1774                   ; 205 | sprintf(E_STRING,OUT_STR);                                             
     1775                   ; 207 | else                                                                   
     1776                   ;----------------------------------------------------------------------
     1777 0000021c 08700000-        ldp       @CL40,DP
     1778 0000021d 50210092-        ldiu      @CL40,r1              ; |205| 
     1779 0000021e 08700000-        ldp       @CL43,DP
     1780 0000021f 50200095-        ldiu      @CL43,r0              ; |205| 
     1781 00000220 08700000-        ldp       @CL42,DP
     1782 00000221 0f210000         push      r1                    ; |205| 
TMS320C3x/4x COFF AssemblerVersion 5.12     Thu Sep 02 10:22:21 2021
Copyright (c) 1987-1999 Texas Instruments Incorporatedasm30.exe -@_6UK.AAB 

Y:\workspace\EEA\V615\APP\SOURCE\ASM\selftest.asm                    PAGE   34

     1783 00000222 502a0094-        ldiu      @CL42,ar2             ; |205| 
     1784 00000223 70000000         callu     r0                    ; far call to _sprintf  ; |205| 
     1785                                                           ; |205| Far Call Occurs
     1786 00000224 18740001         subi      1,sp                  ; |205| 
     1787 00000225 6a0001a3         bu        L115                  ; |64| 
     1788                   ;*      Branch Occurs to L115           ; |64| 
     1789 00000226          L59:        
     1790                           .line   144
     1791                   ;----------------------------------------------------------------------
     1792                   ; 208 | sprintf(E_STRING,"ERROR: INT Memory");  //R354                         
     1793                   ;----------------------------------------------------------------------
     1794 00000226 08700000-        ldp       @CL47,DP
     1795 00000227 50210099-        ldiu      @CL47,r1              ; |208| 
     1796 00000228 08700000-        ldp       @CL43,DP
     1797 00000229 50200095-        ldiu      @CL43,r0              ; |208| 
     1798 0000022a 08700000-        ldp       @CL42,DP
     1799 0000022b 0f210000         push      r1                    ; |208| 
     1800 0000022c 502a0094-        ldiu      @CL42,ar2             ; |208| 
     1801 0000022d 70000000         callu     r0                    ; far call to _sprintf  ; |208| 
     1802                                                           ; |208| Far Call Occurs
     1803 0000022e 18740001         subi      1,sp                  ; |208| 
     1804                           .line   145
     1805                   ;----------------------------------------------------------------------
     1806                   ; 209 | break;                                                                 
     1807                   ; 211 | case E_ERROR_EXTRAM_FAIL:                                              
     1808                   ;----------------------------------------------------------------------
     1809 0000022f 6a000199         bu        L115                  ; |209| 
     1810                   ;*      Branch Occurs to L115           ; |209| 
     1811 00000230          L60:        
     1812                           .line   148
     1813                   ;----------------------------------------------------------------------
     1814                   ; 212 | if (RUSS)                                                              
     1815                   ;----------------------------------------------------------------------
     1816 00000230 08700000-        ldp       @CL39,DP
     1817 00000231 50280091-        ldiu      @CL39,ar0             ; |212| 
     1818 00000232 5040c000         ldiu      *ar0,r0               ; |212| 
     1819 00000233 04e00000         cmpi      0,r0                  ; |212| 
     1820 00000234 6a050011         beq       L62                   ; |212| 
     1821                   ;*      Branch Occurs to L62            ; |212| 
     1822                           .line   150
     1823                   ;----------------------------------------------------------------------
     1824                   ; 214 | Get_Russ_Line(349,OUT_STR,0);                                          
     1825                   ;----------------------------------------------------------------------
     1826 00000235 08700000-        ldp       @CL41,DP
     1827 00000236 50200093-        ldiu      @CL41,r0              ; |214| 
     1828 00000237 506a015d         ldiu      349,ar2               ; |214| 
     1829 00000238 08700000-        ldp       @CL40,DP
     1830 00000239 50630000         ldiu      0,r3                  ; |214| 
     1831 0000023a 50220092-        ldiu      @CL40,r2              ; |214| 
     1832 0000023b 70000000         callu     r0                    ; far call to _Get_Russ_Line    ; |214| 
     1833                                                           ; |214| Far Call Occurs
     1834                           .line   151
     1835                   ;----------------------------------------------------------------------
     1836                   ; 215 | sprintf(E_STRING,OUT_STR);                                             
TMS320C3x/4x COFF AssemblerVersion 5.12     Thu Sep 02 10:22:21 2021
Copyright (c) 1987-1999 Texas Instruments Incorporatedasm30.exe -@_6UK.AAB 

Y:\workspace\EEA\V615\APP\SOURCE\ASM\selftest.asm                    PAGE   35

     1837                   ; 217 | else                                                                   
     1838                   ;----------------------------------------------------------------------
     1839 0000023c 08700000-        ldp       @CL40,DP
     1840 0000023d 50210092-        ldiu      @CL40,r1              ; |215| 
     1841 0000023e 08700000-        ldp       @CL43,DP
     1842 0000023f 50200095-        ldiu      @CL43,r0              ; |215| 
     1843 00000240 08700000-        ldp       @CL42,DP
     1844 00000241 0f210000         push      r1                    ; |215| 
     1845 00000242 502a0094-        ldiu      @CL42,ar2             ; |215| 
     1846 00000243 70000000         callu     r0                    ; far call to _sprintf  ; |215| 
     1847                                                           ; |215| Far Call Occurs
     1848 00000244 18740001         subi      1,sp                  ; |215| 
     1849 00000245 6a000183         bu        L115                  ; |64| 
     1850                   ;*      Branch Occurs to L115           ; |64| 
     1851 00000246          L62:        
     1852                           .line   154
     1853                   ;----------------------------------------------------------------------
     1854                   ; 218 | sprintf(E_STRING,"ERROR: EXT Memory");  //R349                         
     1855                   ;----------------------------------------------------------------------
     1856 00000246 08700000-        ldp       @CL48,DP
     1857 00000247 5021009a-        ldiu      @CL48,r1              ; |218| 
     1858 00000248 08700000-        ldp       @CL43,DP
     1859 00000249 50200095-        ldiu      @CL43,r0              ; |218| 
     1860 0000024a 08700000-        ldp       @CL42,DP
     1861 0000024b 0f210000         push      r1                    ; |218| 
     1862 0000024c 502a0094-        ldiu      @CL42,ar2             ; |218| 
     1863 0000024d 70000000         callu     r0                    ; far call to _sprintf  ; |218| 
     1864                                                           ; |218| Far Call Occurs
     1865 0000024e 18740001         subi      1,sp                  ; |218| 
     1866                           .line   155
     1867                   ;----------------------------------------------------------------------
     1868                   ; 219 | break;                                                                 
     1869                   ; 221 | case E_ERROR_WATERCUT_INVALID:                                         
     1870                   ;----------------------------------------------------------------------
     1871 0000024f 6a000179         bu        L115                  ; |219| 
     1872                   ;*      Branch Occurs to L115           ; |219| 
     1873 00000250          L63:        
     1874                           .line   159
     1875                   ;----------------------------------------------------------------------
     1876                   ; 223 | if (ANALYZER_MODE.val&0xFF==SUB_ANALYZER)                              
     1877                   ;----------------------------------------------------------------------
     1878 00000250 50600000         ldiu      0,r0                  ; |223| 
     1879 00000251 04e00000         cmpi      0,r0                  ; |223| 
     1880 00000252 08700000-        ldp       @CL49,DP
     1881 00000253 6a05000a         beq       L65                   ; |223| 
     1882                   ;*      Branch Occurs to L65            ; |223| 
     1883                           .line   160
     1884                   ;----------------------------------------------------------------------
     1885                   ; 224 | sprintf(E_STRING,"ERROR: Invalid PV");  //R_UHOH                       
     1886                   ; 225 | else                                                                   
     1887                   ;----------------------------------------------------------------------
     1888 00000254 08700000-        ldp       @CL50,DP
     1889 00000255 5021009c-        ldiu      @CL50,r1              ; |224| 
     1890 00000256 08700000-        ldp       @CL43,DP
TMS320C3x/4x COFF AssemblerVersion 5.12     Thu Sep 02 10:22:21 2021
Copyright (c) 1987-1999 Texas Instruments Incorporatedasm30.exe -@_6UK.AAB 

Y:\workspace\EEA\V615\APP\SOURCE\ASM\selftest.asm                    PAGE   36

     1891 00000257 50200095-        ldiu      @CL43,r0              ; |224| 
     1892 00000258 08700000-        ldp       @CL42,DP
     1893 00000259 0f210000         push      r1                    ; |224| 
     1894 0000025a 502a0094-        ldiu      @CL42,ar2             ; |224| 
     1895 0000025b 70000000         callu     r0                    ; far call to _sprintf  ; |224| 
     1896                                                           ; |224| Far Call Occurs
     1897 0000025c 18740001         subi      1,sp                  ; |224| 
     1898 0000025d 6a00016b         bu        L115                  ; |64| 
     1899                   ;*      Branch Occurs to L115           ; |64| 
     1900 0000025e          L65:        
     1901                           .line   163
     1902                   ;----------------------------------------------------------------------
     1903                   ; 227 | if (RUSS)                                                              
     1904                   ;----------------------------------------------------------------------
     1905 0000025e 08700000-        ldp       @CL39,DP
     1906 0000025f 50280091-        ldiu      @CL39,ar0             ; |227| 
     1907 00000260 5040c000         ldiu      *ar0,r0               ; |227| 
     1908 00000261 04e00000         cmpi      0,r0                  ; |227| 
     1909 00000262 6a050011         beq       L67                   ; |227| 
     1910                   ;*      Branch Occurs to L67            ; |227| 
     1911                           .line   165
     1912                   ;----------------------------------------------------------------------
     1913                   ; 229 | Get_Russ_Line(356,OUT_STR,0);                                          
     1914                   ;----------------------------------------------------------------------
     1915 00000263 08700000-        ldp       @CL41,DP
     1916 00000264 50200093-        ldiu      @CL41,r0              ; |229| 
     1917 00000265 506a0164         ldiu      356,ar2               ; |229| 
     1918 00000266 08700000-        ldp       @CL40,DP
     1919 00000267 50630000         ldiu      0,r3                  ; |229| 
     1920 00000268 50220092-        ldiu      @CL40,r2              ; |229| 
     1921 00000269 70000000         callu     r0                    ; far call to _Get_Russ_Line    ; |229| 
     1922                                                           ; |229| Far Call Occurs
     1923                           .line   166
     1924                   ;----------------------------------------------------------------------
     1925                   ; 230 | sprintf(E_STRING,OUT_STR);                                             
     1926                   ; 232 | else                                                                   
     1927                   ;----------------------------------------------------------------------
     1928 0000026a 08700000-        ldp       @CL40,DP
     1929 0000026b 50210092-        ldiu      @CL40,r1              ; |230| 
     1930 0000026c 08700000-        ldp       @CL43,DP
     1931 0000026d 50200095-        ldiu      @CL43,r0              ; |230| 
     1932 0000026e 08700000-        ldp       @CL42,DP
     1933 0000026f 0f210000         push      r1                    ; |230| 
     1934 00000270 502a0094-        ldiu      @CL42,ar2             ; |230| 
     1935 00000271 70000000         callu     r0                    ; far call to _sprintf  ; |230| 
     1936                                                           ; |230| Far Call Occurs
     1937 00000272 18740001         subi      1,sp                  ; |230| 
     1938 00000273 6a000155         bu        L115                  ; |64| 
     1939                   ;*      Branch Occurs to L115           ; |64| 
     1940 00000274          L67:        
     1941                           .line   169
     1942                   ;----------------------------------------------------------------------
     1943                   ; 233 | sprintf(E_STRING,"ERROR: Invalid WCut");        //R356                 
     1944                   ;----------------------------------------------------------------------
TMS320C3x/4x COFF AssemblerVersion 5.12     Thu Sep 02 10:22:21 2021
Copyright (c) 1987-1999 Texas Instruments Incorporatedasm30.exe -@_6UK.AAB 

Y:\workspace\EEA\V615\APP\SOURCE\ASM\selftest.asm                    PAGE   37

     1945 00000274 08700000-        ldp       @CL51,DP
     1946 00000275 5021009d-        ldiu      @CL51,r1              ; |233| 
     1947 00000276 08700000-        ldp       @CL43,DP
     1948 00000277 50200095-        ldiu      @CL43,r0              ; |233| 
     1949 00000278 08700000-        ldp       @CL42,DP
     1950 00000279 0f210000         push      r1                    ; |233| 
     1951 0000027a 502a0094-        ldiu      @CL42,ar2             ; |233| 
     1952 0000027b 70000000         callu     r0                    ; far call to _sprintf  ; |233| 
     1953                                                           ; |233| Far Call Occurs
     1954 0000027c 18740001         subi      1,sp                  ; |233| 
     1955                           .line   172
     1956                   ;----------------------------------------------------------------------
     1957                   ; 236 | break;                                                                 
     1958                   ; 238 | case E_ERROR_WATERCUT_UNDERRANGE:                                      
     1959                   ;----------------------------------------------------------------------
     1960 0000027d 6a00014b         bu        L115                  ; |236| 
     1961                   ;*      Branch Occurs to L115           ; |236| 
     1962 0000027e          L68:        
     1963                           .line   176
     1964                   ;----------------------------------------------------------------------
     1965                   ; 240 | if (ANALYZER_MODE.val&0xFF==SUB_ANALYZER)                              
     1966                   ;----------------------------------------------------------------------
     1967 0000027e 50600000         ldiu      0,r0                  ; |240| 
     1968 0000027f 04e00000         cmpi      0,r0                  ; |240| 
     1969 00000280 08700000-        ldp       @CL49,DP
     1970 00000281 6a05000a         beq       L70                   ; |240| 
     1971                   ;*      Branch Occurs to L70            ; |240| 
     1972                           .line   177
     1973                   ;----------------------------------------------------------------------
     1974                   ; 241 | sprintf(E_STRING,"ERROR: Lo PV");       //R_UHOH                       
     1975                   ; 242 | else                                                                   
     1976                   ;----------------------------------------------------------------------
     1977 00000282 08700000-        ldp       @CL52,DP
     1978 00000283 5021009e-        ldiu      @CL52,r1              ; |241| 
     1979 00000284 08700000-        ldp       @CL43,DP
     1980 00000285 50200095-        ldiu      @CL43,r0              ; |241| 
     1981 00000286 08700000-        ldp       @CL42,DP
     1982 00000287 0f210000         push      r1                    ; |241| 
     1983 00000288 502a0094-        ldiu      @CL42,ar2             ; |241| 
     1984 00000289 70000000         callu     r0                    ; far call to _sprintf  ; |241| 
     1985                                                           ; |241| Far Call Occurs
     1986 0000028a 18740001         subi      1,sp                  ; |241| 
     1987 0000028b 6a00013d         bu        L115                  ; |64| 
     1988                   ;*      Branch Occurs to L115           ; |64| 
     1989 0000028c          L70:        
     1990                           .line   179
     1991                   ;----------------------------------------------------------------------
     1992                   ; 243 | if (RUSS)                                                              
     1993                   ;----------------------------------------------------------------------
     1994 0000028c 08700000-        ldp       @CL39,DP
     1995 0000028d 50280091-        ldiu      @CL39,ar0             ; |243| 
     1996 0000028e 5040c000         ldiu      *ar0,r0               ; |243| 
     1997 0000028f 04e00000         cmpi      0,r0                  ; |243| 
     1998 00000290 6a050011         beq       L72                   ; |243| 
TMS320C3x/4x COFF AssemblerVersion 5.12     Thu Sep 02 10:22:21 2021
Copyright (c) 1987-1999 Texas Instruments Incorporatedasm30.exe -@_6UK.AAB 

Y:\workspace\EEA\V615\APP\SOURCE\ASM\selftest.asm                    PAGE   38

     1999                   ;*      Branch Occurs to L72            ; |243| 
     2000                           .line   181
     2001                   ;----------------------------------------------------------------------
     2002                   ; 245 | Get_Russ_Line(357,OUT_STR,0);                                          
     2003                   ;----------------------------------------------------------------------
     2004 00000291 08700000-        ldp       @CL41,DP
     2005 00000292 50200093-        ldiu      @CL41,r0              ; |245| 
     2006 00000293 506a0165         ldiu      357,ar2               ; |245| 
     2007 00000294 08700000-        ldp       @CL40,DP
     2008 00000295 50630000         ldiu      0,r3                  ; |245| 
     2009 00000296 50220092-        ldiu      @CL40,r2              ; |245| 
     2010 00000297 70000000         callu     r0                    ; far call to _Get_Russ_Line    ; |245| 
     2011                                                           ; |245| Far Call Occurs
     2012                           .line   182
     2013                   ;----------------------------------------------------------------------
     2014                   ; 246 | sprintf(E_STRING,OUT_STR);                                             
     2015                   ; 248 | else                                                                   
     2016                   ;----------------------------------------------------------------------
     2017 00000298 08700000-        ldp       @CL40,DP
     2018 00000299 50200092-        ldiu      @CL40,r0              ; |246| 
     2019 0000029a 08700000-        ldp       @CL43,DP
     2020 0000029b 50210095-        ldiu      @CL43,r1              ; |246| 
     2021 0000029c 08700000-        ldp       @CL42,DP
     2022 0000029d 0f200000         push      r0                    ; |246| 
     2023 0000029e 502a0094-        ldiu      @CL42,ar2             ; |246| 
     2024 0000029f 70000001         callu     r1                    ; far call to _sprintf  ; |246| 
     2025                                                           ; |246| Far Call Occurs
     2026 000002a0 18740001         subi      1,sp                  ; |246| 
     2027 000002a1 6a000127         bu        L115                  ; |64| 
     2028                   ;*      Branch Occurs to L115           ; |64| 
     2029 000002a2          L72:        
     2030                           .line   185
     2031                   ;----------------------------------------------------------------------
     2032                   ; 249 | sprintf(E_STRING,"ERROR: Lo Water Cut");        //R357                 
     2033                   ;----------------------------------------------------------------------
     2034 000002a2 08700000-        ldp       @CL53,DP
     2035 000002a3 5020009f-        ldiu      @CL53,r0              ; |249| 
     2036 000002a4 08700000-        ldp       @CL43,DP
     2037 000002a5 50210095-        ldiu      @CL43,r1              ; |249| 
     2038 000002a6 08700000-        ldp       @CL42,DP
     2039 000002a7 0f200000         push      r0                    ; |249| 
     2040 000002a8 502a0094-        ldiu      @CL42,ar2             ; |249| 
     2041 000002a9 70000001         callu     r1                    ; far call to _sprintf  ; |249| 
     2042                                                           ; |249| Far Call Occurs
     2043 000002aa 18740001         subi      1,sp                  ; |249| 
     2044                           .line   186
     2045                   ;----------------------------------------------------------------------
     2046                   ; 250 | break;                                                                 
     2047                   ; 252 | case E_ERROR_RP_THRESH:                                                
     2048                   ; 253 | case E_ERROR_WATERCUT_OVER:                                            
     2049                   ; 254 | case E_ERROR_WATERCUT_OVERRANGE:                                       
     2050                   ;----------------------------------------------------------------------
     2051 000002ab 6a00011d         bu        L115                  ; |250| 
     2052                   ;*      Branch Occurs to L115           ; |250| 
TMS320C3x/4x COFF AssemblerVersion 5.12     Thu Sep 02 10:22:21 2021
Copyright (c) 1987-1999 Texas Instruments Incorporatedasm30.exe -@_6UK.AAB 

Y:\workspace\EEA\V615\APP\SOURCE\ASM\selftest.asm                    PAGE   39

     2053 000002ac          L73:        
     2054                           .line   192
     2055                   ;----------------------------------------------------------------------
     2056                   ; 256 | if (ANALYZER_MODE.val&0xFF==SUB_ANALYZER)                              
     2057                   ;----------------------------------------------------------------------
     2058 000002ac 50600000         ldiu      0,r0                  ; |256| 
     2059 000002ad 04e00000         cmpi      0,r0                  ; |256| 
     2060 000002ae 08700000-        ldp       @CL49,DP
     2061 000002af 6a05000a         beq       L75                   ; |256| 
     2062                   ;*      Branch Occurs to L75            ; |256| 
     2063                           .line   193
     2064                   ;----------------------------------------------------------------------
     2065                   ; 257 | sprintf(E_STRING,"ERROR: Hi PV");       //R_UHOH                       
     2066                   ; 258 | else                                                                   
     2067                   ;----------------------------------------------------------------------
     2068 000002b0 08700000-        ldp       @CL54,DP
     2069 000002b1 502100a0-        ldiu      @CL54,r1              ; |257| 
     2070 000002b2 08700000-        ldp       @CL43,DP
     2071 000002b3 50200095-        ldiu      @CL43,r0              ; |257| 
     2072 000002b4 08700000-        ldp       @CL42,DP
     2073 000002b5 0f210000         push      r1                    ; |257| 
     2074 000002b6 502a0094-        ldiu      @CL42,ar2             ; |257| 
     2075 000002b7 70000000         callu     r0                    ; far call to _sprintf  ; |257| 
     2076                                                           ; |257| Far Call Occurs
     2077 000002b8 18740001         subi      1,sp                  ; |257| 
     2078 000002b9 6a00010f         bu        L115                  ; |64| 
     2079                   ;*      Branch Occurs to L115           ; |64| 
     2080 000002ba          L75:        
     2081                           .line   196
     2082                   ;----------------------------------------------------------------------
     2083                   ; 260 | if (RUSS)                                                              
     2084                   ;----------------------------------------------------------------------
     2085 000002ba 08700000-        ldp       @CL39,DP
     2086 000002bb 50280091-        ldiu      @CL39,ar0             ; |260| 
     2087 000002bc 5040c000         ldiu      *ar0,r0               ; |260| 
     2088 000002bd 04e00000         cmpi      0,r0                  ; |260| 
     2089 000002be 6a050011         beq       L77                   ; |260| 
     2090                   ;*      Branch Occurs to L77            ; |260| 
     2091                           .line   198
     2092                   ;----------------------------------------------------------------------
     2093                   ; 262 | Get_Russ_Line(352,OUT_STR,0);                                          
     2094                   ;----------------------------------------------------------------------
     2095 000002bf 08700000-        ldp       @CL41,DP
     2096 000002c0 50200093-        ldiu      @CL41,r0              ; |262| 
     2097 000002c1 506a0160         ldiu      352,ar2               ; |262| 
     2098 000002c2 08700000-        ldp       @CL40,DP
     2099 000002c3 50630000         ldiu      0,r3                  ; |262| 
     2100 000002c4 50220092-        ldiu      @CL40,r2              ; |262| 
     2101 000002c5 70000000         callu     r0                    ; far call to _Get_Russ_Line    ; |262| 
     2102                                                           ; |262| Far Call Occurs
     2103                           .line   199
     2104                   ;----------------------------------------------------------------------
     2105                   ; 263 | sprintf(E_STRING,OUT_STR);                                             
     2106                   ; 265 | else                                                                   
TMS320C3x/4x COFF AssemblerVersion 5.12     Thu Sep 02 10:22:21 2021
Copyright (c) 1987-1999 Texas Instruments Incorporatedasm30.exe -@_6UK.AAB 

Y:\workspace\EEA\V615\APP\SOURCE\ASM\selftest.asm                    PAGE   40

     2107                   ;----------------------------------------------------------------------
     2108 000002c6 08700000-        ldp       @CL40,DP
     2109 000002c7 50210092-        ldiu      @CL40,r1              ; |263| 
     2110 000002c8 08700000-        ldp       @CL43,DP
     2111 000002c9 50200095-        ldiu      @CL43,r0              ; |263| 
     2112 000002ca 08700000-        ldp       @CL42,DP
     2113 000002cb 0f210000         push      r1                    ; |263| 
     2114 000002cc 502a0094-        ldiu      @CL42,ar2             ; |263| 
     2115 000002cd 70000000         callu     r0                    ; far call to _sprintf  ; |263| 
     2116                                                           ; |263| Far Call Occurs
     2117 000002ce 18740001         subi      1,sp                  ; |263| 
     2118 000002cf 6a0000f9         bu        L115                  ; |64| 
     2119                   ;*      Branch Occurs to L115           ; |64| 
     2120 000002d0          L77:        
     2121                           .line   202
     2122                   ;----------------------------------------------------------------------
     2123                   ; 266 | sprintf(E_STRING,"ERROR: Hi Water Cut");        //R352                 
     2124                   ;----------------------------------------------------------------------
     2125 000002d0 08700000-        ldp       @CL55,DP
     2126 000002d1 502100a1-        ldiu      @CL55,r1              ; |266| 
     2127 000002d2 08700000-        ldp       @CL43,DP
     2128 000002d3 50200095-        ldiu      @CL43,r0              ; |266| 
     2129 000002d4 08700000-        ldp       @CL42,DP
     2130 000002d5 0f210000         push      r1                    ; |266| 
     2131 000002d6 502a0094-        ldiu      @CL42,ar2             ; |266| 
     2132 000002d7 70000000         callu     r0                    ; far call to _sprintf  ; |266| 
     2133                                                           ; |266| Far Call Occurs
     2134 000002d8 18740001         subi      1,sp                  ; |266| 
     2135                           .line   205
     2136                   ;----------------------------------------------------------------------
     2137                   ; 269 | break;                                                                 
     2138                   ; 271 | case E_ERROR_FLASH_FAIL_RESET_BASICS:                                  
     2139                   ;----------------------------------------------------------------------
     2140 000002d9 6a0000ef         bu        L115                  ; |269| 
     2141                   ;*      Branch Occurs to L115           ; |269| 
     2142 000002da          L78:        
     2143                           .line   208
     2144                   ;----------------------------------------------------------------------
     2145                   ; 272 | if (RUSS)                                                              
     2146                   ;----------------------------------------------------------------------
     2147 000002da 08700000-        ldp       @CL39,DP
     2148 000002db 50280091-        ldiu      @CL39,ar0             ; |272| 
     2149 000002dc 5040c000         ldiu      *ar0,r0               ; |272| 
     2150 000002dd 04e00000         cmpi      0,r0                  ; |272| 
     2151 000002de 6a050011         beq       L80                   ; |272| 
     2152                   ;*      Branch Occurs to L80            ; |272| 
     2153                           .line   210
     2154                   ;----------------------------------------------------------------------
     2155                   ; 274 | Get_Russ_Line(360,OUT_STR,0);                                          
     2156                   ;----------------------------------------------------------------------
     2157 000002df 08700000-        ldp       @CL41,DP
     2158 000002e0 50200093-        ldiu      @CL41,r0              ; |274| 
     2159 000002e1 506a0168         ldiu      360,ar2               ; |274| 
     2160 000002e2 08700000-        ldp       @CL40,DP
TMS320C3x/4x COFF AssemblerVersion 5.12     Thu Sep 02 10:22:21 2021
Copyright (c) 1987-1999 Texas Instruments Incorporatedasm30.exe -@_6UK.AAB 

Y:\workspace\EEA\V615\APP\SOURCE\ASM\selftest.asm                    PAGE   41

     2161 000002e3 50630000         ldiu      0,r3                  ; |274| 
     2162 000002e4 50220092-        ldiu      @CL40,r2              ; |274| 
     2163 000002e5 70000000         callu     r0                    ; far call to _Get_Russ_Line    ; |274| 
     2164                                                           ; |274| Far Call Occurs
     2165                           .line   211
     2166                   ;----------------------------------------------------------------------
     2167                   ; 275 | sprintf(E_STRING,OUT_STR);                                             
     2168                   ; 277 | else                                                                   
     2169                   ;----------------------------------------------------------------------
     2170 000002e6 08700000-        ldp       @CL40,DP
     2171 000002e7 50210092-        ldiu      @CL40,r1              ; |275| 
     2172 000002e8 08700000-        ldp       @CL43,DP
     2173 000002e9 50200095-        ldiu      @CL43,r0              ; |275| 
     2174 000002ea 08700000-        ldp       @CL42,DP
     2175 000002eb 0f210000         push      r1                    ; |275| 
     2176 000002ec 502a0094-        ldiu      @CL42,ar2             ; |275| 
     2177 000002ed 70000000         callu     r0                    ; far call to _sprintf  ; |275| 
     2178                                                           ; |275| Far Call Occurs
     2179 000002ee 18740001         subi      1,sp                  ; |275| 
     2180 000002ef 6a0000d9         bu        L115                  ; |64| 
     2181                   ;*      Branch Occurs to L115           ; |64| 
     2182 000002f0          L80:        
     2183                           .line   214
     2184                   ;----------------------------------------------------------------------
     2185                   ; 278 | sprintf(E_STRING,"ERROR: RESET BASICS");        //R360                 
     2186                   ;----------------------------------------------------------------------
     2187 000002f0 08700000-        ldp       @CL56,DP
     2188 000002f1 502100a2-        ldiu      @CL56,r1              ; |278| 
     2189 000002f2 08700000-        ldp       @CL43,DP
     2190 000002f3 50200095-        ldiu      @CL43,r0              ; |278| 
     2191 000002f4 08700000-        ldp       @CL42,DP
     2192 000002f5 0f210000         push      r1                    ; |278| 
     2193 000002f6 502a0094-        ldiu      @CL42,ar2             ; |278| 
     2194 000002f7 70000000         callu     r0                    ; far call to _sprintf  ; |278| 
     2195                                                           ; |278| Far Call Occurs
     2196 000002f8 18740001         subi      1,sp                  ; |278| 
     2197                           .line   215
     2198                   ;----------------------------------------------------------------------
     2199                   ; 279 | break;                                                                 
     2200                   ; 280 | case E_ERROR_TEMPERATURE_UNDERRANGE:                                   
     2201                   ;----------------------------------------------------------------------
     2202 000002f9 6a0000cf         bu        L115                  ; |279| 
     2203                   ;*      Branch Occurs to L115           ; |279| 
     2204 000002fa          L81:        
     2205                           .line   217
     2206                   ;----------------------------------------------------------------------
     2207                   ; 281 | if (RUSS)                                                              
     2208                   ;----------------------------------------------------------------------
     2209 000002fa 08700000-        ldp       @CL39,DP
     2210 000002fb 50280091-        ldiu      @CL39,ar0             ; |281| 
     2211 000002fc 5040c000         ldiu      *ar0,r0               ; |281| 
     2212 000002fd 04e00000         cmpi      0,r0                  ; |281| 
     2213 000002fe 6a050011         beq       L83                   ; |281| 
     2214                   ;*      Branch Occurs to L83            ; |281| 
TMS320C3x/4x COFF AssemblerVersion 5.12     Thu Sep 02 10:22:21 2021
Copyright (c) 1987-1999 Texas Instruments Incorporatedasm30.exe -@_6UK.AAB 

Y:\workspace\EEA\V615\APP\SOURCE\ASM\selftest.asm                    PAGE   42

     2215                           .line   219
     2216                   ;----------------------------------------------------------------------
     2217                   ; 283 | Get_Russ_Line(358,OUT_STR,0);                                          
     2218                   ;----------------------------------------------------------------------
     2219 000002ff 08700000-        ldp       @CL41,DP
     2220 00000300 50200093-        ldiu      @CL41,r0              ; |283| 
     2221 00000301 506a0166         ldiu      358,ar2               ; |283| 
     2222 00000302 08700000-        ldp       @CL40,DP
     2223 00000303 50630000         ldiu      0,r3                  ; |283| 
     2224 00000304 50220092-        ldiu      @CL40,r2              ; |283| 
     2225 00000305 70000000         callu     r0                    ; far call to _Get_Russ_Line    ; |283| 
     2226                                                           ; |283| Far Call Occurs
     2227                           .line   220
     2228                   ;----------------------------------------------------------------------
     2229                   ; 284 | sprintf(E_STRING,OUT_STR);                                             
     2230                   ; 286 | else                                                                   
     2231                   ;----------------------------------------------------------------------
     2232 00000306 08700000-        ldp       @CL40,DP
     2233 00000307 50210092-        ldiu      @CL40,r1              ; |284| 
     2234 00000308 08700000-        ldp       @CL43,DP
     2235 00000309 50200095-        ldiu      @CL43,r0              ; |284| 
     2236 0000030a 08700000-        ldp       @CL42,DP
     2237 0000030b 0f210000         push      r1                    ; |284| 
     2238 0000030c 502a0094-        ldiu      @CL42,ar2             ; |284| 
     2239 0000030d 70000000         callu     r0                    ; far call to _sprintf  ; |284| 
     2240                                                           ; |284| Far Call Occurs
     2241 0000030e 18740001         subi      1,sp                  ; |284| 
     2242 0000030f 6a0000b9         bu        L115                  ; |64| 
     2243                   ;*      Branch Occurs to L115           ; |64| 
     2244 00000310          L83:        
     2245                           .line   223
     2246                   ;----------------------------------------------------------------------
     2247                   ; 287 | sprintf(E_STRING,"ERROR: Low Temp.");   //R358                         
     2248                   ;----------------------------------------------------------------------
     2249 00000310 08700000-        ldp       @CL57,DP
     2250 00000311 502100a3-        ldiu      @CL57,r1              ; |287| 
     2251 00000312 08700000-        ldp       @CL43,DP
     2252 00000313 50200095-        ldiu      @CL43,r0              ; |287| 
     2253 00000314 08700000-        ldp       @CL42,DP
     2254 00000315 0f210000         push      r1                    ; |287| 
     2255 00000316 502a0094-        ldiu      @CL42,ar2             ; |287| 
     2256 00000317 70000000         callu     r0                    ; far call to _sprintf  ; |287| 
     2257                                                           ; |287| Far Call Occurs
     2258 00000318 18740001         subi      1,sp                  ; |287| 
     2259                           .line   224
     2260                   ;----------------------------------------------------------------------
     2261                   ; 288 | break;                                                                 
     2262                   ; 289 | case E_ERROR_TEMPERATURE_OVERRANGE:                                    
     2263                   ;----------------------------------------------------------------------
     2264 00000319 6a0000af         bu        L115                  ; |288| 
     2265                   ;*      Branch Occurs to L115           ; |288| 
     2266 0000031a          L84:        
     2267                           .line   226
     2268                   ;----------------------------------------------------------------------
TMS320C3x/4x COFF AssemblerVersion 5.12     Thu Sep 02 10:22:21 2021
Copyright (c) 1987-1999 Texas Instruments Incorporatedasm30.exe -@_6UK.AAB 

Y:\workspace\EEA\V615\APP\SOURCE\ASM\selftest.asm                    PAGE   43

     2269                   ; 290 | if (RUSS)                                                              
     2270                   ;----------------------------------------------------------------------
     2271 0000031a 08700000-        ldp       @CL39,DP
     2272 0000031b 50280091-        ldiu      @CL39,ar0             ; |290| 
     2273 0000031c 5040c000         ldiu      *ar0,r0               ; |290| 
     2274 0000031d 04e00000         cmpi      0,r0                  ; |290| 
     2275 0000031e 6a050011         beq       L86                   ; |290| 
     2276                   ;*      Branch Occurs to L86            ; |290| 
     2277                           .line   228
     2278                   ;----------------------------------------------------------------------
     2279                   ; 292 | Get_Russ_Line(353,OUT_STR,0);                                          
     2280                   ;----------------------------------------------------------------------
     2281 0000031f 08700000-        ldp       @CL41,DP
     2282 00000320 50200093-        ldiu      @CL41,r0              ; |292| 
     2283 00000321 506a0161         ldiu      353,ar2               ; |292| 
     2284 00000322 08700000-        ldp       @CL40,DP
     2285 00000323 50630000         ldiu      0,r3                  ; |292| 
     2286 00000324 50220092-        ldiu      @CL40,r2              ; |292| 
     2287 00000325 70000000         callu     r0                    ; far call to _Get_Russ_Line    ; |292| 
     2288                                                           ; |292| Far Call Occurs
     2289                           .line   229
     2290                   ;----------------------------------------------------------------------
     2291                   ; 293 | sprintf(E_STRING,OUT_STR);                                             
     2292                   ; 295 | else                                                                   
     2293                   ;----------------------------------------------------------------------
     2294 00000326 08700000-        ldp       @CL40,DP
     2295 00000327 50210092-        ldiu      @CL40,r1              ; |293| 
     2296 00000328 08700000-        ldp       @CL43,DP
     2297 00000329 50200095-        ldiu      @CL43,r0              ; |293| 
     2298 0000032a 08700000-        ldp       @CL42,DP
     2299 0000032b 0f210000         push      r1                    ; |293| 
     2300 0000032c 502a0094-        ldiu      @CL42,ar2             ; |293| 
     2301 0000032d 70000000         callu     r0                    ; far call to _sprintf  ; |293| 
     2302                                                           ; |293| Far Call Occurs
     2303 0000032e 18740001         subi      1,sp                  ; |293| 
     2304 0000032f 6a000099         bu        L115                  ; |64| 
     2305                   ;*      Branch Occurs to L115           ; |64| 
     2306 00000330          L86:        
     2307                           .line   232
     2308                   ;----------------------------------------------------------------------
     2309                   ; 296 | sprintf(E_STRING,"ERROR: High Temp.");  //R353                         
     2310                   ;----------------------------------------------------------------------
     2311 00000330 08700000-        ldp       @CL58,DP
     2312 00000331 502100a4-        ldiu      @CL58,r1              ; |296| 
     2313 00000332 08700000-        ldp       @CL43,DP
     2314 00000333 50200095-        ldiu      @CL43,r0              ; |296| 
     2315 00000334 08700000-        ldp       @CL42,DP
     2316 00000335 0f210000         push      r1                    ; |296| 
     2317 00000336 502a0094-        ldiu      @CL42,ar2             ; |296| 
     2318 00000337 70000000         callu     r0                    ; far call to _sprintf  ; |296| 
     2319                                                           ; |296| Far Call Occurs
     2320 00000338 18740001         subi      1,sp                  ; |296| 
     2321                           .line   233
     2322                   ;----------------------------------------------------------------------
TMS320C3x/4x COFF AssemblerVersion 5.12     Thu Sep 02 10:22:21 2021
Copyright (c) 1987-1999 Texas Instruments Incorporatedasm30.exe -@_6UK.AAB 

Y:\workspace\EEA\V615\APP\SOURCE\ASM\selftest.asm                    PAGE   44

     2323                   ; 297 | break;                                                                 
     2324                   ; 298 | case E_ERROR_TIME_RESET:                                               
     2325                   ;----------------------------------------------------------------------
     2326 00000339 6a00008f         bu        L115                  ; |297| 
     2327                   ;*      Branch Occurs to L115           ; |297| 
     2328 0000033a          L87:        
     2329                           .line   235
     2330                   ;----------------------------------------------------------------------
     2331                   ; 299 | if (RUSS)                                                              
     2332                   ;----------------------------------------------------------------------
     2333 0000033a 08700000-        ldp       @CL39,DP
     2334 0000033b 50280091-        ldiu      @CL39,ar0             ; |299| 
     2335 0000033c 5040c000         ldiu      *ar0,r0               ; |299| 
     2336 0000033d 04e00000         cmpi      0,r0                  ; |299| 
     2337 0000033e 6a050011         beq       L89                   ; |299| 
     2338                   ;*      Branch Occurs to L89            ; |299| 
     2339                           .line   237
     2340                   ;----------------------------------------------------------------------
     2341                   ; 301 | Get_Russ_Line(355,OUT_STR,0);                                          
     2342                   ;----------------------------------------------------------------------
     2343 0000033f 08700000-        ldp       @CL41,DP
     2344 00000340 50200093-        ldiu      @CL41,r0              ; |301| 
     2345 00000341 506a0163         ldiu      355,ar2               ; |301| 
     2346 00000342 08700000-        ldp       @CL40,DP
     2347 00000343 50630000         ldiu      0,r3                  ; |301| 
     2348 00000344 50220092-        ldiu      @CL40,r2              ; |301| 
     2349 00000345 70000000         callu     r0                    ; far call to _Get_Russ_Line    ; |301| 
     2350                                                           ; |301| Far Call Occurs
     2351                           .line   238
     2352                   ;----------------------------------------------------------------------
     2353                   ; 302 | sprintf(E_STRING,OUT_STR);                                             
     2354                   ; 304 | else                                                                   
     2355                   ;----------------------------------------------------------------------
     2356 00000346 08700000-        ldp       @CL40,DP
     2357 00000347 50210092-        ldiu      @CL40,r1              ; |302| 
     2358 00000348 08700000-        ldp       @CL43,DP
     2359 00000349 50200095-        ldiu      @CL43,r0              ; |302| 
     2360 0000034a 08700000-        ldp       @CL42,DP
     2361 0000034b 0f210000         push      r1                    ; |302| 
     2362 0000034c 502a0094-        ldiu      @CL42,ar2             ; |302| 
     2363 0000034d 70000000         callu     r0                    ; far call to _sprintf  ; |302| 
     2364                                                           ; |302| Far Call Occurs
     2365 0000034e 18740001         subi      1,sp                  ; |302| 
     2366 0000034f 6a000079         bu        L115                  ; |64| 
     2367                   ;*      Branch Occurs to L115           ; |64| 
     2368 00000350          L89:        
     2369                           .line   241
     2370                   ;----------------------------------------------------------------------
     2371                   ; 305 | sprintf(E_STRING,"ERROR: Invalid Time");        //R355                 
     2372                   ;----------------------------------------------------------------------
     2373 00000350 08700000-        ldp       @CL59,DP
     2374 00000351 502100a5-        ldiu      @CL59,r1              ; |305| 
     2375 00000352 08700000-        ldp       @CL43,DP
     2376 00000353 50200095-        ldiu      @CL43,r0              ; |305| 
TMS320C3x/4x COFF AssemblerVersion 5.12     Thu Sep 02 10:22:21 2021
Copyright (c) 1987-1999 Texas Instruments Incorporatedasm30.exe -@_6UK.AAB 

Y:\workspace\EEA\V615\APP\SOURCE\ASM\selftest.asm                    PAGE   45

     2377 00000354 08700000-        ldp       @CL42,DP
     2378 00000355 0f210000         push      r1                    ; |305| 
     2379 00000356 502a0094-        ldiu      @CL42,ar2             ; |305| 
     2380 00000357 70000000         callu     r0                    ; far call to _sprintf  ; |305| 
     2381                                                           ; |305| Far Call Occurs
     2382 00000358 18740001         subi      1,sp                  ; |305| 
     2383                           .line   242
     2384                   ;----------------------------------------------------------------------
     2385                   ; 306 | break;                                                                 
     2386                   ; 307 | case E_ERROR_PHASE_LOGIC:                                              
     2387                   ;----------------------------------------------------------------------
     2388 00000359 6a00006f         bu        L115                  ; |306| 
     2389                   ;*      Branch Occurs to L115           ; |306| 
     2390 0000035a          L90:        
     2391                           .line   244
     2392                   ;----------------------------------------------------------------------
     2393                   ; 308 | if (RUSS)                                                              
     2394                   ;----------------------------------------------------------------------
     2395 0000035a 08700000-        ldp       @CL39,DP
     2396 0000035b 50280091-        ldiu      @CL39,ar0             ; |308| 
     2397 0000035c 5040c000         ldiu      *ar0,r0               ; |308| 
     2398 0000035d 04e00000         cmpi      0,r0                  ; |308| 
     2399 0000035e 6a050011         beq       L92                   ; |308| 
     2400                   ;*      Branch Occurs to L92            ; |308| 
     2401                           .line   246
     2402                   ;----------------------------------------------------------------------
     2403                   ; 310 | Get_Russ_Line(359,OUT_STR,0);                                          
     2404                   ;----------------------------------------------------------------------
     2405 0000035f 08700000-        ldp       @CL41,DP
     2406 00000360 50200093-        ldiu      @CL41,r0              ; |310| 
     2407 00000361 506a0167         ldiu      359,ar2               ; |310| 
     2408 00000362 08700000-        ldp       @CL40,DP
     2409 00000363 50630000         ldiu      0,r3                  ; |310| 
     2410 00000364 50220092-        ldiu      @CL40,r2              ; |310| 
     2411 00000365 70000000         callu     r0                    ; far call to _Get_Russ_Line    ; |310| 
     2412                                                           ; |310| Far Call Occurs
     2413                           .line   247
     2414                   ;----------------------------------------------------------------------
     2415                   ; 311 | sprintf(E_STRING,OUT_STR);                                             
     2416                   ; 313 | else                                                                   
     2417                   ;----------------------------------------------------------------------
     2418 00000366 08700000-        ldp       @CL40,DP
     2419 00000367 50210092-        ldiu      @CL40,r1              ; |311| 
     2420 00000368 08700000-        ldp       @CL43,DP
     2421 00000369 50200095-        ldiu      @CL43,r0              ; |311| 
     2422 0000036a 08700000-        ldp       @CL42,DP
     2423 0000036b 0f210000         push      r1                    ; |311| 
     2424 0000036c 502a0094-        ldiu      @CL42,ar2             ; |311| 
     2425 0000036d 70000000         callu     r0                    ; far call to _sprintf  ; |311| 
     2426                                                           ; |311| Far Call Occurs
     2427 0000036e 18740001         subi      1,sp                  ; |311| 
     2428 0000036f 6a000059         bu        L115                  ; |64| 
     2429                   ;*      Branch Occurs to L115           ; |64| 
     2430 00000370          L92:        
TMS320C3x/4x COFF AssemblerVersion 5.12     Thu Sep 02 10:22:21 2021
Copyright (c) 1987-1999 Texas Instruments Incorporatedasm30.exe -@_6UK.AAB 

Y:\workspace\EEA\V615\APP\SOURCE\ASM\selftest.asm                    PAGE   46

     2431                           .line   250
     2432                   ;----------------------------------------------------------------------
     2433                   ; 314 | sprintf(E_STRING,"ERROR: Phase Logic");         //R359                 
     2434                   ;----------------------------------------------------------------------
     2435 00000370 08700000-        ldp       @CL60,DP
     2436 00000371 502100a6-        ldiu      @CL60,r1              ; |314| 
     2437 00000372 08700000-        ldp       @CL43,DP
     2438 00000373 50200095-        ldiu      @CL43,r0              ; |314| 
     2439 00000374 08700000-        ldp       @CL42,DP
     2440 00000375 0f210000         push      r1                    ; |314| 
     2441 00000376 502a0094-        ldiu      @CL42,ar2             ; |314| 
     2442 00000377 70000000         callu     r0                    ; far call to _sprintf  ; |314| 
     2443                                                           ; |314| Far Call Occurs
     2444 00000378 18740001         subi      1,sp                  ; |314| 
     2445                           .line   251
     2446                   ;----------------------------------------------------------------------
     2447                   ; 315 | break;                                                                 
     2448                   ; 316 | default:                                                               
     2449                   ;----------------------------------------------------------------------
     2450 00000379 6a00004f         bu        L115                  ; |315| 
     2451                   ;*      Branch Occurs to L115           ; |315| 
     2452 0000037a          L93:        
     2453                           .line   253
     2454                   ;----------------------------------------------------------------------
     2455                   ; 317 | if (RUSS)                                                              
     2456                   ;----------------------------------------------------------------------
     2457 0000037a 08700000-        ldp       @CL39,DP
     2458 0000037b 50280091-        ldiu      @CL39,ar0             ; |317| 
     2459 0000037c 5040c000         ldiu      *ar0,r0               ; |317| 
     2460 0000037d 04e00000         cmpi      0,r0                  ; |317| 
     2461 0000037e 6a050018         beq       L95                   ; |317| 
     2462                   ;*      Branch Occurs to L95            ; |317| 
     2463                           .line   255
     2464                   ;----------------------------------------------------------------------
     2465                   ; 319 | Get_Russ_Line(385,OUT_STR,0);                                          
     2466                   ;----------------------------------------------------------------------
     2467 0000037f 08700000-        ldp       @CL41,DP
     2468 00000380 50200093-        ldiu      @CL41,r0              ; |319| 
     2469 00000381 506a0181         ldiu      385,ar2               ; |319| 
     2470 00000382 08700000-        ldp       @CL40,DP
     2471 00000383 50630000         ldiu      0,r3                  ; |319| 
     2472 00000384 50220092-        ldiu      @CL40,r2              ; |319| 
     2473 00000385 70000000         callu     r0                    ; far call to _Get_Russ_Line    ; |319| 
     2474                                                           ; |319| Far Call Occurs
     2475                           .line   256
     2476                   ;----------------------------------------------------------------------
     2477                   ; 320 | sprintf(E_STRING,"%s #%02d",OUT_STR,DIAGNOSTICS_ERROR_CODE);           
     2478                   ; 322 | else                                                                   
     2479                   ;----------------------------------------------------------------------
     2480 00000386 08700000-        ldp       @CL5,DP
     2481 00000387 5028006f-        ldiu      @CL5,ar0              ; |320| 
     2482 00000388 08700000-        ldp       @CL40,DP
     2483 00000389 50210092-        ldiu      @CL40,r1              ; |320| 
     2484 0000038a 08700000-        ldp       @CL61,DP
TMS320C3x/4x COFF AssemblerVersion 5.12     Thu Sep 02 10:22:21 2021
Copyright (c) 1987-1999 Texas Instruments Incorporatedasm30.exe -@_6UK.AAB 

Y:\workspace\EEA\V615\APP\SOURCE\ASM\selftest.asm                    PAGE   47

     2485 0000038b 502200a7-        ldiu      @CL61,r2              ; |320| 
     2486 0000038c 08700000-        ldp       @CL43,DP
     2487 0000038d 5043c000         ldiu      *ar0,r3               ; |320| 
     2488 0000038e 50200095-        ldiu      @CL43,r0              ; |320| 
     2489 0000038f 0f230000         push      r3                    ; |320| 
     2490 00000390 08700000-        ldp       @CL42,DP
     2491 00000391 0f210000         push      r1                    ; |320| 
     2492 00000392 502a0094-        ldiu      @CL42,ar2             ; |320| 
     2493 00000393 0f220000         push      r2                    ; |320| 
     2494 00000394 70000000         callu     r0                    ; far call to _sprintf  ; |320| 
     2495                                                           ; |320| Far Call Occurs
     2496 00000395 18740003         subi      3,sp                  ; |320| 
     2497 00000396 6a000032         bu        L115                  ; |64| 
     2498                   ;*      Branch Occurs to L115           ; |64| 
     2499 00000397          L95:        
     2500                           .line   259
     2501                   ;----------------------------------------------------------------------
     2502                   ; 323 | sprintf(E_STRING,"ERROR #%02d",DIAGNOSTICS_ERROR_CODE); //R385         
     2503                   ;----------------------------------------------------------------------
     2504 00000397 08700000-        ldp       @CL5,DP
     2505 00000398 5028006f-        ldiu      @CL5,ar0              ; |323| 
     2506 00000399 08700000-        ldp       @CL62,DP
     2507 0000039a 502000a8-        ldiu      @CL62,r0              ; |323| 
     2508 0000039b 08700000-        ldp       @CL43,DP
     2509 0000039c 5042c000         ldiu      *ar0,r2               ; |323| 
     2510 0000039d 50210095-        ldiu      @CL43,r1              ; |323| 
     2511 0000039e 08700000-        ldp       @CL42,DP
     2512 0000039f 0f220000         push      r2                    ; |323| 
     2513 000003a0 502a0094-        ldiu      @CL42,ar2             ; |323| 
     2514 000003a1 0f200000         push      r0                    ; |323| 
     2515 000003a2 70000001         callu     r1                    ; far call to _sprintf  ; |323| 
     2516                                                           ; |323| Far Call Occurs
     2517 000003a3 18740002         subi      2,sp                  ; |323| 
     2518                           .line   260
     2519                   ;----------------------------------------------------------------------
     2520                   ; 324 | break;                                                                 
     2521                   ;----------------------------------------------------------------------
     2522 000003a4 6a000024         bu        L115                  ; |324| 
     2523                   ;*      Branch Occurs to L115           ; |324| 
     2524 000003a5          L97:        
     2525                           .line   106
     2526 000003a5 08700000-        ldp       @CL5,DP
     2527 000003a6 5028006f-        ldiu      @CL5,ar0              ; |170| 
     2528 000003a7 5040c000         ldiu      *ar0,r0               ; |170| 
     2529 000003a8 04e00010         cmpi      16,r0                 ; |170| 
     2530 000003a9 6a090010         bgt       L107                  ; |170| 
     2531                   ;*      Branch Occurs to L107           ; |170| 
     2532 000003aa 6a05ff2f         beq       L78                   ; |170| 
     2533                   ;*      Branch Occurs to L78            ; |170| 
     2534 000003ab 04e00000         cmpi      0,r0                  ; |170| 
     2535 000003ac 6a05fe03         beq       L48                   ; |170| 
     2536                   ;*      Branch Occurs to L48            ; |170| 
     2537 000003ad 04e00001         cmpi      1,r0                  ; |170| 
     2538 000003ae 6a05fe21         beq       L51                   ; |170| 
TMS320C3x/4x COFF AssemblerVersion 5.12     Thu Sep 02 10:22:21 2021
Copyright (c) 1987-1999 Texas Instruments Incorporatedasm30.exe -@_6UK.AAB 

Y:\workspace\EEA\V615\APP\SOURCE\ASM\selftest.asm                    PAGE   48

     2539                   ;*      Branch Occurs to L51            ; |170| 
     2540 000003af 04e00006         cmpi      6,r0                  ; |170| 
     2541 000003b0 6a05fefb         beq       L73                   ; |170| 
     2542                   ;*      Branch Occurs to L73            ; |170| 
     2543 000003b1 04e00008         cmpi      8,r0                  ; |170| 
     2544 000003b2 6a05fe3d         beq       L54                   ; |170| 
     2545                   ;*      Branch Occurs to L54            ; |170| 
     2546 000003b3 04e00009         cmpi      9,r0                  ; |170| 
     2547 000003b4 6a05fe5b         beq       L57                   ; |170| 
     2548                   ;*      Branch Occurs to L57            ; |170| 
     2549 000003b5 04e0000a         cmpi      10,r0                 ; |170| 
     2550 000003b6 6a05fe79         beq       L60                   ; |170| 
     2551                   ;*      Branch Occurs to L60            ; |170| 
     2552 000003b7 04e0000b         cmpi      11,r0                 ; |170| 
     2553 000003b8 6a05fec5         beq       L68                   ; |170| 
     2554                   ;*      Branch Occurs to L68            ; |170| 
     2555 000003b9 6a00ffc0         bu        L93                   ; |170| 
     2556                   ;*      Branch Occurs to L93            ; |170| 
     2557 000003ba          L107:        
     2558 000003ba 04e00013         cmpi      19,r0                 ; |170| 
     2559 000003bb 6a05fef0         beq       L73                   ; |170| 
     2560                   ;*      Branch Occurs to L73            ; |170| 
     2561 000003bc 04e00014         cmpi      20,r0                 ; |170| 
     2562 000003bd 6a05feee         beq       L73                   ; |170| 
     2563                   ;*      Branch Occurs to L73            ; |170| 
     2564 000003be 04e00019         cmpi      25,r0                 ; |170| 
     2565 000003bf 6a05ff3a         beq       L81                   ; |170| 
     2566                   ;*      Branch Occurs to L81            ; |170| 
     2567 000003c0 04e0001a         cmpi      26,r0                 ; |170| 
     2568 000003c1 6a05ff58         beq       L84                   ; |170| 
     2569                   ;*      Branch Occurs to L84            ; |170| 
     2570 000003c2 04e0001c         cmpi      28,r0                 ; |170| 
     2571 000003c3 6a05ff96         beq       L90                   ; |170| 
     2572                   ;*      Branch Occurs to L90            ; |170| 
     2573 000003c4 04e00023         cmpi      35,r0                 ; |170| 
     2574 000003c5 6a05ff74         beq       L87                   ; |170| 
     2575                   ;*      Branch Occurs to L87            ; |170| 
     2576 000003c6 04e00032         cmpi      50,r0                 ; |170| 
     2577 000003c7 6a05fe88         beq       L63                   ; |170| 
     2578                   ;*      Branch Occurs to L63            ; |170| 
     2579 000003c8 6a00ffb1         bu        L93                   ; |170| 
     2580                   ;*      Branch Occurs to L93            ; |170| 
     2581 000003c9          L115:        
     2582                           .line   263
     2583                   ;----------------------------------------------------------------------
     2584                   ; 327 | GIEP;                                                                  
     2585                   ;----------------------------------------------------------------------
     2586 000003c9 0e350000         pop             ST                      
     2587                           .line   264
     2588                                                           ; Begin Epilog Code
     2589 000003ca 50410b01         ldiu      *-fp(1),r1
     2590 000003cb 504bc300         ldiu      *fp,fp
     2591                                                           ; Restore SOE Registers
     2592 000003cc 0ea60000         popf      f6
TMS320C3x/4x COFF AssemblerVersion 5.12     Thu Sep 02 10:22:21 2021
Copyright (c) 1987-1999 Texas Instruments Incorporatedasm30.exe -@_6UK.AAB 

Y:\workspace\EEA\V615\APP\SOURCE\ASM\selftest.asm                    PAGE   49

     2593                                                           ; Unallocate the Frame
     2594 000003cd 1874001f         subi      31,sp
     2595 000003ce 68000001         bu        r1
     2596                   ;*      Branch Occurs to r1 
     2597                           .endfunc        328,000000040h,29
     2598                   
     2599                   
     2600 00000000                  .sect    "internal_RAM"
     2601                   
     2602                           .global _Self_Test_FULL
     2603                           .sym    _Self_Test_FULL,_Self_Test_FULL,32,2,0
     2604                           .func   343
     2605                   ;******************************************************************************
     2606                   ;* FUNCTION NAME: _Self_Test_FULL                                             *
     2607                   ;*                                                                            *
     2608                   ;*   Architecture       : TMS320C33                                           *
     2609                   ;*   Calling Convention : TI Standard Register Parameters                     *
     2610                   ;*   Function Uses Regs : r0,r2,ar0,ar2,st                                    *
     2611                   ;*   Regs Saved         :                                                     *
     2612                   ;*   Stack Frame        : Full (w/ debug)                                     *
     2613                   ;*   Total Frame Size   : 2 Call + 0 Parm + 4 Auto + 0 SOE = 6 words          *
     2614                   ;******************************************************************************
     2615 00000000          _Self_Test_FULL:
     2616                           .sym    _s,1,30,1,32
     2617                           .sym    _d,2,30,1,32
     2618                           .sym    _i,3,4,1,32
     2619                           .sym    _CRC,4,14,1,32
     2620                           .line   1
     2621                   ;----------------------------------------------------------------------
     2622                   ; 343 | void Self_Test_FULL(void)                                              
     2623                   ; 345 | unsigned int*   s;      /* not used */                                 
     2624                   ; 346 | unsigned int*   d;      /* not used */                                 
     2625                   ; 347 | int                             i;      /* not used */                 
     2626                   ; 348 | unsigned int    CRC;    /* CRC error code */                           
     2627                   ;----------------------------------------------------------------------
     2628 00000000 0f2b0000         push      fp
     2629 00000001 500b0014         ldiu      sp,fp
     2630 00000002 02740004         addi      4,sp
     2631                           .line   8
     2632                   ;----------------------------------------------------------------------
     2633                   ; 350 | _GIEP;                                                                 
     2634                   ;----------------------------------------------------------------------
     2635 00000003 0f350000         push    ST                      
     2636 00000004 03752000         andn    2000h, ST       
     2637                           .line   9
     2638                   ;----------------------------------------------------------------------
     2639                   ; 351 | DIO_BUILT_IN_TEST.val = TRUE;
     2640                   ;     |          /* test in progress */                                        
     2641                   ;----------------------------------------------------------------------
     2642 00000005 08700000-        ldp       @CL63,DP
     2643 00000006 502800a9-        ldiu      @CL63,ar0             ; |351| 
     2644 00000007 50600001         ldiu      1,r0                  ; |351| 
     2645 00000008 1540c000         sti       r0,*ar0               ; |351| 
     2646                           .line   13
TMS320C3x/4x COFF AssemblerVersion 5.12     Thu Sep 02 10:22:21 2021
Copyright (c) 1987-1999 Texas Instruments Incorporatedasm30.exe -@_6UK.AAB 

Y:\workspace\EEA\V615\APP\SOURCE\ASM\selftest.asm                    PAGE   50

     2647                   ;----------------------------------------------------------------------
     2648                   ; 355 | if (Calc_CRC(FLASH_LOC_CFG_FACTORY, FLASH_CFG_SIZE))    /* Test Factory
     2649                   ;     |  CFG */                                                                
     2650                   ;----------------------------------------------------------------------
     2651 00000009 08700000-        ldp       @CL64,DP
     2652 0000000a 502a00aa-        ldiu      @CL64,ar2             ; |355| 
     2653 0000000b 08700000-        ldp       @CL65,DP
     2654 0000000c 502200ab-        ldiu      @CL65,r2              ; |355| 
     2655 0000000d 08700000-        ldp       @CL66,DP
     2656 0000000e 502000ac-        ldiu      @CL66,r0              ; |355| 
     2657 0000000f 70000000         callu     r0                    ; far call to _Calc_CRC ; |355| 
     2658                                                           ; |355| Far Call Occurs
     2659 00000010 04e00000         cmpi      0,r0                  ; |355| 
     2660 00000011 6a050005         beq       L120                  ; |355| 
     2661                   ;*      Branch Occurs to L120           ; |355| 
     2662                           .line   14
     2663                   ;----------------------------------------------------------------------
     2664                   ; 356 | DIAGNOSTICS[0] |= ERROR_FLASH_MEMORY;                                  
     2665                   ;----------------------------------------------------------------------
     2666 00000012 08700000-        ldp       @CL3,DP
     2667 00000013 5028006d-        ldiu      @CL3,ar0              ; |356| 
     2668 00000014 50600008         ldiu      8,r0                  ; |356| 
     2669 00000015 25a0c000         or3       r0,*ar0,r0            ; |356| 
     2670 00000016 1540c000         sti       r0,*ar0               ; |356| 
     2671 00000017          L120:        
     2672                           .line   16
     2673                   ;----------------------------------------------------------------------
     2674                   ; 358 | if (Calc_CRC(FLASH_LOC_CFG1, FLASH_CFG_SIZE))                   /* Test
     2675                   ;     |  Location 1 CFG */                                                     
     2676                   ;----------------------------------------------------------------------
     2677 00000017 08700000-        ldp       @CL67,DP
     2678 00000018 502a00ad-        ldiu      @CL67,ar2             ; |358| 
     2679 00000019 08700000-        ldp       @CL65,DP
     2680 0000001a 502200ab-        ldiu      @CL65,r2              ; |358| 
     2681 0000001b 08700000-        ldp       @CL66,DP
     2682 0000001c 502000ac-        ldiu      @CL66,r0              ; |358| 
     2683 0000001d 70000000         callu     r0                    ; far call to _Calc_CRC ; |358| 
     2684                                                           ; |358| Far Call Occurs
     2685 0000001e 04e00000         cmpi      0,r0                  ; |358| 
     2686 0000001f 6a050005         beq       L122                  ; |358| 
     2687                   ;*      Branch Occurs to L122           ; |358| 
     2688                           .line   17
     2689                   ;----------------------------------------------------------------------
     2690                   ; 359 | DIAGNOSTICS[0] |= ERROR_FLASH_MEMORY;                                  
     2691                   ;----------------------------------------------------------------------
     2692 00000020 08700000-        ldp       @CL3,DP
     2693 00000021 5028006d-        ldiu      @CL3,ar0              ; |359| 
     2694 00000022 50600008         ldiu      8,r0                  ; |359| 
     2695 00000023 25a0c000         or3       r0,*ar0,r0            ; |359| 
     2696 00000024 1540c000         sti       r0,*ar0               ; |359| 
     2697 00000025          L122:        
     2698                           .line   19
     2699                   ;----------------------------------------------------------------------
     2700                   ; 361 | CRC = Calc_CRC(FLASH_LOC_BOOT, FLASH_BOOT_SIZE);                /* Test
TMS320C3x/4x COFF AssemblerVersion 5.12     Thu Sep 02 10:22:21 2021
Copyright (c) 1987-1999 Texas Instruments Incorporatedasm30.exe -@_6UK.AAB 

Y:\workspace\EEA\V615\APP\SOURCE\ASM\selftest.asm                    PAGE   51

     2701                   ;     |  Boot */                                                               
     2702                   ;----------------------------------------------------------------------
     2703 00000025 08700000-        ldp       @CL68,DP
     2704 00000026 502a00ae-        ldiu      @CL68,ar2             ; |361| 
     2705 00000027 08700000-        ldp       @CL66,DP
     2706 00000028 50622000         ldiu      8192,r2               ; |361| 
     2707 00000029 502000ac-        ldiu      @CL66,r0              ; |361| 
     2708 0000002a 70000000         callu     r0                    ; far call to _Calc_CRC ; |361| 
     2709                                                           ; |361| Far Call Occurs
     2710 0000002b 15400304         sti       r0,*+fp(4)            ; |361| 
     2711                           .line   21
     2712                   ;----------------------------------------------------------------------
     2713                   ; 363 | if (CRC!=CRC_BOOT)                                                     
     2714                   ;----------------------------------------------------------------------
     2715 0000002c 08700000-        ldp       @CL69,DP
     2716 0000002d 502800af-        ldiu      @CL69,ar0             ; |363| 
     2717 0000002e 23c000c0         cmpi3     *ar0,r0               ; |363| 
     2718 0000002f 6a050005         beq       L124                  ; |363| 
     2719                   ;*      Branch Occurs to L124           ; |363| 
     2720                           .line   22
     2721                   ;----------------------------------------------------------------------
     2722                   ; 364 | DIAGNOSTICS[0] |= ERROR_FLASH_MEMORY;                                  
     2723                   ;----------------------------------------------------------------------
     2724 00000030 08700000-        ldp       @CL3,DP
     2725 00000031 5028006d-        ldiu      @CL3,ar0              ; |364| 
     2726 00000032 50600008         ldiu      8,r0                  ; |364| 
     2727 00000033 25a0c000         or3       r0,*ar0,r0            ; |364| 
     2728 00000034 1540c000         sti       r0,*ar0               ; |364| 
     2729 00000035          L124:        
     2730                           .line   24
     2731                   ;----------------------------------------------------------------------
     2732                   ; 366 | CRC = Calc_CRC(FLASH_LOC_FAST, FLASH_FAST_SIZE);                /* Test
     2733                   ;     |  Fast Flash */                                                         
     2734                   ;----------------------------------------------------------------------
     2735 00000035 08700000-        ldp       @CL70,DP
     2736 00000036 502a00b0-        ldiu      @CL70,ar2             ; |366| 
     2737 00000037 08700000-        ldp       @CL65,DP
     2738 00000038 502200ab-        ldiu      @CL65,r2              ; |366| 
     2739 00000039 08700000-        ldp       @CL66,DP
     2740 0000003a 502000ac-        ldiu      @CL66,r0              ; |366| 
     2741 0000003b 70000000         callu     r0                    ; far call to _Calc_CRC ; |366| 
     2742                                                           ; |366| Far Call Occurs
     2743 0000003c 15400304         sti       r0,*+fp(4)            ; |366| 
     2744                           .line   26
     2745                   ;----------------------------------------------------------------------
     2746                   ; 368 | if (CRC!=CRC_FAST)                                                     
     2747                   ;----------------------------------------------------------------------
     2748 0000003d 08700000-        ldp       @CL71,DP
     2749 0000003e 502800b1-        ldiu      @CL71,ar0             ; |368| 
     2750 0000003f 23c000c0         cmpi3     *ar0,r0               ; |368| 
     2751 00000040 6a050005         beq       L126                  ; |368| 
     2752                   ;*      Branch Occurs to L126           ; |368| 
     2753                           .line   27
     2754                   ;----------------------------------------------------------------------
TMS320C3x/4x COFF AssemblerVersion 5.12     Thu Sep 02 10:22:21 2021
Copyright (c) 1987-1999 Texas Instruments Incorporatedasm30.exe -@_6UK.AAB 

Y:\workspace\EEA\V615\APP\SOURCE\ASM\selftest.asm                    PAGE   52

     2755                   ; 369 | DIAGNOSTICS[0] |= ERROR_FLASH_MEMORY;                                  
     2756                   ;----------------------------------------------------------------------
     2757 00000041 08700000-        ldp       @CL3,DP
     2758 00000042 5028006d-        ldiu      @CL3,ar0              ; |369| 
     2759 00000043 50600008         ldiu      8,r0                  ; |369| 
     2760 00000044 25a0c000         or3       r0,*ar0,r0            ; |369| 
     2761 00000045 1540c000         sti       r0,*ar0               ; |369| 
     2762 00000046          L126:        
     2763                           .line   29
     2764                   ;----------------------------------------------------------------------
     2765                   ; 371 | CRC = Calc_CRC(FLASH_LOC_APP, FLASH_APP_SIZE);                  /* Test
     2766                   ;     |  Application */                                                        
     2767                   ;----------------------------------------------------------------------
     2768 00000046 08700000-        ldp       @CL72,DP
     2769 00000047 502a00b2-        ldiu      @CL72,ar2             ; |371| 
     2770 00000048 08700000-        ldp       @CL73,DP
     2771 00000049 502200b3-        ldiu      @CL73,r2              ; |371| 
     2772 0000004a 08700000-        ldp       @CL66,DP
     2773 0000004b 502000ac-        ldiu      @CL66,r0              ; |371| 
     2774 0000004c 70000000         callu     r0                    ; far call to _Calc_CRC ; |371| 
     2775                                                           ; |371| Far Call Occurs
     2776 0000004d 15400304         sti       r0,*+fp(4)            ; |371| 
     2777                           .line   31
     2778                   ;----------------------------------------------------------------------
     2779                   ; 373 | if (CRC!=CRC_APP)                                                      
     2780                   ;----------------------------------------------------------------------
     2781 0000004e 08700000-        ldp       @CL74,DP
     2782 0000004f 502800b4-        ldiu      @CL74,ar0             ; |373| 
     2783 00000050 23c000c0         cmpi3     *ar0,r0               ; |373| 
     2784 00000051 6a050005         beq       L128                  ; |373| 
     2785                   ;*      Branch Occurs to L128           ; |373| 
     2786                           .line   32
     2787                   ;----------------------------------------------------------------------
     2788                   ; 374 | DIAGNOSTICS[0] |= ERROR_FLASH_MEMORY;                                  
     2789                   ;----------------------------------------------------------------------
     2790 00000052 08700000-        ldp       @CL3,DP
     2791 00000053 5028006d-        ldiu      @CL3,ar0              ; |374| 
     2792 00000054 50600008         ldiu      8,r0                  ; |374| 
     2793 00000055 25a0c000         or3       r0,*ar0,r0            ; |374| 
     2794 00000056 1540c000         sti       r0,*ar0               ; |374| 
     2795 00000057          L128:        
     2796                           .line   34
     2797                   ;----------------------------------------------------------------------
     2798                   ; 376 | CRC = Calc_CRC(FLASH_LOC_INIT, FLASH_INIT_SIZE);                /* Test
     2799                   ;     |  initialization */                                                     
     2800                   ;----------------------------------------------------------------------
     2801 00000057 08700000-        ldp       @CL75,DP
     2802 00000058 502a00b5-        ldiu      @CL75,ar2             ; |376| 
     2803 00000059 08700000-        ldp       @CL76,DP
     2804 0000005a 502200b6-        ldiu      @CL76,r2              ; |376| 
     2805 0000005b 08700000-        ldp       @CL66,DP
     2806 0000005c 502000ac-        ldiu      @CL66,r0              ; |376| 
     2807 0000005d 70000000         callu     r0                    ; far call to _Calc_CRC ; |376| 
     2808                                                           ; |376| Far Call Occurs
TMS320C3x/4x COFF AssemblerVersion 5.12     Thu Sep 02 10:22:21 2021
Copyright (c) 1987-1999 Texas Instruments Incorporatedasm30.exe -@_6UK.AAB 

Y:\workspace\EEA\V615\APP\SOURCE\ASM\selftest.asm                    PAGE   53

     2809 0000005e 15400304         sti       r0,*+fp(4)            ; |376| 
     2810                           .line   36
     2811                   ;----------------------------------------------------------------------
     2812                   ; 378 | if (CRC!=CRC_INIT)                                                     
     2813                   ;----------------------------------------------------------------------
     2814 0000005f 08700000-        ldp       @CL77,DP
     2815 00000060 502800b7-        ldiu      @CL77,ar0             ; |378| 
     2816 00000061 23c000c0         cmpi3     *ar0,r0               ; |378| 
     2817 00000062 6a050005         beq       L130                  ; |378| 
     2818                   ;*      Branch Occurs to L130           ; |378| 
     2819                           .line   37
     2820                   ;----------------------------------------------------------------------
     2821                   ; 379 | DIAGNOSTICS[0] |= ERROR_FLASH_MEMORY;                                  
     2822                   ;----------------------------------------------------------------------
     2823 00000063 08700000-        ldp       @CL3,DP
     2824 00000064 5028006d-        ldiu      @CL3,ar0              ; |379| 
     2825 00000065 50600008         ldiu      8,r0                  ; |379| 
     2826 00000066 25a0c000         or3       r0,*ar0,r0            ; |379| 
     2827 00000067 1540c000         sti       r0,*ar0               ; |379| 
     2828 00000068          L130:        
     2829                           .line   39
     2830                   ;----------------------------------------------------------------------
     2831                   ; 381 | DIO_BUILT_IN_TEST.val = FALSE;
     2832                   ;     |          /* test complete */                                           
     2833                   ;----------------------------------------------------------------------
     2834 00000068 08700000-        ldp       @CL63,DP
     2835 00000069 502800a9-        ldiu      @CL63,ar0             ; |381| 
     2836 0000006a 50600000         ldiu      0,r0                  ; |381| 
     2837 0000006b 1540c000         sti       r0,*ar0               ; |381| 
     2838                           .line   40
     2839                   ;----------------------------------------------------------------------
     2840                   ; 382 | GIEP;                                                                  
     2841                   ;----------------------------------------------------------------------
     2842 0000006c 0e350000         pop             ST                      
     2843                           .line   41
     2844                                                           ; Begin Epilog Code
     2845 0000006d 50410b01         ldiu      *-fp(1),r1
     2846 0000006e 504bc300         ldiu      *fp,fp
     2847                                                           ; Unallocate the Frame
     2848 0000006f 18740006         subi      6,sp
     2849 00000070 68000001         bu        r1
     2850                   ;*      Branch Occurs to r1 
     2851                           .endfunc        383,000000000h,4
     2852                   
     2853                   
     2854 00000071                  .sect    "internal_RAM"
     2855                   
     2856                           .global _Self_Test5
     2857                           .sym    _Self_Test5,_Self_Test5,32,2,0
     2858                           .func   397
     2859                   ;******************************************************************************
     2860                   ;* FUNCTION NAME: _Self_Test5                                                 *
     2861                   ;*                                                                            *
     2862                   ;*   Architecture       : TMS320C33                                           *
TMS320C3x/4x COFF AssemblerVersion 5.12     Thu Sep 02 10:22:21 2021
Copyright (c) 1987-1999 Texas Instruments Incorporatedasm30.exe -@_6UK.AAB 

Y:\workspace\EEA\V615\APP\SOURCE\ASM\selftest.asm                    PAGE   54

     2863                   ;*   Calling Convention : TI Standard Register Parameters                     *
     2864                   ;*   Function Uses Regs : r0,r2,r3,ar0,ar2,st                                 *
     2865                   ;*   Regs Saved         :                                                     *
     2866                   ;*   Stack Frame        : Full (w/ debug)                                     *
     2867                   ;*   Total Frame Size   : 2 Call + 0 Parm + 4 Auto + 0 SOE = 6 words          *
     2868                   ;******************************************************************************
     2869 00000071          _Self_Test5:
     2870                           .sym    _s,1,30,1,32
     2871                           .sym    _d,2,30,1,32
     2872                           .sym    _i,3,4,1,32
     2873                           .sym    _CRC,4,14,1,32
     2874                           .line   1
     2875                   ;----------------------------------------------------------------------
     2876                   ; 397 | void Self_Test5(void)                                                  
     2877                   ; 399 | unsigned int*   s;      /* not used  */                                
     2878                   ; 400 | unsigned int*   d;      /* not used  */                                
     2879                   ; 401 | int                             i;      /* not used  */                
     2880                   ; 402 | unsigned int    CRC;/* CRC error */                                    
     2881                   ;----------------------------------------------------------------------
     2882 00000071 0f2b0000         push      fp
     2883 00000072 500b0014         ldiu      sp,fp
     2884 00000073 02740004         addi      4,sp
     2885                           .line   8
     2886                   ;----------------------------------------------------------------------
     2887                   ; 404 | _GIEP;                                                                 
     2888                   ;----------------------------------------------------------------------
     2889 00000074 0f350000         push    ST                      
     2890 00000075 03752000         andn    2000h, ST       
     2891                           .line   10
     2892                   ;----------------------------------------------------------------------
     2893                   ; 406 | if (DIO_BUILT_IN_TEST_ENABLE.val)                                      
     2894                   ;----------------------------------------------------------------------
     2895 00000076 08700000-        ldp       @CL78,DP
     2896 00000077 502800b8-        ldiu      @CL78,ar0             ; |406| 
     2897 00000078 5040c000         ldiu      *ar0,r0               ; |406| 
     2898 00000079 04e00000         cmpi      0,r0                  ; |406| 
     2899 0000007a 6a050027         beq       L139                  ; |406| 
     2900                   ;*      Branch Occurs to L139           ; |406| 
     2901                           .line   12
     2902                   ;----------------------------------------------------------------------
     2903                   ; 408 | CRC = Calc_CRC(FLASH_LOC_APP, FLASH_APP_SIZE);  /* Test Applicaton Flas
     2904                   ;     | h */                                                                   
     2905                   ;----------------------------------------------------------------------
     2906 0000007b 08700000-        ldp       @CL72,DP
     2907 0000007c 502a00b2-        ldiu      @CL72,ar2             ; |408| 
     2908 0000007d 08700000-        ldp       @CL73,DP
     2909 0000007e 502200b3-        ldiu      @CL73,r2              ; |408| 
     2910 0000007f 08700000-        ldp       @CL66,DP
     2911 00000080 502000ac-        ldiu      @CL66,r0              ; |408| 
     2912 00000081 70000000         callu     r0                    ; far call to _Calc_CRC ; |408| 
     2913                                                           ; |408| Far Call Occurs
     2914 00000082 15400304         sti       r0,*+fp(4)            ; |408| 
     2915                           .line   14
     2916                   ;----------------------------------------------------------------------
TMS320C3x/4x COFF AssemblerVersion 5.12     Thu Sep 02 10:22:21 2021
Copyright (c) 1987-1999 Texas Instruments Incorporatedasm30.exe -@_6UK.AAB 

Y:\workspace\EEA\V615\APP\SOURCE\ASM\selftest.asm                    PAGE   55

     2917                   ; 410 | if (CRC!=CRC_APP)                                                      
     2918                   ;----------------------------------------------------------------------
     2919 00000083 08700000-        ldp       @CL74,DP
     2920 00000084 502800b4-        ldiu      @CL74,ar0             ; |410| 
     2921 00000085 23c000c0         cmpi3     *ar0,r0               ; |410| 
     2922 00000086 6a050005         beq       L136                  ; |410| 
     2923                   ;*      Branch Occurs to L136           ; |410| 
     2924                           .line   15
     2925                   ;----------------------------------------------------------------------
     2926                   ; 411 | DIAGNOSTICS[0] |= ERROR_FLASH_MEMORY;                                  
     2927                   ;----------------------------------------------------------------------
     2928 00000087 08700000-        ldp       @CL3,DP
     2929 00000088 5028006d-        ldiu      @CL3,ar0              ; |411| 
     2930 00000089 50600008         ldiu      8,r0                  ; |411| 
     2931 0000008a 25a0c000         or3       r0,*ar0,r0            ; |411| 
     2932 0000008b 1540c000         sti       r0,*ar0               ; |411| 
     2933 0000008c          L136:        
     2934                           .line   17
     2935                   ;----------------------------------------------------------------------
     2936                   ; 413 | CRC = Calc_CRC(FLASH_LOC_INIT, FLASH_INIT_SIZE);/* Test Intitialization
     2937                   ;     |  Flash */                                                              
     2938                   ;----------------------------------------------------------------------
     2939 0000008c 08700000-        ldp       @CL75,DP
     2940 0000008d 502a00b5-        ldiu      @CL75,ar2             ; |413| 
     2941 0000008e 08700000-        ldp       @CL76,DP
     2942 0000008f 502200b6-        ldiu      @CL76,r2              ; |413| 
     2943 00000090 08700000-        ldp       @CL66,DP
     2944 00000091 502000ac-        ldiu      @CL66,r0              ; |413| 
     2945 00000092 70000000         callu     r0                    ; far call to _Calc_CRC ; |413| 
     2946                                                           ; |413| Far Call Occurs
     2947 00000093 15400304         sti       r0,*+fp(4)            ; |413| 
     2948                           .line   19
     2949                   ;----------------------------------------------------------------------
     2950                   ; 415 | if (CRC!=CRC_INIT)                                                     
     2951                   ;----------------------------------------------------------------------
     2952 00000094 08700000-        ldp       @CL77,DP
     2953 00000095 502800b7-        ldiu      @CL77,ar0             ; |415| 
     2954 00000096 23c000c0         cmpi3     *ar0,r0               ; |415| 
     2955 00000097 6a050005         beq       L138                  ; |415| 
     2956                   ;*      Branch Occurs to L138           ; |415| 
     2957                           .line   20
     2958                   ;----------------------------------------------------------------------
     2959                   ; 416 | DIAGNOSTICS[0] |= ERROR_FLASH_MEMORY;                                  
     2960                   ;----------------------------------------------------------------------
     2961 00000098 08700000-        ldp       @CL3,DP
     2962 00000099 5028006d-        ldiu      @CL3,ar0              ; |416| 
     2963 0000009a 50600008         ldiu      8,r0                  ; |416| 
     2964 0000009b 25a0c000         or3       r0,*ar0,r0            ; |416| 
     2965 0000009c 1540c000         sti       r0,*ar0               ; |416| 
     2966 0000009d          L138:        
     2967                           .line   22
     2968                   ;----------------------------------------------------------------------
     2969                   ; 418 | TMR_SELFTEST.vect = (int*)Self_Test1;                   /* Set vector t
     2970                   ;     | o Self_Test1 */                                                        
TMS320C3x/4x COFF AssemblerVersion 5.12     Thu Sep 02 10:22:21 2021
Copyright (c) 1987-1999 Texas Instruments Incorporatedasm30.exe -@_6UK.AAB 

Y:\workspace\EEA\V615\APP\SOURCE\ASM\selftest.asm                    PAGE   56

     2971                   ;----------------------------------------------------------------------
     2972 0000009d 08700000-        ldp       @CL79,DP
     2973 0000009e 502800b9-        ldiu      @CL79,ar0             ; |418| 
     2974 0000009f 08700000-        ldp       @CL80,DP
     2975 000000a0 502000ba-        ldiu      @CL80,r0              ; |418| 
     2976 000000a1 1540c000         sti       r0,*ar0               ; |418| 
     2977 000000a2          L139:        
     2978                           .line   25
     2979                   ;----------------------------------------------------------------------
     2980                   ; 421 | Timer_Insert(&TMR_SELFTEST,0,TMR_action_add_if_not_exist);             
     2981                   ;----------------------------------------------------------------------
     2982 000000a2 08700000-        ldp       @CL82,DP
     2983 000000a3 502000bc-        ldiu      @CL82,r0              ; |421| 
     2984 000000a4 50630002         ldiu      2,r3                  ; |421| 
     2985 000000a5 08700000-        ldp       @CL81,DP
     2986 000000a6 50620000         ldiu      0,r2                  ; |421| 
     2987 000000a7 502a00bb-        ldiu      @CL81,ar2             ; |421| 
     2988 000000a8 70000000         callu     r0                    ; far call to _Timer_Insert     ; |421| 
     2989                                                           ; |421| Far Call Occurs
     2990                           .line   27
     2991                   ;----------------------------------------------------------------------
     2992                   ; 423 | GIEP;                                                                  
     2993                   ;----------------------------------------------------------------------
     2994 000000a9 0e350000         pop             ST                      
     2995                           .line   28
     2996                                                           ; Begin Epilog Code
     2997 000000aa 50410b01         ldiu      *-fp(1),r1
     2998 000000ab 504bc300         ldiu      *fp,fp
     2999                                                           ; Unallocate the Frame
     3000 000000ac 18740006         subi      6,sp
     3001 000000ad 68000001         bu        r1
     3002                   ;*      Branch Occurs to r1 
     3003                           .endfunc        424,000000000h,4
     3004                   
     3005                   
     3006 000000ae                  .sect    "internal_RAM"
     3007                   
     3008                           .global _Self_Test4
     3009                           .sym    _Self_Test4,_Self_Test4,32,2,0
     3010                           .func   438
     3011                   ;******************************************************************************
     3012                   ;* FUNCTION NAME: _Self_Test4                                                 *
     3013                   ;*                                                                            *
     3014                   ;*   Architecture       : TMS320C33                                           *
     3015                   ;*   Calling Convention : TI Standard Register Parameters                     *
     3016                   ;*   Function Uses Regs : r0,r2,r3,ar0,ar2,st                                 *
     3017                   ;*   Regs Saved         :                                                     *
     3018                   ;*   Stack Frame        : Full (w/ debug)                                     *
     3019                   ;*   Total Frame Size   : 2 Call + 0 Parm + 4 Auto + 0 SOE = 6 words          *
     3020                   ;******************************************************************************
     3021 000000ae          _Self_Test4:
     3022                           .sym    _s,1,30,1,32
     3023                           .sym    _d,2,30,1,32
     3024                           .sym    _i,3,4,1,32
TMS320C3x/4x COFF AssemblerVersion 5.12     Thu Sep 02 10:22:21 2021
Copyright (c) 1987-1999 Texas Instruments Incorporatedasm30.exe -@_6UK.AAB 

Y:\workspace\EEA\V615\APP\SOURCE\ASM\selftest.asm                    PAGE   57

     3025                           .sym    _CRC,4,14,1,32
     3026                           .line   1
     3027                   ;----------------------------------------------------------------------
     3028                   ; 438 | void Self_Test4(void)                                                  
     3029                   ; 440 | unsigned int*   s;      /* not used  */                                
     3030                   ; 441 | unsigned int*   d;      /* not used  */                                
     3031                   ; 442 | int                             i;      /* not used  */                
     3032                   ; 443 | unsigned int    CRC;/* CRC error */                                    
     3033                   ;----------------------------------------------------------------------
     3034 000000ae 0f2b0000         push      fp
     3035 000000af 500b0014         ldiu      sp,fp
     3036 000000b0 02740004         addi      4,sp
     3037                           .line   8
     3038                   ;----------------------------------------------------------------------
     3039                   ; 445 | _GIEP;                                                                 
     3040                   ;----------------------------------------------------------------------
     3041 000000b1 0f350000         push    ST                      
     3042 000000b2 03752000         andn    2000h, ST       
     3043                           .line   9
     3044                   ;----------------------------------------------------------------------
     3045                   ; 446 | if (DIO_BUILT_IN_TEST_ENABLE.val)                                      
     3046                   ;----------------------------------------------------------------------
     3047 000000b3 08700000-        ldp       @CL78,DP
     3048 000000b4 502800b8-        ldiu      @CL78,ar0             ; |446| 
     3049 000000b5 5040c000         ldiu      *ar0,r0               ; |446| 
     3050 000000b6 04e00000         cmpi      0,r0                  ; |446| 
     3051 000000b7 6a050016         beq       L146                  ; |446| 
     3052                   ;*      Branch Occurs to L146           ; |446| 
     3053                           .line   11
     3054                   ;----------------------------------------------------------------------
     3055                   ; 448 | CRC = Calc_CRC(FLASH_LOC_FAST, FLASH_FAST_SIZE);        /* Check Fast F
     3056                   ;     | lash */                                                                
     3057                   ;----------------------------------------------------------------------
     3058 000000b8 08700000-        ldp       @CL70,DP
     3059 000000b9 502a00b0-        ldiu      @CL70,ar2             ; |448| 
     3060 000000ba 08700000-        ldp       @CL65,DP
     3061 000000bb 502200ab-        ldiu      @CL65,r2              ; |448| 
     3062 000000bc 08700000-        ldp       @CL66,DP
     3063 000000bd 502000ac-        ldiu      @CL66,r0              ; |448| 
     3064 000000be 70000000         callu     r0                    ; far call to _Calc_CRC ; |448| 
     3065                                                           ; |448| Far Call Occurs
     3066 000000bf 15400304         sti       r0,*+fp(4)            ; |448| 
     3067                           .line   13
     3068                   ;----------------------------------------------------------------------
     3069                   ; 450 | if (CRC!=CRC_FAST)                                                     
     3070                   ;----------------------------------------------------------------------
     3071 000000c0 08700000-        ldp       @CL71,DP
     3072 000000c1 502800b1-        ldiu      @CL71,ar0             ; |450| 
     3073 000000c2 23c000c0         cmpi3     *ar0,r0               ; |450| 
     3074 000000c3 6a050005         beq       L145                  ; |450| 
     3075                   ;*      Branch Occurs to L145           ; |450| 
     3076                           .line   14
     3077                   ;----------------------------------------------------------------------
     3078                   ; 451 | DIAGNOSTICS[0] |= ERROR_FLASH_MEMORY;                                  
TMS320C3x/4x COFF AssemblerVersion 5.12     Thu Sep 02 10:22:21 2021
Copyright (c) 1987-1999 Texas Instruments Incorporatedasm30.exe -@_6UK.AAB 

Y:\workspace\EEA\V615\APP\SOURCE\ASM\selftest.asm                    PAGE   58

     3079                   ;----------------------------------------------------------------------
     3080 000000c4 08700000-        ldp       @CL3,DP
     3081 000000c5 5028006d-        ldiu      @CL3,ar0              ; |451| 
     3082 000000c6 50600008         ldiu      8,r0                  ; |451| 
     3083 000000c7 25a0c000         or3       r0,*ar0,r0            ; |451| 
     3084 000000c8 1540c000         sti       r0,*ar0               ; |451| 
     3085 000000c9          L145:        
     3086                           .line   16
     3087                   ;----------------------------------------------------------------------
     3088                   ; 453 | TMR_SELFTEST.vect = (int*)Self_Test5;                           /* Set
     3089                   ;     | vector to Self_Test5 */                                                
     3090                   ;----------------------------------------------------------------------
     3091 000000c9 08700000-        ldp       @CL79,DP
     3092 000000ca 502800b9-        ldiu      @CL79,ar0             ; |453| 
     3093 000000cb 08700000-        ldp       @CL83,DP
     3094 000000cc 502000bd-        ldiu      @CL83,r0              ; |453| 
     3095 000000cd 1540c000         sti       r0,*ar0               ; |453| 
     3096 000000ce          L146:        
     3097                           .line   19
     3098                   ;----------------------------------------------------------------------
     3099                   ; 456 | Timer_Insert(&TMR_SELFTEST,0,TMR_action_add_if_not_exist);             
     3100                   ;----------------------------------------------------------------------
     3101 000000ce 08700000-        ldp       @CL82,DP
     3102 000000cf 502000bc-        ldiu      @CL82,r0              ; |456| 
     3103 000000d0 50630002         ldiu      2,r3                  ; |456| 
     3104 000000d1 08700000-        ldp       @CL81,DP
     3105 000000d2 50620000         ldiu      0,r2                  ; |456| 
     3106 000000d3 502a00bb-        ldiu      @CL81,ar2             ; |456| 
     3107 000000d4 70000000         callu     r0                    ; far call to _Timer_Insert     ; |456| 
     3108                                                           ; |456| Far Call Occurs
     3109                           .line   21
     3110                   ;----------------------------------------------------------------------
     3111                   ; 458 | GIEP;                                                                  
     3112                   ;----------------------------------------------------------------------
     3113 000000d5 0e350000         pop             ST                      
     3114                           .line   22
     3115                                                           ; Begin Epilog Code
     3116 000000d6 50410b01         ldiu      *-fp(1),r1
     3117 000000d7 504bc300         ldiu      *fp,fp
     3118                                                           ; Unallocate the Frame
     3119 000000d8 18740006         subi      6,sp
     3120 000000d9 68000001         bu        r1
     3121                   ;*      Branch Occurs to r1 
     3122                           .endfunc        459,000000000h,4
     3123                   
     3124                   
     3125 000000da                  .sect    "internal_RAM"
     3126                   
     3127                           .global _Self_Test3
     3128                           .sym    _Self_Test3,_Self_Test3,32,2,0
     3129                           .func   473
     3130                   ;******************************************************************************
     3131                   ;* FUNCTION NAME: _Self_Test3                                                 *
     3132                   ;*                                                                            *
TMS320C3x/4x COFF AssemblerVersion 5.12     Thu Sep 02 10:22:21 2021
Copyright (c) 1987-1999 Texas Instruments Incorporatedasm30.exe -@_6UK.AAB 

Y:\workspace\EEA\V615\APP\SOURCE\ASM\selftest.asm                    PAGE   59

     3133                   ;*   Architecture       : TMS320C33                                           *
     3134                   ;*   Calling Convention : TI Standard Register Parameters                     *
     3135                   ;*   Function Uses Regs : r0,r2,r3,ar0,ar2,st                                 *
     3136                   ;*   Regs Saved         :                                                     *
     3137                   ;*   Stack Frame        : Full (w/ debug)                                     *
     3138                   ;*   Total Frame Size   : 2 Call + 0 Parm + 1 Auto + 0 SOE = 3 words          *
     3139                   ;******************************************************************************
     3140 000000da          _Self_Test3:
     3141                           .sym    _CRC,1,14,1,32
     3142                           .line   1
     3143                   ;----------------------------------------------------------------------
     3144                   ; 473 | void Self_Test3(void)                                                  
     3145                   ; 475 | unsigned int CRC;                                                      
     3146                   ;----------------------------------------------------------------------
     3147 000000da 0f2b0000         push      fp
     3148 000000db 500b0014         ldiu      sp,fp
     3149 000000dc 02740001         addi      1,sp
     3150                           .line   5
     3151                   ;----------------------------------------------------------------------
     3152                   ; 477 | _GIEP;                                                                 
     3153                   ;----------------------------------------------------------------------
     3154 000000dd 0f350000         push    ST                      
     3155 000000de 03752000         andn    2000h, ST       
     3156                           .line   7
     3157                   ;----------------------------------------------------------------------
     3158                   ; 479 | if (DIO_BUILT_IN_TEST_ENABLE.val)                                      
     3159                   ;----------------------------------------------------------------------
     3160 000000df 08700000-        ldp       @CL78,DP
     3161 000000e0 502800b8-        ldiu      @CL78,ar0             ; |479| 
     3162 000000e1 5040c000         ldiu      *ar0,r0               ; |479| 
     3163 000000e2 04e00000         cmpi      0,r0                  ; |479| 
     3164 000000e3 6a050015         beq       L153                  ; |479| 
     3165                   ;*      Branch Occurs to L153           ; |479| 
     3166                           .line   9
     3167                   ;----------------------------------------------------------------------
     3168                   ; 481 | CRC = Calc_CRC(FLASH_LOC_BOOT, FLASH_BOOT_SIZE);        /* Test Boot Fl
     3169                   ;     | ash */                                                                 
     3170                   ;----------------------------------------------------------------------
     3171 000000e4 08700000-        ldp       @CL68,DP
     3172 000000e5 502a00ae-        ldiu      @CL68,ar2             ; |481| 
     3173 000000e6 08700000-        ldp       @CL66,DP
     3174 000000e7 50622000         ldiu      8192,r2               ; |481| 
     3175 000000e8 502000ac-        ldiu      @CL66,r0              ; |481| 
     3176 000000e9 70000000         callu     r0                    ; far call to _Calc_CRC ; |481| 
     3177                                                           ; |481| Far Call Occurs
     3178 000000ea 15400301         sti       r0,*+fp(1)            ; |481| 
     3179                           .line   11
     3180                   ;----------------------------------------------------------------------
     3181                   ; 483 | if (CRC!=CRC_BOOT)                                                     
     3182                   ;----------------------------------------------------------------------
     3183 000000eb 08700000-        ldp       @CL69,DP
     3184 000000ec 502800af-        ldiu      @CL69,ar0             ; |483| 
     3185 000000ed 23c000c0         cmpi3     *ar0,r0               ; |483| 
     3186 000000ee 6a050005         beq       L152                  ; |483| 
TMS320C3x/4x COFF AssemblerVersion 5.12     Thu Sep 02 10:22:21 2021
Copyright (c) 1987-1999 Texas Instruments Incorporatedasm30.exe -@_6UK.AAB 

Y:\workspace\EEA\V615\APP\SOURCE\ASM\selftest.asm                    PAGE   60

     3187                   ;*      Branch Occurs to L152           ; |483| 
     3188                           .line   12
     3189                   ;----------------------------------------------------------------------
     3190                   ; 484 | DIAGNOSTICS[0] |= ERROR_FLASH_MEMORY;                                  
     3191                   ;----------------------------------------------------------------------
     3192 000000ef 08700000-        ldp       @CL3,DP
     3193 000000f0 5028006d-        ldiu      @CL3,ar0              ; |484| 
     3194 000000f1 50600008         ldiu      8,r0                  ; |484| 
     3195 000000f2 25a0c000         or3       r0,*ar0,r0            ; |484| 
     3196 000000f3 1540c000         sti       r0,*ar0               ; |484| 
     3197 000000f4          L152:        
     3198                           .line   14
     3199                   ;----------------------------------------------------------------------
     3200                   ; 486 | TMR_SELFTEST.vect = (int*)Self_Test4;                           /* Set
     3201                   ;     | vector Self_Test4 */                                                   
     3202                   ;----------------------------------------------------------------------
     3203 000000f4 08700000-        ldp       @CL79,DP
     3204 000000f5 502800b9-        ldiu      @CL79,ar0             ; |486| 
     3205 000000f6 08700000-        ldp       @CL84,DP
     3206 000000f7 502000be-        ldiu      @CL84,r0              ; |486| 
     3207 000000f8 1540c000         sti       r0,*ar0               ; |486| 
     3208 000000f9          L153:        
     3209                           .line   17
     3210                   ;----------------------------------------------------------------------
     3211                   ; 489 | Timer_Insert(&TMR_SELFTEST,0,TMR_action_add_if_not_exist);             
     3212                   ;----------------------------------------------------------------------
     3213 000000f9 08700000-        ldp       @CL82,DP
     3214 000000fa 502000bc-        ldiu      @CL82,r0              ; |489| 
     3215 000000fb 50630002         ldiu      2,r3                  ; |489| 
     3216 000000fc 08700000-        ldp       @CL81,DP
     3217 000000fd 50620000         ldiu      0,r2                  ; |489| 
     3218 000000fe 502a00bb-        ldiu      @CL81,ar2             ; |489| 
     3219 000000ff 70000000         callu     r0                    ; far call to _Timer_Insert     ; |489| 
     3220                                                           ; |489| Far Call Occurs
     3221                           .line   19
     3222                   ;----------------------------------------------------------------------
     3223                   ; 491 | GIEP;                                                                  
     3224                   ;----------------------------------------------------------------------
     3225 00000100 0e350000         pop             ST                      
     3226                           .line   20
     3227                                                           ; Begin Epilog Code
     3228 00000101 50410b01         ldiu      *-fp(1),r1
     3229 00000102 504bc300         ldiu      *fp,fp
     3230                                                           ; Unallocate the Frame
     3231 00000103 18740003         subi      3,sp
     3232 00000104 68000001         bu        r1
     3233                   ;*      Branch Occurs to r1 
     3234                           .endfunc        492,000000000h,1
     3235                   
     3236                   
     3237 00000105                  .sect    "internal_RAM"
     3238                   
     3239                           .global _Self_Test2
     3240                           .sym    _Self_Test2,_Self_Test2,32,2,0
TMS320C3x/4x COFF AssemblerVersion 5.12     Thu Sep 02 10:22:21 2021
Copyright (c) 1987-1999 Texas Instruments Incorporatedasm30.exe -@_6UK.AAB 

Y:\workspace\EEA\V615\APP\SOURCE\ASM\selftest.asm                    PAGE   61

     3241                           .func   506
     3242                   ;******************************************************************************
     3243                   ;* FUNCTION NAME: _Self_Test2                                                 *
     3244                   ;*                                                                            *
     3245                   ;*   Architecture       : TMS320C33                                           *
     3246                   ;*   Calling Convention : TI Standard Register Parameters                     *
     3247                   ;*   Function Uses Regs : r0,r2,r3,ar0,ar2,st                                 *
     3248                   ;*   Regs Saved         :                                                     *
     3249                   ;*   Stack Frame        : Full (w/ debug)                                     *
     3250                   ;*   Total Frame Size   : 2 Call + 0 Parm + 0 Auto + 0 SOE = 2 words          *
     3251                   ;******************************************************************************
     3252 00000105          _Self_Test2:
     3253                           .line   1
     3254                   ;----------------------------------------------------------------------
     3255                   ; 506 | void Self_Test2(void)                                                  
     3256                   ;----------------------------------------------------------------------
     3257 00000105 0f2b0000         push      fp
     3258 00000106 500b0014         ldiu      sp,fp
     3259                           .line   3
     3260                   ;----------------------------------------------------------------------
     3261                   ; 508 | _GIEP;                                                                 
     3262                   ;----------------------------------------------------------------------
     3263 00000107 0f350000         push    ST                      
     3264 00000108 03752000         andn    2000h, ST       
     3265                           .line   5
     3266                   ;----------------------------------------------------------------------
     3267                   ; 510 | if (DIO_BUILT_IN_TEST_ENABLE.val)                                      
     3268                   ;----------------------------------------------------------------------
     3269 00000109 08700000-        ldp       @CL78,DP
     3270 0000010a 502800b8-        ldiu      @CL78,ar0             ; |510| 
     3271 0000010b 5040c000         ldiu      *ar0,r0               ; |510| 
     3272 0000010c 04e00000         cmpi      0,r0                  ; |510| 
     3273 0000010d 6a050013         beq       L160                  ; |510| 
     3274                   ;*      Branch Occurs to L160           ; |510| 
     3275                           .line   7
     3276                   ;----------------------------------------------------------------------
     3277                   ; 512 | if (Calc_CRC(FLASH_LOC_CFG1, FLASH_CFG_SIZE))   /* Test Config 1 Flash
     3278                   ;     | */                                                                     
     3279                   ;----------------------------------------------------------------------
     3280 0000010e 08700000-        ldp       @CL67,DP
     3281 0000010f 502a00ad-        ldiu      @CL67,ar2             ; |512| 
     3282 00000110 08700000-        ldp       @CL65,DP
     3283 00000111 502200ab-        ldiu      @CL65,r2              ; |512| 
     3284 00000112 08700000-        ldp       @CL66,DP
     3285 00000113 502000ac-        ldiu      @CL66,r0              ; |512| 
     3286 00000114 70000000         callu     r0                    ; far call to _Calc_CRC ; |512| 
     3287                                                           ; |512| Far Call Occurs
     3288 00000115 04e00000         cmpi      0,r0                  ; |512| 
     3289 00000116 6a050005         beq       L159                  ; |512| 
     3290                   ;*      Branch Occurs to L159           ; |512| 
     3291                           .line   8
     3292                   ;----------------------------------------------------------------------
     3293                   ; 513 | DIAGNOSTICS[0] |= ERROR_FLASH_MEMORY;                                  
     3294                   ;----------------------------------------------------------------------
TMS320C3x/4x COFF AssemblerVersion 5.12     Thu Sep 02 10:22:21 2021
Copyright (c) 1987-1999 Texas Instruments Incorporatedasm30.exe -@_6UK.AAB 

Y:\workspace\EEA\V615\APP\SOURCE\ASM\selftest.asm                    PAGE   62

     3295 00000117 08700000-        ldp       @CL3,DP
     3296 00000118 5028006d-        ldiu      @CL3,ar0              ; |513| 
     3297 00000119 50600008         ldiu      8,r0                  ; |513| 
     3298 0000011a 25a0c000         or3       r0,*ar0,r0            ; |513| 
     3299 0000011b 1540c000         sti       r0,*ar0               ; |513| 
     3300 0000011c          L159:        
     3301                           .line   10
     3302                   ;----------------------------------------------------------------------
     3303                   ; 515 | TMR_SELFTEST.vect = (int*)Self_Test3;                   /* Set vector t
     3304                   ;     | o Self_Test3 */                                                        
     3305                   ;----------------------------------------------------------------------
     3306 0000011c 08700000-        ldp       @CL79,DP
     3307 0000011d 502800b9-        ldiu      @CL79,ar0             ; |515| 
     3308 0000011e 08700000-        ldp       @CL85,DP
     3309 0000011f 502000bf-        ldiu      @CL85,r0              ; |515| 
     3310 00000120 1540c000         sti       r0,*ar0               ; |515| 
     3311 00000121          L160:        
     3312                           .line   13
     3313                   ;----------------------------------------------------------------------
     3314                   ; 518 | Timer_Insert(&TMR_SELFTEST,0,TMR_action_add_if_not_exist);             
     3315                   ;----------------------------------------------------------------------
     3316 00000121 08700000-        ldp       @CL82,DP
     3317 00000122 502000bc-        ldiu      @CL82,r0              ; |518| 
     3318 00000123 50630002         ldiu      2,r3                  ; |518| 
     3319 00000124 08700000-        ldp       @CL81,DP
     3320 00000125 50620000         ldiu      0,r2                  ; |518| 
     3321 00000126 502a00bb-        ldiu      @CL81,ar2             ; |518| 
     3322 00000127 70000000         callu     r0                    ; far call to _Timer_Insert     ; |518| 
     3323                                                           ; |518| Far Call Occurs
     3324                           .line   15
     3325                   ;----------------------------------------------------------------------
     3326                   ; 520 | GIEP;                                                                  
     3327                   ;----------------------------------------------------------------------
     3328 00000128 0e350000         pop             ST                      
     3329                           .line   16
     3330                                                           ; Begin Epilog Code
     3331 00000129 50410b01         ldiu      *-fp(1),r1
     3332 0000012a 504bc300         ldiu      *fp,fp
     3333                                                           ; Unallocate the Frame
     3334 0000012b 18740002         subi      2,sp
     3335 0000012c 68000001         bu        r1
     3336                   ;*      Branch Occurs to r1 
     3337                           .endfunc        521,000000000h,0
     3338                   
     3339                   
     3340 0000012d                  .sect    "internal_RAM"
     3341                   
     3342                           .global _Self_Test1
     3343                           .sym    _Self_Test1,_Self_Test1,32,2,0
     3344                           .func   535
     3345                   ;******************************************************************************
     3346                   ;* FUNCTION NAME: _Self_Test1                                                 *
     3347                   ;*                                                                            *
     3348                   ;*   Architecture       : TMS320C33                                           *
TMS320C3x/4x COFF AssemblerVersion 5.12     Thu Sep 02 10:22:21 2021
Copyright (c) 1987-1999 Texas Instruments Incorporatedasm30.exe -@_6UK.AAB 

Y:\workspace\EEA\V615\APP\SOURCE\ASM\selftest.asm                    PAGE   63

     3349                   ;*   Calling Convention : TI Standard Register Parameters                     *
     3350                   ;*   Function Uses Regs : r0,r2,r3,ar0,ar2,st                                 *
     3351                   ;*   Regs Saved         :                                                     *
     3352                   ;*   Stack Frame        : Full (w/ debug)                                     *
     3353                   ;*   Total Frame Size   : 2 Call + 0 Parm + 0 Auto + 0 SOE = 2 words          *
     3354                   ;******************************************************************************
     3355 0000012d          _Self_Test1:
     3356                           .line   1
     3357                   ;----------------------------------------------------------------------
     3358                   ; 535 | void Self_Test1(void)                                                  
     3359                   ;----------------------------------------------------------------------
     3360 0000012d 0f2b0000         push      fp
     3361 0000012e 500b0014         ldiu      sp,fp
     3362                           .line   3
     3363                   ;----------------------------------------------------------------------
     3364                   ; 537 | _GIEP;                                                                 
     3365                   ;----------------------------------------------------------------------
     3366 0000012f 0f350000         push    ST                      
     3367 00000130 03752000         andn    2000h, ST       
     3368                           .line   5
     3369                   ;----------------------------------------------------------------------
     3370                   ; 539 | if (DIO_BUILT_IN_TEST_ENABLE.val)                                      
     3371                   ;----------------------------------------------------------------------
     3372 00000131 08700000-        ldp       @CL78,DP
     3373 00000132 502800b8-        ldiu      @CL78,ar0             ; |539| 
     3374 00000133 5040c000         ldiu      *ar0,r0               ; |539| 
     3375 00000134 04e00000         cmpi      0,r0                  ; |539| 
     3376 00000135 6a050013         beq       L167                  ; |539| 
     3377                   ;*      Branch Occurs to L167           ; |539| 
     3378                           .line   7
     3379                   ;----------------------------------------------------------------------
     3380                   ; 541 | if (Calc_CRC(FLASH_LOC_CFG_FACTORY, FLASH_CFG_SIZE))    /* Test Factory
     3381                   ;     |  Config Memory */                                                      
     3382                   ;----------------------------------------------------------------------
     3383 00000136 08700000-        ldp       @CL64,DP
     3384 00000137 502a00aa-        ldiu      @CL64,ar2             ; |541| 
     3385 00000138 08700000-        ldp       @CL65,DP
     3386 00000139 502200ab-        ldiu      @CL65,r2              ; |541| 
     3387 0000013a 08700000-        ldp       @CL66,DP
     3388 0000013b 502000ac-        ldiu      @CL66,r0              ; |541| 
     3389 0000013c 70000000         callu     r0                    ; far call to _Calc_CRC ; |541| 
     3390                                                           ; |541| Far Call Occurs
     3391 0000013d 04e00000         cmpi      0,r0                  ; |541| 
     3392 0000013e 6a050005         beq       L166                  ; |541| 
     3393                   ;*      Branch Occurs to L166           ; |541| 
     3394                           .line   8
     3395                   ;----------------------------------------------------------------------
     3396                   ; 542 | DIAGNOSTICS[0] |= ERROR_FLASH_MEMORY;                                  
     3397                   ;----------------------------------------------------------------------
     3398 0000013f 08700000-        ldp       @CL3,DP
     3399 00000140 5028006d-        ldiu      @CL3,ar0              ; |542| 
     3400 00000141 50600008         ldiu      8,r0                  ; |542| 
     3401 00000142 25a0c000         or3       r0,*ar0,r0            ; |542| 
     3402 00000143 1540c000         sti       r0,*ar0               ; |542| 
TMS320C3x/4x COFF AssemblerVersion 5.12     Thu Sep 02 10:22:21 2021
Copyright (c) 1987-1999 Texas Instruments Incorporatedasm30.exe -@_6UK.AAB 

Y:\workspace\EEA\V615\APP\SOURCE\ASM\selftest.asm                    PAGE   64

     3403 00000144          L166:        
     3404                           .line   10
     3405                   ;----------------------------------------------------------------------
     3406                   ; 544 | TMR_SELFTEST.vect = (int*)Self_Test2;
     3407                   ;     |  /* Set vector as Self_Test2   */                                      
     3408                   ;----------------------------------------------------------------------
     3409 00000144 08700000-        ldp       @CL79,DP
     3410 00000145 502800b9-        ldiu      @CL79,ar0             ; |544| 
     3411 00000146 08700000-        ldp       @CL86,DP
     3412 00000147 502000c0-        ldiu      @CL86,r0              ; |544| 
     3413 00000148 1540c000         sti       r0,*ar0               ; |544| 
     3414 00000149          L167:        
     3415                           .line   13
     3416                   ;----------------------------------------------------------------------
     3417                   ; 547 | Timer_Insert(&TMR_SELFTEST,0,TMR_action_add_if_not_exist);             
     3418                   ;----------------------------------------------------------------------
     3419 00000149 08700000-        ldp       @CL82,DP
     3420 0000014a 502000bc-        ldiu      @CL82,r0              ; |547| 
     3421 0000014b 50630002         ldiu      2,r3                  ; |547| 
     3422 0000014c 08700000-        ldp       @CL81,DP
     3423 0000014d 50620000         ldiu      0,r2                  ; |547| 
     3424 0000014e 502a00bb-        ldiu      @CL81,ar2             ; |547| 
     3425 0000014f 70000000         callu     r0                    ; far call to _Timer_Insert     ; |547| 
     3426                                                           ; |547| Far Call Occurs
     3427                           .line   15
     3428                   ;----------------------------------------------------------------------
     3429                   ; 549 | GIEP;                                                                  
     3430                   ;----------------------------------------------------------------------
     3431 00000150 0e350000         pop             ST                      
     3432                           .line   16
     3433                                                           ; Begin Epilog Code
     3434 00000151 50410b01         ldiu      *-fp(1),r1
     3435 00000152 504bc300         ldiu      *fp,fp
     3436                                                           ; Unallocate the Frame
     3437 00000153 18740002         subi      2,sp
     3438 00000154 68000001         bu        r1
     3439                   ;*      Branch Occurs to r1 
     3440                           .endfunc        550,000000000h,0
     3441                   
     3442                   
     3443                   
     3444                           .global _DIAGNOSTICS_ERROR_CODE
     3445 00000000                  .bss    _DIAGNOSTICS_ERROR_CODE,1
     3446                           .sym    _DIAGNOSTICS_ERROR_CODE,_DIAGNOSTICS_ERROR_CODE,4,2,32
     3447                   
     3448                           .global _REG_DIAG
     3449 00000000          _REG_DIAG:      .usect  "CFG",220,1
     3450                           .sym    _REG_DIAG,_REG_DIAG,56,2,7040,.fake6,5
     3451                   
     3452                           .global _E_STRING
     3453 00000001                  .bss    _E_STRING,101
     3454                           .sym    _E_STRING,_E_STRING,50,2,3232,,101
     3455                   
     3456                           .global _DIO_ALARM
TMS320C3x/4x COFF AssemblerVersion 5.12     Thu Sep 02 10:22:21 2021
Copyright (c) 1987-1999 Texas Instruments Incorporatedasm30.exe -@_6UK.AAB 

Y:\workspace\EEA\V615\APP\SOURCE\ASM\selftest.asm                    PAGE   65

     3457 000000dc          _DIO_ALARM:     .usect  "CFG",3,1
     3458                           .sym    _DIO_ALARM,_DIO_ALARM,8,2,96,.fake7
     3459                   
     3460                           .global _DIAGNOSTICS_MSG_CODE
     3461 00000066                  .bss    _DIAGNOSTICS_MSG_CODE,1
     3462                           .sym    _DIAGNOSTICS_MSG_CODE,_DIAGNOSTICS_MSG_CODE,4,2,32
     3463                   
     3464                           .global _DIAGNOSTICS_MASK
     3465 000000df          _DIAGNOSTICS_MASK:      .usect  "CFG",2,1
     3466                           .sym    _DIAGNOSTICS_MASK,_DIAGNOSTICS_MASK,52,2,64,,2
     3467                   
     3468                           .global _DIAGNOSTICS
     3469 00000067                  .bss    _DIAGNOSTICS,2
     3470                           .sym    _DIAGNOSTICS,_DIAGNOSTICS,52,2,64,,2
     3471                   
     3472                           .global _DIO_ERROR
     3473 000000e1          _DIO_ERROR:     .usect  "CFG",3,1
     3474                           .sym    _DIO_ERROR,_DIO_ERROR,8,2,96,.fake7
     3475                   
     3476                           .global _DIAG_TEMP
     3477 00000069                  .bss    _DIAG_TEMP,2
     3478                           .sym    _DIAG_TEMP,_DIAG_TEMP,52,2,64,,2
     3479                   ;******************************************************************************
     3480                   ;* STRINGS                                                                    *
     3481                   ;******************************************************************************
     3482 00000000                  .sect   ".const"
     3483 00000000 0000004e SL1:    .byte   "NO ERRORS",0
          00000001 0000004f 
          00000002 00000020 
          00000003 00000045 
          00000004 00000052 
          00000005 00000052 
          00000006 0000004f 
          00000007 00000052 
          00000008 00000053 
          00000009 00000000 
     3484 0000000a 00000045 SL2:    .byte   "ERROR: Frequency",0
          0000000b 00000052 
          0000000c 00000052 
          0000000d 0000004f 
          0000000e 00000052 
          0000000f 0000003a 
          00000010 00000020 
          00000011 00000046 
          00000012 00000072 
          00000013 00000065 
          00000014 00000071 
          00000015 00000075 
          00000016 00000065 
          00000017 0000006e 
          00000018 00000063 
          00000019 00000079 
          0000001a 00000000 
     3485 0000001b 00000045 SL3:    .byte   "ERROR: FLASH Memory",0
TMS320C3x/4x COFF AssemblerVersion 5.12     Thu Sep 02 10:22:21 2021
Copyright (c) 1987-1999 Texas Instruments Incorporatedasm30.exe -@_6UK.AAB 

Y:\workspace\EEA\V615\APP\SOURCE\ASM\selftest.asm                    PAGE   66

          0000001c 00000052 
          0000001d 00000052 
          0000001e 0000004f 
          0000001f 00000052 
          00000020 0000003a 
          00000021 00000020 
          00000022 00000046 
          00000023 0000004c 
          00000024 00000041 
          00000025 00000053 
          00000026 00000048 
          00000027 00000020 
          00000028 0000004d 
          00000029 00000065 
          0000002a 0000006d 
          0000002b 0000006f 
          0000002c 00000072 
          0000002d 00000079 
          0000002e 00000000 
     3486 0000002f 00000045 SL4:    .byte   "ERROR: INT Memory",0
          00000030 00000052 
          00000031 00000052 
          00000032 0000004f 
          00000033 00000052 
          00000034 0000003a 
          00000035 00000020 
          00000036 00000049 
          00000037 0000004e 
          00000038 00000054 
          00000039 00000020 
          0000003a 0000004d 
          0000003b 00000065 
          0000003c 0000006d 
          0000003d 0000006f 
          0000003e 00000072 
          0000003f 00000079 
          00000040 00000000 
     3487 00000041 00000045 SL5:    .byte   "ERROR: EXT Memory",0
          00000042 00000052 
          00000043 00000052 
          00000044 0000004f 
          00000045 00000052 
          00000046 0000003a 
          00000047 00000020 
          00000048 00000045 
          00000049 00000058 
          0000004a 00000054 
          0000004b 00000020 
          0000004c 0000004d 
          0000004d 00000065 
          0000004e 0000006d 
          0000004f 0000006f 
          00000050 00000072 
          00000051 00000079 
TMS320C3x/4x COFF AssemblerVersion 5.12     Thu Sep 02 10:22:21 2021
Copyright (c) 1987-1999 Texas Instruments Incorporatedasm30.exe -@_6UK.AAB 

Y:\workspace\EEA\V615\APP\SOURCE\ASM\selftest.asm                    PAGE   67

          00000052 00000000 
     3488 00000053 00000045 SL6:    .byte   "ERROR: Invalid PV",0
          00000054 00000052 
          00000055 00000052 
          00000056 0000004f 
          00000057 00000052 
          00000058 0000003a 
          00000059 00000020 
          0000005a 00000049 
          0000005b 0000006e 
          0000005c 00000076 
          0000005d 00000061 
          0000005e 0000006c 
          0000005f 00000069 
          00000060 00000064 
          00000061 00000020 
          00000062 00000050 
          00000063 00000056 
          00000064 00000000 
     3489 00000065 00000045 SL7:    .byte   "ERROR: Invalid WCut",0
          00000066 00000052 
          00000067 00000052 
          00000068 0000004f 
          00000069 00000052 
          0000006a 0000003a 
          0000006b 00000020 
          0000006c 00000049 
          0000006d 0000006e 
          0000006e 00000076 
          0000006f 00000061 
          00000070 0000006c 
          00000071 00000069 
          00000072 00000064 
          00000073 00000020 
          00000074 00000057 
          00000075 00000043 
          00000076 00000075 
          00000077 00000074 
          00000078 00000000 
     3490 00000079 00000045 SL8:    .byte   "ERROR: Lo PV",0
          0000007a 00000052 
          0000007b 00000052 
          0000007c 0000004f 
          0000007d 00000052 
          0000007e 0000003a 
          0000007f 00000020 
          00000080 0000004c 
          00000081 0000006f 
          00000082 00000020 
          00000083 00000050 
          00000084 00000056 
          00000085 00000000 
     3491 00000086 00000045 SL9:    .byte   "ERROR: Lo Water Cut",0
          00000087 00000052 
TMS320C3x/4x COFF AssemblerVersion 5.12     Thu Sep 02 10:22:21 2021
Copyright (c) 1987-1999 Texas Instruments Incorporatedasm30.exe -@_6UK.AAB 

Y:\workspace\EEA\V615\APP\SOURCE\ASM\selftest.asm                    PAGE   68

          00000088 00000052 
          00000089 0000004f 
          0000008a 00000052 
          0000008b 0000003a 
          0000008c 00000020 
          0000008d 0000004c 
          0000008e 0000006f 
          0000008f 00000020 
          00000090 00000057 
          00000091 00000061 
          00000092 00000074 
          00000093 00000065 
          00000094 00000072 
          00000095 00000020 
          00000096 00000043 
          00000097 00000075 
          00000098 00000074 
          00000099 00000000 
     3492 0000009a 00000045 SL10:   .byte   "ERROR: Hi PV",0
          0000009b 00000052 
          0000009c 00000052 
          0000009d 0000004f 
          0000009e 00000052 
          0000009f 0000003a 
          000000a0 00000020 
          000000a1 00000048 
          000000a2 00000069 
          000000a3 00000020 
          000000a4 00000050 
          000000a5 00000056 
          000000a6 00000000 
     3493 000000a7 00000045 SL11:   .byte   "ERROR: Hi Water Cut",0
          000000a8 00000052 
          000000a9 00000052 
          000000aa 0000004f 
          000000ab 00000052 
          000000ac 0000003a 
          000000ad 00000020 
          000000ae 00000048 
          000000af 00000069 
          000000b0 00000020 
          000000b1 00000057 
          000000b2 00000061 
          000000b3 00000074 
          000000b4 00000065 
          000000b5 00000072 
          000000b6 00000020 
          000000b7 00000043 
          000000b8 00000075 
          000000b9 00000074 
          000000ba 00000000 
     3494 000000bb 00000045 SL12:   .byte   "ERROR: RESET BASICS",0
          000000bc 00000052 
          000000bd 00000052 
TMS320C3x/4x COFF AssemblerVersion 5.12     Thu Sep 02 10:22:21 2021
Copyright (c) 1987-1999 Texas Instruments Incorporatedasm30.exe -@_6UK.AAB 

Y:\workspace\EEA\V615\APP\SOURCE\ASM\selftest.asm                    PAGE   69

          000000be 0000004f 
          000000bf 00000052 
          000000c0 0000003a 
          000000c1 00000020 
          000000c2 00000052 
          000000c3 00000045 
          000000c4 00000053 
          000000c5 00000045 
          000000c6 00000054 
          000000c7 00000020 
          000000c8 00000042 
          000000c9 00000041 
          000000ca 00000053 
          000000cb 00000049 
          000000cc 00000043 
          000000cd 00000053 
          000000ce 00000000 
     3495 000000cf 00000045 SL13:   .byte   "ERROR: Low Temp.",0
          000000d0 00000052 
          000000d1 00000052 
          000000d2 0000004f 
          000000d3 00000052 
          000000d4 0000003a 
          000000d5 00000020 
          000000d6 0000004c 
          000000d7 0000006f 
          000000d8 00000077 
          000000d9 00000020 
          000000da 00000054 
          000000db 00000065 
          000000dc 0000006d 
          000000dd 00000070 
          000000de 0000002e 
          000000df 00000000 
     3496 000000e0 00000045 SL14:   .byte   "ERROR: High Temp.",0
          000000e1 00000052 
          000000e2 00000052 
          000000e3 0000004f 
          000000e4 00000052 
          000000e5 0000003a 
          000000e6 00000020 
          000000e7 00000048 
          000000e8 00000069 
          000000e9 00000067 
          000000ea 00000068 
          000000eb 00000020 
          000000ec 00000054 
          000000ed 00000065 
          000000ee 0000006d 
          000000ef 00000070 
          000000f0 0000002e 
          000000f1 00000000 
     3497 000000f2 00000045 SL15:   .byte   "ERROR: Invalid Time",0
          000000f3 00000052 
TMS320C3x/4x COFF AssemblerVersion 5.12     Thu Sep 02 10:22:21 2021
Copyright (c) 1987-1999 Texas Instruments Incorporatedasm30.exe -@_6UK.AAB 

Y:\workspace\EEA\V615\APP\SOURCE\ASM\selftest.asm                    PAGE   70

          000000f4 00000052 
          000000f5 0000004f 
          000000f6 00000052 
          000000f7 0000003a 
          000000f8 00000020 
          000000f9 00000049 
          000000fa 0000006e 
          000000fb 00000076 
          000000fc 00000061 
          000000fd 0000006c 
          000000fe 00000069 
          000000ff 00000064 
          00000100 00000020 
          00000101 00000054 
          00000102 00000069 
          00000103 0000006d 
          00000104 00000065 
          00000105 00000000 
     3498 00000106 00000045 SL16:   .byte   "ERROR: Phase Logic",0
          00000107 00000052 
          00000108 00000052 
          00000109 0000004f 
          0000010a 00000052 
          0000010b 0000003a 
          0000010c 00000020 
          0000010d 00000050 
          0000010e 00000068 
          0000010f 00000061 
          00000110 00000073 
          00000111 00000065 
          00000112 00000020 
          00000113 0000004c 
          00000114 0000006f 
          00000115 00000067 
          00000116 00000069 
          00000117 00000063 
          00000118 00000000 
     3499 00000119 00000025 SL17:   .byte   "%s #%02d",0
          0000011a 00000073 
          0000011b 00000020 
          0000011c 00000023 
          0000011d 00000025 
          0000011e 00000030 
          0000011f 00000032 
          00000120 00000064 
          00000121 00000000 
     3500 00000122 00000045 SL18:   .byte   "ERROR #%02d",0
          00000123 00000052 
          00000124 00000052 
          00000125 0000004f 
          00000126 00000052 
          00000127 00000020 
          00000128 00000023 
          00000129 00000025 
TMS320C3x/4x COFF AssemblerVersion 5.12     Thu Sep 02 10:22:21 2021
Copyright (c) 1987-1999 Texas Instruments Incorporatedasm30.exe -@_6UK.AAB 

Y:\workspace\EEA\V615\APP\SOURCE\ASM\selftest.asm                    PAGE   71

          0000012a 00000030 
          0000012b 00000032 
          0000012c 00000064 
          0000012d 00000000 
     3501                   ;******************************************************************************
     3502                   ;* CONSTANT TABLE                                                             *
     3503                   ;******************************************************************************
     3504 0000012e                  .sect   ".const"
     3505 0000006b                  .bss    CL1,1
     3506 0000006c                  .bss    CL2,1
     3507 0000006d                  .bss    CL3,1
     3508 0000006e                  .bss    CL4,1
     3509 0000006f                  .bss    CL5,1
     3510 00000070                  .bss    CL6,1
     3511 00000071                  .bss    CL7,1
     3512 00000072                  .bss    CL8,1
     3513 00000073                  .bss    CL9,1
     3514 00000074                  .bss    CL10,1
     3515 00000075                  .bss    CL11,1
     3516 00000076                  .bss    CL12,1
     3517 00000077                  .bss    CL13,1
     3518 00000078                  .bss    CL14,1
     3519 00000079                  .bss    CL15,1
     3520 0000007a                  .bss    CL16,1
     3521 0000007b                  .bss    CL17,1
     3522 0000007c                  .bss    CL18,1
     3523 0000007d                  .bss    CL19,1
     3524 0000007e                  .bss    CL20,1
     3525 0000007f                  .bss    CL21,1
     3526 00000080                  .bss    CL22,1
     3527 00000081                  .bss    CL23,1
     3528 00000082                  .bss    CL24,1
     3529 00000083                  .bss    CL25,1
     3530 00000084                  .bss    CL26,1
     3531 00000085                  .bss    CL27,1
     3532 00000086                  .bss    CL28,1
     3533 00000087                  .bss    CL29,1
     3534 00000088                  .bss    CL30,1
     3535 00000089                  .bss    CL31,1
     3536 0000008a                  .bss    CL32,1
     3537 0000008b                  .bss    CL33,1
     3538 0000008c                  .bss    CL34,1
     3539 0000008d                  .bss    CL35,1
     3540 0000008e                  .bss    CL36,1
     3541 0000008f                  .bss    CL37,1
     3542 00000090                  .bss    CL38,1
     3543 00000091                  .bss    CL39,1
     3544 00000092                  .bss    CL40,1
     3545 00000093                  .bss    CL41,1
     3546 00000094                  .bss    CL42,1
     3547 00000095                  .bss    CL43,1
     3548 00000096                  .bss    CL44,1
     3549 00000097                  .bss    CL45,1
     3550 00000098                  .bss    CL46,1
TMS320C3x/4x COFF AssemblerVersion 5.12     Thu Sep 02 10:22:21 2021
Copyright (c) 1987-1999 Texas Instruments Incorporatedasm30.exe -@_6UK.AAB 

Y:\workspace\EEA\V615\APP\SOURCE\ASM\selftest.asm                    PAGE   72

     3551 00000099                  .bss    CL47,1
     3552 0000009a                  .bss    CL48,1
     3553 0000009b                  .bss    CL49,1
     3554 0000009c                  .bss    CL50,1
     3555 0000009d                  .bss    CL51,1
     3556 0000009e                  .bss    CL52,1
     3557 0000009f                  .bss    CL53,1
     3558 000000a0                  .bss    CL54,1
     3559 000000a1                  .bss    CL55,1
     3560 000000a2                  .bss    CL56,1
     3561 000000a3                  .bss    CL57,1
     3562 000000a4                  .bss    CL58,1
     3563 000000a5                  .bss    CL59,1
     3564 000000a6                  .bss    CL60,1
     3565 000000a7                  .bss    CL61,1
     3566 000000a8                  .bss    CL62,1
     3567 000000a9                  .bss    CL63,1
     3568 000000aa                  .bss    CL64,1
     3569 000000ab                  .bss    CL65,1
     3570 000000ac                  .bss    CL66,1
     3571 000000ad                  .bss    CL67,1
     3572 000000ae                  .bss    CL68,1
     3573 000000af                  .bss    CL69,1
     3574 000000b0                  .bss    CL70,1
     3575 000000b1                  .bss    CL71,1
     3576 000000b2                  .bss    CL72,1
     3577 000000b3                  .bss    CL73,1
     3578 000000b4                  .bss    CL74,1
     3579 000000b5                  .bss    CL75,1
     3580 000000b6                  .bss    CL76,1
     3581 000000b7                  .bss    CL77,1
     3582 000000b8                  .bss    CL78,1
     3583 000000b9                  .bss    CL79,1
     3584 000000ba                  .bss    CL80,1
     3585 000000bb                  .bss    CL81,1
     3586 000000bc                  .bss    CL82,1
     3587 000000bd                  .bss    CL83,1
     3588 000000be                  .bss    CL84,1
     3589 000000bf                  .bss    CL85,1
     3590 000000c0                  .bss    CL86,1
     3591                   
     3592 00000000                  .sect   ".cinit"
     3593 00000000 00000056         .field          86,32
     3594 00000001 0000006b-        .field          CL1+0,32
     3595 00000002 000000dc-        .field          _DIO_ALARM,32
     3596 00000003 000000e1-        .field          _DIO_ERROR,32
     3597 00000004 00000067-        .field          _DIAGNOSTICS,32
     3598 00000005 00000068-        .field          _DIAGNOSTICS+1,32
     3599 00000006 00000000-        .field          _DIAGNOSTICS_ERROR_CODE,32
     3600 00000007 00000066-        .field          _DIAGNOSTICS_MSG_CODE,32
     3601 00000008 0000001d'        .field          _Set_Diag_Status,32
     3602 00000009 00000000!        .field          _CHANGE,32
     3603 0000000a 00000000!        .field          _DATA_CHANGE,32
     3604 0000000b 000000df-        .field          _DIAGNOSTICS_MASK,32
TMS320C3x/4x COFF AssemblerVersion 5.12     Thu Sep 02 10:22:21 2021
Copyright (c) 1987-1999 Texas Instruments Incorporatedasm30.exe -@_6UK.AAB 

Y:\workspace\EEA\V615\APP\SOURCE\ASM\selftest.asm                    PAGE   73

     3605 0000000c 000000e0-        .field          _DIAGNOSTICS_MASK+1,32
     3606 0000000d 00000003!        .field          _REG_WATERCUT+3,32
     3607 0000000e 00000000!        .field          _RTC_PRESENT,32
     3608 0000000f 00000000!        .field          _LED_GREEN,32
     3609 00000010 00000000!        .field          _TMR_LEDOFF,32
     3610 00000011 fb4ccccd         .word           0FB4CCCCDH ; double  5.000000000000000e-02
     3611 00000012 00000000!        .field          _STATUS_LED_off,32
     3612 00000013 00000000!        .field          _Timer_Create,32
     3613 00000014 00000000!        .field          _TMR_LEDON,32
     3614 00000015 fd4ccccd         .word           0FD4CCCCDH ; double  2.000000000000000e-01
     3615 00000016 00000000!        .field          _STATUS_LED_on,32
     3616 00000017 00000000!        .field          _SA,32
     3617 00000018 00000000!        .field          _HW_VER,32
     3618 00000019 ff733333         .word           0FF733333H ; double  9.500000000000000e-01
     3619 0000001a fe666666         .word           0FE666666H ; double  4.500000000000000e-01
     3620 0000001b 80000000         .field          -2147483648,32
     3621 0000001c 20000000         .word           020000000H ; float   4.294967296000000e+09
     3622 0000001d 00000000!        .field          _log,32
     3623 0000001e 00000000-        .field          _REG_DIAG,32
     3624 0000001f 00000000!        .field          _VAR_Update,32
     3625 00000020 0000002c-        .field          _REG_DIAG+44,32
     3626 00000021 00000058-        .field          _REG_DIAG+88,32
     3627 00000022 00000084-        .field          _REG_DIAG+132,32
     3628 00000023 00000000!        .field          _SYS_LOG_ENABLED,32
     3629 00000024 00000069-        .field          _DIAG_TEMP,32
     3630 00000025 0000006a-        .field          _DIAG_TEMP+1,32
     3631 00000026 00000000!        .field          _SYS,32
     3632 00000027 00000000!        .field          _RecordLogEntry,32
     3633 00000028 00000000!        .field          _RUSS,32
     3634 00000029 00000000!        .field          _OUT_STR,32
     3635 0000002a 00000000!        .field          _Get_Russ_Line,32
     3636 0000002b 00000001-        .field          _E_STRING,32
     3637 0000002c 00000000!        .field          _sprintf,32
     3638 0000002d 00000000+        .field          SL1,32
     3639 0000002e 0000000a+        .field          SL2,32
     3640 0000002f 0000001b+        .field          SL3,32
     3641 00000030 0000002f+        .field          SL4,32
     3642 00000031 00000041+        .field          SL5,32
     3643 00000032 00000000!        .field          _ANALYZER_MODE,32
     3644 00000033 00000053+        .field          SL6,32
     3645 00000034 00000065+        .field          SL7,32
     3646 00000035 00000079+        .field          SL8,32
     3647 00000036 00000086+        .field          SL9,32
     3648 00000037 0000009a+        .field          SL10,32
     3649 00000038 000000a7+        .field          SL11,32
     3650 00000039 000000bb+        .field          SL12,32
     3651 0000003a 000000cf+        .field          SL13,32
     3652 0000003b 000000e0+        .field          SL14,32
     3653 0000003c 000000f2+        .field          SL15,32
     3654 0000003d 00000106+        .field          SL16,32
     3655 0000003e 00000119+        .field          SL17,32
     3656 0000003f 00000122+        .field          SL18,32
     3657 00000040 00000000!        .field          _DIO_BUILT_IN_TEST,32
     3658 00000041 00418000         .field          4292608,32
TMS320C3x/4x COFF AssemblerVersion 5.12     Thu Sep 02 10:22:21 2021
Copyright (c) 1987-1999 Texas Instruments Incorporatedasm30.exe -@_6UK.AAB 

Y:\workspace\EEA\V615\APP\SOURCE\ASM\selftest.asm                    PAGE   74

     3659 00000042 00008000         .field          32768,32
     3660 00000043 00000000!        .field          _Calc_CRC,32
     3661 00000044 00408000         .field          4227072,32
     3662 00000045 00400000         .field          4194304,32
     3663 00000046 00000000!        .field          _CRC_BOOT,32
     3664 00000047 00428000         .field          4358144,32
     3665 00000048 00000000!        .field          _CRC_FAST,32
     3666 00000049 00430000         .field          4390912,32
     3667 0000004a 00030000         .field          196608,32
     3668 0000004b 00000000!        .field          _CRC_APP,32
     3669 0000004c 00460000         .field          4587520,32
     3670 0000004d 00010000         .field          65536,32
     3671 0000004e 00000000!        .field          _CRC_INIT,32
     3672 0000004f 00000000!        .field          _DIO_BUILT_IN_TEST_ENABLE,32
     3673 00000050 00000002!        .field          _TMR_SELFTEST+2,32
     3674 00000051 0000012d+        .field          _Self_Test1,32
     3675 00000052 00000000!        .field          _TMR_SELFTEST,32
     3676 00000053 00000000!        .field          _Timer_Insert,32
     3677 00000054 00000071+        .field          _Self_Test5,32
     3678 00000055 000000ae+        .field          _Self_Test4,32
     3679 00000056 000000da+        .field          _Self_Test3,32
     3680 00000057 00000105+        .field          _Self_Test2,32
     3681                   
     3682 000003cf                  .sect   ".text"
     3683                   ;******************************************************************************
     3684                   ;* UNDEFINED EXTERNAL REFERENCES                                              *
     3685                   ;******************************************************************************
     3686                   
     3687                           .global _sprintf
     3688                   
     3689                           .global _log
     3690                   
     3691                           .global _VAR_Update
     3692                   
     3693                           .global _Timer_Insert
     3694                   
     3695                           .global _Timer_Create
     3696                   
     3697                           .global _RTC_PRESENT
     3698                   
     3699                           .global _SYS
     3700                   
     3701                           .global _SYS_LOG_ENABLED
     3702                   
     3703                           .global _RecordLogEntry
     3704                   
     3705                           .global _Get_Russ_Line
     3706                   
     3707                           .global _OUT_STR
     3708                   
     3709                           .global _LED_GREEN
     3710                   
     3711                           .global _DATA_CHANGE
     3712                   
TMS320C3x/4x COFF AssemblerVersion 5.12     Thu Sep 02 10:22:21 2021
Copyright (c) 1987-1999 Texas Instruments Incorporatedasm30.exe -@_6UK.AAB 

Y:\workspace\EEA\V615\APP\SOURCE\ASM\selftest.asm                    PAGE   75

     3713                           .global _SA
     3714                   
     3715                           .global _CHANGE
     3716                   
     3717                           .global _HW_VER
     3718                   
     3719                           .global _ANALYZER_MODE
     3720                   
     3721                           .global _DIO_BUILT_IN_TEST_ENABLE
     3722                   
     3723                           .global _DIO_BUILT_IN_TEST
     3724                   
     3725                           .global _REG_WATERCUT
     3726                   
     3727                           .global _RUSS
     3728                   
     3729                           .global _CRC_BOOT
     3730                   
     3731                           .global _CRC_APP
     3732                   
     3733                           .global _CRC_INIT
     3734                   
     3735                           .global _CRC_FAST
     3736                   
     3737                           .global _Calc_CRC
     3738                   
     3739                           .global _STATUS_LED_off
     3740                   
     3741                           .global _STATUS_LED_on
     3742                   
     3743                           .global _TMR_LEDON
     3744                   
     3745                           .global _TMR_LEDOFF
     3746                   
     3747                           .global _TMR_SELFTEST
     3748                           .global DIV_F30

 No Errors,  No Warnings
TMS320C3x/4x COFF AssemblerVersion 5.12     Thu Sep 02 10:22:21 2021
Copyright (c) 1987-1999 Texas Instruments Incorporatedasm30.exe -@_6UK.AAB 

Y:\workspace\EEA\V615\APP\SOURCE\ASM\selftest.asm                    PAGE   76

LABEL                            VALUE       DEFN    REF

.BIGMODEL                        00000001       0 
.C30                             00000000       0 
.C30INTERRUPT                    00000000       0 
.C31                             00000000       0 
.C32                             00000000       0 
.C33                             00000001       0 
.C3X                             00000001       0 
.C3x                             00000001       0 
.C40                             00000000       0 
.C44                             00000000       0 
.C4X                             00000000       0 
.C4x                             00000000       0 
.REGPARM                         00000001       0 
.TMS320C30                       00000001       0 
.TMS320C31                       00000000       0 
.TMS320C32                       00000000       0 
.TMS320C40                       00000000       0 
.TMS320C44                       00000000       0 
.TMS320xx                        00000021       0 
.tms320C30                       00000001       0 
.tms320C31                       00000000       0 
.tms320C32                       00000000       0 
.tms320C40                       00000000       0 
.tms320C44                       00000000       0 
.tms320xx                        00000021       0 
.tmx320C40                       00000000       0 
CL1                              0000006b-   3505    745    746   3594 
CL10                             00000074-   3514    886    887 
CL11                             00000075-   3515    896    897 
CL12                             00000076-   3516    997    998   1019   1020 
                                                    1048   1049 
CL13                             00000077-   3517   1076   1077 
CL14                             00000078-   3518   1111   1112   1210   1211 
                                                    1221   1222   1274   1275 
CL15                             00000079-   3519   1134   1136   1237   1239 
                                                    1289   1291 
CL16                             0000007a-   3520   1131   1133   1234   1236 
                                                    1286   1288 
CL17                             0000007b-   3521   1129   1130   1232   1233 
                                                    1284   1285 
CL18                             0000007c-   3522   1127   1128   1143   1144 
                                                    1230   1231   1247   1248 
                                                    1282   1283   1298   1299 
CL19                             0000007d-   3523   1149   1151   1254   1256 
                                                    1304   1306 
CL2                              0000006c-   3506    753    754   1119   1120 
                                                    1178   1179   1266   1267 
CL20                             0000007e-   3524   1147   1148 
CL21                             0000007f-   3525   1145   1146   1249   1250 
                                                    1300   1301 
CL22                             00000080-   3526   1193   1194 
TMS320C3x/4x COFF AssemblerVersion 5.12     Thu Sep 02 10:22:21 2021
Copyright (c) 1987-1999 Texas Instruments Incorporatedasm30.exe -@_6UK.AAB 

Y:\workspace\EEA\V615\APP\SOURCE\ASM\selftest.asm                    PAGE   77

LABEL                            VALUE       DEFN    REF

CL23                             00000081-   3527   1199   1200 
CL24                             00000082-   3528   1251   1253 
CL25                             00000083-   3529   1302   1303 
CL26                             00000084-   3530   1328   1329 
CL27                             00000085-   3531   1396   1398 
CL28                             00000086-   3532   1406   1408   1411   1412 
CL29                             00000087-   3533   1442   1444 
CL3                              0000006d-   3507    760    761    884    885 
                                                     894    895    904    905 
                                                     926    927    932    933 
                                                     954    955    975    976 
                                                    1025   1026   1054   1055 
                                                    1162   1163   1314   1316 
                                                    1440   1441   1513   1514 
                                                    1530   1531   2666   2667 
                                                    2692   2693   2724   2725 
                                                    2757   2758   2790   2791 
                                                    2823   2824   2928   2929 
                                                    2961   2962   3080   3081 
                                                    3192   3193   3295   3296 
                                                    3398   3399 
CL30                             00000088-   3534   1446   1448   1461   1463 
                                                    1476   1479   1492   1496 
CL31                             00000089-   3535   1458   1459 
CL32                             0000008a-   3536   1474   1475 
CL33                             0000008b-   3537   1490   1491 
CL34                             0000008c-   3538   1505   1506 
CL35                             0000008d-   3539   1511   1512   1532   1533 
CL36                             0000008e-   3540   1518   1519   1542   1543 
CL37                             0000008f-   3541   1556   1558 
CL38                             00000090-   3542   1553   1555 
CL39                             00000091-   3543   1568   1569   1630   1631 
                                                    1692   1693   1754   1755 
                                                    1816   1817   1905   1906 
                                                    1994   1995   2085   2086 
                                                    2147   2148   2209   2210 
                                                    2271   2272   2333   2334 
                                                    2395   2396   2457   2458 
CL4                              0000006e-   3508    767    768   1082   1083 
                                                    1168   1169   1317   1319 
                                                    1456   1457   1520   1521 
                                                    1540   1541 
CL40                             00000092-   3544   1581   1583   1591   1592 
                                                    1643   1645   1653   1654 
                                                    1705   1707   1715   1716 
                                                    1767   1769   1777   1778 
                                                    1829   1831   1839   1840 
                                                    1918   1920   1928   1929 
                                                    2007   2009   2017   2018 
                                                    2098   2100   2108   2109 
                                                    2160   2162   2170   2171 
                                                    2222   2224   2232   2233 
                                                    2284   2286   2294   2295 
                                                    2346   2348   2356   2357 
                                                    2408   2410   2418   2419 
                                                    2470   2472   2482   2483 
TMS320C3x/4x COFF AssemblerVersion 5.12     Thu Sep 02 10:22:21 2021
Copyright (c) 1987-1999 Texas Instruments Incorporatedasm30.exe -@_6UK.AAB 

Y:\workspace\EEA\V615\APP\SOURCE\ASM\selftest.asm                    PAGE   78

LABEL                            VALUE       DEFN    REF

CL41                             00000093-   3545   1578   1579   1640   1641 
                                                    1702   1703   1764   1765 
                                                    1826   1827   1915   1916 
                                                    2004   2005   2095   2096 
                                                    2157   2158   2219   2220 
                                                    2281   2282   2343   2344 
                                                    2405   2406   2467   2468 
CL42                             00000094-   3546   1595   1597   1612   1614 
                                                    1657   1659   1674   1676 
                                                    1719   1721   1736   1738 
                                                    1781   1783   1798   1800 
                                                    1843   1845   1860   1862 
                                                    1892   1894   1932   1934 
                                                    1949   1951   1981   1983 
                                                    2021   2023   2038   2040 
                                                    2072   2074   2112   2114 
                                                    2129   2131   2174   2176 
                                                    2191   2193   2236   2238 
                                                    2253   2255   2298   2300 
                                                    2315   2317   2360   2362 
                                                    2377   2379   2422   2424 
                                                    2439   2441   2490   2492 
                                                    2511   2513 
CL43                             00000095-   3547   1593   1594   1610   1611 
                                                    1655   1656   1672   1673 
                                                    1717   1718   1734   1735 
                                                    1779   1780   1796   1797 
                                                    1841   1842   1858   1859 
                                                    1890   1891   1930   1931 
                                                    1947   1948   1979   1980 
                                                    2019   2020   2036   2037 
                                                    2070   2071   2110   2111 
                                                    2127   2128   2172   2173 
                                                    2189   2190   2234   2235 
                                                    2251   2252   2296   2297 
                                                    2313   2314   2358   2359 
                                                    2375   2376   2420   2421 
                                                    2437   2438   2486   2488 
                                                    2508   2510 
CL44                             00000096-   3548   1608   1609 
CL45                             00000097-   3549   1670   1671 
CL46                             00000098-   3550   1732   1733 
CL47                             00000099-   3551   1794   1795 
CL48                             0000009a-   3552   1856   1857 
CL49                             0000009b-   3553   1880   1969   2060 
CL5                              0000006f-   3509    774    775    914    915 
                                                     943    944    964    965 
                                                     985    986   1007   1008 
                                                    1036   1037   1065   1066 
                                                    1092   1093   1101   1102 
                                                    1472   1473   2480   2481 
                                                    2504   2505   2526   2527 
TMS320C3x/4x COFF AssemblerVersion 5.12     Thu Sep 02 10:22:21 2021
Copyright (c) 1987-1999 Texas Instruments Incorporatedasm30.exe -@_6UK.AAB 

Y:\workspace\EEA\V615\APP\SOURCE\ASM\selftest.asm                    PAGE   79

LABEL                            VALUE       DEFN    REF

CL50                             0000009c-   3554   1888   1889 
CL51                             0000009d-   3555   1945   1946 
CL52                             0000009e-   3556   1977   1978 
CL53                             0000009f-   3557   2034   2035 
CL54                             000000a0-   3558   2068   2069 
CL55                             000000a1-   3559   2125   2126 
CL56                             000000a2-   3560   2187   2188 
CL57                             000000a3-   3561   2249   2250 
CL58                             000000a4-   3562   2311   2312 
CL59                             000000a5-   3563   2373   2374 
CL6                              00000070-   3510    781    782   1186   1187 
                                                    1385   1386   1426   1427 
                                                    1488   1489 
CL60                             000000a6-   3564   2435   2436 
CL61                             000000a7-   3565   2484   2485 
CL62                             000000a8-   3566   2506   2507 
CL63                             000000a9-   3567   2642   2643   2834   2835 
CL64                             000000aa-   3568   2651   2652   3383   3384 
CL65                             000000ab-   3569   2653   2654   2679   2680 
                                                    2737   2738   3060   3061 
                                                    3282   3283   3385   3386 
CL66                             000000ac-   3570   2655   2656   2681   2682 
                                                    2705   2707   2739   2740 
                                                    2772   2773   2805   2806 
                                                    2910   2911   2943   2944 
                                                    3062   3063   3173   3175 
                                                    3284   3285   3387   3388 
CL67                             000000ad-   3571   2677   2678   3280   3281 
CL68                             000000ae-   3572   2703   2704   3171   3172 
CL69                             000000af-   3573   2715   2716   3183   3184 
CL7                              00000071-   3511    789    790 
CL70                             000000b0-   3574   2735   2736   3058   3059 
CL71                             000000b1-   3575   2748   2749   3071   3072 
CL72                             000000b2-   3576   2768   2769   2906   2907 
CL73                             000000b3-   3577   2770   2771   2908   2909 
CL74                             000000b4-   3578   2781   2782   2919   2920 
CL75                             000000b5-   3579   2801   2802   2939   2940 
CL76                             000000b6-   3580   2803   2804   2941   2942 
CL77                             000000b7-   3581   2814   2815   2952   2953 
CL78                             000000b8-   3582   2895   2896   3047   3048 
                                                    3160   3161   3269   3270 
                                                    3372   3373 
CL79                             000000b9-   3583   2972   2973   3091   3092 
                                                    3203   3204   3306   3307 
                                                    3409   3410 
CL8                              00000072-   3512    853    854 
CL80                             000000ba-   3584   2974   2975 
CL81                             000000bb-   3585   2985   2987   3104   3106 
                                                    3216   3218   3319   3321 
                                                    3422   3424 
TMS320C3x/4x COFF AssemblerVersion 5.12     Thu Sep 02 10:22:21 2021
Copyright (c) 1987-1999 Texas Instruments Incorporatedasm30.exe -@_6UK.AAB 

Y:\workspace\EEA\V615\APP\SOURCE\ASM\selftest.asm                    PAGE   80

LABEL                            VALUE       DEFN    REF

CL82                             000000bc-   3586   2982   2983   3101   3102 
                                                    3213   3214   3316   3317 
                                                    3419   3420 
CL83                             000000bd-   3587   3093   3094 
CL84                             000000be-   3588   3205   3206 
CL85                             000000bf-   3589   3308   3309 
CL86                             000000c0-   3590   3411   3412 
CL9                              00000073-   3513    864    865    875    876 
DIV_F30                          REF                1419   3748 
FP                               0000000b       7 
L107                             000003ba'   2557   2530 
L11                              00000051'    938    930 
L115                             000003c9'   2581   1601   1623   1663   1685 
                                                    1725   1747   1787   1809 
                                                    1849   1871   1898   1938 
                                                    1960   1987   2027   2051 
                                                    2078   2118   2140   2180 
                                                    2202   2242   2264   2304 
                                                    2326   2366   2388   2428 
                                                    2450   2497   2522 
L12                              00000056'    949    936 
L120                             00000017+   2671   2660 
L122                             00000025+   2697   2686 
L124                             00000035+   2729   2718 
L126                             00000046+   2762   2751 
L128                             00000057+   2795   2784 
L130                             00000068+   2828   2817 
L136                             0000008c+   2933   2922 
L138                             0000009d+   2966   2955 
L139                             000000a2+   2977   2899 
L14                              00000060'    970    958 
L145                             000000c9+   3085   3074 
L146                             000000ce+   3096   3051 
L152                             000000f4+   3197   3186 
L153                             000000f9+   3208   3164 
L159                             0000011c+   3300   3289 
L16                              0000006a'    991    979 
L160                             00000121+   3311   3273 
L166                             00000144+   3403   3392 
L167                             00000149+   3414   3376 
L18                              00000074'   1013   1001 
L20                              0000007e'   1031   1023 
L21                              00000083'   1042   1029 
L23                              0000008d'   1060   1052 
L24                              00000092'   1071   1058 
L27                              000000a0'   1096    918    947    968    989 
                                                    1011   1040   1069   1080 
                                                    1086 
L29                              000000c4'   1157   1105 
L34                              000000e4'   1216   1197   1203 
L35                              000000e8'   1225   1214 
TMS320C3x/4x COFF AssemblerVersion 5.12     Thu Sep 02 10:22:21 2021
Copyright (c) 1987-1999 Texas Instruments Incorporatedasm30.exe -@_6UK.AAB 

Y:\workspace\EEA\V615\APP\SOURCE\ASM\selftest.asm                    PAGE   81

LABEL                            VALUE       DEFN    REF

L36                              000000ff'   1261   1166   1172 
L37                              0000012e'   1340   1369 
L40                              00000132'   1356   1347 
L41                              0000013a'   1371   1338   1354 
L43                              00000142'   1391   1378 
L44                              0000015e'   1435   1155   1259   1389 
L47                              0000019b'   1525   1516 
L48                              000001b0'   1563   2535 
L50                              000001c6'   1603   1572 
L51                              000001d0'   1625   2538 
L53                              000001e6'   1665   1634 
L54                              000001f0'   1687   2544 
L56                              00000206'   1727   1696 
L57                              00000210'   1749   2547 
L59                              00000226'   1789   1758 
L6                               0000002d'    870    857 
L60                              00000230'   1811   2550 
L62                              00000246'   1851   1820 
L63                              00000250'   1873   2577 
L65                              0000025e'   1900   1881 
L67                              00000274'   1940   1909 
L68                              0000027e'   1962   2553 
L7                               00000031'    879    868 
L70                              0000028c'   1989   1970 
L72                              000002a2'   2029   1998 
L73                              000002ac'   2053   2541   2559   2562 
L75                              000002ba'   2080   2061 
L77                              000002d0'   2120   2089 
L78                              000002da'   2142   2532 
L80                              000002f0'   2182   2151 
L81                              000002fa'   2204   2565 
L83                              00000310'   2244   2213 
L84                              0000031a'   2266   2568 
L86                              00000330'   2306   2275 
L87                              0000033a'   2328   2574 
L89                              00000350'   2368   2337 
L9                               00000047'    920    908 
L90                              0000035a'   2390   2571 
L92                              00000370'   2430   2399 
L93                              0000037a'   2452   2555   2579 
L95                              00000397'   2499   2461 
L97                              000003a5'   2524   1509   1523   1561 
SL1                              00000000+   3483   3638 
SL10                             0000009a+   3492   3648 
SL11                             000000a7+   3493   3649 
SL12                             000000bb+   3494   3650 
SL13                             000000cf+   3495   3651 
SL14                             000000e0+   3496   3652 
SL15                             000000f2+   3497   3653 
SL16                             00000106+   3498   3654 
SL17                             00000119+   3499   3655 
TMS320C3x/4x COFF AssemblerVersion 5.12     Thu Sep 02 10:22:21 2021
Copyright (c) 1987-1999 Texas Instruments Incorporatedasm30.exe -@_6UK.AAB 

Y:\workspace\EEA\V615\APP\SOURCE\ASM\selftest.asm                    PAGE   82

LABEL                            VALUE       DEFN    REF

SL18                             00000122+   3500   3656 
SL2                              0000000a+   3484   3639 
SL3                              0000001b+   3485   3640 
SL4                              0000002f+   3486   3641 
SL5                              00000041+   3487   3642 
SL6                              00000053+   3488   3644 
SL7                              00000065+   3489   3645 
SL8                              00000079+   3490   3646 
SL9                              00000086+   3491   3647 
_ANALYZER_MODE                   REF                3643   3719 
_CHANGE                          REF                3602   3715 
_CRC_APP                         REF                3668   3731 
_CRC_BOOT                        REF                3663   3729 
_CRC_FAST                        REF                3665   3735 
_CRC_INIT                        REF                3671   3733 
_Calc_CRC                        REF                3660   3737 
_Clear_Diagnostics               00000000'    734    721    722    722 
_DATA_CHANGE                     REF                3603   3711 
_DIAGNOSTICS                     00000067-   3469   3468   3470   3470   3597 
                                                    3598 
_DIAGNOSTICS_ERROR_CODE          00000000-   3445   3444   3446   3446   3599 
_DIAGNOSTICS_MASK                000000df-   3465   3464   3466   3466   3604 
                                                    3605 
_DIAGNOSTICS_MSG_CODE            00000066-   3461   3460   3462   3462   3600 
_DIAG_TEMP                       00000069-   3477   3476   3478   3478   3629 
                                                    3630 
_DIO_ALARM                       000000dc-   3457   3456   3458   3458   3595 
_DIO_BUILT_IN_TEST               REF                3657   3723 
_DIO_BUILT_IN_TEST_ENABLE        REF                3672   3721 
_DIO_ERROR                       000000e1-   3473   3472   3474   3474   3596 
_E_STRING                        00000001-   3453   3452   3454   3454   3636 
_Get_Russ_Line                   REF                3635   3705 
_HW_VER                          REF                3617   3717 
_LED_GREEN                       REF                3608   3709 
_OUT_STR                         REF                3634   3707 
_REG_DIAG                        00000000-   3449   3448   3450   3450   3623 
                                                    3625   3626   3627 
_REG_WATERCUT                    REF                3606   3725 
_RTC_PRESENT                     REF                3607   3697 
_RUSS                            REF                3633   3727 
_RecordLogEntry                  REF                3632   3703 
_SA                              REF                3616   3713 
_STATUS_LED_off                  REF                3611   3739 
_STATUS_LED_on                   REF                3615   3741 
_SYS                             REF                3631   3699 
_SYS_LOG_ENABLED                 REF                3628   3701 
_Self_Test1                      0000012d+   3355   3342   3343   3343   3674 
_Self_Test2                      00000105+   3252   3239   3240   3240   3680 
_Self_Test3                      000000da+   3140   3127   3128   3128   3679 
_Self_Test4                      000000ae+   3021   3008   3009   3009   3678 
_Self_Test5                      00000071+   2869   2856   2857   2857   3677 
TMS320C3x/4x COFF AssemblerVersion 5.12     Thu Sep 02 10:22:21 2021
Copyright (c) 1987-1999 Texas Instruments Incorporatedasm30.exe -@_6UK.AAB 

Y:\workspace\EEA\V615\APP\SOURCE\ASM\selftest.asm                    PAGE   83

LABEL                            VALUE       DEFN    REF

_Self_Test_FULL                  00000000+   2615   2602   2603   2603 
_Set_Diag_Status                 0000001d'    819    806    807    807   3601 
_TMR_LEDOFF                      REF                3609   3745 
_TMR_LEDON                       REF                3613   3743 
_TMR_SELFTEST                    REF                3673   3675   3747 
_Timer_Create                    REF                3612   3695 
_Timer_Insert                    REF                3676   3693 
_VAR_Update                      REF                3624   3691 
_log                             REF                3622   3689 
_sprintf                         REF                3637   3687 
fp                               0000000b       6    739    740    795    796 
                                                     796    839    840   1323 
                                                    1330   1336   1345   1346 
                                                    1361   1363   1366   1367 
                                                    1376   1397   1401   1421 
                                                    1552   2589   2590   2590 
                                                    2628   2629   2710   2743 
                                                    2776   2809   2845   2846 
                                                    2846   2882   2883   2914 
                                                    2947   2997   2998   2998 
                                                    3034   3035   3066   3116 
                                                    3117   3117   3147   3148 
                                                    3178   3228   3229   3229 
                                                    3257   3258   3331   3332 
                                                    3332   3360   3361   3434 
                                                    3435   3435 
