TMS320C3x/4x COFF AssemblerVersion 5.12     Thu Apr 21 09:27:38 2022
Copyright (c) 1987-1999 Texas Instruments Incorporatedasm30.exe -@_4A4.AAB 

Y:\workspace_eea\V615\APP\SOURCE\ASM\timer.asm                       PAGE    1

        1                   ;******************************************************************************
        2                   ;* TMS320C3x/4x ANSI C Code Generator                            Version 5.11 *
        3                   ;* Date/Time created: Thu Apr 21 09:27:39 2022                                *
        4                   ;******************************************************************************
        5                           .regalias       ; enable floating point register aliases
        6          0000000b fp      .set    ar3
        7          0000000b FP      .set    ar3
        8                   ;******************************************************************************
        9                   ;* GLOBAL FILE PARAMETERS                                                     *
       10                   ;*                                                                            *
       11                   ;*   Optimization       : Always Choose Smaller Code Size                     *
       12                   ;*   Memory             : Big Memory Model                                    *
       13                   ;*   Float-to-Int       : Normal Conversions (round toward zero)              *
       14                   ;*   Multiply           : in Software (32 bits)                               *
       15                   ;*   Memory Info        : Unmapped Memory Exists                              *
       16                   ;*   Repeat Loops       : Use RPTS and/or RPTB                                *
       17                   ;*   Calls              : Normal Library ASM calls                            *
       18                   ;*   Debug Info         : Standard TI Debug Information                       *
       19                   ;******************************************************************************
       20                   ;       C:\tic3x4x\c3x4x\cgtools\bin\ac30.exe -@_4A4.AAA 
       21                           .file   "timer.c"
       22                           .file   "Y:\workspace_eea\V615\APP\SOURCE\INCLUDE\GLBLS.H"
       23                           .file   "Y:\workspace_eea\V615\INCLUDE\stdarg.h"
       24                           .sym    _va_list,0,18,13,32
       25                           .file   "Y:\workspace_eea\V615\INCLUDE\format.h"
       26                           .stag   .fake0,128
       27                           .member _flags,0,14,8,32
       28                           .member _fwidth,32,4,8,32
       29                           .member _precision,64,4,8,32
       30                           .member _conv,96,2,8,32
       31                           .eos
       32                           .sym    __PFIELD,0,8,13,128,.fake0
       33                           .stag   .fake1,3200
       34                           .member _flags,0,14,8,32
       35                           .member _fwidth,32,4,8,32
       36                           .member _precision,64,4,8,32
       37                           .member _scanset,96,50,8,3072,,96
       38                           .member _conv,3168,2,8,32
       39                           .eos
       40                           .sym    __SFIELD,0,8,13,3200,.fake1
       41                           .file   "Y:\workspace_eea\V615\INCLUDE\string.h"
       42                           .sym    _size_t,0,14,13,32
       43                           .file   "Y:\workspace_eea\V615\INCLUDE\stdio.h"
       44                           .stag   .fake2,224
       45                           .member _fd,0,4,8,32
       46                           .member _buf,32,28,8,32
       47                           .member _pos,64,28,8,32
       48                           .member _bufend,96,28,8,32
       49                           .member _buff_stop,128,28,8,32
       50                           .member _flags,160,14,8,32
       51                           .member _index,192,4,8,32
       52                           .eos
       53                           .sym    _FILE,0,8,13,224,.fake2
       54                           .sym    _fpos_t,0,5,13,32
TMS320C3x/4x COFF AssemblerVersion 5.12     Thu Apr 21 09:27:38 2022
Copyright (c) 1987-1999 Texas Instruments Incorporatedasm30.exe -@_4A4.AAB 

Y:\workspace_eea\V615\APP\SOURCE\ASM\timer.asm                       PAGE    2

       55                           .stag   .fake3,544
       56                           .member _name,0,50,8,288,,9
       57                           .member _flags,288,13,8,32
       58                           .member _OPEN,320,148,8,32
       59                           .member _CLOSE,352,148,8,32
       60                           .member _READ,384,148,8,32
       61                           .member _WRITE,416,148,8,32
       62                           .member _LSEEK,448,149,8,32
       63                           .member _UNLINK,480,148,8,32
       64                           .member _RENAME,512,148,8,32
       65                           .eos
       66                           .sym    __DEVICE,0,8,13,544,.fake3
       67                           .file   "Y:\workspace_eea\V615\INCLUDE\stdlib.h"
       68                           .sym    _wchar_t,0,2,13,32
       69                           .stag   __div_t,64
       70                           .member _quot,0,4,8,32
       71                           .member _rem,32,4,8,32
       72                           .eos
       73                           .sym    _div_t,0,8,13,64,__div_t
       74                           .sym    _ldiv_t,0,8,13,64,__div_t
       75                           .file   "Y:\workspace_eea\V615\INCLUDE\math.h"
       76                           .file   "Y:\workspace_eea\V615\INCLUDE\time.h"
       77                           .sym    _clock_t,0,15,13,32
       78                           .sym    _time_t,0,15,13,32
       79                           .stag   _tm,288
       80                           .member _tm_sec,0,4,8,32
       81                           .member _tm_min,32,4,8,32
       82                           .member _tm_hour,64,4,8,32
       83                           .member _tm_mday,96,4,8,32
       84                           .member _tm_mon,128,4,8,32
       85                           .member _tm_year,160,4,8,32
       86                           .member _tm_wday,192,4,8,32
       87                           .member _tm_yday,224,4,8,32
       88                           .member _tm_isdst,256,4,8,32
       89                           .eos
       90                           .stag   _tmzone,320
       91                           .member _daylight,0,3,8,32
       92                           .member _timezone,32,5,8,32
       93                           .member _tzname,64,50,8,128,,4
       94                           .member _dstname,192,50,8,128,,4
       95                           .eos
       96                           .file   "Y:\workspace_eea\V615\INCLUDE\ETC.H"
       97                           .sym    _BOOL,0,14,13,32
       98                           .file   "Y:\workspace_eea\V615\INCLUDE\LIST.H"
       99                           .stag   .fake4,96
      100                           .member _head,0,20,8,32
      101                           .member _tail,32,20,8,32
      102                           .member _n,64,4,8,32
      103                           .eos
      104                           .sym    _LIST,0,8,13,96,.fake4
      105                           .stag   .fake5,64
      106                           .member _prev,0,20,8,32
      107                           .member _next,32,20,8,32
      108                           .eos
TMS320C3x/4x COFF AssemblerVersion 5.12     Thu Apr 21 09:27:38 2022
Copyright (c) 1987-1999 Texas Instruments Incorporatedasm30.exe -@_4A4.AAB 

Y:\workspace_eea\V615\APP\SOURCE\ASM\timer.asm                       PAGE    3

      109                           .sym    _GENERIC,0,8,13,64,.fake5
      110                           .file   "Y:\workspace_eea\V615\APP\SOURCE\INCLUDE\VARIABLE.H"
      111                           .stag   .fake6,1408
      112                           .member _val,0,6,8,32
      113                           .member _vect1,32,20,8,32
      114                           .member _vect2,64,20,8,32
      115                           .member _STAT,96,4,8,32
      116                           .member _dampening,128,6,8,32
      117                           .member _damp_count,160,4,8,32
      118                           .member _aux,192,4,8,32
      119                           .member _val1,224,6,8,32
      120                           .member _val2,256,6,8,32
      121                           .member _calc_val,288,11,8,64
      122                           .member _base_val,352,11,8,64
      123                           .member _unit,416,4,8,32
      124                           .member _calc_unit,448,4,8,32
      125                           .member _class,480,4,8,32
      126                           .member _scale,512,6,8,32
      127                           .member _scale_long,544,6,8,32
      128                           .member _bound_hi_set,576,6,8,32
      129                           .member _bound_lo_set,608,6,8,32
      130                           .member _alarm_hi_set,640,6,8,32
      131                           .member _alarm_lo_set,672,6,8,32
      132                           .member _name,704,50,8,672,,21
      133                           .member _name_r,1376,4,8,32
      134                           .eos
      135                           .sym    _VAR,0,8,13,1408,.fake6
      136                           .stag   .fake7,96
      137                           .member _val,0,14,8,32
      138                           .member _vect,32,20,8,32
      139                           .member _vect2,64,20,8,32
      140                           .eos
      141                           .sym    _COIL,0,8,13,96,.fake7
      142                           .stag   .fake8,64
      143                           .member _val,0,4,8,32
      144                           .member _vect,32,20,8,32
      145                           .eos
      146                           .sym    _REGVECT,0,8,13,64,.fake8
      147                           .stag   .fake9,96
      148                           .member _prev,0,20,8,32
      149                           .member _next,32,20,8,32
      150                           .member _v,64,24,8,32,.fake6
      151                           .eos
      152                           .sym    _DPKT,0,8,13,96,.fake9
      153                           .file   "Y:\workspace_eea\V615\APP\SOURCE\INCLUDE\BUFFER.H"
      154                           .stag   .fake10,9824
      155                           .member _head,0,4,8,32
      156                           .member _tail,32,4,8,32
      157                           .member _n,64,4,8,32
      158                           .member _GSEED,96,14,8,32
      159                           .member _CRC16,128,14,8,32
      160                           .member _buff,160,62,8,9600,,300
      161                           .member _sum,9760,4,8,32
      162                           .member _locked,9792,14,8,32
TMS320C3x/4x COFF AssemblerVersion 5.12     Thu Apr 21 09:27:38 2022
Copyright (c) 1987-1999 Texas Instruments Incorporatedasm30.exe -@_4A4.AAB 

Y:\workspace_eea\V615\APP\SOURCE\ASM\timer.asm                       PAGE    4

      163                           .eos
      164                           .sym    _BFR,0,8,13,9824,.fake10
      165                           .file   "Y:\workspace_eea\V615\INCLUDE\UNITS.H"
      166                           .file   "Y:\workspace_eea\V615\APP\SOURCE\INCLUDE\TIMER.H"
      167                           .stag   .fake11,320
      168                           .member _prev,0,20,8,32
      169                           .member _next,32,20,8,32
      170                           .member _vect,64,20,8,32
      171                           .member _priority,96,4,8,32
      172                           .member _parent,128,20,8,32
      173                           .member _n,160,4,8,32
      174                           .member _prev_n,192,4,8,32
      175                           .member _countdown,224,4,8,32
      176                           .member _preset_time,256,4,8,32
      177                           .member _t,288,6,8,32
      178                           .eos
      179                           .sym    _TPKT,0,8,13,320,.fake11
      180                           .file   "Y:\workspace_eea\V615\INCLUDE\I2C.H"
      181                           .file   "Y:\workspace_eea\V615\APP\SOURCE\INCLUDE\ERRORS.H"
      182                           .file   "Y:\workspace_eea\V615\APP\SOURCE\INCLUDE\SERIAL.H"
      183                           .stag   .fake12,2272
      184                           .member _Slave,0,4,8,32
      185                           .member _SNUM,32,4,8,32
      186                           .member _PRESENT,64,14,8,32
      187                           .member _TX_complete,96,14,8,32
      188                           .member _RX_pending,128,14,8,32
      189                           .member _BUSY,160,14,8,32
      190                           .member _IGNORE_RX,192,14,8,32
      191                           .member _STAT,224,12,8,32
      192                           .member _DAT,256,12,8,32
      193                           .member _broadcast,288,14,8,32
      194                           .member _TMR_Network_WDOG,320,4,8,32
      195                           .member _TMR_EOT_Delay,352,4,8,32
      196                           .member _TMR_Prefix_Delay,384,4,8,32
      197                           .member _TMR_Suffix_Delay,416,4,8,32
      198                           .member _TMR_Char,448,4,8,32
      199                           .member _TMR_Poll,480,8,8,320,.fake11
      200                           .member _TMR_Retry,800,8,8,320,.fake11
      201                           .member _nr,1120,4,8,32
      202                           .member _Received_PKT,1152,14,8,32
      203                           .member _TMR_enabled,1184,14,8,32
      204                           .member _tvector,1216,20,8,32
      205                           .member _pvector,1248,20,8,32
      206                           .member _pvector_main,1280,20,8,32
      207                           .member _tvector_main,1312,20,8,32
      208                           .member _fvector,1344,20,8,32
      209                           .member _actual_baud_rate,1376,6,8,32
      210                           .member _c,1408,14,8,32
      211                           .member _r,1440,14,8,32
      212                           .member _n,1472,4,8,32
      213                           .member _n_exp,1504,4,8,32
      214                           .member _ai,1536,4,8,32
      215                           .member _start,1568,4,8,32
      216                           .member _i,1600,4,8,32
TMS320C3x/4x COFF AssemblerVersion 5.12     Thu Apr 21 09:27:38 2022
Copyright (c) 1987-1999 Texas Instruments Incorporatedasm30.exe -@_4A4.AAB 

Y:\workspace_eea\V615\APP\SOURCE\ASM\timer.asm                       PAGE    5

      217                           .member _i_main,1632,4,8,32
      218                           .member _func,1664,14,8,32
      219                           .member _ERROR_COUNT,1696,14,8,32
      220                           .member _WDOG_COUNT,1728,14,8,32
      221                           .member _INV_CMD_COUNT,1760,14,8,32
      222                           .member _INV_PKT_COUNT,1792,14,8,32
      223                           .member _SUCCESS,1824,14,8,32
      224                           .member _NUM_RETRIES,1856,14,8,32
      225                           .member _FLAG1,1888,14,8,32
      226                           .member _FLAG2,1920,14,8,32
      227                           .member _FLAG3,1952,14,8,32
      228                           .member _LONG_ADDRESS,1984,14,8,32
      229                           .member _MASTER,2016,8,8,96,.fake4
      230                           .member _p,2112,20,8,32
      231                           .member _data,2144,14,8,32
      232                           .member _f,2176,22,8,32
      233                           .member _l,2208,30,8,32
      234                           .member _failed,2240,14,8,32
      235                           .eos
      236                           .sym    _PORTV,0,8,13,2272,.fake12
      237                           .stag   .fake13,11488
      238                           .member _PREFIX,0,8,8,1408,.fake6
      239                           .member _SUFFIX,1408,8,8,1408,.fake6
      240                           .member _NETWDOG,2816,8,8,1408,.fake6
      241                           .member _Slave_ID,4224,8,8,1408,.fake6
      242                           .member _Baud_Rate,5632,8,8,1408,.fake6
      243                           .member _Parity,7040,4,8,32
      244                           .member _n_bits,7072,4,8,32
      245                           .member _STP,7104,4,8,32
      246                           .member _N,7136,4,8,32
      247                           .member _N_retry,7168,4,8,32
      248                           .member _EOT_Delay,7200,8,8,1408,.fake6
      249                           .member _Retry_Time,8608,8,8,1408,.fake6
      250                           .member _Num_Retry,10016,8,8,1408,.fake6
      251                           .member _poll_time,11424,4,8,32
      252                           .member _timeout,11456,4,8,32
      253                           .eos
      254                           .sym    _PORTC,0,8,13,11488,.fake13
      255                           .stag   .fake14,672
      256                           .member _prev,0,20,8,32
      257                           .member _next,32,20,8,32
      258                           .member _rxvect,64,20,8,32
      259                           .member _txvect,96,20,8,32
      260                           .member _n,128,4,8,32
      261                           .member _slave,160,4,8,32
      262                           .member _func,192,4,8,32
      263                           .member _addr,224,4,8,32
      264                           .member _num,256,4,8,32
      265                           .member _v,288,54,8,320,,10
      266                           .member _flt_ptr,608,22,8,32
      267                           .member _int_ptr,640,20,8,32
      268                           .eos
      269                           .sym    _MPKT,0,8,13,672,.fake14
      270                           .file   "Y:\workspace_eea\V615\APP\SOURCE\INCLUDE\ADC.H"
TMS320C3x/4x COFF AssemblerVersion 5.12     Thu Apr 21 09:27:38 2022
Copyright (c) 1987-1999 Texas Instruments Incorporatedasm30.exe -@_4A4.AAB 

Y:\workspace_eea\V615\APP\SOURCE\ASM\timer.asm                       PAGE    6

      271                           .stag   .fake15,10176
      272                           .member _CURRENT,0,8,8,1408,.fake6
      273                           .member _CURRENT_PERCENT_OF_RANGE,1408,8,8,1408,.fake6
      274                           .member _LRV,2816,8,8,1408,.fake6
      275                           .member _URV,4224,8,8,1408,.fake6
      276                           .member _TRIM_MIN,5632,8,8,1408,.fake6
      277                           .member _TRIM_MAX,7040,8,8,1408,.fake6
      278                           .member _VALUE,8448,8,8,1408,.fake6
      279                           .member _TRIM_MIN_C,9856,6,8,32
      280                           .member _TRIM_MAX_C,9888,6,8,32
      281                           .member _v,9920,8,8,64,.fake8
      282                           .member _class,9984,8,8,64,.fake8
      283                           .member _unit,10048,8,8,64,.fake8
      284                           .member _present,10112,14,8,32
      285                           .member _val,10144,6,8,32
      286                           .eos
      287                           .sym    _LOOPDATA_I,0,8,13,10176,.fake15
      288                           .file   "Y:\workspace_eea\V615\APP\SOURCE\INCLUDE\DAC.H"
      289                           .stag   .fake16,13408
      290                           .member _CURRENT,0,8,8,1408,.fake6
      291                           .member _CURRENT_PERCENT_OF_RANGE,1408,8,8,1408,.fake6
      292                           .member _LRV,2816,8,8,1408,.fake6
      293                           .member _URV,4224,8,8,1408,.fake6
      294                           .member _TRIM_MIN,5632,8,8,1408,.fake6
      295                           .member _TRIM_MAX,7040,8,8,1408,.fake6
      296                           .member _TRIM_MIN_C,8448,6,8,32
      297                           .member _TRIM_MAX_C,8480,6,8,32
      298                           .member _ALARM_SELECT,8512,4,8,32
      299                           .member _MINSPAN,8544,6,8,32
      300                           .member _v,8576,8,8,64,.fake8
      301                           .member _class,8640,8,8,64,.fake8
      302                           .member _unit,8704,8,8,64,.fake8
      303                           .member _MANUAL,8768,4,8,32
      304                           .member _MANUAL_PERCENT,8800,6,8,32
      305                           .member _REVERSE,8832,4,8,32
      306                           .member _PID_input,8864,6,8,32
      307                           .member _PID_setpoint,8896,6,8,32
      308                           .member _P,8928,8,8,1408,.fake6
      309                           .member _I,10336,8,8,1408,.fake6
      310                           .member _D,11744,8,8,1408,.fake6
      311                           .member _pid_lastcycle,13152,4,8,32
      312                           .member _pid_output,13184,6,8,32
      313                           .member _pid_propband,13216,6,8,32
      314                           .member _pid_error,13248,6,8,32
      315                           .member _pid_bias,13280,6,8,32
      316                           .member _present,13312,14,8,32
      317                           .member _PID_fail,13344,14,8,32
      318                           .member _PID_enable_failsafe,13376,14,8,32
      319                           .eos
      320                           .sym    _LOOPDATA_O,0,8,13,13408,.fake16
      321                           .file   "Y:\workspace_eea\V615\APP\SOURCE\INCLUDE\EXECUTE.H"
      322                           .stag   .fake17,128
      323                           .member _prev,0,20,8,32
      324                           .member _next,32,20,8,32
TMS320C3x/4x COFF AssemblerVersion 5.12     Thu Apr 21 09:27:38 2022
Copyright (c) 1987-1999 Texas Instruments Incorporatedasm30.exe -@_4A4.AAB 

Y:\workspace_eea\V615\APP\SOURCE\ASM\timer.asm                       PAGE    7

      325                           .member _vect,64,20,8,32
      326                           .member _priority,96,4,8,32
      327                           .eos
      328                           .sym    _EPKT,0,8,13,128,.fake17
      329                           .file   "Y:\workspace_eea\V615\INCLUDE\FLASH.H"
      330                           .file   "Y:\workspace_eea\V615\APP\SOURCE\INCLUDE\LOG.H"
      331                           .stag   .fake18,384
      332                           .member _log_len,0,14,8,32
      333                           .member _log_n_sectors,32,14,8,32
      334                           .member _log_n_max_per_sector,64,14,8,32
      335                           .member _log_n,96,14,8,32
      336                           .member _log_current_sector,128,14,8,32
      337                           .member _log_absolute_index,160,14,8,32
      338                           .member _log_start,192,30,8,32
      339                           .member _log_sector_size,224,14,8,32
      340                           .member _log_record_size,256,14,8,32
      341                           .member _log_end,288,14,8,32
      342                           .member _LOG_ERASE,320,14,8,32
      343                           .member _erased_sector,352,14,8,32
      344                           .eos
      345                           .sym    _LOG,0,8,13,384,.fake18
      346                           .file   "Y:\workspace_eea\V615\APP\SOURCE\INCLUDE\DEMO.H"
      347                           .file   "Y:\workspace_eea\V615\APP\SOURCE\INCLUDE\SELFTEST.H"
      348                           .file   "Y:\workspace_eea\V615\APP\SOURCE\INCLUDE\MENU.H"
      349                           .stag   .fake19,16288
      350                           .member _INIT,0,14,8,32
      351                           .member _FRESH,32,14,8,32
      352                           .member _MENU,64,14,8,32
      353                           .member _SELECT,96,14,8,32
      354                           .member _VALUE,128,14,8,32
      355                           .member _ENTER,160,14,8,32
      356                           .member _DIR,192,4,8,32
      357                           .member _DIR_CHANGE,224,14,8,32
      358                           .member _M,256,14,8,32
      359                           .member _S,288,14,8,32
      360                           .member _V,320,14,8,32
      361                           .member _E,352,14,8,32
      362                           .member _CURSOR_ENABLED,384,14,8,32
      363                           .member _CURSOR_ROW,416,4,8,32
      364                           .member _CURSOR_COL,448,4,8,32
      365                           .member _CNT,480,14,8,32
      366                           .member _MENU_CNT,512,14,8,32
      367                           .member _SELECT_CNT,544,14,8,32
      368                           .member _VALUE_CNT,576,14,8,32
      369                           .member _k,608,14,8,32
      370                           .member _MODE_LOCKDOWN,640,14,8,32
      371                           .member _MODE_WPROT,672,14,8,32
      372                           .member _MODE_DEFINE,704,14,8,32
      373                           .member _MODE_USER,736,14,8,32
      374                           .member _MODE_TECH,768,14,8,32
      375                           .member _MODE_NORMAL,800,14,8,32
      376                           .member _menu_list_top,832,14,8,32
      377                           .member _menu_list_operations,864,14,8,32
      378                           .member _menu_list_configurations,896,14,8,32
TMS320C3x/4x COFF AssemblerVersion 5.12     Thu Apr 21 09:27:38 2022
Copyright (c) 1987-1999 Texas Instruments Incorporatedasm30.exe -@_4A4.AAB 

Y:\workspace_eea\V615\APP\SOURCE\ASM\timer.asm                       PAGE    8

      379                           .member _menu_list_security_info,928,14,8,32
      380                           .member _menu_list_measurements,960,14,8,32
      381                           .member _menu_list_changed,992,14,8,32
      382                           .member _PAGE,1024,14,8,32
      383                           .member _SUBPAGE,1056,14,8,32
      384                           .member _MENU_TRAP,1088,14,8,32
      385                           .member _DIP,1120,62,8,128,,4
      386                           .member _tmpf,1248,54,8,320,,10
      387                           .member _tmpi,1568,52,8,320,,10
      388                           .member _str,1888,242,8,12928,,4,101
      389                           .member _tmpv,14816,8,8,1408,.fake6
      390                           .member _ptmpv,16224,24,8,32,.fake6
      391                           .member _tbl,16256,20,8,32
      392                           .eos
      393                           .sym    _MENU_STRUCT,0,8,13,16288,.fake19
      394                           .file   "Y:\workspace_eea\V615\APP\SOURCE\INCLUDE\FLOAT1.H"
      395                           .file   "Y:\workspace_eea\V615\APP\SOURCE\INCLUDE\GLBLS.H"
      396                           .stag   .fake20,480
      397                           .member _i,0,4,8,32
      398                           .member _Watercut,32,6,8,32
      399                           .member _Temperature,64,6,8,32
      400                           .member _Salinity,96,6,8,32
      401                           .member _Frequency_Oil,128,6,8,32
      402                           .member _Frequency_Water,160,6,8,32
      403                           .member _RefPower_Oil,192,6,8,32
      404                           .member _RefPower_Water,224,6,8,32
      405                           .member _Dadj,256,6,8,32
      406                           .member _Time_HH,288,4,8,32
      407                           .member _Time_MM,320,4,8,32
      408                           .member _Time_MONTH,352,4,8,32
      409                           .member _Time_DAY,384,4,8,32
      410                           .member _Time_DAY_OF_WEEK,416,4,8,32
      411                           .member _Time_YEAR,448,4,8,32
      412                           .eos
      413                           .sym    _CAPDATA,0,8,13,480,.fake20
      414                           .stag   .fake21,640
      415                           .member _Watercut,0,54,8,64,,2
      416                           .member _Temperature,64,54,8,64,,2
      417                           .member _Salinity,128,54,8,64,,2
      418                           .member _Frequency_Oil,192,54,8,64,,2
      419                           .member _Frequency_Water,256,54,8,64,,2
      420                           .member _RefPower_Oil,320,54,8,64,,2
      421                           .member _RefPower_Water,384,54,8,64,,2
      422                           .member _Dadj,448,54,8,64,,2
      423                           .member _Time_MONTH_DAY_HH_MM,512,52,8,64,,2
      424                           .member _CLRSTAT_Time_YEAR,576,52,8,64,,2
      425                           .eos
      426                           .sym    _CAPRECORD,0,8,13,640,.fake21
      427                           .stag   .fake22,800
      428                           .member _Start_HH,0,4,8,32
      429                           .member _Start_MM,32,4,8,32
      430                           .member _Start_SS,64,4,8,32
      431                           .member _Start_MONTH,96,4,8,32
      432                           .member _Start_DAY,128,4,8,32
TMS320C3x/4x COFF AssemblerVersion 5.12     Thu Apr 21 09:27:38 2022
Copyright (c) 1987-1999 Texas Instruments Incorporatedasm30.exe -@_4A4.AAB 

Y:\workspace_eea\V615\APP\SOURCE\ASM\timer.asm                       PAGE    9

      433                           .member _Start_YEAR,160,4,8,32
      434                           .member _Stop_HH,192,4,8,32
      435                           .member _Stop_MM,224,4,8,32
      436                           .member _Stop_SS,256,4,8,32
      437                           .member _Stop_MONTH,288,4,8,32
      438                           .member _Stop_DAY,320,4,8,32
      439                           .member _Stop_YEAR,352,4,8,32
      440                           .member _stream,384,6,8,32
      441                           .member _elapsed_s,416,6,8,32
      442                           .member _duration,448,6,8,32
      443                           .member _purge,480,6,8,32
      444                           .member _gross_gas,512,6,8,32
      445                           .member _gross_oil,544,6,8,32
      446                           .member _gross_water,576,6,8,32
      447                           .member _gross_total,608,6,8,32
      448                           .member _gas24,640,6,8,32
      449                           .member _oil24,672,6,8,32
      450                           .member _water24,704,6,8,32
      451                           .member _total24,736,6,8,32
      452                           .member _watercut,768,6,8,32
      453                           .eos
      454                           .sym    _CCMRECORD,0,8,13,800,.fake22
      455                           .stag   .fake23,224
      456                           .member _SNUM,0,4,8,32
      457                           .member _ADDR,32,4,8,32
      458                           .member _BNUM,64,4,8,32
      459                           .member _REV,96,4,8,32
      460                           .member _MONTH,128,4,8,32
      461                           .member _DAY,160,4,8,32
      462                           .member _YEAR,192,4,8,32
      463                           .eos
      464                           .sym    _BOARD,0,8,13,224,.fake23
      465                           .etag   _Pulse_Input_Type,32
      466                           .member _PULSE_GAS_TEMP,1,4,16,32
      467                           .member _PULSE_SALINITY,2,4,16,32
      468                           .member _PULSE_STREAM_SELECT,3,4,16,32
      469                           .member _PULSE_USER_TEMP,4,4,16,32
      470                           .member _PULSE_FC_WC,5,4,16,32
      471                           .member _PULSE_FC_TEMP,6,4,16,32
      472                           .member _PULSE_FC_TOTAL_FLOW,7,4,16,32
      473                           .member _PULSE_FC_PRESSURE,8,4,16,32
      474                           .member _PULSE_FC_DENSITY,9,4,16,32
      475                           .member _PULSE_FC_SALINITY,10,4,16,32
      476                           .member _PULSE_FC_OIL_DENSITY,11,4,16,32
      477                           .member _PULSE_FC_OIL_DENSITY_ST,12,4,16,32
      478                           .member _PULSE_FC_WATER_DENSITY,13,4,16,32
      479                           .member _PULSE_FC_WATER_DENSITY_ST,14,4,16,32
      480                           .member _PULSE_NONE,15,4,16,32
      481                           .eos
      482                           .stag   .fake24,64
      483                           .member _freq,0,6,8,32
      484                           .member _counter,32,4,8,32
      485                           .eos
      486                           .sym    _Boxcar_Var,0,8,13,64,.fake24
TMS320C3x/4x COFF AssemblerVersion 5.12     Thu Apr 21 09:27:38 2022
Copyright (c) 1987-1999 Texas Instruments Incorporatedasm30.exe -@_4A4.AAB 

Y:\workspace_eea\V615\APP\SOURCE\ASM\timer.asm                       PAGE   10

      487                           .stag   .fake25,1088
      488                           .member _data,0,54,8,960,,30
      489                           .member _head,960,4,8,32
      490                           .member _tail,992,4,8,32
      491                           .member _length,1024,4,8,32
      492                           .member _average,1056,6,8,32
      493                           .eos
      494                           .sym    _bubble_struct,0,8,13,1088,.fake25
      495                           .stag   .fake26,3008
      496                           .member _data,0,54,8,2880,,90
      497                           .member _head,2880,4,8,32
      498                           .member _tail,2912,4,8,32
      499                           .member _length,2944,4,8,32
      500                           .member _average,2976,6,8,32
      501                           .eos
      502                           .sym    _pattern_struct,0,8,13,3008,.fake26
      503                           .stag   .fake27,320
      504                           .member _MODE,0,4,8,32
      505                           .member _STATUS_MASK,32,4,8,32
      506                           .member _v,64,8,8,64,.fake8
      507                           .member _setpoint,128,6,8,32
      508                           .member _ON,160,8,8,96,.fake7
      509                           .member _class,256,4,8,32
      510                           .member _unit,288,4,8,32
      511                           .eos
      512                           .sym    _RELAYDATA,0,8,13,320,.fake27
      513                           .stag   .fake28,12224
      514                           .member _diag,0,6,8,32
      515                           .member _mfr,32,6,8,32
      516                           .member _u_mfr,64,4,8,32
      517                           .member _density,96,6,8,32
      518                           .member _u_density,128,4,8,32
      519                           .member _density_PDI_corrected,160,6,8,32
      520                           .member _density_corrected,192,6,8,32
      521                           .member _u_density_corrected,224,4,8,32
      522                           .member _T,256,6,8,32
      523                           .member _u_T,288,4,8,32
      524                           .member _vfr,320,6,8,32
      525                           .member _u_vfr,352,4,8,32
      526                           .member _visc,384,6,8,32
      527                           .member _u_visc,416,4,8,32
      528                           .member _press,448,6,8,32
      529                           .member _mass_total,480,6,8,32
      530                           .member _u_m,512,4,8,32
      531                           .member _volume_total,544,6,8,32
      532                           .member _u_v,576,4,8,32
      533                           .member _u_P,608,4,8,32
      534                           .member _P,640,6,8,32
      535                           .member _mass_inv,672,6,8,32
      536                           .member _volume_inv,704,6,8,32
      537                           .member _raw_tube_freq,736,6,8,32
      538                           .member _left_pickup_value,768,6,8,32
      539                           .member _right_pickup_value,800,6,8,32
      540                           .member _drive_gain,832,6,8,32
TMS320C3x/4x COFF AssemblerVersion 5.12     Thu Apr 21 09:27:38 2022
Copyright (c) 1987-1999 Texas Instruments Incorporatedasm30.exe -@_4A4.AAB 

Y:\workspace_eea\V615\APP\SOURCE\ASM\timer.asm                       PAGE   11

      541                           .member _damp_flow_rate,864,8,8,1408,.fake6
      542                           .member _damp_density,2272,8,8,1408,.fake6
      543                           .member _mfr_cutoff,3680,8,8,1408,.fake6
      544                           .member _vfr_cutoff,5088,8,8,1408,.fake6
      545                           .member _mcf,6496,8,8,1408,.fake6
      546                           .member _address,7904,8,8,1408,.fake6
      547                           .member _mass_unit,9312,8,8,1408,.fake6
      548                           .member _density_cutoff,10720,8,8,1408,.fake6
      549                           .member _Z,12128,8,8,96,.fake7
      550                           .eos
      551                           .sym    _CORIOLIS,0,8,13,12224,.fake28
      552                           .stag   .fake29,288
      553                           .member _p_delta,0,6,8,32
      554                           .member _p_static,32,6,8,32
      555                           .member _T,64,6,8,32
      556                           .member _diag0,96,6,8,32
      557                           .member _diag1,128,6,8,32
      558                           .member _diag2,160,6,8,32
      559                           .member _u_DP,192,4,8,32
      560                           .member _u_SP,224,4,8,32
      561                           .member _u_PT,256,4,8,32
      562                           .eos
      563                           .sym    _PRESSURE,0,8,13,288,.fake29
      564                           .stag   .fake30,192
      565                           .member _T,0,6,8,32
      566                           .member _etc0,32,6,8,32
      567                           .member _etc1,64,6,8,32
      568                           .member _etc2,96,6,8,32
      569                           .member _etc3,128,6,8,32
      570                           .member _etc4,160,6,8,32
      571                           .eos
      572                           .sym    _TMPT,0,8,13,192,.fake30
      573                           .stag   .fake31,42752
      574                           .member _watercut,0,8,8,1408,.fake6
      575                           .member _T,1408,8,8,1408,.fake6
      576                           .member _pressure,2816,8,8,1408,.fake6
      577                           .member _density,4224,8,8,1408,.fake6
      578                           .member _density_PDI_corrected,5632,6,8,32
      579                           .member _density_adj,5664,6,8,32
      580                           .member _density_oilST,5696,8,8,1408,.fake6
      581                           .member _density_oil,7104,8,8,1408,.fake6
      582                           .member _density_waterST,8512,8,8,1408,.fake6
      583                           .member _density_water,9920,8,8,1408,.fake6
      584                           .member _salinity,11328,8,8,1408,.fake6
      585                           .member _API_TABLE,12736,4,8,32
      586                           .member _a,12768,6,8,32
      587                           .member _Meter_Factor,12800,8,8,1408,.fake6
      588                           .member _Shrinkage,14208,8,8,1408,.fake6
      589                           .member _VCFo,15616,6,8,32
      590                           .member _VCFw,15648,6,8,32
      591                           .member _net_watercut,15680,6,8,32
      592                           .member _net_watercut_mass,15712,6,8,32
      593                           .member _Dadj,15744,6,8,32
      594                           .member _NET_FLOW_OIL,15776,8,8,1408,.fake6
TMS320C3x/4x COFF AssemblerVersion 5.12     Thu Apr 21 09:27:38 2022
Copyright (c) 1987-1999 Texas Instruments Incorporatedasm30.exe -@_4A4.AAB 

Y:\workspace_eea\V615\APP\SOURCE\ASM\timer.asm                       PAGE   12

      595                           .member _NET_FLOW_WATER,17184,8,8,1408,.fake6
      596                           .member _NET_FLOW_TOTAL,18592,8,8,1408,.fake6
      597                           .member _NET_OIL,20000,8,8,1408,.fake6
      598                           .member _NET_WATER,21408,8,8,1408,.fake6
      599                           .member _NET_TOTAL,22816,8,8,1408,.fake6
      600                           .member _AVG_NET_TOTAL,24224,8,8,1408,.fake6
      601                           .member _GROSS_OIL,25632,8,8,1408,.fake6
      602                           .member _gross_oil_whole_part,27040,11,8,64
      603                           .member _gross_oil_fract_part,27104,11,8,64
      604                           .member _GROSS_WATER,27168,8,8,1408,.fake6
      605                           .member _gross_water_whole_part,28576,11,8,64
      606                           .member _gross_water_fract_part,28640,11,8,64
      607                           .member _GROSS_TOTAL,28704,8,8,1408,.fake6
      608                           .member _AVG_GROSS_TOTAL,30112,8,8,1408,.fake6
      609                           .member _FLOW_OIL,31520,8,8,1408,.fake6
      610                           .member _FLOW_WATER,32928,8,8,1408,.fake6
      611                           .member _FLOW_TOTAL,34336,8,8,1408,.fake6
      612                           .member _PULSES_PER_ACCUM_UNIT,35744,14,8,32
      613                           .member _PULSE_TOTAL,35776,8,8,1408,.fake6
      614                           .member _PULSE_FLOW,37184,8,8,1408,.fake6
      615                           .member _PULSE_FREQ,38592,8,8,1408,.fake6
      616                           .member _PULSE_COUNTER,40000,14,8,32
      617                           .member _PULSE,40032,4,8,32
      618                           .member _CNT,40064,4,8,32
      619                           .member _PULSE_DELTA,40096,4,8,32
      620                           .member _PULSE_FACTOR,40128,6,8,32
      621                           .member _PULSE_STAT,40160,4,8,32
      622                           .member _enable_NET,40192,14,8,32
      623                           .member _enable_GROSS,40224,14,8,32
      624                           .member _enable_FLOW,40256,14,8,32
      625                           .member _enable_DENSITY,40288,14,8,32
      626                           .member _enable_PULSE,40320,14,8,32
      627                           .member _flow_class,40352,8,8,64,.fake8
      628                           .member _flow_unit,40416,8,8,64,.fake8
      629                           .member _accum_unit,40480,8,8,64,.fake8
      630                           .member _Z,40544,8,8,96,.fake7
      631                           .member _use_totalizer,40640,8,8,96,.fake7
      632                           .member _pulse_v,40736,8,8,64,.fake8
      633                           .member _pulse_class,40800,8,8,64,.fake8
      634                           .member _pulse_unit,40864,8,8,64,.fake8
      635                           .member _pulse_VALUE,40928,8,8,1408,.fake6
      636                           .member _USE_PDI_TEMP,42336,14,8,32
      637                           .member _USE_PDI_SALINITY,42368,14,8,32
      638                           .member _CALC_WC_DENSITY,42400,14,8,32
      639                           .member _MAN_TEMP,42432,14,8,32
      640                           .member _MAN_SALINITY,42464,14,8,32
      641                           .member _MAN_WATERCUT,42496,14,8,32
      642                           .member _MAN_DENSITY,42528,14,8,32
      643                           .member _MAN_PRESSURE,42560,14,8,32
      644                           .member _MAN_FLOW,42592,14,8,32
      645                           .member _AUTHORIZATION_CODE1,42624,14,8,32
      646                           .member _AUTHORIZATION_CODE2,42656,14,8,32
      647                           .member _AUTHORIZATION_CODE3,42688,14,8,32
      648                           .member _AUTHORIZATION_CODE4,42720,14,8,32
TMS320C3x/4x COFF AssemblerVersion 5.12     Thu Apr 21 09:27:38 2022
Copyright (c) 1987-1999 Texas Instruments Incorporatedasm30.exe -@_4A4.AAB 

Y:\workspace_eea\V615\APP\SOURCE\ASM\timer.asm                       PAGE   13

      649                           .eos
      650                           .sym    _FLOW_COMP,0,8,13,42752,.fake31
      651                           .stag   .fake32,2176
      652                           .member _WATERCUT,0,6,8,32
      653                           .member _FLOW_RATE,32,6,8,32
      654                           .member _TEMPERATURE,64,6,8,32
      655                           .member _DENSITY,96,6,8,32
      656                           .member _VISCOSITY,128,6,8,32
      657                           .member _iWATERCUTz,160,4,8,32
      658                           .member _iWATERCUT,192,4,8,32
      659                           .member _iFLOW_RATE,224,4,8,32
      660                           .member _iTEMPERATURE,256,4,8,32
      661                           .member _iDENSITY,288,4,8,32
      662                           .member _iVISCOSITY,320,4,8,32
      663                           .member _maxWATERCUTz,352,6,8,32
      664                           .member _maxWATERCUT,384,6,8,32
      665                           .member _maxFLOW_RATE,416,6,8,32
      666                           .member _maxTEMPERATURE,448,6,8,32
      667                           .member _maxDENSITY,480,6,8,32
      668                           .member _maxVISCOSITY,512,6,8,32
      669                           .member _minWATERCUTz,544,6,8,32
      670                           .member _minWATERCUT,576,6,8,32
      671                           .member _minFLOW_RATE,608,6,8,32
      672                           .member _minTEMPERATURE,640,6,8,32
      673                           .member _minDENSITY,672,6,8,32
      674                           .member _minVISCOSITY,704,6,8,32
      675                           .member _ENABLED,736,14,8,32
      676                           .member _DESTINATION_ADDRESS,768,8,8,1408,.fake6
      677                           .eos
      678                           .sym    _ALYESKA_STRUCT,0,8,13,2176,.fake32
      679                           .stag   .fake33,2464
      680                           .member _ENABLED,0,8,8,96,.fake7
      681                           .member _flow_threshold,96,8,8,1408,.fake6
      682                           .member _S3,1504,6,8,32
      683                           .member _S2,1536,6,8,32
      684                           .member _S1,1568,6,8,32
      685                           .member _S0,1600,6,8,32
      686                           .member _Fmin,1632,6,8,32
      687                           .member _Dmin,1664,6,8,32
      688                           .member _Dmax,1696,6,8,32
      689                           .member _CHANGED,1728,14,8,32
      690                           .member _PURGING,1760,14,8,32
      691                           .member _TEST_IN_PROGRESS,1792,14,8,32
      692                           .member _SP3A,1824,6,8,32
      693                           .member _SP2A,1856,6,8,32
      694                           .member _SP1A,1888,6,8,32
      695                           .member _SP0A,1920,6,8,32
      696                           .member _SPLOA,1952,6,8,32
      697                           .member _SPHIA,1984,6,8,32
      698                           .member _SP3B,2016,6,8,32
      699                           .member _SP2B,2048,6,8,32
      700                           .member _SP1B,2080,6,8,32
      701                           .member _SP0B,2112,6,8,32
      702                           .member _SPLOB,2144,6,8,32
TMS320C3x/4x COFF AssemblerVersion 5.12     Thu Apr 21 09:27:38 2022
Copyright (c) 1987-1999 Texas Instruments Incorporatedasm30.exe -@_4A4.AAB 

Y:\workspace_eea\V615\APP\SOURCE\ASM\timer.asm                       PAGE   14

      703                           .member _SPHIB,2176,6,8,32
      704                           .member _FBHI3,2208,6,8,32
      705                           .member _FBHI2,2240,6,8,32
      706                           .member _FBHI1,2272,6,8,32
      707                           .member _FBHI0,2304,6,8,32
      708                           .member _FBLO3,2336,6,8,32
      709                           .member _FBLO2,2368,6,8,32
      710                           .member _FBLO1,2400,6,8,32
      711                           .member _FBLO0,2432,6,8,32
      712                           .eos
      713                           .sym    _HS_STRUCT,0,8,13,2464,.fake33
      714                           .file   "Y:\workspace_eea\V615\APP\SOURCE\INCLUDE\HART.H"
      715                           .file   "Y:\workspace_eea\V615\APP\SOURCE\INCLUDE\MODBUSRTU.H"
      716                           .file   "Y:\workspace_eea\V615\APP\SOURCE\INCLUDE\MISC.H"
      717                           .file   "Y:\workspace_eea\V615\APP\SOURCE\INCLUDE\API.H"
      718                           .file   "timer.c"
      719 00000000                  .sect    "interrupt_routines"
      720                   
      721                           .global _Timer_Insert
      722                           .sym    _Timer_Insert,_Timer_Insert,46,2,0
      723                           .func   49
      724                   ;******************************************************************************
      725                   ;* FUNCTION NAME: _Timer_Insert                                               *
      726                   ;*                                                                            *
      727                   ;*   Architecture       : TMS320C33                                           *
      728                   ;*   Calling Convention : TI Standard Register Parameters                     *
      729                   ;*   Function Uses Regs : r0,r2,r3,ar0,ar1,ar2,st                             *
      730                   ;*   Regs Saved         :                                                     *
      731                   ;*   Stack Frame        : Full (w/ debug)                                     *
      732                   ;*   Total Frame Size   : 2 Call + 0 Parm + 8 Auto + 0 SOE = 10 words         *
      733                   ;******************************************************************************
      734 00000000          _Timer_Insert:
      735                   ;* ar2   assigned to _po
      736                           .sym    _po,10,24,17,32,.fake11
      737                   ;* r2    assigned to _force
      738                           .sym    _force,2,14,17,32
      739                   ;* r3    assigned to _mode
      740                           .sym    _mode,3,4,17,32
      741                           .sym    _po,1,24,1,32,.fake11
      742                           .sym    _force,2,14,1,32
      743                           .sym    _mode,3,4,1,32
      744                           .sym    _t,4,24,1,32,.fake11
      745                           .sym    _x,5,24,1,32,.fake11
      746                           .sym    _p,6,24,1,32,.fake11
      747                           .sym    _l,7,24,1,32,.fake4
      748                           .sym    _action,8,4,1,32
      749                           .line   1
      750                   ;----------------------------------------------------------------------
      751                   ;  49 | BOOL Timer_Insert(TPKT *po, BOOL force, int mode)                      
      752                   ;----------------------------------------------------------------------
      753 00000000 0f2b0000         push      fp
      754 00000001 500b0014         ldiu      sp,fp
      755 00000002 02740008         addi      8,sp
      756                           .line   2
TMS320C3x/4x COFF AssemblerVersion 5.12     Thu Apr 21 09:27:38 2022
Copyright (c) 1987-1999 Texas Instruments Incorporatedasm30.exe -@_4A4.AAB 

Y:\workspace_eea\V615\APP\SOURCE\ASM\timer.asm                       PAGE   15

      757                   ;----------------------------------------------------------------------
      758                   ;  51 | TPKT* t;        /* temporary packet     */                             
      759                   ;  52 | TPKT* x;        /* swap packet                  */                     
      760                   ;  53 | TPKT* p;        /* head of LIST_TIMER0  */                             
      761                   ;  54 | LIST* l;        /* LIST_TIMER0                  */                     
      762                   ;  55 | int action;     /* mode                                 */             
      763                   ;----------------------------------------------------------------------
      764 00000003 15430303         sti       r3,*+fp(3)            ; |50| 
      765 00000004 15420302         sti       r2,*+fp(2)            ; |50| 
      766 00000005 154a0301         sti       ar2,*+fp(1)           ; |50| 
      767                           .line   9
      768                   ;----------------------------------------------------------------------
      769                   ;  57 | _GIEP;                                                                 
      770                   ;----------------------------------------------------------------------
      771 00000006 0f350000         push    ST                      
      772 00000007 03752000         andn    2000h, ST       
      773                           .line   10
      774                   ;----------------------------------------------------------------------
      775                   ;  58 | l               = &LIST_TIMER0;                                        
      776                   ;----------------------------------------------------------------------
      777 00000008 08700000-        ldp       @CL1,DP
      778 00000009 50200003-        ldiu      @CL1,r0               ; |58| 
      779 0000000a 15400307         sti       r0,*+fp(7)            ; |58| 
      780                           .line   11
      781                   ;----------------------------------------------------------------------
      782                   ;  59 | action  = mode;                                                        
      783                   ;----------------------------------------------------------------------
      784 0000000b 50000003         ldiu      r3,r0
      785 0000000c 15400308         sti       r0,*+fp(8)            ; |59| 
      786                           .line   13
      787                   ;----------------------------------------------------------------------
      788                   ;  61 | if ((action==TMR_action_always_add) && (po->prev_n==-1))               
      789                   ;----------------------------------------------------------------------
      790 0000000d 04e00000         cmpi      0,r0                  ; |61| 
      791 0000000e 6a060006         bne       L4                    ; |61| 
      792                   ;*      Branch Occurs to L4             ; |61| 
      793 0000000f 5008000a         ldiu      ar2,ar0
      794 00000010 50400006         ldiu      *+ar0(6),r0           ; |61| 
      795 00000011 04e0ffff         cmpi      -1,r0                 ; |61| 
      796 00000012 6a060002         bne       L4                    ; |61| 
      797                   ;*      Branch Occurs to L4             ; |61| 
      798                           .line   14
      799                   ;----------------------------------------------------------------------
      800                   ;  62 | action = TMR_action_add_if_not_exist;                                  
      801                   ;----------------------------------------------------------------------
      802 00000013 50600002         ldiu      2,r0                  ; |62| 
      803 00000014 15400308         sti       r0,*+fp(8)            ; |62| 
      804 00000015          L4:        
      805                           .line   16
      806                   ;----------------------------------------------------------------------
      807                   ;  64 | p = (TPKT*)LIST_TIMER0.head;                                           
      808                   ;  66 | switch(action)                                                         
      809                   ;  68 |         case TMR_action_add_if_not_exist:                              
      810                   ;----------------------------------------------------------------------
TMS320C3x/4x COFF AssemblerVersion 5.12     Thu Apr 21 09:27:38 2022
Copyright (c) 1987-1999 Texas Instruments Incorporatedasm30.exe -@_4A4.AAB 

Y:\workspace_eea\V615\APP\SOURCE\ASM\timer.asm                       PAGE   16

      811 00000015 08700000-        ldp       @CL1,DP
      812 00000016 50280003-        ldiu      @CL1,ar0              ; |64| 
      813 00000017 5040c000         ldiu      *ar0,r0               ; |64| 
      814 00000018 15400306         sti       r0,*+fp(6)            ; |64| 
      815 00000019 6a000025         bu        L16                   ; |48| 
      816                   ;*      Branch Occurs to L16            ; |48| 
      817 0000001a          L5:        
      818                           .line   22
      819                   ;----------------------------------------------------------------------
      820                   ;  70 | while(p!=(TPKT*)NULL)                                                  
      821                   ;----------------------------------------------------------------------
      822 0000001a 50400306         ldiu      *+fp(6),r0            ; |70| 
      823 0000001b 04e00000         cmpi      0,r0                  ; |70| 
      824 0000001c 6a050029         beq       L19                   ; |70| 
      825                   ;*      Branch Occurs to L19            ; |70| 
      826 0000001d          L6:        
      827                           .line   24
      828                   ;----------------------------------------------------------------------
      829                   ;  72 | if (p->parent == po->parent)                                           
      830                   ;----------------------------------------------------------------------
      831 0000001d 50490306         ldiu      *+fp(6),ar1           ; |72| 
      832 0000001e 50480301         ldiu      *+fp(1),ar0           ; |72| 
      833 0000001f 50400104         ldiu      *+ar1(4),r0           ; |72| 
      834 00000020 04c00004         cmpi      *+ar0(4),r0           ; |72| 
      835 00000021 6a060005         bne       L8                    ; |72| 
      836                   ;*      Branch Occurs to L8             ; |72| 
      837                           .line   26
      838                   ;----------------------------------------------------------------------
      839                   ;  74 | GIEP;                                                                  
      840                   ;----------------------------------------------------------------------
      841 00000022 0e350000         pop             ST                      
      842                           .line   27
      843                   ;----------------------------------------------------------------------
      844                   ;  75 | return TRUE;                                                           
      845                   ;----------------------------------------------------------------------
      846 00000023 6a2000c4         bud       L37                   ; |75| 
      847 00000024 0c800000         nop
      848 00000025 0c800000         nop
      849 00000026 50600001         ldiu      1,r0                  ; |75| 
      850                   ;*      Branch Occurs to L37            ; |75| 
      851 00000027          L8:        
      852                           .line   30
      853                   ;----------------------------------------------------------------------
      854                   ;  78 | p = (TPKT*)p->next;                                                    
      855                   ;----------------------------------------------------------------------
      856 00000027 50480306         ldiu      *+fp(6),ar0           ; |78| 
      857 00000028 50400001         ldiu      *+ar0(1),r0           ; |78| 
      858 00000029 15400306         sti       r0,*+fp(6)            ; |78| 
      859                           .line   22
      860 0000002a 04e00000         cmpi      0,r0                  ; |70| 
      861 0000002b 6a06fff1         bne       L6                    ; |70| 
      862                   ;*      Branch Occurs to L6             ; |70| 
      863                           .line   33
      864                   ;----------------------------------------------------------------------
TMS320C3x/4x COFF AssemblerVersion 5.12     Thu Apr 21 09:27:38 2022
Copyright (c) 1987-1999 Texas Instruments Incorporatedasm30.exe -@_4A4.AAB 

Y:\workspace_eea\V615\APP\SOURCE\ASM\timer.asm                       PAGE   17

      865                   ;  81 | break;                                                                 
      866                   ;  83 | case TMR_action_delete:                                                
      867                   ;  84 | case TMR_action_replace:                                               
      868                   ;----------------------------------------------------------------------
      869 0000002c 6a000019         bu        L19                   ; |81| 
      870                   ;*      Branch Occurs to L19            ; |81| 
      871 0000002d          L10:        
      872                           .line   38
      873                   ;----------------------------------------------------------------------
      874                   ;  86 | while(p!=(TPKT*)NULL)                                                  
      875                   ;----------------------------------------------------------------------
      876 0000002d 50400306         ldiu      *+fp(6),r0            ; |86| 
      877 0000002e 04e00000         cmpi      0,r0                  ; |86| 
      878 0000002f 6a050016         beq       L19                   ; |86| 
      879                   ;*      Branch Occurs to L19            ; |86| 
      880 00000030          L11:        
      881                           .line   41
      882                   ;----------------------------------------------------------------------
      883                   ;  89 | if (p->parent == po->parent)                                           
      884                   ;----------------------------------------------------------------------
      885 00000030 50480306         ldiu      *+fp(6),ar0           ; |89| 
      886 00000031 50490301         ldiu      *+fp(1),ar1           ; |89| 
      887 00000032 50400004         ldiu      *+ar0(4),r0           ; |89| 
      888 00000033 04c00104         cmpi      *+ar1(4),r0           ; |89| 
      889 00000034 6a060004         bne       L13                   ; |89| 
      890                   ;*      Branch Occurs to L13            ; |89| 
      891                           .line   42
      892                   ;----------------------------------------------------------------------
      893                   ;  90 | Timer_Remove(p);                                                       
      894                   ;----------------------------------------------------------------------
      895 00000035 08700000-        ldp       @CL2,DP
      896 00000036 500a0008         ldiu      ar0,ar2
      897 00000037 50200004-        ldiu      @CL2,r0               ; |90| 
      898 00000038 70000000         callu     r0                    ; far call to _Timer_Remove     ; |90| 
      899                                                           ; |90| Far Call Occurs
      900 00000039          L13:        
      901                           .line   44
      902                   ;----------------------------------------------------------------------
      903                   ;  92 | p = (TPKT*)p->next;                                                    
      904                   ;----------------------------------------------------------------------
      905 00000039 50480306         ldiu      *+fp(6),ar0           ; |92| 
      906 0000003a 50400001         ldiu      *+ar0(1),r0           ; |92| 
      907 0000003b 15400306         sti       r0,*+fp(6)            ; |92| 
      908                           .line   38
      909 0000003c 04e00000         cmpi      0,r0                  ; |86| 
      910 0000003d 6a06fff2         bne       L11                   ; |86| 
      911                   ;*      Branch Occurs to L11            ; |86| 
      912                           .line   47
      913                   ;----------------------------------------------------------------------
      914                   ;  95 | break;                                                                 
      915                   ;----------------------------------------------------------------------
      916 0000003e 6a000007         bu        L19                   ; |95| 
      917                   ;*      Branch Occurs to L19            ; |95| 
      918 0000003f          L16:        
TMS320C3x/4x COFF AssemblerVersion 5.12     Thu Apr 21 09:27:38 2022
Copyright (c) 1987-1999 Texas Instruments Incorporatedasm30.exe -@_4A4.AAB 

Y:\workspace_eea\V615\APP\SOURCE\ASM\timer.asm                       PAGE   18

      919                           .line   18
      920 0000003f 50400308         ldiu      *+fp(8),r0            ; |66| 
      921 00000040 04e00001         cmpi      1,r0                  ; |66| 
      922 00000041 6a05ffeb         beq       L10                   ; |66| 
      923                   ;*      Branch Occurs to L10            ; |66| 
      924 00000042 04e00002         cmpi      2,r0                  ; |66| 
      925 00000043 6a05ffd6         beq       L5                    ; |66| 
      926                   ;*      Branch Occurs to L5             ; |66| 
      927 00000044 04e00003         cmpi      3,r0                  ; |66| 
      928 00000045 6a05ffe7         beq       L10                   ; |66| 
      929                   ;*      Branch Occurs to L10            ; |66| 
      930 00000046          L19:        
      931                           .line   51
      932                   ;----------------------------------------------------------------------
      933                   ;  99 | if (action == TMR_action_delete)                                       
      934                   ;----------------------------------------------------------------------
      935 00000046 50400308         ldiu      *+fp(8),r0            ; |99| 
      936 00000047 04e00003         cmpi      3,r0                  ; |99| 
      937 00000048 6a060005         bne       L21                   ; |99| 
      938                   ;*      Branch Occurs to L21            ; |99| 
      939                           .line   53
      940                   ;----------------------------------------------------------------------
      941                   ; 101 | GIEP;                                                                  
      942                   ;----------------------------------------------------------------------
      943 00000049 0e350000         pop             ST                      
      944                           .line   55
      945                   ;----------------------------------------------------------------------
      946                   ; 103 | return TRUE;                                                           
      947                   ;----------------------------------------------------------------------
      948 0000004a 6a20009d         bud       L37                   ; |103| 
      949 0000004b 0c800000         nop
      950 0000004c 0c800000         nop
      951 0000004d 50600001         ldiu      1,r0                  ; |103| 
      952                   ;*      Branch Occurs to L37            ; |103| 
      953 0000004e          L21:        
      954                           .line   58
      955                   ;----------------------------------------------------------------------
      956                   ; 106 | p = (TPKT*)List_Pop(&LIST_TMR_EMPTY);                                  
      957                   ;----------------------------------------------------------------------
      958 0000004e 08700000-        ldp       @CL4,DP
      959 0000004f 50200006-        ldiu      @CL4,r0               ; |106| 
      960 00000050 08700000-        ldp       @CL3,DP
      961 00000051 502a0005-        ldiu      @CL3,ar2              ; |106| 
      962 00000052 70000000         callu     r0                    ; far call to _List_Pop ; |106| 
      963                                                           ; |106| Far Call Occurs
      964 00000053 15400306         sti       r0,*+fp(6)            ; |106| 
      965                           .line   60
      966                   ;----------------------------------------------------------------------
      967                   ; 108 | if (p==(TPKT*)NULL)                                                    
      968                   ;----------------------------------------------------------------------
      969 00000054 04e00000         cmpi      0,r0                  ; |108| 
      970 00000055 6a06000a         bne       L23                   ; |108| 
      971                   ;*      Branch Occurs to L23            ; |108| 
      972                           .line   62
TMS320C3x/4x COFF AssemblerVersion 5.12     Thu Apr 21 09:27:38 2022
Copyright (c) 1987-1999 Texas Instruments Incorporatedasm30.exe -@_4A4.AAB 

Y:\workspace_eea\V615\APP\SOURCE\ASM\timer.asm                       PAGE   19

      973                   ;----------------------------------------------------------------------
      974                   ; 110 | DIAGNOSTICS[0] |= ERROR_TMR_FAIL;                                      
      975                   ;----------------------------------------------------------------------
      976 00000056 08700000-        ldp       @CL5,DP
      977 00000057 50280007-        ldiu      @CL5,ar0              ; |110| 
      978 00000058 50600004         ldiu      4,r0                  ; |110| 
      979 00000059 25a0c000         or3       r0,*ar0,r0            ; |110| 
      980 0000005a 1540c000         sti       r0,*ar0               ; |110| 
      981                           .line   63
      982                   ;----------------------------------------------------------------------
      983                   ; 111 | GIEP;                                                                  
      984                   ;----------------------------------------------------------------------
      985 0000005b 0e350000         pop             ST                      
      986                           .line   65
      987                   ;----------------------------------------------------------------------
      988                   ; 113 | return FALSE;                                                          
      989                   ;----------------------------------------------------------------------
      990 0000005c 6a20008b         bud       L37                   ; |113| 
      991 0000005d 0c800000         nop
      992 0000005e 0c800000         nop
      993 0000005f 50600000         ldiu      0,r0                  ; |113| 
      994                   ;*      Branch Occurs to L37            ; |113| 
      995 00000060          L23:        
      996                           .line   69
      997                   ;----------------------------------------------------------------------
      998                   ; 117 | p->prev                 = po->prev;                                    
      999                   ;----------------------------------------------------------------------
     1000 00000060 50480301         ldiu      *+fp(1),ar0           ; |117| 
     1001 00000061 50490306         ldiu      *+fp(6),ar1           ; |117| 
     1002 00000062 5040c000         ldiu      *ar0,r0               ; |117| 
     1003 00000063 1540c100         sti       r0,*ar1               ; |117| 
     1004                           .line   70
     1005                   ;----------------------------------------------------------------------
     1006                   ; 118 | p->next                 = po->next;                                    
     1007                   ;----------------------------------------------------------------------
     1008 00000064 50480301         ldiu      *+fp(1),ar0           ; |118| 
     1009 00000065 50490306         ldiu      *+fp(6),ar1           ; |118| 
     1010 00000066 50400001         ldiu      *+ar0(1),r0           ; |118| 
     1011 00000067 15400101         sti       r0,*+ar1(1)           ; |118| 
     1012                           .line   71
     1013                   ;----------------------------------------------------------------------
     1014                   ; 119 | p->vect                 = po->vect;                                    
     1015                   ;----------------------------------------------------------------------
     1016 00000068 50480301         ldiu      *+fp(1),ar0           ; |119| 
     1017 00000069 50490306         ldiu      *+fp(6),ar1           ; |119| 
     1018 0000006a 50400002         ldiu      *+ar0(2),r0           ; |119| 
     1019 0000006b 15400102         sti       r0,*+ar1(2)           ; |119| 
     1020                           .line   72
     1021                   ;----------------------------------------------------------------------
     1022                   ; 120 | p->priority     = po->priority;                                        
     1023                   ;----------------------------------------------------------------------
     1024 0000006c 50490301         ldiu      *+fp(1),ar1           ; |120| 
     1025 0000006d 50480306         ldiu      *+fp(6),ar0           ; |120| 
     1026 0000006e 50400103         ldiu      *+ar1(3),r0           ; |120| 
TMS320C3x/4x COFF AssemblerVersion 5.12     Thu Apr 21 09:27:38 2022
Copyright (c) 1987-1999 Texas Instruments Incorporatedasm30.exe -@_4A4.AAB 

Y:\workspace_eea\V615\APP\SOURCE\ASM\timer.asm                       PAGE   20

     1027 0000006f 15400003         sti       r0,*+ar0(3)           ; |120| 
     1028                           .line   73
     1029                   ;----------------------------------------------------------------------
     1030                   ; 121 | p->n                    = po->n;                                       
     1031                   ;----------------------------------------------------------------------
     1032 00000070 50490301         ldiu      *+fp(1),ar1           ; |121| 
     1033 00000071 50480306         ldiu      *+fp(6),ar0           ; |121| 
     1034 00000072 50400105         ldiu      *+ar1(5),r0           ; |121| 
     1035 00000073 15400005         sti       r0,*+ar0(5)           ; |121| 
     1036                           .line   74
     1037                   ;----------------------------------------------------------------------
     1038                   ; 122 | p->prev_n               = po->prev_n;                                  
     1039                   ;----------------------------------------------------------------------
     1040 00000074 50490301         ldiu      *+fp(1),ar1           ; |122| 
     1041 00000075 50480306         ldiu      *+fp(6),ar0           ; |122| 
     1042 00000076 50400106         ldiu      *+ar1(6),r0           ; |122| 
     1043 00000077 15400006         sti       r0,*+ar0(6)           ; |122| 
     1044                           .line   75
     1045                   ;----------------------------------------------------------------------
     1046                   ; 123 | p->countdown    = po->countdown;                                       
     1047                   ;----------------------------------------------------------------------
     1048 00000078 50490301         ldiu      *+fp(1),ar1           ; |123| 
     1049 00000079 50480306         ldiu      *+fp(6),ar0           ; |123| 
     1050 0000007a 50400107         ldiu      *+ar1(7),r0           ; |123| 
     1051 0000007b 15400007         sti       r0,*+ar0(7)           ; |123| 
     1052                           .line   76
     1053                   ;----------------------------------------------------------------------
     1054                   ; 124 | p->preset_time  = po->preset_time;                                     
     1055                   ;----------------------------------------------------------------------
     1056 0000007c 50490301         ldiu      *+fp(1),ar1           ; |124| 
     1057 0000007d 50480306         ldiu      *+fp(6),ar0           ; |124| 
     1058 0000007e 50400108         ldiu      *+ar1(8),r0           ; |124| 
     1059 0000007f 15400008         sti       r0,*+ar0(8)           ; |124| 
     1060                           .line   77
     1061                   ;----------------------------------------------------------------------
     1062                   ; 125 | p->parent               = po->parent;                                  
     1063                   ;----------------------------------------------------------------------
     1064 00000080 50490301         ldiu      *+fp(1),ar1           ; |125| 
     1065 00000081 50480306         ldiu      *+fp(6),ar0           ; |125| 
     1066 00000082 50400104         ldiu      *+ar1(4),r0           ; |125| 
     1067 00000083 15400004         sti       r0,*+ar0(4)           ; |125| 
     1068                           .line   80
     1069                   ;----------------------------------------------------------------------
     1070                   ; 128 | if (force)                                                             
     1071                   ;----------------------------------------------------------------------
     1072 00000084 50400302         ldiu      *+fp(2),r0            ; |128| 
     1073 00000085 04e00000         cmpi      0,r0                  ; |128| 
     1074 00000086 6a050004         beq       L25                   ; |128| 
     1075                   ;*      Branch Occurs to L25            ; |128| 
     1076                           .line   81
     1077                   ;----------------------------------------------------------------------
     1078                   ; 129 | p->countdown = 1;                                                      
     1079                   ; 130 | else                                                                   
     1080                   ;----------------------------------------------------------------------
TMS320C3x/4x COFF AssemblerVersion 5.12     Thu Apr 21 09:27:38 2022
Copyright (c) 1987-1999 Texas Instruments Incorporatedasm30.exe -@_4A4.AAB 

Y:\workspace_eea\V615\APP\SOURCE\ASM\timer.asm                       PAGE   21

     1081 00000087 50480306         ldiu      *+fp(6),ar0           ; |129| 
     1082 00000088 50600001         ldiu      1,r0                  ; |129| 
     1083 00000089 15400007         sti       r0,*+ar0(7)           ; |129| 
     1084 0000008a 6a000004         bu        L26                   ; |48| 
     1085                   ;*      Branch Occurs to L26            ; |48| 
     1086 0000008b          L25:        
     1087                           .line   83
     1088                   ;----------------------------------------------------------------------
     1089                   ; 131 | p->countdown = p->preset_time;                                         
     1090                   ;----------------------------------------------------------------------
     1091 0000008b 50490306         ldiu      *+fp(6),ar1           ; |131| 
     1092 0000008c 50080009         ldiu      ar1,ar0               ; |131| 
     1093 0000008d 50400108         ldiu      *+ar1(8),r0           ; |131| 
     1094 0000008e 15400007         sti       r0,*+ar0(7)           ; |131| 
     1095 0000008f          L26:        
     1096                           .line   85
     1097                   ;----------------------------------------------------------------------
     1098                   ; 133 | l->n++;                                                                
     1099                   ;----------------------------------------------------------------------
     1100 0000008f 50480307         ldiu      *+fp(7),ar0           ; |133| 
     1101 00000090 50600001         ldiu      1,r0                  ; |133| 
     1102 00000091 02400002         addi      *+ar0(2),r0           ; |133| 
     1103 00000092 15400002         sti       r0,*+ar0(2)           ; |133| 
     1104                           .line   87
     1105                   ;----------------------------------------------------------------------
     1106                   ; 135 | if (l->head == NULL_PTR)                                               
     1107                   ;----------------------------------------------------------------------
     1108 00000093 50480307         ldiu      *+fp(7),ar0           ; |135| 
     1109 00000094 5040c000         ldiu      *ar0,r0               ; |135| 
     1110 00000095 04e00000         cmpi      0,r0                  ; |135| 
     1111 00000096 6a06000f         bne       L28                   ; |135| 
     1112                   ;*      Branch Occurs to L28            ; |135| 
     1113                           .line   89
     1114                   ;----------------------------------------------------------------------
     1115                   ; 137 | l->head = (int*)p;                                                     
     1116                   ;----------------------------------------------------------------------
     1117 00000097 50400306         ldiu      *+fp(6),r0            ; |137| 
     1118 00000098 1540c000         sti       r0,*ar0               ; |137| 
     1119                           .line   90
     1120                   ;----------------------------------------------------------------------
     1121                   ; 138 | l->tail = (int*)p;                                                     
     1122                   ;----------------------------------------------------------------------
     1123 00000099 50480307         ldiu      *+fp(7),ar0           ; |138| 
     1124 0000009a 50400306         ldiu      *+fp(6),r0            ; |138| 
     1125 0000009b 15400001         sti       r0,*+ar0(1)           ; |138| 
     1126                           .line   91
     1127                   ;----------------------------------------------------------------------
     1128                   ; 139 | p->prev = NULL_PTR;                                                    
     1129                   ;----------------------------------------------------------------------
     1130 0000009c 50480306         ldiu      *+fp(6),ar0           ; |139| 
     1131 0000009d 50600000         ldiu      0,r0                  ; |139| 
     1132 0000009e 1540c000         sti       r0,*ar0               ; |139| 
     1133                           .line   92
     1134                   ;----------------------------------------------------------------------
TMS320C3x/4x COFF AssemblerVersion 5.12     Thu Apr 21 09:27:38 2022
Copyright (c) 1987-1999 Texas Instruments Incorporatedasm30.exe -@_4A4.AAB 

Y:\workspace_eea\V615\APP\SOURCE\ASM\timer.asm                       PAGE   22

     1135                   ; 140 | p->next = NULL_PTR;                                                    
     1136                   ;----------------------------------------------------------------------
     1137 0000009f 50480306         ldiu      *+fp(6),ar0           ; |140| 
     1138 000000a0 15400001         sti       r0,*+ar0(1)           ; |140| 
     1139                           .line   93
     1140                   ;----------------------------------------------------------------------
     1141                   ; 141 | GIEP;                                                                  
     1142                   ;----------------------------------------------------------------------
     1143 000000a1 0e350000         pop             ST                      
     1144                           .line   95
     1145                   ;----------------------------------------------------------------------
     1146                   ; 143 | return TRUE;                                                           
     1147                   ;----------------------------------------------------------------------
     1148 000000a2 6a200045         bud       L37                   ; |143| 
     1149 000000a3 0c800000         nop
     1150 000000a4 0c800000         nop
     1151 000000a5 50600001         ldiu      1,r0                  ; |143| 
     1152                   ;*      Branch Occurs to L37            ; |143| 
     1153 000000a6          L28:        
     1154                           .line   98
     1155                   ;----------------------------------------------------------------------
     1156                   ; 146 | t = (TPKT*) l->head;                                                   
     1157                   ;----------------------------------------------------------------------
     1158 000000a6 50480307         ldiu      *+fp(7),ar0           ; |146| 
     1159 000000a7 5040c000         ldiu      *ar0,r0               ; |146| 
     1160 000000a8 15400304         sti       r0,*+fp(4)            ; |146| 
     1161                           .line   100
     1162                   ;----------------------------------------------------------------------
     1163                   ; 148 | while ((int*)t != NULL_PTR)                                            
     1164                   ;----------------------------------------------------------------------
     1165 000000a9 04e00000         cmpi      0,r0                  ; |148| 
     1166 000000aa 6a05000d         beq       L31                   ; |148| 
     1167                   ;*      Branch Occurs to L31            ; |148| 
     1168 000000ab          L29:        
     1169                           .line   102
     1170                   ;----------------------------------------------------------------------
     1171                   ; 150 | if (p->countdown < t->countdown)                                       
     1172                   ;----------------------------------------------------------------------
     1173 000000ab 50480306         ldiu      *+fp(6),ar0           ; |150| 
     1174 000000ac 50490304         ldiu      *+fp(4),ar1           ; |150| 
     1175 000000ad 50400007         ldiu      *+ar0(7),r0           ; |150| 
     1176 000000ae 04c00107         cmpi      *+ar1(7),r0           ; |150| 
     1177 000000af 6a070008         blt       L31                   ; |150| 
     1178                   ;*      Branch Occurs to L31            ; |150| 
     1179                           .line   103
     1180                   ;----------------------------------------------------------------------
     1181                   ; 151 | break;                                                                 
     1182                   ;----------------------------------------------------------------------
     1183                           .line   105
     1184                   ;----------------------------------------------------------------------
     1185                   ; 153 | p->countdown -= t->countdown;                                          
     1186                   ;----------------------------------------------------------------------
     1187 000000b0 50400107         ldiu      *+ar1(7),r0           ; |153| 
     1188 000000b1 19c00007         subri     *+ar0(7),r0           ; |153| 
TMS320C3x/4x COFF AssemblerVersion 5.12     Thu Apr 21 09:27:38 2022
Copyright (c) 1987-1999 Texas Instruments Incorporatedasm30.exe -@_4A4.AAB 

Y:\workspace_eea\V615\APP\SOURCE\ASM\timer.asm                       PAGE   23

     1189 000000b2 15400007         sti       r0,*+ar0(7)           ; |153| 
     1190                           .line   106
     1191                   ;----------------------------------------------------------------------
     1192                   ; 154 | t                         = (TPKT*) t->next;                           
     1193                   ;----------------------------------------------------------------------
     1194 000000b3 50480304         ldiu      *+fp(4),ar0           ; |154| 
     1195 000000b4 50400001         ldiu      *+ar0(1),r0           ; |154| 
     1196 000000b5 15400304         sti       r0,*+fp(4)            ; |154| 
     1197                           .line   100
     1198 000000b6 04e00000         cmpi      0,r0                  ; |148| 
     1199 000000b7 6a06fff3         bne       L29                   ; |148| 
     1200                   ;*      Branch Occurs to L29            ; |148| 
     1201 000000b8          L31:        
     1202                           .line   109
     1203                   ;----------------------------------------------------------------------
     1204                   ; 157 | if ((int*)t == NULL_PTR)                                               
     1205                   ;----------------------------------------------------------------------
     1206 000000b8 50400304         ldiu      *+fp(4),r0            ; |157| 
     1207 000000b9 04e00000         cmpi      0,r0                  ; |157| 
     1208 000000ba 6a060012         bne       L34                   ; |157| 
     1209                   ;*      Branch Occurs to L34            ; |157| 
     1210                           .line   111
     1211                   ;----------------------------------------------------------------------
     1212                   ; 159 | t               = (TPKT*)l->tail;                                      
     1213                   ;----------------------------------------------------------------------
     1214 000000bb 50480307         ldiu      *+fp(7),ar0           ; |159| 
     1215 000000bc 50400001         ldiu      *+ar0(1),r0           ; |159| 
     1216 000000bd 15400304         sti       r0,*+fp(4)            ; |159| 
     1217                           .line   112
     1218                   ;----------------------------------------------------------------------
     1219                   ; 160 | t->next = (int*)p;                                                     
     1220                   ;----------------------------------------------------------------------
     1221 000000be 50080000         ldiu      r0,ar0
     1222 000000bf 50400306         ldiu      *+fp(6),r0            ; |160| 
     1223 000000c0 15400001         sti       r0,*+ar0(1)           ; |160| 
     1224                           .line   113
     1225                   ;----------------------------------------------------------------------
     1226                   ; 161 | p->prev = l->tail;                                                     
     1227                   ;----------------------------------------------------------------------
     1228 000000c1 50490307         ldiu      *+fp(7),ar1           ; |161| 
     1229 000000c2 50480306         ldiu      *+fp(6),ar0           ; |161| 
     1230 000000c3 50400101         ldiu      *+ar1(1),r0           ; |161| 
     1231 000000c4 1540c000         sti       r0,*ar0               ; |161| 
     1232                           .line   114
     1233                   ;----------------------------------------------------------------------
     1234                   ; 162 | l->tail = (int*)p;                                                     
     1235                   ;----------------------------------------------------------------------
     1236 000000c5 50480307         ldiu      *+fp(7),ar0           ; |162| 
     1237 000000c6 50400306         ldiu      *+fp(6),r0            ; |162| 
     1238 000000c7 15400001         sti       r0,*+ar0(1)           ; |162| 
     1239                           .line   115
     1240                   ;----------------------------------------------------------------------
     1241                   ; 163 | GIEP;                                                                  
     1242                   ;----------------------------------------------------------------------
TMS320C3x/4x COFF AssemblerVersion 5.12     Thu Apr 21 09:27:38 2022
Copyright (c) 1987-1999 Texas Instruments Incorporatedasm30.exe -@_4A4.AAB 

Y:\workspace_eea\V615\APP\SOURCE\ASM\timer.asm                       PAGE   24

     1243 000000c8 0e350000         pop             ST                      
     1244                           .line   117
     1245                   ;----------------------------------------------------------------------
     1246                   ; 165 | return TRUE;                                                           
     1247                   ; 167 | else                                                                   
     1248                   ;----------------------------------------------------------------------
     1249 000000c9 6a20001e         bud       L37                   ; |165| 
     1250 000000ca 0c800000         nop
     1251 000000cb 0c800000         nop
     1252 000000cc 50600001         ldiu      1,r0                  ; |165| 
     1253                   ;*      Branch Occurs to L37            ; |165| 
     1254 000000cd          L34:        
     1255                           .line   121
     1256                   ;----------------------------------------------------------------------
     1257                   ; 169 | if (l->head == (int*)t)                                                
     1258                   ;----------------------------------------------------------------------
     1259 000000cd 50480307         ldiu      *+fp(7),ar0           ; |169| 
     1260 000000ce 5040c000         ldiu      *ar0,r0               ; |169| 
     1261 000000cf 04c00304         cmpi      *+fp(4),r0            ; |169| 
     1262 000000d0 6a060002         bne       L36                   ; |169| 
     1263                   ;*      Branch Occurs to L36            ; |169| 
     1264                           .line   122
     1265                   ;----------------------------------------------------------------------
     1266                   ; 170 | l->head = (int*)p;                                                     
     1267                   ;----------------------------------------------------------------------
     1268 000000d1 50400306         ldiu      *+fp(6),r0            ; |170| 
     1269 000000d2 1540c000         sti       r0,*ar0               ; |170| 
     1270 000000d3          L36:        
     1271                           .line   124
     1272                   ;----------------------------------------------------------------------
     1273                   ; 172 | p->prev           = t->prev;                                           
     1274                   ;----------------------------------------------------------------------
     1275 000000d3 50480304         ldiu      *+fp(4),ar0           ; |172| 
     1276 000000d4 50490306         ldiu      *+fp(6),ar1           ; |172| 
     1277 000000d5 5040c000         ldiu      *ar0,r0               ; |172| 
     1278 000000d6 1540c100         sti       r0,*ar1               ; |172| 
     1279                           .line   125
     1280                   ;----------------------------------------------------------------------
     1281                   ; 173 | p->next           = (int*)t;                                           
     1282                   ;----------------------------------------------------------------------
     1283 000000d7 50480306         ldiu      *+fp(6),ar0           ; |173| 
     1284 000000d8 50400304         ldiu      *+fp(4),r0            ; |173| 
     1285 000000d9 15400001         sti       r0,*+ar0(1)           ; |173| 
     1286                           .line   126
     1287                   ;----------------------------------------------------------------------
     1288                   ; 174 | x                         = (TPKT*) t->prev;                           
     1289                   ;----------------------------------------------------------------------
     1290 000000da 50480304         ldiu      *+fp(4),ar0           ; |174| 
     1291 000000db 5040c000         ldiu      *ar0,r0               ; |174| 
     1292 000000dc 15400305         sti       r0,*+fp(5)            ; |174| 
     1293                           .line   127
     1294                   ;----------------------------------------------------------------------
     1295                   ; 175 | x->next           = (int*)p;                                           
     1296                   ;----------------------------------------------------------------------
TMS320C3x/4x COFF AssemblerVersion 5.12     Thu Apr 21 09:27:38 2022
Copyright (c) 1987-1999 Texas Instruments Incorporatedasm30.exe -@_4A4.AAB 

Y:\workspace_eea\V615\APP\SOURCE\ASM\timer.asm                       PAGE   25

     1297 000000dd 50080000         ldiu      r0,ar0
     1298 000000de 50400306         ldiu      *+fp(6),r0            ; |175| 
     1299 000000df 15400001         sti       r0,*+ar0(1)           ; |175| 
     1300                           .line   128
     1301                   ;----------------------------------------------------------------------
     1302                   ; 176 | t->prev           = (int*)p;                                           
     1303                   ;----------------------------------------------------------------------
     1304 000000e0 50480304         ldiu      *+fp(4),ar0           ; |176| 
     1305 000000e1 50400306         ldiu      *+fp(6),r0            ; |176| 
     1306 000000e2 1540c000         sti       r0,*ar0               ; |176| 
     1307                           .line   129
     1308                   ;----------------------------------------------------------------------
     1309                   ; 177 | t->countdown -= p->countdown;                                          
     1310                   ;----------------------------------------------------------------------
     1311 000000e3 50490306         ldiu      *+fp(6),ar1           ; |177| 
     1312 000000e4 50480304         ldiu      *+fp(4),ar0           ; |177| 
     1313 000000e5 50400107         ldiu      *+ar1(7),r0           ; |177| 
     1314 000000e6 19c00007         subri     *+ar0(7),r0           ; |177| 
     1315 000000e7 15400007         sti       r0,*+ar0(7)           ; |177| 
     1316                           .line   132
     1317                   ;----------------------------------------------------------------------
     1318                   ; 180 | GIEP;                                                                  
     1319                   ;----------------------------------------------------------------------
     1320 000000e8 0e350000         pop             ST                      
     1321                           .line   134
     1322                   ;----------------------------------------------------------------------
     1323                   ; 182 | return TRUE;                                                           
     1324                   ;----------------------------------------------------------------------
     1325 000000e9 50600001         ldiu      1,r0                  ; |182| 
     1326 000000ea          L37:        
     1327                           .line   135
     1328                                                           ; Begin Epilog Code
     1329 000000ea 50410b01         ldiu      *-fp(1),r1            ; |183| 
     1330 000000eb 504bc300         ldiu      *fp,fp                ; |183| 
     1331                                                           ; Unallocate the Frame
     1332 000000ec 1874000a         subi      10,sp                 ; |183| 
     1333 000000ed 68000001         bu        r1
     1334                   ;*      Branch Occurs to r1 
     1335                           .endfunc        183,000000000h,8
     1336                   
     1337                   
     1338 000000ee                  .sect    "interrupt_routines"
     1339                   
     1340                           .global _Timer_Remove
     1341                           .sym    _Timer_Remove,_Timer_Remove,46,2,0
     1342                           .func   197
     1343                   ;******************************************************************************
     1344                   ;* FUNCTION NAME: _Timer_Remove                                               *
     1345                   ;*                                                                            *
     1346                   ;*   Architecture       : TMS320C33                                           *
     1347                   ;*   Calling Convention : TI Standard Register Parameters                     *
     1348                   ;*   Function Uses Regs : r0,r2,ar0,ar1,ar2,st                                *
     1349                   ;*   Regs Saved         :                                                     *
     1350                   ;*   Stack Frame        : Full (w/ debug)                                     *
TMS320C3x/4x COFF AssemblerVersion 5.12     Thu Apr 21 09:27:38 2022
Copyright (c) 1987-1999 Texas Instruments Incorporatedasm30.exe -@_4A4.AAB 

Y:\workspace_eea\V615\APP\SOURCE\ASM\timer.asm                       PAGE   26

     1351                   ;*   Total Frame Size   : 2 Call + 0 Parm + 3 Auto + 0 SOE = 5 words          *
     1352                   ;******************************************************************************
     1353 000000ee          _Timer_Remove:
     1354                   ;* ar2   assigned to _p
     1355                           .sym    _p,10,24,17,32,.fake11
     1356                           .sym    _p,1,24,1,32,.fake11
     1357                           .sym    _t,2,24,1,32,.fake11
     1358                           .sym    _l,3,24,1,32,.fake4
     1359                           .line   1
     1360                   ;----------------------------------------------------------------------
     1361                   ; 197 | BOOL Timer_Remove(TPKT *p)                                             
     1362                   ;----------------------------------------------------------------------
     1363 000000ee 0f2b0000         push      fp
     1364 000000ef 500b0014         ldiu      sp,fp
     1365 000000f0 02740003         addi      3,sp
     1366                           .line   2
     1367                   ;----------------------------------------------------------------------
     1368                   ; 199 | TPKT* t;                                                               
     1369                   ; 200 | LIST* l;                                                               
     1370                   ;----------------------------------------------------------------------
     1371 000000f1 154a0301         sti       ar2,*+fp(1)           ; |198| 
     1372                           .line   6
     1373                   ;----------------------------------------------------------------------
     1374                   ; 202 | _GIEP;                                                                 
     1375                   ;----------------------------------------------------------------------
     1376 000000f2 0f350000         push    ST                      
     1377 000000f3 03752000         andn    2000h, ST       
     1378                           .line   7
     1379                   ;----------------------------------------------------------------------
     1380                   ; 203 | l = &LIST_TIMER0;                                                      
     1381                   ;----------------------------------------------------------------------
     1382 000000f4 08700000-        ldp       @CL1,DP
     1383 000000f5 50200003-        ldiu      @CL1,r0               ; |203| 
     1384 000000f6 15400303         sti       r0,*+fp(3)            ; |203| 
     1385                           .line   9
     1386                   ;----------------------------------------------------------------------
     1387                   ; 205 | if (p->next != NULL_PTR)                                               
     1388                   ;----------------------------------------------------------------------
     1389 000000f7 5008000a         ldiu      ar2,ar0
     1390 000000f8 50400001         ldiu      *+ar0(1),r0           ; |205| 
     1391 000000f9 04e00000         cmpi      0,r0                  ; |205| 
     1392 000000fa 6a050007         beq       L41                   ; |205| 
     1393                   ;*      Branch Occurs to L41            ; |205| 
     1394                           .line   11
     1395                   ;----------------------------------------------------------------------
     1396                   ; 207 | t                         = (TPKT*)p->next;                            
     1397                   ;----------------------------------------------------------------------
     1398 000000fb 50400001         ldiu      *+ar0(1),r0           ; |207| 
     1399 000000fc 15400302         sti       r0,*+fp(2)            ; |207| 
     1400                           .line   12
     1401                   ;----------------------------------------------------------------------
     1402                   ; 208 | t->countdown += p->countdown;                                          
     1403                   ;----------------------------------------------------------------------
     1404 000000fd 50090008         ldiu      ar0,ar1
TMS320C3x/4x COFF AssemblerVersion 5.12     Thu Apr 21 09:27:38 2022
Copyright (c) 1987-1999 Texas Instruments Incorporatedasm30.exe -@_4A4.AAB 

Y:\workspace_eea\V615\APP\SOURCE\ASM\timer.asm                       PAGE   27

     1405 000000fe 50080000         ldiu      r0,ar0
     1406 000000ff 50400107         ldiu      *+ar1(7),r0           ; |208| 
     1407 00000100 02400007         addi      *+ar0(7),r0           ; |208| 
     1408 00000101 15400007         sti       r0,*+ar0(7)           ; |208| 
     1409 00000102          L41:        
     1410                           .line   15
     1411                   ;----------------------------------------------------------------------
     1412                   ; 211 | if(List_Remove(l, (GENERIC*)p))                                        
     1413                   ;----------------------------------------------------------------------
     1414 00000102 08700000-        ldp       @CL6,DP
     1415 00000103 504a0303         ldiu      *+fp(3),ar2           ; |211| 
     1416 00000104 50420301         ldiu      *+fp(1),r2            ; |211| 
     1417 00000105 50200008-        ldiu      @CL6,r0               ; |211| 
     1418 00000106 70000000         callu     r0                    ; far call to _List_Remove      ; |211| 
     1419                                                           ; |211| Far Call Occurs
     1420 00000107 04e00000         cmpi      0,r0                  ; |211| 
     1421 00000108 6a050006         beq       L43                   ; |211| 
     1422                   ;*      Branch Occurs to L43            ; |211| 
     1423                           .line   16
     1424                   ;----------------------------------------------------------------------
     1425                   ; 212 | List_Add(&LIST_TMR_EMPTY, (GENERIC*)p);                                
     1426                   ;----------------------------------------------------------------------
     1427 00000109 08700000-        ldp       @CL7,DP
     1428 0000010a 50200009-        ldiu      @CL7,r0               ; |212| 
     1429 0000010b 50420301         ldiu      *+fp(1),r2            ; |212| 
     1430 0000010c 08700000-        ldp       @CL3,DP
     1431 0000010d 502a0005-        ldiu      @CL3,ar2              ; |212| 
     1432 0000010e 70000000         callu     r0                    ; far call to _List_Add ; |212| 
     1433                                                           ; |212| Far Call Occurs
     1434 0000010f          L43:        
     1435                           .line   18
     1436                   ;----------------------------------------------------------------------
     1437                   ; 214 | GIEP;                                                                  
     1438                   ;----------------------------------------------------------------------
     1439 0000010f 0e350000         pop             ST                      
     1440                           .line   20
     1441                   ;----------------------------------------------------------------------
     1442                   ; 216 | return TRUE;                                                           
     1443                   ;----------------------------------------------------------------------
     1444 00000110 50600001         ldiu      1,r0                  ; |216| 
     1445                           .line   21
     1446                                                           ; Begin Epilog Code
     1447 00000111 50410b01         ldiu      *-fp(1),r1            ; |217| 
     1448 00000112 504bc300         ldiu      *fp,fp                ; |217| 
     1449                                                           ; Unallocate the Frame
     1450 00000113 18740005         subi      5,sp                  ; |217| 
     1451 00000114 68000001         bu        r1
     1452                   ;*      Branch Occurs to r1 
     1453                           .endfunc        217,000000000h,3
     1454                   
     1455                   
     1456 00000000                  .sect    ".text"
     1457                   
     1458                           .global _Timer_Create
TMS320C3x/4x COFF AssemblerVersion 5.12     Thu Apr 21 09:27:38 2022
Copyright (c) 1987-1999 Texas Instruments Incorporatedasm30.exe -@_4A4.AAB 

Y:\workspace_eea\V615\APP\SOURCE\ASM\timer.asm                       PAGE   28

     1459                           .sym    _Timer_Create,_Timer_Create,46,2,0
     1460                           .func   236
     1461                   ;******************************************************************************
     1462                   ;* FUNCTION NAME: _Timer_Create                                               *
     1463                   ;*                                                                            *
     1464                   ;*   Architecture       : TMS320C33                                           *
     1465                   ;*   Calling Convention : TI Standard Register Parameters                     *
     1466                   ;*   Function Uses Regs : f0,r0,f1,r1,f2,r3,ar0,ar1,ar2,st,rs,rc              *
     1467                   ;*   Regs Saved         :                                                     *
     1468                   ;*   Stack Frame        : Full (w/ debug)                                     *
     1469                   ;*   Total Frame Size   : 2 Call + 0 Parm + 6 Auto + 0 SOE = 8 words          *
     1470                   ;******************************************************************************
     1471 00000000          _Timer_Create:
     1472                   ;* ar2   assigned to _p
     1473                           .sym    _p,10,24,17,32,.fake11
     1474                   ;* f2    assigned to _sec
     1475                           .sym    _sec,2,6,17,32
     1476                   ;* r3    assigned to _nrepeat
     1477                           .sym    _nrepeat,3,4,17,32
     1478                   ;* rc    assigned to _vect
     1479                           .sym    _vect,19,20,17,32
     1480                   ;* rs    assigned to _pri
     1481                           .sym    _pri,20,4,17,32
     1482                           .sym    _p,1,24,1,32,.fake11
     1483                           .sym    _sec,2,6,1,32
     1484                           .sym    _nrepeat,3,4,1,32
     1485                           .sym    _vect,4,20,1,32
     1486                           .sym    _pri,5,4,1,32
     1487                           .sym    _preset,6,4,1,32
     1488                           .line   1
     1489                   ;----------------------------------------------------------------------
     1490                   ; 236 | BOOL Timer_Create(TPKT *p, float sec, int nrepeat, int* vect, int pri) 
     1491                   ;----------------------------------------------------------------------
     1492 00000000 0f2b0000         push      fp
     1493 00000001 500b0014         ldiu      sp,fp
     1494 00000002 02740006         addi      6,sp
     1495                           .line   2
     1496                   ;----------------------------------------------------------------------
     1497                   ; 238 | int preset;                                                            
     1498                   ;----------------------------------------------------------------------
     1499 00000003 15590305         sti       rs,*+fp(5)            ; |237| 
     1500 00000004 155b0304         sti       rc,*+fp(4)            ; |237| 
     1501 00000005 15430303         sti       r3,*+fp(3)            ; |237| 
     1502 00000006 14420302         stf       f2,*+fp(2)            ; |237| 
     1503 00000007 154a0301         sti       ar2,*+fp(1)           ; |237| 
     1504                           .line   5
     1505                   ;----------------------------------------------------------------------
     1506                   ; 240 | preset = ceil(sec/TIME0);                                              
     1507                   ;----------------------------------------------------------------------
     1508 00000008 08700000-        ldp       @CL8,DP
     1509 00000009 5028000a-        ldiu      @CL8,ar0              ; |240| 
     1510 0000000a 40000002         ldfu      f2,f0
     1511 0000000b 4041c000         ldfu      *ar0,f1               ; |240| 
     1512 0000000c 62000000!        call      DIV_F30               ; |240| 
TMS320C3x/4x COFF AssemblerVersion 5.12     Thu Apr 21 09:27:38 2022
Copyright (c) 1987-1999 Texas Instruments Incorporatedasm30.exe -@_4A4.AAB 

Y:\workspace_eea\V615\APP\SOURCE\ASM\timer.asm                       PAGE   29

     1513                                                           ; |240| Call Occurs
     1514 0000000d 08700000-        ldp       @CL9,DP
     1515 0000000e 5021000b-        ldiu      @CL9,r1               ; |240| 
     1516 0000000f 40020000         ldfu      f0,f2                 ; |240| 
     1517 00000010 70000001         callu     r1                    ; far call to _ceil     ; |240| 
     1518                                                           ; |240| Far Call Occurs
     1519 00000011 05010000         fix       f0,r1                 ; |240| 
     1520 00000012 0b820000         negf      f0,f2                 ; |240| 
     1521 00000013 05000002         fix       f2,r0                 ; |240| 
     1522 00000014 0c000000         negi      r0,r0                 ; |240| 
     1523 00000015 54010000         ldile     r0,r1                 ; |240| 
     1524 00000016 15410306         sti       r1,*+fp(6)            ; |240| 
     1525                           .line   7
     1526                   ;----------------------------------------------------------------------
     1527                   ; 242 | if (preset<=0)                                                         
     1528                   ;----------------------------------------------------------------------
     1529 00000017 50000001         ldiu      r1,r0
     1530 00000018 04e00000         cmpi      0,r0                  ; |242| 
     1531 00000019 6a090002         bgt       L48                   ; |242| 
     1532                   ;*      Branch Occurs to L48            ; |242| 
     1533                           .line   8
     1534                   ;----------------------------------------------------------------------
     1535                   ; 243 | preset = 1;                                                            
     1536                   ;----------------------------------------------------------------------
     1537 0000001a 50600001         ldiu      1,r0                  ; |243| 
     1538 0000001b 15400306         sti       r0,*+fp(6)            ; |243| 
     1539 0000001c          L48:        
     1540                           .line   10
     1541                   ;----------------------------------------------------------------------
     1542                   ; 245 | p->t                    = preset*TIME0;                                
     1543                   ;----------------------------------------------------------------------
     1544 0000001c 08700000-        ldp       @CL8,DP
     1545 0000001d 05c00306         float     *+fp(6),f0            ; |245| 
     1546 0000001e 5029000a-        ldiu      @CL8,ar1              ; |245| 
     1547 0000001f 50480301         ldiu      *+fp(1),ar0           ; |245| 
     1548 00000020 24c000c1         mpyf3     *ar1,f0,f0            ; |245| 
     1549 00000021 14400009         stf       f0,*+ar0(9)           ; |245| 
     1550                           .line   11
     1551                   ;----------------------------------------------------------------------
     1552                   ; 246 | p->vect                 = vect;                                        
     1553                   ;----------------------------------------------------------------------
     1554 00000022 50480301         ldiu      *+fp(1),ar0           ; |246| 
     1555 00000023 50400304         ldiu      *+fp(4),r0            ; |246| 
     1556 00000024 15400002         sti       r0,*+ar0(2)           ; |246| 
     1557                           .line   12
     1558                   ;----------------------------------------------------------------------
     1559                   ; 247 | p->countdown    = preset;                                              
     1560                   ;----------------------------------------------------------------------
     1561 00000025 50480301         ldiu      *+fp(1),ar0           ; |247| 
     1562 00000026 50400306         ldiu      *+fp(6),r0            ; |247| 
     1563 00000027 15400007         sti       r0,*+ar0(7)           ; |247| 
     1564                           .line   13
     1565                   ;----------------------------------------------------------------------
     1566                   ; 248 | p->preset_time  = preset;                                              
TMS320C3x/4x COFF AssemblerVersion 5.12     Thu Apr 21 09:27:38 2022
Copyright (c) 1987-1999 Texas Instruments Incorporatedasm30.exe -@_4A4.AAB 

Y:\workspace_eea\V615\APP\SOURCE\ASM\timer.asm                       PAGE   30

     1567                   ;----------------------------------------------------------------------
     1568 00000028 50480301         ldiu      *+fp(1),ar0           ; |248| 
     1569 00000029 50400306         ldiu      *+fp(6),r0            ; |248| 
     1570 0000002a 15400008         sti       r0,*+ar0(8)           ; |248| 
     1571                           .line   14
     1572                   ;----------------------------------------------------------------------
     1573                   ; 249 | p->prev                 = NULL_PTR;                                    
     1574                   ;----------------------------------------------------------------------
     1575 0000002b 50480301         ldiu      *+fp(1),ar0           ; |249| 
     1576 0000002c 50600000         ldiu      0,r0                  ; |249| 
     1577 0000002d 1540c000         sti       r0,*ar0               ; |249| 
     1578                           .line   15
     1579                   ;----------------------------------------------------------------------
     1580                   ; 250 | p->next                 = NULL_PTR;                                    
     1581                   ;----------------------------------------------------------------------
     1582 0000002e 50480301         ldiu      *+fp(1),ar0           ; |250| 
     1583 0000002f 15400001         sti       r0,*+ar0(1)           ; |250| 
     1584                           .line   16
     1585                   ;----------------------------------------------------------------------
     1586                   ; 251 | p->n                        = nrepeat;                                 
     1587                   ;----------------------------------------------------------------------
     1588 00000030 50480301         ldiu      *+fp(1),ar0           ; |251| 
     1589 00000031 50400303         ldiu      *+fp(3),r0            ; |251| 
     1590 00000032 15400005         sti       r0,*+ar0(5)           ; |251| 
     1591                           .line   17
     1592                   ;----------------------------------------------------------------------
     1593                   ; 252 | p->prev_n               = nrepeat;                                     
     1594                   ;----------------------------------------------------------------------
     1595 00000033 50480301         ldiu      *+fp(1),ar0           ; |252| 
     1596 00000034 50400303         ldiu      *+fp(3),r0            ; |252| 
     1597 00000035 15400006         sti       r0,*+ar0(6)           ; |252| 
     1598                           .line   18
     1599                   ;----------------------------------------------------------------------
     1600                   ; 253 | p->priority     = pri;                                                 
     1601                   ;----------------------------------------------------------------------
     1602 00000036 50480301         ldiu      *+fp(1),ar0           ; |253| 
     1603 00000037 50400305         ldiu      *+fp(5),r0            ; |253| 
     1604 00000038 15400003         sti       r0,*+ar0(3)           ; |253| 
     1605                           .line   19
     1606                   ;----------------------------------------------------------------------
     1607                   ; 254 | p->parent               = (int*)p;      /* this identifies the packet's
     1608                   ;     |  master copy for reference within the queue */                         
     1609                   ;----------------------------------------------------------------------
     1610 00000039 50480301         ldiu      *+fp(1),ar0           ; |254| 
     1611 0000003a 50000008         ldiu      ar0,r0                ; |254| 
     1612 0000003b 15400004         sti       r0,*+ar0(4)           ; |254| 
     1613                           .line   21
     1614                   ;----------------------------------------------------------------------
     1615                   ; 256 | return TRUE;                                                           
     1616                   ;----------------------------------------------------------------------
     1617 0000003c 50600001         ldiu      1,r0                  ; |256| 
     1618                           .line   22
     1619                                                           ; Begin Epilog Code
     1620 0000003d 50410b01         ldiu      *-fp(1),r1            ; |257| 
TMS320C3x/4x COFF AssemblerVersion 5.12     Thu Apr 21 09:27:38 2022
Copyright (c) 1987-1999 Texas Instruments Incorporatedasm30.exe -@_4A4.AAB 

Y:\workspace_eea\V615\APP\SOURCE\ASM\timer.asm                       PAGE   31

     1621 0000003e 504bc300         ldiu      *fp,fp                ; |257| 
     1622                                                           ; Unallocate the Frame
     1623 0000003f 18740008         subi      8,sp                  ; |257| 
     1624 00000040 68000001         bu        r1
     1625                   ;*      Branch Occurs to r1 
     1626                           .endfunc        257,000000000h,6
     1627                   
     1628                   
     1629 00000000                  .sect    "initialization"
     1630                   
     1631                           .global _Setup_Timer
     1632                           .sym    _Setup_Timer,_Setup_Timer,32,2,0
     1633                           .func   272
     1634                   ;******************************************************************************
     1635                   ;* FUNCTION NAME: _Setup_Timer                                                *
     1636                   ;*                                                                            *
     1637                   ;*   Architecture       : TMS320C33                                           *
     1638                   ;*   Calling Convention : TI Standard Register Parameters                     *
     1639                   ;*   Function Uses Regs : f0,r0,f1,r1,f2,r2,r4,r5,ar0,ar2,ar4,ar5,ar6,ar7,ir0,*
     1640                   ;*                        st                                                  *
     1641                   ;*   Regs Saved         : r4,r5,ar4,ar5,ar6,ar7                               *
     1642                   ;*   Stack Frame        : Full (w/ debug)                                     *
     1643                   ;*   Total Frame Size   : 2 Call + 0 Parm + 4 Auto + 6 SOE = 12 words         *
     1644                   ;******************************************************************************
     1645 00000000          _Setup_Timer:
     1646                   ;* ar2   assigned to _id
     1647                           .sym    _id,10,4,17,32
     1648                   ;* f2    assigned to _t
     1649                           .sym    _t,2,6,17,32
     1650                           .sym    _id,1,4,1,32
     1651                           .sym    _t,2,6,1,32
     1652                           .sym    _ta,3,6,1,32
     1653                           .sym    _i,4,4,1,32
     1654                           .line   1
     1655                   ;----------------------------------------------------------------------
     1656                   ; 272 | void Setup_Timer(int id, float t)                                      
     1657                   ;----------------------------------------------------------------------
     1658 00000000 0f2b0000         push      fp
     1659 00000001 500b0014         ldiu      sp,fp
     1660 00000002 02740004         addi      4,sp
     1661 00000003 0f240000         push      r4
     1662 00000004 0f250000         push      r5
     1663 00000005 0f2c0000         push      ar4
     1664 00000006 0f2d0000         push      ar5
     1665 00000007 0f2e0000         push      ar6
     1666 00000008 0f2f0000         push      ar7
     1667                           .line   2
     1668                   ;----------------------------------------------------------------------
     1669                   ; 274 | float   ta;     /* timer cycles */                                     
     1670                   ; 275 | int             i;      /* counter              */                     
     1671                   ;----------------------------------------------------------------------
     1672 00000009 14420302         stf       f2,*+fp(2)            ; |273| 
     1673 0000000a 154a0301         sti       ar2,*+fp(1)           ; |273| 
     1674                           .line   6
TMS320C3x/4x COFF AssemblerVersion 5.12     Thu Apr 21 09:27:38 2022
Copyright (c) 1987-1999 Texas Instruments Incorporatedasm30.exe -@_4A4.AAB 

Y:\workspace_eea\V615\APP\SOURCE\ASM\timer.asm                       PAGE   32

     1675                   ;----------------------------------------------------------------------
     1676                   ; 277 | if (id==0)                                                             
     1677                   ;----------------------------------------------------------------------
     1678 0000000b 5000000a         ldiu      ar2,r0
     1679 0000000c 04e00000         cmpi      0,r0                  ; |277| 
     1680 0000000d 6a0600b0         bne       L59                   ; |277| 
     1681                   ;*      Branch Occurs to L59            ; |277| 
     1682                           .line   8
     1683                   ;----------------------------------------------------------------------
     1684                   ; 279 | ta = t * TMR0_FREQ;             /* (t sec * TMR0_FREQ Hz) = CPU cycles
     1685                   ;     | in t time */                                                           
     1686                   ;----------------------------------------------------------------------
     1687 0000000e 08700000-        ldp       @CL10,DP
     1688 0000000f 5028000c-        ldiu      @CL10,ar0             ; |279| 
     1689 00000010 08700000-        ldp       @CL11,DP
     1690 00000011 05c0c000         float     *ar0,f0               ; |279| 
     1691 00000012 43a1000d-        ldflt     @CL11,f1              ; |279| 
     1692 00000013 45618000         ldfge     0.0000000000e+00,f1   ; |279| 
     1693 00000014 08700000-        ldp       @CL12,DP
     1694 00000015 20800100         addf3     f0,f1,f0              ; |279| 
     1695 00000016 0a20000e-        mpyf      @CL12,f0              ; |279| 
     1696 00000017 0a400302         mpyf      *+fp(2),f0            ; |279| 
     1697 00000018 14400303         stf       f0,*+fp(3)            ; |279| 
     1698                           .line   10
     1699                   ;----------------------------------------------------------------------
     1700                   ; 281 | if (0.5<=(ta-(int)ta))                                                 
     1701                   ;----------------------------------------------------------------------
     1702 00000019 40020000         ldfu      f0,f2
     1703 0000001a 4021000e-        ldfu      @CL12,f1              ; |281| 
     1704 0000001b 0b800002         negf      f2,f0                 ; |281| 
     1705 0000001c 05000000         fix       f0,r0                 ; |281| 
     1706 0000001d 05020002         fix       f2,r2                 ; |281| 
     1707 0000001e 0c000000         negi      r0,r0                 ; |281| 
     1708 0000001f 54020000         ldile     r0,r2                 ; |281| 
     1709 00000020 05800002         float     r2,f0                 ; |281| 
     1710 00000021 19400303         subrf     *+fp(3),f0            ; |281| 
     1711 00000022 23000100         cmpf3     f0,f1                 ; |281| 
     1712 00000023 6a090003         bgt       L54                   ; |281| 
     1713                   ;*      Branch Occurs to L54            ; |281| 
     1714                           .line   11
     1715                   ;----------------------------------------------------------------------
     1716                   ; 282 | ta++;                                                                  
     1717                   ;----------------------------------------------------------------------
     1718 00000024 40600000         ldfu      1.0000000000e+00,f0   ; |282| 
     1719 00000025 01c00303         addf      *+fp(3),f0            ; |282| 
     1720 00000026 14400303         stf       f0,*+fp(3)            ; |282| 
     1721 00000027          L54:        
     1722                           .line   13
     1723                   ;----------------------------------------------------------------------
     1724                   ; 284 | *TMR0_GC                = (TMR_FUNC | TMR_GO | TMR_HLD);               
     1725                   ;----------------------------------------------------------------------
     1726 00000027 08700000-        ldp       @CL13,DP
     1727 00000028 5028000f-        ldiu      @CL13,ar0             ; |284| 
     1728 00000029 506000c1         ldiu      193,r0                ; |284| 
TMS320C3x/4x COFF AssemblerVersion 5.12     Thu Apr 21 09:27:38 2022
Copyright (c) 1987-1999 Texas Instruments Incorporatedasm30.exe -@_4A4.AAB 

Y:\workspace_eea\V615\APP\SOURCE\ASM\timer.asm                       PAGE   33

     1729 0000002a 1540c000         sti       r0,*ar0               ; |284| 
     1730                           .line   14
     1731                   ;----------------------------------------------------------------------
     1732                   ; 285 | *TMR0_PER               = (int)ta;                                     
     1733                   ;----------------------------------------------------------------------
     1734 0000002b 08700000-        ldp       @CL14,DP
     1735 0000002c 50280010-        ldiu      @CL14,ar0             ; |285| 
     1736 0000002d 08700000-        ldp       @CL15,DP
     1737 0000002e 40400303         ldfu      *+fp(3),f0            ; |285| 
     1738 0000002f 04200011-        cmpf      @CL15,f0              ; |285| 
     1739 00000030 08700000-        ldp       @CL11,DP
     1740 00000031 43e18000         ldflt     0.0000000000e+00,f1   ; |285| 
     1741 00000032 4521000d-        ldfge     @CL11,f1              ; |285| 
     1742 00000033 19010000         subrf     f0,f1                 ; |285| 
     1743 00000034 05000001         fix       f1,r0                 ; |285| 
     1744 00000035 1540c000         sti       r0,*ar0               ; |285| 
     1745                           .line   15
     1746                   ;----------------------------------------------------------------------
     1747                   ; 286 | TIME0                   = ta/(float)TMR0_FREQ * 1047.0;                
     1748                   ;----------------------------------------------------------------------
     1749 00000036 08700000-        ldp       @CL10,DP
     1750 00000037 5028000c-        ldiu      @CL10,ar0             ; |286| 
     1751 00000038 08700000-        ldp       @CL11,DP
     1752 00000039 05c1c000         float     *ar0,f1               ; |286| 
     1753 0000003a 43a0000d-        ldflt     @CL11,f0              ; |286| 
     1754 0000003b 45608000         ldfge     0.0000000000e+00,f0   ; |286| 
     1755 0000003c 20810001         addf3     f1,f0,f1              ; |286| 
     1756 0000003d 08700000-        ldp       @CL12,DP
     1757 0000003e 40400303         ldfu      *+fp(3),f0            ; |286| 
     1758 0000003f 0a21000e-        mpyf      @CL12,f1              ; |286| 
     1759 00000040 62000000!        call      DIV_F30               ; |286| 
     1760                                                           ; |286| Call Occurs
     1761 00000041 08700000-        ldp       @CL8,DP
     1762 00000042 5028000a-        ldiu      @CL8,ar0              ; |286| 
     1763 00000043 08700000-        ldp       @CL16,DP
     1764 00000044 0a200012-        mpyf      @CL16,f0              ; |286| 
     1765 00000045 1440c000         stf       f0,*ar0               ; |286| 
     1766                           .line   16
     1767                   ;----------------------------------------------------------------------
     1768                   ; 287 | TIME1                   = ta/(float)TMR0_FREQ;                         
     1769                   ;----------------------------------------------------------------------
     1770 00000046 08700000-        ldp       @CL10,DP
     1771 00000047 5028000c-        ldiu      @CL10,ar0             ; |287| 
     1772 00000048 08700000-        ldp       @CL11,DP
     1773 00000049 05c1c000         float     *ar0,f1               ; |287| 
     1774 0000004a 43a0000d-        ldflt     @CL11,f0              ; |287| 
     1775 0000004b 45608000         ldfge     0.0000000000e+00,f0   ; |287| 
     1776 0000004c 08700000-        ldp       @CL12,DP
     1777 0000004d 20810001         addf3     f1,f0,f1              ; |287| 
     1778 0000004e 0a21000e-        mpyf      @CL12,f1              ; |287| 
     1779 0000004f 40400303         ldfu      *+fp(3),f0            ; |287| 
     1780 00000050 62000000!        call      DIV_F30               ; |287| 
     1781                                                           ; |287| Call Occurs
     1782 00000051 08700000-        ldp       @CL17,DP
TMS320C3x/4x COFF AssemblerVersion 5.12     Thu Apr 21 09:27:38 2022
Copyright (c) 1987-1999 Texas Instruments Incorporatedasm30.exe -@_4A4.AAB 

Y:\workspace_eea\V615\APP\SOURCE\ASM\timer.asm                       PAGE   34

     1783 00000052 50280013-        ldiu      @CL17,ar0             ; |287| 
     1784 00000053 1440c000         stf       f0,*ar0               ; |287| 
     1785                           .line   17
     1786                   ;----------------------------------------------------------------------
     1787                   ; 288 | TIMER0_COUNTER  = 0;                                                   
     1788                   ;----------------------------------------------------------------------
     1789 00000054 08700000-        ldp       @CL18,DP
     1790 00000055 50280014-        ldiu      @CL18,ar0             ; |288| 
     1791 00000056 50600000         ldiu      0,r0                  ; |288| 
     1792 00000057 1540c000         sti       r0,*ar0               ; |288| 
     1793                           .line   19
     1794                   ;----------------------------------------------------------------------
     1795                   ; 290 | List_Init(&LIST_TIMER0);                                               
     1796                   ;----------------------------------------------------------------------
     1797 00000058 08700000-        ldp       @CL19,DP
     1798 00000059 50200015-        ldiu      @CL19,r0              ; |290| 
     1799 0000005a 08700000-        ldp       @CL1,DP
     1800 0000005b 502a0003-        ldiu      @CL1,ar2              ; |290| 
     1801 0000005c 70000000         callu     r0                    ; far call to _List_Init        ; |290| 
     1802                                                           ; |290| Far Call Occurs
     1803                           .line   20
     1804                   ;----------------------------------------------------------------------
     1805                   ; 291 | List_Init(&LIST_TMR_EMPTY);                                            
     1806                   ;----------------------------------------------------------------------
     1807 0000005d 08700000-        ldp       @CL19,DP
     1808 0000005e 50200015-        ldiu      @CL19,r0              ; |291| 
     1809 0000005f 08700000-        ldp       @CL3,DP
     1810 00000060 502a0005-        ldiu      @CL3,ar2              ; |291| 
     1811 00000061 70000000         callu     r0                    ; far call to _List_Init        ; |291| 
     1812                                                           ; |291| Far Call Occurs
     1813                           .line   22
     1814                   ;----------------------------------------------------------------------
     1815                   ; 293 | for (i=0;i<TMR_Q_LEN;i++)                                              
     1816                   ;----------------------------------------------------------------------
     1817 00000062 50600000         ldiu      0,r0                  ; |293| 
     1818 00000063 15400304         sti       r0,*+fp(4)            ; |293| 
     1819 00000064 506f0000         ldiu      0,ar7                 ; |301| 
     1820 00000065 506e0000         ldiu      0,ar6                 ; |300| 
     1821 00000066 506d0000         ldiu      0,ar5                 ; |299| 
     1822 00000067 506c0000         ldiu      0,ar4                 ; |298| 
     1823 00000068 50650000         ldiu      0,r5                  ; |297| 
     1824 00000069 50640000         ldiu      0,r4                  ; |296| 
     1825 0000006a 04e00028         cmpi      40,r0                 ; |293| 
     1826 0000006b 6a0a003c         bge       L56                   ; |293| 
     1827                   ;*      Branch Occurs to L56            ; |293| 
     1828 0000006c          L55:        
     1829                           .line   24
     1830                   ;----------------------------------------------------------------------
     1831                   ; 295 | QUEUE_TMR[i].prev                = 0;                                  
     1832                   ;----------------------------------------------------------------------
     1833 0000006c 50510304         ldiu      *+fp(4),ir0           ; |295| 
     1834 0000006d 08700000-        ldp       @CL20,DP
     1835 0000006e 0af1000a         mpyi      10,ir0                ; |295| 
     1836 0000006f 50280016-        ldiu      @CL20,ar0             ; |295| 
TMS320C3x/4x COFF AssemblerVersion 5.12     Thu Apr 21 09:27:38 2022
Copyright (c) 1987-1999 Texas Instruments Incorporatedasm30.exe -@_4A4.AAB 

Y:\workspace_eea\V615\APP\SOURCE\ASM\timer.asm                       PAGE   35

     1837 00000070 50600000         ldiu      0,r0                  ; |295| 
     1838 00000071 15404000         sti       r0,*+ar0(ir0)         ; |295| 
     1839                           .line   25
     1840                   ;----------------------------------------------------------------------
     1841                   ; 296 | QUEUE_TMR[i].next                = 0;                                  
     1842                   ;----------------------------------------------------------------------
     1843 00000072 08700000-        ldp       @CL21,DP
     1844 00000073 50510304         ldiu      *+fp(4),ir0           ; |296| 
     1845 00000074 50280017-        ldiu      @CL21,ar0             ; |296| 
     1846 00000075 0af1000a         mpyi      10,ir0                ; |296| 
     1847 00000076 15444000         sti       r4,*+ar0(ir0)         ; |296| 
     1848                           .line   26
     1849                   ;----------------------------------------------------------------------
     1850                   ; 297 | QUEUE_TMR[i].vect                = 0;                                  
     1851                   ;----------------------------------------------------------------------
     1852 00000077 08700000-        ldp       @CL22,DP
     1853 00000078 50510304         ldiu      *+fp(4),ir0           ; |297| 
     1854 00000079 50280018-        ldiu      @CL22,ar0             ; |297| 
     1855 0000007a 0af1000a         mpyi      10,ir0                ; |297| 
     1856 0000007b 15454000         sti       r5,*+ar0(ir0)         ; |297| 
     1857                           .line   27
     1858                   ;----------------------------------------------------------------------
     1859                   ; 298 | QUEUE_TMR[i].priority    = 0;                                          
     1860                   ;----------------------------------------------------------------------
     1861 0000007c 08700000-        ldp       @CL23,DP
     1862 0000007d 50510304         ldiu      *+fp(4),ir0           ; |298| 
     1863 0000007e 50280019-        ldiu      @CL23,ar0             ; |298| 
     1864 0000007f 0af1000a         mpyi      10,ir0                ; |298| 
     1865 00000080 154c4000         sti       ar4,*+ar0(ir0)        ; |298| 
     1866                           .line   28
     1867                   ;----------------------------------------------------------------------
     1868                   ; 299 | QUEUE_TMR[i].parent      = 0;                                          
     1869                   ;----------------------------------------------------------------------
     1870 00000081 08700000-        ldp       @CL24,DP
     1871 00000082 50510304         ldiu      *+fp(4),ir0           ; |299| 
     1872 00000083 5028001a-        ldiu      @CL24,ar0             ; |299| 
     1873 00000084 0af1000a         mpyi      10,ir0                ; |299| 
     1874 00000085 154d4000         sti       ar5,*+ar0(ir0)        ; |299| 
     1875                           .line   29
     1876                   ;----------------------------------------------------------------------
     1877                   ; 300 | QUEUE_TMR[i].n                   = 0;                                  
     1878                   ;----------------------------------------------------------------------
     1879 00000086 08700000-        ldp       @CL25,DP
     1880 00000087 50510304         ldiu      *+fp(4),ir0           ; |300| 
     1881 00000088 0af1000a         mpyi      10,ir0                ; |300| 
     1882 00000089 5028001b-        ldiu      @CL25,ar0             ; |300| 
     1883 0000008a 154e4000         sti       ar6,*+ar0(ir0)        ; |300| 
     1884                           .line   30
     1885                   ;----------------------------------------------------------------------
     1886                   ; 301 | QUEUE_TMR[i].prev_n      = 0;                                          
     1887                   ;----------------------------------------------------------------------
     1888 0000008b 08700000-        ldp       @CL26,DP
     1889 0000008c 50510304         ldiu      *+fp(4),ir0           ; |301| 
     1890 0000008d 5028001c-        ldiu      @CL26,ar0             ; |301| 
TMS320C3x/4x COFF AssemblerVersion 5.12     Thu Apr 21 09:27:38 2022
Copyright (c) 1987-1999 Texas Instruments Incorporatedasm30.exe -@_4A4.AAB 

Y:\workspace_eea\V615\APP\SOURCE\ASM\timer.asm                       PAGE   36

     1891 0000008e 0af1000a         mpyi      10,ir0                ; |301| 
     1892 0000008f 154f4000         sti       ar7,*+ar0(ir0)        ; |301| 
     1893                           .line   31
     1894                   ;----------------------------------------------------------------------
     1895                   ; 302 | QUEUE_TMR[i].countdown   = 0;                                          
     1896                   ;----------------------------------------------------------------------
     1897 00000090 50510304         ldiu      *+fp(4),ir0           ; |302| 
     1898 00000091 08700000-        ldp       @CL27,DP
     1899 00000092 0af1000a         mpyi      10,ir0                ; |302| 
     1900 00000093 5028001d-        ldiu      @CL27,ar0             ; |302| 
     1901 00000094 15404000         sti       r0,*+ar0(ir0)         ; |302| 
     1902                           .line   32
     1903                   ;----------------------------------------------------------------------
     1904                   ; 303 | QUEUE_TMR[i].preset_time = 0;                                          
     1905                   ;----------------------------------------------------------------------
     1906 00000095 08700000-        ldp       @CL28,DP
     1907 00000096 50510304         ldiu      *+fp(4),ir0           ; |303| 
     1908 00000097 5028001e-        ldiu      @CL28,ar0             ; |303| 
     1909 00000098 0af1000a         mpyi      10,ir0                ; |303| 
     1910 00000099 15404000         sti       r0,*+ar0(ir0)         ; |303| 
     1911                           .line   34
     1912                   ;----------------------------------------------------------------------
     1913                   ; 305 | List_Add(&LIST_TMR_EMPTY, (GENERIC*)(&QUEUE_TMR[i]));                  
     1914                   ;----------------------------------------------------------------------
     1915 0000009a 08700000-        ldp       @CL7,DP
     1916 0000009b 50200009-        ldiu      @CL7,r0               ; |305| 
     1917 0000009c 08700000-        ldp       @CL20,DP
     1918 0000009d 50420304         ldiu      *+fp(4),r2            ; |305| 
     1919 0000009e 0ae2000a         mpyi      10,r2                 ; |305| 
     1920 0000009f 02220016-        addi      @CL20,r2              ; |305| Unsigned
     1921 000000a0 08700000-        ldp       @CL3,DP
     1922 000000a1 502a0005-        ldiu      @CL3,ar2              ; |305| 
     1923 000000a2 70000000         callu     r0                    ; far call to _List_Add ; |305| 
     1924                                                           ; |305| Far Call Occurs
     1925                           .line   22
     1926 000000a3 50600001         ldiu      1,r0                  ; |293| 
     1927 000000a4 02400304         addi      *+fp(4),r0            ; |293| 
     1928 000000a5 15400304         sti       r0,*+fp(4)            ; |293| 
     1929 000000a6 04e00028         cmpi      40,r0                 ; |293| 
     1930 000000a7 6a07ffc4         blt       L55                   ; |293| 
     1931                   ;*      Branch Occurs to L55            ; |293| 
     1932 000000a8          L56:        
     1933                           .line   37
     1934                   ;----------------------------------------------------------------------
     1935                   ; 308 | for (i=0;i<(UART_MAX+1);i++)                                           
     1936                   ;----------------------------------------------------------------------
     1937 000000a8 50600000         ldiu      0,r0                  ; |308| 
     1938 000000a9 15400304         sti       r0,*+fp(4)            ; |308| 
     1939 000000aa 50610000         ldiu      0,r1                  ; |310| 
     1940 000000ab 04e00009         cmpi      9,r0                  ; |308| 
     1941 000000ac 50620000         ldiu      0,r2                  ; |311| 
     1942 000000ad 6a0a000e         bge       L58                   ; |308| 
     1943                   ;*      Branch Occurs to L58            ; |308| 
     1944 000000ae          L57:        
TMS320C3x/4x COFF AssemblerVersion 5.12     Thu Apr 21 09:27:38 2022
Copyright (c) 1987-1999 Texas Instruments Incorporatedasm30.exe -@_4A4.AAB 

Y:\workspace_eea\V615\APP\SOURCE\ASM\timer.asm                       PAGE   37

     1945                           .line   39
     1946                   ;----------------------------------------------------------------------
     1947                   ; 310 | TIMER1_COUNTER[i]       = 0;                                           
     1948                   ;----------------------------------------------------------------------
     1949 000000ae 08700000-        ldp       @CL29,DP
     1950 000000af 50510304         ldiu      *+fp(4),ir0           ; |310| 
     1951 000000b0 5028001f-        ldiu      @CL29,ar0             ; |310| 
     1952 000000b1 15414000         sti       r1,*+ar0(ir0)         ; |310| 
     1953                           .line   40
     1954                   ;----------------------------------------------------------------------
     1955                   ; 311 | PORT[i].TMR_enabled = FALSE;                                           
     1956                   ;----------------------------------------------------------------------
     1957 000000b2 08700000-        ldp       @CL30,DP
     1958 000000b3 50510304         ldiu      *+fp(4),ir0           ; |311| 
     1959 000000b4 50280020-        ldiu      @CL30,ar0             ; |311| 
     1960 000000b5 0af10047         mpyi      71,ir0                ; |311| 
     1961 000000b6 15424000         sti       r2,*+ar0(ir0)         ; |311| 
     1962                           .line   37
     1963 000000b7 50600001         ldiu      1,r0                  ; |308| 
     1964 000000b8 02400304         addi      *+fp(4),r0            ; |308| 
     1965 000000b9 15400304         sti       r0,*+fp(4)            ; |308| 
     1966 000000ba 04e00009         cmpi      9,r0                  ; |308| 
     1967 000000bb 6a07fff2         blt       L57                   ; |308| 
     1968                   ;*      Branch Occurs to L57            ; |308| 
     1969 000000bc          L58:        
     1970                           .line   43
     1971                   ;----------------------------------------------------------------------
     1972                   ; 314 | ENABLE_TINT0;                                                          
     1973                   ;----------------------------------------------------------------------
     1974 000000bc 10760100         or              0100h, IE
     1975 000000bd 6a00000d         bu        L61                   ; |271| 
     1976                   ;*      Branch Occurs to L61            ; |271| 
     1977 000000be          L59:        
     1978                           .line   45
     1979                   ;----------------------------------------------------------------------
     1980                   ; 316 | else if (id==1)                                                        
     1981                   ;----------------------------------------------------------------------
     1982 000000be 50400301         ldiu      *+fp(1),r0            ; |316| 
     1983 000000bf 04e00001         cmpi      1,r0                  ; |316| 
     1984 000000c0 6a06000a         bne       L61                   ; |316| 
     1985                   ;*      Branch Occurs to L61            ; |316| 
     1986                           .line   47
     1987                   ;----------------------------------------------------------------------
     1988                   ; 318 | *TMR1_GC        = (TMR_FUNC | TMR_GO | TMR_HLD);                       
     1989                   ;----------------------------------------------------------------------
     1990 000000c1 08700000-        ldp       @CL31,DP
     1991 000000c2 50280021-        ldiu      @CL31,ar0             ; |318| 
     1992 000000c3 506000c1         ldiu      193,r0                ; |318| 
     1993 000000c4 1540c000         sti       r0,*ar0               ; |318| 
     1994                           .line   48
     1995                   ;----------------------------------------------------------------------
     1996                   ; 319 | *TMR1_PER       = 1000000000;   /* register is rolled to 0 after 999999
     1997                   ;     | 999 */                                                                 
     1998                   ;----------------------------------------------------------------------
TMS320C3x/4x COFF AssemblerVersion 5.12     Thu Apr 21 09:27:38 2022
Copyright (c) 1987-1999 Texas Instruments Incorporatedasm30.exe -@_4A4.AAB 

Y:\workspace_eea\V615\APP\SOURCE\ASM\timer.asm                       PAGE   38

     1999 000000c5 08700000-        ldp       @CL32,DP
     2000 000000c6 50280022-        ldiu      @CL32,ar0             ; |319| 
     2001 000000c7 08700000-        ldp       @CL33,DP
     2002 000000c8 50200023-        ldiu      @CL33,r0              ; |319| 
     2003 000000c9 1540c000         sti       r0,*ar0               ; |319| 
     2004                           .line   49
     2005                   ;----------------------------------------------------------------------
     2006                   ; 320 | DISABLE_TINT1;                                                         
     2007                   ;----------------------------------------------------------------------
     2008 000000ca 03760200         andn    0200h, IE
     2009 000000cb          L61:        
     2010                           .line   51
     2011                                                           ; Begin Epilog Code
     2012 000000cb 50410b01         ldiu      *-fp(1),r1
     2013 000000cc 504bc300         ldiu      *fp,fp
     2014                                                           ; Restore SOE Registers
     2015 000000cd 0e2f0000         pop       ar7
     2016 000000ce 0e2e0000         pop       ar6
     2017 000000cf 0e2d0000         pop       ar5
     2018 000000d0 0e2c0000         pop       ar4
     2019 000000d1 0e250000         pop       r5
     2020 000000d2 0e240000         pop       r4
     2021                                                           ; Unallocate the Frame
     2022 000000d3 18740006         subi      6,sp
     2023 000000d4 68000001         bu        r1
     2024                   ;*      Branch Occurs to r1 
     2025                           .endfunc        322,00000f030h,4
     2026                   
     2027                   
     2028 00000041                  .sect    ".text"
     2029                   
     2030                           .global _Setup_Gate
     2031                           .sym    _Setup_Gate,_Setup_Gate,32,2,0
     2032                           .func   339
     2033                   ;******************************************************************************
     2034                   ;* FUNCTION NAME: _Setup_Gate                                                 *
     2035                   ;*                                                                            *
     2036                   ;*   Architecture       : TMS320C33                                           *
     2037                   ;*   Calling Convention : TI Standard Register Parameters                     *
     2038                   ;*   Function Uses Regs : f0,r0,f1,r1,r2,r3,ar0,ar2,st,rc                     *
     2039                   ;*   Regs Saved         :                                                     *
     2040                   ;*   Stack Frame        : Full (w/ debug)                                     *
     2041                   ;*   Total Frame Size   : 2 Call + 0 Parm + 7 Auto + 0 SOE = 9 words          *
     2042                   ;******************************************************************************
     2043 00000041          _Setup_Gate:
     2044                   ;* ar2   assigned to _gt
     2045                           .sym    _gt,10,22,17,32
     2046                   ;* r2    assigned to _ps
     2047                           .sym    _ps,2,22,17,32
     2048                   ;* r3    assigned to _enabled
     2049                           .sym    _enabled,3,14,17,32
     2050                   ;* rc    assigned to _aux_in
     2051                           .sym    _aux_in,19,14,17,32
     2052                           .sym    _gt,1,22,1,32
TMS320C3x/4x COFF AssemblerVersion 5.12     Thu Apr 21 09:27:38 2022
Copyright (c) 1987-1999 Texas Instruments Incorporatedasm30.exe -@_4A4.AAB 

Y:\workspace_eea\V615\APP\SOURCE\ASM\timer.asm                       PAGE   39

     2053                           .sym    _ps,2,22,1,32
     2054                           .sym    _enabled,3,14,1,32
     2055                           .sym    _aux_in,4,14,1,32
     2056                           .sym    _GATE_DIV,5,4,1,32
     2057                           .sym    _val,6,6,1,32
     2058                           .sym    _i,7,4,1,32
     2059                           .line   1
     2060                   ;----------------------------------------------------------------------
     2061                   ; 339 | void Setup_Gate(float* gt, float* ps, BOOL enabled, BOOL aux_in)       
     2062                   ;----------------------------------------------------------------------
     2063 00000041 0f2b0000         push      fp
     2064 00000042 500b0014         ldiu      sp,fp
     2065 00000043 02740007         addi      7,sp
     2066                           .line   2
     2067                   ;----------------------------------------------------------------------
     2068                   ; 341 | int GATE_DIV;                                                          
     2069                   ; 342 | float val;                                                             
     2070                   ; 343 | int     i;                                                             
     2071                   ;----------------------------------------------------------------------
     2072 00000044 155b0304         sti       rc,*+fp(4)            ; |340| 
     2073 00000045 15430303         sti       r3,*+fp(3)            ; |340| 
     2074 00000046 15420302         sti       r2,*+fp(2)            ; |340| 
     2075 00000047 154a0301         sti       ar2,*+fp(1)           ; |340| 
     2076                           .line   7
     2077                   ;----------------------------------------------------------------------
     2078                   ; 345 | _GIEP;                                                                 
     2079                   ;----------------------------------------------------------------------
     2080 00000048 0f350000         push    ST                      
     2081 00000049 03752000         andn    2000h, ST       
     2082                           .line   9
     2083                   ;----------------------------------------------------------------------
     2084                   ; 347 | if (SA)                                                                
     2085                   ;----------------------------------------------------------------------
     2086 0000004a 08700000-        ldp       @CL34,DP
     2087 0000004b 50280024-        ldiu      @CL34,ar0             ; |347| 
     2088 0000004c 5040c000         ldiu      *ar0,r0               ; |347| 
     2089 0000004d 04e00000         cmpi      0,r0                  ; |347| 
     2090 0000004e 6a050052         beq       L77                   ; |347| 
     2091                   ;*      Branch Occurs to L77            ; |347| 
     2092                           .line   11
     2093                   ;----------------------------------------------------------------------
     2094                   ; 349 | val      = gt[0];                                                      
     2095                   ;----------------------------------------------------------------------
     2096 0000004f 5008000a         ldiu      ar2,ar0
     2097 00000050 4040c000         ldfu      *ar0,f0               ; |349| 
     2098 00000051 14400306         stf       f0,*+fp(6)            ; |349| 
     2099                           .line   12
     2100                   ;----------------------------------------------------------------------
     2101                   ; 350 | val     *= GATE_CLK;                                                   
     2102                   ;----------------------------------------------------------------------
     2103 00000052 40607000         ldfu      1.2800000000e+02,f0   ; |350| 
     2104 00000053 0a400306         mpyf      *+fp(6),f0            ; |350| 
     2105 00000054 14400306         stf       f0,*+fp(6)            ; |350| 
     2106                           .line   13
TMS320C3x/4x COFF AssemblerVersion 5.12     Thu Apr 21 09:27:38 2022
Copyright (c) 1987-1999 Texas Instruments Incorporatedasm30.exe -@_4A4.AAB 

Y:\workspace_eea\V615\APP\SOURCE\ASM\timer.asm                       PAGE   40

     2107                   ;----------------------------------------------------------------------
     2108                   ; 351 | GATE_DIV = (unsigned int)val;                                          
     2109                   ;----------------------------------------------------------------------
     2110 00000055 40010000         ldfu      f0,f1
     2111 00000056 0b800001         negf      f1,f0                 ; |351| 
     2112 00000057 05000000         fix       f0,r0                 ; |351| 
     2113 00000058 05010001         fix       f1,r1                 ; |351| 
     2114 00000059 0c000000         negi      r0,r0                 ; |351| 
     2115 0000005a 54010000         ldile     r0,r1                 ; |351| 
     2116 0000005b 15410305         sti       r1,*+fp(5)            ; |351| 
     2117                           .line   15
     2118                   ;----------------------------------------------------------------------
     2119                   ; 353 | if (GATE_DIV>=255)                                                     
     2120                   ;----------------------------------------------------------------------
     2121 0000005c 50000001         ldiu      r1,r0
     2122 0000005d 04e000ff         cmpi      255,r0                ; |353| 
     2123 0000005e 6a070003         blt       L66                   ; |353| 
     2124                   ;*      Branch Occurs to L66            ; |353| 
     2125                           .line   16
     2126                   ;----------------------------------------------------------------------
     2127                   ; 354 | GATE_DIV = 255;                                                        
     2128                   ;----------------------------------------------------------------------
     2129 0000005f 506000ff         ldiu      255,r0                ; |354| 
     2130 00000060 15400305         sti       r0,*+fp(5)            ; |354| 
     2131 00000061 6a000005         bu        L68                   ; |338| 
     2132                   ;*      Branch Occurs to L68            ; |338| 
     2133 00000062          L66:        
     2134                           .line   17
     2135                   ;----------------------------------------------------------------------
     2136                   ; 355 | else if (GATE_DIV<=0)                                                  
     2137                   ;----------------------------------------------------------------------
     2138 00000062 50400305         ldiu      *+fp(5),r0            ; |355| 
     2139 00000063 04e00000         cmpi      0,r0                  ; |355| 
     2140 00000064 6a090002         bgt       L68                   ; |355| 
     2141                   ;*      Branch Occurs to L68            ; |355| 
     2142                           .line   18
     2143                   ;----------------------------------------------------------------------
     2144                   ; 356 | GATE_DIV = 1;                                                          
     2145                   ;----------------------------------------------------------------------
     2146 00000065 50600001         ldiu      1,r0                  ; |356| 
     2147 00000066 15400305         sti       r0,*+fp(5)            ; |356| 
     2148 00000067          L68:        
     2149                           .line   20
     2150                   ;----------------------------------------------------------------------
     2151                   ; 358 | val               = (float)GATE_DIV/(float)GATE_CLK;                   
     2152                   ;----------------------------------------------------------------------
     2153 00000067 08700000-        ldp       @CL35,DP
     2154 00000068 05c00305         float     *+fp(5),f0            ; |358| 
     2155 00000069 0a200025-        mpyf      @CL35,f0              ; |358| 
     2156 0000006a 14400306         stf       f0,*+fp(6)            ; |358| 
     2157                           .line   21
     2158                   ;----------------------------------------------------------------------
     2159                   ; 359 | gt[0]             = val;                                               
     2160                   ;----------------------------------------------------------------------
TMS320C3x/4x COFF AssemblerVersion 5.12     Thu Apr 21 09:27:38 2022
Copyright (c) 1987-1999 Texas Instruments Incorporatedasm30.exe -@_4A4.AAB 

Y:\workspace_eea\V615\APP\SOURCE\ASM\timer.asm                       PAGE   41

     2161 0000006b 50480301         ldiu      *+fp(1),ar0           ; |359| 
     2162 0000006c 1440c000         stf       f0,*ar0               ; |359| 
     2163                           .line   22
     2164                   ;----------------------------------------------------------------------
     2165                   ; 360 | *GATE_DIVIDER = GATE_DIV;                                              
     2166                   ;----------------------------------------------------------------------
     2167 0000006d 08700000-        ldp       @CL36,DP
     2168 0000006e 50280026-        ldiu      @CL36,ar0             ; |360| 
     2169 0000006f 50400305         ldiu      *+fp(5),r0            ; |360| 
     2170 00000070 1540c000         sti       r0,*ar0               ; |360| 
     2171                           .line   23
     2172                   ;----------------------------------------------------------------------
     2173                   ; 361 | i                         = ps[0];                                     
     2174                   ; 363 | switch (i)                                                             
     2175                   ;----------------------------------------------------------------------
     2176 00000071 50480302         ldiu      *+fp(2),ar0           ; |361| 
     2177 00000072 4040c000         ldfu      *ar0,f0               ; |361| 
     2178 00000073 0b810000         negf      f0,f1                 ; |361| 
     2179 00000074 05020000         fix       f0,r2                 ; |361| 
     2180 00000075 05000001         fix       f1,r0                 ; |361| 
     2181 00000076 0c000000         negi      r0,r0                 ; |361| 
     2182 00000077 54020000         ldile     r0,r2                 ; |361| 
     2183 00000078 15420307         sti       r2,*+fp(7)            ; |361| 
     2184 00000079 6a000021         bu        L73                   ; |338| 
     2185                   ;*      Branch Occurs to L73            ; |338| 
     2186 0000007a          L69:        
     2187                           .line   27
     2188                   ;----------------------------------------------------------------------
     2189                   ; 365 | case 256:       DIV_256; break;                                        
     2190                   ;----------------------------------------------------------------------
     2191 0000007a 0f350000         push    ST                      
     2192 0000007b 03752000         andn    2000h, ST       
     2193 0000007c 08700000-        ldp       @CL37,DP
     2194 0000007d 50280027-        ldiu      @CL37,ar0             ; |365| 
     2195 0000007e 5060003f         ldiu      63,r0                 ; |365| 
     2196 0000007f 21a0c000         and3      r0,*ar0,r0            ; |365| 
     2197 00000080 1540c000         sti       r0,*ar0               ; |365| 
     2198 00000081 0e350000         pop             ST                      
     2199 00000082 6a000026         bu        L78                   ; |365| 
     2200                   ;*      Branch Occurs to L78            ; |365| 
     2201 00000083          L70:        
     2202                           .line   28
     2203                   ;----------------------------------------------------------------------
     2204                   ; 366 | case 128:       DIV_128; break;                                        
     2205                   ;----------------------------------------------------------------------
     2206 00000083 0f350000         push    ST                      
     2207 00000084 03752000         andn    2000h, ST       
     2208 00000085 08700000-        ldp       @CL37,DP
     2209 00000086 50280027-        ldiu      @CL37,ar0             ; |366| 
     2210 00000087 50600040         ldiu      64,r0                 ; |366| 
     2211 00000088 25a0c000         or3       r0,*ar0,r0            ; |366| 
     2212 00000089 1540c000         sti       r0,*ar0               ; |366| 
     2213 0000008a 5060007f         ldiu      127,r0                ; |366| 
     2214 0000008b 21a0c000         and3      r0,*ar0,r0            ; |366| 
TMS320C3x/4x COFF AssemblerVersion 5.12     Thu Apr 21 09:27:38 2022
Copyright (c) 1987-1999 Texas Instruments Incorporatedasm30.exe -@_4A4.AAB 

Y:\workspace_eea\V615\APP\SOURCE\ASM\timer.asm                       PAGE   42

     2215 0000008c 1540c000         sti       r0,*ar0               ; |366| 
     2216 0000008d 0e350000         pop             ST                      
     2217 0000008e 6a00001a         bu        L78                   ; |366| 
     2218                   ;*      Branch Occurs to L78            ; |366| 
     2219 0000008f          L71:        
     2220                           .line   29
     2221                   ;----------------------------------------------------------------------
     2222                   ; 367 | default:        DIV_64; ps[0] = 64.0; break;                           
     2223                   ; 370 | else                                                                   
     2224                   ;----------------------------------------------------------------------
     2225 0000008f 0f350000         push    ST                      
     2226 00000090 03752000         andn    2000h, ST       
     2227 00000091 08700000-        ldp       @CL37,DP
     2228 00000092 50280027-        ldiu      @CL37,ar0             ; |367| 
     2229 00000093 506000c0         ldiu      192,r0                ; |367| 
     2230 00000094 25a0c000         or3       r0,*ar0,r0            ; |367| 
     2231 00000095 1540c000         sti       r0,*ar0               ; |367| 
     2232 00000096 0e350000         pop             ST                      
     2233 00000097 50480302         ldiu      *+fp(2),ar0           ; |367| 
     2234 00000098 40606000         ldfu      6.4000000000e+01,f0   ; |367| 
     2235 00000099 1440c000         stf       f0,*ar0               ; |367| 
     2236 0000009a 6a00000e         bu        L78                   ; |367| 
     2237                   ;*      Branch Occurs to L78            ; |367| 
     2238 0000009b          L73:        
     2239                           .line   25
     2240 0000009b 50400307         ldiu      *+fp(7),r0            ; |363| 
     2241 0000009c 04e00080         cmpi      128,r0                ; |363| 
     2242 0000009d 6a05ffe5         beq       L70                   ; |363| 
     2243                   ;*      Branch Occurs to L70            ; |363| 
     2244 0000009e 04e00100         cmpi      256,r0                ; |363| 
     2245 0000009f 6a05ffda         beq       L69                   ; |363| 
     2246                   ;*      Branch Occurs to L69            ; |363| 
     2247 000000a0 6a00ffee         bu        L71                   ; |363| 
     2248                   ;*      Branch Occurs to L71            ; |363| 
     2249 000000a1          L77:        
     2250                           .line   34
     2251                   ;----------------------------------------------------------------------
     2252                   ; 372 | val   = 1.0;                                                           
     2253                   ;----------------------------------------------------------------------
     2254 000000a1 40600000         ldfu      1.0000000000e+00,f0   ; |372| 
     2255 000000a2 14400306         stf       f0,*+fp(6)            ; |372| 
     2256                           .line   35
     2257                   ;----------------------------------------------------------------------
     2258                   ; 373 | gt[0] = val;                                                           
     2259                   ;----------------------------------------------------------------------
     2260 000000a3 50480301         ldiu      *+fp(1),ar0           ; |373| 
     2261 000000a4 1440c000         stf       f0,*ar0               ; |373| 
     2262                           .line   36
     2263                   ;----------------------------------------------------------------------
     2264                   ; 374 | ps[0] = 256.0;                                                         
     2265                   ;----------------------------------------------------------------------
     2266 000000a5 08700000-        ldp       @CL38,DP
     2267 000000a6 50480302         ldiu      *+fp(2),ar0           ; |374| 
     2268 000000a7 40200028-        ldfu      @CL38,f0              ; |374| 
TMS320C3x/4x COFF AssemblerVersion 5.12     Thu Apr 21 09:27:38 2022
Copyright (c) 1987-1999 Texas Instruments Incorporatedasm30.exe -@_4A4.AAB 

Y:\workspace_eea\V615\APP\SOURCE\ASM\timer.asm                       PAGE   43

     2269 000000a8 1440c000         stf       f0,*ar0               ; |374| 
     2270 000000a9          L78:        
     2271                           .line   39
     2272                   ;----------------------------------------------------------------------
     2273                   ; 377 | if (aux_in)                                                            
     2274                   ;----------------------------------------------------------------------
     2275 000000a9 50400304         ldiu      *+fp(4),r0            ; |377| 
     2276 000000aa 04e00000         cmpi      0,r0                  ; |377| 
     2277 000000ab 6a05000d         beq       L80                   ; |377| 
     2278                   ;*      Branch Occurs to L80            ; |377| 
     2279                           .line   41
     2280                   ;----------------------------------------------------------------------
     2281                   ; 379 | DIO_AUX_FREQ_MODE = TRUE;                                              
     2282                   ;----------------------------------------------------------------------
     2283 000000ac 08700000-        ldp       @CL39,DP
     2284 000000ad 50280029-        ldiu      @CL39,ar0             ; |379| 
     2285 000000ae 50600001         ldiu      1,r0                  ; |379| 
     2286 000000af 1540c000         sti       r0,*ar0               ; |379| 
     2287                           .line   42
     2288                   ;----------------------------------------------------------------------
     2289                   ; 380 | DISABLE_FREQUENCY;                                                     
     2290                   ; 382 | else                                                                   
     2291                   ;----------------------------------------------------------------------
     2292 000000b0 0f350000         push    ST                      
     2293 000000b1 03752000         andn    2000h, ST       
     2294 000000b2 08700000-        ldp       @CL40,DP
     2295 000000b3 5028002a-        ldiu      @CL40,ar0             ; |380| 
     2296 000000b4 506000fe         ldiu      254,r0                ; |380| 
     2297 000000b5 21a0c000         and3      r0,*ar0,r0            ; |380| 
     2298 000000b6 1540c000         sti       r0,*ar0               ; |380| 
     2299 000000b7 0e350000         pop             ST                      
     2300 000000b8 6a00000c         bu        L81                   ; |338| 
     2301                   ;*      Branch Occurs to L81            ; |338| 
     2302 000000b9          L80:        
     2303                           .line   46
     2304                   ;----------------------------------------------------------------------
     2305                   ; 384 | DIO_AUX_FREQ_MODE = FALSE;                                             
     2306                   ;----------------------------------------------------------------------
     2307 000000b9 08700000-        ldp       @CL39,DP
     2308 000000ba 50280029-        ldiu      @CL39,ar0             ; |384| 
     2309 000000bb 50600000         ldiu      0,r0                  ; |384| 
     2310 000000bc 1540c000         sti       r0,*ar0               ; |384| 
     2311                           .line   47
     2312                   ;----------------------------------------------------------------------
     2313                   ; 385 | ENABLE_FREQUENCY;                                                      
     2314                   ;----------------------------------------------------------------------
     2315 000000bd 0f350000         push    ST                      
     2316 000000be 03752000         andn    2000h, ST       
     2317 000000bf 08700000-        ldp       @CL40,DP
     2318 000000c0 5028002a-        ldiu      @CL40,ar0             ; |385| 
     2319 000000c1 50600001         ldiu      1,r0                  ; |385| 
     2320 000000c2 25a0c000         or3       r0,*ar0,r0            ; |385| 
     2321 000000c3 1540c000         sti       r0,*ar0               ; |385| 
     2322 000000c4 0e350000         pop             ST                      
TMS320C3x/4x COFF AssemblerVersion 5.12     Thu Apr 21 09:27:38 2022
Copyright (c) 1987-1999 Texas Instruments Incorporatedasm30.exe -@_4A4.AAB 

Y:\workspace_eea\V615\APP\SOURCE\ASM\timer.asm                       PAGE   44

     2323 000000c5          L81:        
     2324                           .line   50
     2325                   ;----------------------------------------------------------------------
     2326                   ; 388 | if (enabled)                                                           
     2327                   ;----------------------------------------------------------------------
     2328 000000c5 50400303         ldiu      *+fp(3),r0            ; |388| 
     2329 000000c6 04e00000         cmpi      0,r0                  ; |388| 
     2330 000000c7 6a050013         beq       L83                   ; |388| 
     2331                   ;*      Branch Occurs to L83            ; |388| 
     2332                           .line   52
     2333                   ;----------------------------------------------------------------------
     2334                   ; 390 | ENABLE_GATE;                                                           
     2335                   ;----------------------------------------------------------------------
     2336 000000c8 0f350000         push    ST                      
     2337 000000c9 03752000         andn    2000h, ST       
     2338 000000ca 08700000-        ldp       @CL40,DP
     2339 000000cb 5028002a-        ldiu      @CL40,ar0             ; |390| 
     2340 000000cc 50600002         ldiu      2,r0                  ; |390| 
     2341 000000cd 25a0c000         or3       r0,*ar0,r0            ; |390| 
     2342 000000ce 1540c000         sti       r0,*ar0               ; |390| 
     2343 000000cf 0e350000         pop             ST                      
     2344                           .line   53
     2345                   ;----------------------------------------------------------------------
     2346                   ; 391 | ENABLE_EXTINT3;                                                        
     2347                   ;----------------------------------------------------------------------
     2348 000000d0 0f350000         push    ST                      
     2349 000000d1 03752000         andn    2000h, ST       
     2350 000000d2 08700000-        ldp       @CL41,DP
     2351 000000d3 5028002b-        ldiu      @CL41,ar0             ; |391| 
     2352 000000d4 50600008         ldiu      8,r0                  ; |391| 
     2353 000000d5 25a0c000         or3       r0,*ar0,r0            ; |391| 
     2354 000000d6 1540c000         sti       r0,*ar0               ; |391| 
     2355 000000d7 0e350000         pop             ST                      
     2356                           .line   54
     2357                   ;----------------------------------------------------------------------
     2358                   ; 392 | ENABLE_INT3;                                                           
     2359                   ;----------------------------------------------------------------------
     2360 000000d8 10760008         or              0008h, IE
     2361                           .line   55
     2362                   ;----------------------------------------------------------------------
     2363                   ; 393 | CLEAR_INT3;                                                            
     2364                   ; 395 | else                                                                   
     2365                   ;----------------------------------------------------------------------
     2366 000000d9 03770008         andn    0008h, IF
     2367 000000da 6a000012         bu        L84                   ; |338| 
     2368                   ;*      Branch Occurs to L84            ; |338| 
     2369 000000db          L83:        
     2370                           .line   59
     2371                   ;----------------------------------------------------------------------
     2372                   ; 397 | DISABLE_GATE;                                                          
     2373                   ;----------------------------------------------------------------------
     2374 000000db 0f350000         push    ST                      
     2375 000000dc 03752000         andn    2000h, ST       
     2376 000000dd 08700000-        ldp       @CL40,DP
TMS320C3x/4x COFF AssemblerVersion 5.12     Thu Apr 21 09:27:38 2022
Copyright (c) 1987-1999 Texas Instruments Incorporatedasm30.exe -@_4A4.AAB 

Y:\workspace_eea\V615\APP\SOURCE\ASM\timer.asm                       PAGE   45

     2377 000000de 5028002a-        ldiu      @CL40,ar0             ; |397| 
     2378 000000df 506000fd         ldiu      253,r0                ; |397| 
     2379 000000e0 21a0c000         and3      r0,*ar0,r0            ; |397| 
     2380 000000e1 1540c000         sti       r0,*ar0               ; |397| 
     2381 000000e2 0e350000         pop             ST                      
     2382                           .line   60
     2383                   ;----------------------------------------------------------------------
     2384                   ; 398 | DISABLE_EXTINT3;                                                       
     2385                   ;----------------------------------------------------------------------
     2386 000000e3 0f350000         push    ST                      
     2387 000000e4 03752000         andn    2000h, ST       
     2388 000000e5 08700000-        ldp       @CL41,DP
     2389 000000e6 5028002b-        ldiu      @CL41,ar0             ; |398| 
     2390 000000e7 506000f7         ldiu      247,r0                ; |398| 
     2391 000000e8 21a0c000         and3      r0,*ar0,r0            ; |398| 
     2392 000000e9 1540c000         sti       r0,*ar0               ; |398| 
     2393 000000ea 0e350000         pop             ST                      
     2394                           .line   61
     2395                   ;----------------------------------------------------------------------
     2396                   ; 399 | DISABLE_INT3;                                                          
     2397                   ;----------------------------------------------------------------------
     2398 000000eb 03760008         andn    0008h, IE
     2399                           .line   62
     2400                   ;----------------------------------------------------------------------
     2401                   ; 400 | CLEAR_INT3;                                                            
     2402                   ;----------------------------------------------------------------------
     2403 000000ec 03770008         andn    0008h, IF
     2404 000000ed          L84:        
     2405                           .line   65
     2406                   ;----------------------------------------------------------------------
     2407                   ; 403 | GATE_TIMEOUT = FALSE;                                                  
     2408                   ;----------------------------------------------------------------------
     2409 000000ed 08700000-        ldp       @CL42,DP
     2410 000000ee 5028002c-        ldiu      @CL42,ar0             ; |403| 
     2411 000000ef 50600000         ldiu      0,r0                  ; |403| 
     2412 000000f0 1540c000         sti       r0,*ar0               ; |403| 
     2413                           .line   67
     2414                   ;----------------------------------------------------------------------
     2415                   ; 405 | GIEP;                                                                  
     2416                   ;----------------------------------------------------------------------
     2417 000000f1 0e350000         pop             ST                      
     2418                           .line   68
     2419                                                           ; Begin Epilog Code
     2420 000000f2 50410b01         ldiu      *-fp(1),r1
     2421 000000f3 504bc300         ldiu      *fp,fp
     2422                                                           ; Unallocate the Frame
     2423 000000f4 18740009         subi      9,sp
     2424 000000f5 68000001         bu        r1
     2425                   ;*      Branch Occurs to r1 
     2426                           .endfunc        406,000000000h,7
     2427                   
     2428                   
     2429 000000f6                  .sect    ".text"
     2430                   
TMS320C3x/4x COFF AssemblerVersion 5.12     Thu Apr 21 09:27:38 2022
Copyright (c) 1987-1999 Texas Instruments Incorporatedasm30.exe -@_4A4.AAB 

Y:\workspace_eea\V615\APP\SOURCE\ASM\timer.asm                       PAGE   46

     2431                           .global _GET_TIME
     2432                           .sym    _GET_TIME,_GET_TIME,32,2,0
     2433                           .func   420
     2434                   ;******************************************************************************
     2435                   ;* FUNCTION NAME: _GET_TIME                                                   *
     2436                   ;*                                                                            *
     2437                   ;*   Architecture       : TMS320C33                                           *
     2438                   ;*   Calling Convention : TI Standard Register Parameters                     *
     2439                   ;*   Function Uses Regs : r0,r1,r2,ar0,ar2                                    *
     2440                   ;*   Regs Saved         :                                                     *
     2441                   ;*   Stack Frame        : Full (w/ debug)                                     *
     2442                   ;*   Total Frame Size   : 2 Call + 0 Parm + 2 Auto + 0 SOE = 4 words          *
     2443                   ;******************************************************************************
     2444 000000f6          _GET_TIME:
     2445                   ;* ar2   assigned to _p
     2446                           .sym    _p,10,24,17,32,_tm
     2447                           .sym    _p,1,24,1,32,_tm
     2448                           .sym    _t,2,4,1,32
     2449                           .line   1
     2450                   ;----------------------------------------------------------------------
     2451                   ; 420 | void GET_TIME(struct tm *p)                                            
     2452                   ;----------------------------------------------------------------------
     2453 000000f6 0f2b0000         push      fp
     2454 000000f7 500b0014         ldiu      sp,fp
     2455 000000f8 02740002         addi      2,sp
     2456                           .line   2
     2457                   ;----------------------------------------------------------------------
     2458                   ; 422 | int t;  /* temp variable */                                            
     2459                   ;----------------------------------------------------------------------
     2460 000000f9 154a0301         sti       ar2,*+fp(1)           ; |421| 
     2461                           .line   5
     2462                   ;----------------------------------------------------------------------
     2463                   ; 424 | _GIEP;                                                                 
     2464                   ;----------------------------------------------------------------------
     2465 000000fa 0f350000         push    ST                      
     2466 000000fb 03752000         andn    2000h, ST       
     2467                           .line   6
     2468                   ;----------------------------------------------------------------------
     2469                   ; 425 | t                       = RTC[4] & 0x3F;                               
     2470                   ;----------------------------------------------------------------------
     2471 000000fc 08700000-        ldp       @CL43,DP
     2472 000000fd 5028002d-        ldiu      @CL43,ar0             ; |425| 
     2473 000000fe 5060003f         ldiu      63,r0                 ; |425| 
     2474 000000ff 21a0c000         and3      r0,*ar0,r0            ; |425| 
     2475 00000100 15400302         sti       r0,*+fp(2)            ; |425| 
     2476                           .line   7
     2477                   ;----------------------------------------------------------------------
     2478                   ; 426 | p->tm_hour      = (t&0x0F) + 10*((t>>4)&0x0F);                         
     2479                   ;----------------------------------------------------------------------
     2480 00000101 5061000f         ldiu      15,r1                 ; |426| 
     2481 00000102 5008000a         ldiu      ar2,ar0               ; |426| 
     2482 00000103 03e0fffc         ash       -4,r0                 ; |426| 
     2483 00000104 02e0000f         and       15,r0                 ; |426| 
     2484 00000105 50020000         ldiu      r0,r2                 ; |426| 
TMS320C3x/4x COFF AssemblerVersion 5.12     Thu Apr 21 09:27:38 2022
Copyright (c) 1987-1999 Texas Instruments Incorporatedasm30.exe -@_4A4.AAB 

Y:\workspace_eea\V615\APP\SOURCE\ASM\timer.asm                       PAGE   47

     2485 00000106 02c10302         and       *+fp(2),r1            ; |426| 
     2486 00000107 03e20003         ash       3,r2                  ; |426| 
     2487 00000108 03e00001         ash       1,r0                  ; |426| 
     2488 00000109 21000200         addi3     r0,r2,r0              ; |426| 
     2489 0000010a 21000100         addi3     r0,r1,r0              ; |426| 
     2490 0000010b 15400002         sti       r0,*+ar0(2)           ; |426| 
     2491                           .line   8
     2492                   ;----------------------------------------------------------------------
     2493                   ; 427 | t                       = RTC[3] & 0x7F;                               
     2494                   ;----------------------------------------------------------------------
     2495 0000010c 08700000-        ldp       @CL44,DP
     2496 0000010d 5028002e-        ldiu      @CL44,ar0             ; |427| 
     2497 0000010e 5060007f         ldiu      127,r0                ; |427| 
     2498 0000010f 21a0c000         and3      r0,*ar0,r0            ; |427| 
     2499 00000110 15400302         sti       r0,*+fp(2)            ; |427| 
     2500                           .line   9
     2501                   ;----------------------------------------------------------------------
     2502                   ; 428 | p->tm_min       = (t&0x0F) + 10*((t>>4)&0x0F);                         
     2503                   ;----------------------------------------------------------------------
     2504 00000111 03e0fffc         ash       -4,r0                 ; |428| 
     2505 00000112 50480301         ldiu      *+fp(1),ar0           ; |428| 
     2506 00000113 5062000f         ldiu      15,r2                 ; |428| 
     2507 00000114 02e0000f         and       15,r0                 ; |428| 
     2508 00000115 50010000         ldiu      r0,r1                 ; |428| 
     2509 00000116 03e00001         ash       1,r0                  ; |428| 
     2510 00000117 03e10003         ash       3,r1                  ; |428| 
     2511 00000118 21000100         addi3     r0,r1,r0              ; |428| 
     2512 00000119 02c20302         and       *+fp(2),r2            ; |428| 
     2513 0000011a 21000200         addi3     r0,r2,r0              ; |428| 
     2514 0000011b 15400001         sti       r0,*+ar0(1)           ; |428| 
     2515                           .line   10
     2516                   ;----------------------------------------------------------------------
     2517                   ; 429 | t                       = RTC[2] & 0x7F;                               
     2518                   ;----------------------------------------------------------------------
     2519 0000011c 08700000-        ldp       @CL45,DP
     2520 0000011d 5028002f-        ldiu      @CL45,ar0             ; |429| 
     2521 0000011e 5060007f         ldiu      127,r0                ; |429| 
     2522 0000011f 21a0c000         and3      r0,*ar0,r0            ; |429| 
     2523 00000120 15400302         sti       r0,*+fp(2)            ; |429| 
     2524                           .line   11
     2525                   ;----------------------------------------------------------------------
     2526                   ; 430 | p->tm_sec       = (t&0x0F) + 10*((t>>4)&0x0F);                         
     2527                   ;----------------------------------------------------------------------
     2528 00000121 50020000         ldiu      r0,r2
     2529 00000122 5060000f         ldiu      15,r0                 ; |430| 
     2530 00000123 03e2fffc         ash       -4,r2                 ; |430| 
     2531 00000124 50480301         ldiu      *+fp(1),ar0           ; |430| 
     2532 00000125 02e2000f         and       15,r2                 ; |430| 
     2533 00000126 50010002         ldiu      r2,r1                 ; |430| 
     2534 00000127 03e20001         ash       1,r2                  ; |430| 
     2535 00000128 03e10003         ash       3,r1                  ; |430| 
     2536 00000129 02c00302         and       *+fp(2),r0            ; |430| 
     2537 0000012a 21010102         addi3     r2,r1,r1              ; |430| 
     2538 0000012b 21000001         addi3     r1,r0,r0              ; |430| 
TMS320C3x/4x COFF AssemblerVersion 5.12     Thu Apr 21 09:27:38 2022
Copyright (c) 1987-1999 Texas Instruments Incorporatedasm30.exe -@_4A4.AAB 

Y:\workspace_eea\V615\APP\SOURCE\ASM\timer.asm                       PAGE   48

     2539 0000012c 1540c000         sti       r0,*ar0               ; |430| 
     2540                           .line   12
     2541                   ;----------------------------------------------------------------------
     2542                   ; 431 | t                       = RTC[7] & 0x1F;                               
     2543                   ;----------------------------------------------------------------------
     2544 0000012d 08700000-        ldp       @CL46,DP
     2545 0000012e 50280030-        ldiu      @CL46,ar0             ; |431| 
     2546 0000012f 5060001f         ldiu      31,r0                 ; |431| 
     2547 00000130 21a0c000         and3      r0,*ar0,r0            ; |431| 
     2548 00000131 15400302         sti       r0,*+fp(2)            ; |431| 
     2549                           .line   13
     2550                   ;----------------------------------------------------------------------
     2551                   ; 432 | p->tm_mon       = (t&0x0F) + 10*((t>>4)&0x0F);                         
     2552                   ;----------------------------------------------------------------------
     2553 00000132 5062000f         ldiu      15,r2                 ; |432| 
     2554 00000133 03e0fffc         ash       -4,r0                 ; |432| 
     2555 00000134 02e0000f         and       15,r0                 ; |432| 
     2556 00000135 50480301         ldiu      *+fp(1),ar0           ; |432| 
     2557 00000136 50010000         ldiu      r0,r1                 ; |432| 
     2558 00000137 03e10003         ash       3,r1                  ; |432| 
     2559 00000138 03e00001         ash       1,r0                  ; |432| 
     2560 00000139 02c20302         and       *+fp(2),r2            ; |432| 
     2561 0000013a 21000100         addi3     r0,r1,r0              ; |432| 
     2562 0000013b 21000200         addi3     r0,r2,r0              ; |432| 
     2563 0000013c 15400004         sti       r0,*+ar0(4)           ; |432| 
     2564                           .line   14
     2565                   ;----------------------------------------------------------------------
     2566                   ; 433 | t                       = RTC[6] & 0x3F;                               
     2567                   ;----------------------------------------------------------------------
     2568 0000013d 08700000-        ldp       @CL47,DP
     2569 0000013e 50280031-        ldiu      @CL47,ar0             ; |433| 
     2570 0000013f 5060003f         ldiu      63,r0                 ; |433| 
     2571 00000140 21a0c000         and3      r0,*ar0,r0            ; |433| 
     2572 00000141 15400302         sti       r0,*+fp(2)            ; |433| 
     2573                           .line   15
     2574                   ;----------------------------------------------------------------------
     2575                   ; 434 | p->tm_mday      = (t&0x0F) + 10*((t>>4)&0x0F);                         
     2576                   ;----------------------------------------------------------------------
     2577 00000142 03e0fffc         ash       -4,r0                 ; |434| 
     2578 00000143 5062000f         ldiu      15,r2                 ; |434| 
     2579 00000144 02e0000f         and       15,r0                 ; |434| 
     2580 00000145 50010000         ldiu      r0,r1                 ; |434| 
     2581 00000146 03e10003         ash       3,r1                  ; |434| 
     2582 00000147 03e00001         ash       1,r0                  ; |434| 
     2583 00000148 02c20302         and       *+fp(2),r2            ; |434| 
     2584 00000149 21000100         addi3     r0,r1,r0              ; |434| 
     2585 0000014a 50480301         ldiu      *+fp(1),ar0           ; |434| 
     2586 0000014b 21000200         addi3     r0,r2,r0              ; |434| 
     2587 0000014c 15400003         sti       r0,*+ar0(3)           ; |434| 
     2588                           .line   16
     2589                   ;----------------------------------------------------------------------
     2590                   ; 435 | t                       = RTC[8] & 0xFF;                               
     2591                   ;----------------------------------------------------------------------
     2592 0000014d 08700000-        ldp       @CL48,DP
TMS320C3x/4x COFF AssemblerVersion 5.12     Thu Apr 21 09:27:38 2022
Copyright (c) 1987-1999 Texas Instruments Incorporatedasm30.exe -@_4A4.AAB 

Y:\workspace_eea\V615\APP\SOURCE\ASM\timer.asm                       PAGE   49

     2593 0000014e 50280032-        ldiu      @CL48,ar0             ; |435| 
     2594 0000014f 506000ff         ldiu      255,r0                ; |435| 
     2595 00000150 21a0c000         and3      r0,*ar0,r0            ; |435| 
     2596 00000151 15400302         sti       r0,*+fp(2)            ; |435| 
     2597                           .line   17
     2598                   ;----------------------------------------------------------------------
     2599                   ; 436 | p->tm_year      = (t&0x0F) + 10*((t>>4)&0x0F);                         
     2600                   ;----------------------------------------------------------------------
     2601 00000152 03e0fffc         ash       -4,r0                 ; |436| 
     2602 00000153 02e0000f         and       15,r0                 ; |436| 
     2603 00000154 5061000f         ldiu      15,r1                 ; |436| 
     2604 00000155 50020000         ldiu      r0,r2                 ; |436| 
     2605 00000156 03e00003         ash       3,r0                  ; |436| 
     2606 00000157 50480301         ldiu      *+fp(1),ar0           ; |436| 
     2607 00000158 03e20001         ash       1,r2                  ; |436| 
     2608 00000159 21000002         addi3     r2,r0,r0              ; |436| 
     2609 0000015a 02c10302         and       *+fp(2),r1            ; |436| 
     2610 0000015b 21000100         addi3     r0,r1,r0              ; |436| 
     2611 0000015c 15400005         sti       r0,*+ar0(5)           ; |436| 
     2612                           .line   18
     2613                   ;----------------------------------------------------------------------
     2614                   ; 437 | t                       = RTC[5] & 0x03;                               
     2615                   ;----------------------------------------------------------------------
     2616 0000015d 08700000-        ldp       @CL49,DP
     2617 0000015e 50280033-        ldiu      @CL49,ar0             ; |437| 
     2618 0000015f 50600003         ldiu      3,r0                  ; |437| 
     2619 00000160 21a0c000         and3      r0,*ar0,r0            ; |437| 
     2620 00000161 15400302         sti       r0,*+fp(2)            ; |437| 
     2621                           .line   19
     2622                   ;----------------------------------------------------------------------
     2623                   ; 438 | p->tm_wday      = (t&0x0F) + 10*((t>>4)&0x0F);                         
     2624                   ;----------------------------------------------------------------------
     2625 00000162 50010000         ldiu      r0,r1
     2626 00000163 03e1fffc         ash       -4,r1                 ; |438| 
     2627 00000164 02e1000f         and       15,r1                 ; |438| 
     2628 00000165 50020001         ldiu      r1,r2                 ; |438| 
     2629 00000166 5060000f         ldiu      15,r0                 ; |438| 
     2630 00000167 03e10003         ash       3,r1                  ; |438| 
     2631 00000168 03e20001         ash       1,r2                  ; |438| 
     2632 00000169 21010102         addi3     r2,r1,r1              ; |438| 
     2633 0000016a 02c00302         and       *+fp(2),r0            ; |438| 
     2634 0000016b 50480301         ldiu      *+fp(1),ar0           ; |438| 
     2635 0000016c 21000001         addi3     r1,r0,r0              ; |438| 
     2636 0000016d 15400006         sti       r0,*+ar0(6)           ; |438| 
     2637                           .line   20
     2638                   ;----------------------------------------------------------------------
     2639                   ; 439 | GIEP;                                                                  
     2640                   ;----------------------------------------------------------------------
     2641 0000016e 0e350000         pop             ST                      
     2642                           .line   21
     2643                                                           ; Begin Epilog Code
     2644 0000016f 50410b01         ldiu      *-fp(1),r1
     2645 00000170 504bc300         ldiu      *fp,fp
     2646                                                           ; Unallocate the Frame
TMS320C3x/4x COFF AssemblerVersion 5.12     Thu Apr 21 09:27:38 2022
Copyright (c) 1987-1999 Texas Instruments Incorporatedasm30.exe -@_4A4.AAB 

Y:\workspace_eea\V615\APP\SOURCE\ASM\timer.asm                       PAGE   50

     2647 00000171 18740004         subi      4,sp
     2648 00000172 68000001         bu        r1
     2649                   ;*      Branch Occurs to r1 
     2650                           .endfunc        440,000000000h,2
     2651                   
     2652                   
     2653 00000173                  .sect    ".text"
     2654                   
     2655                           .global _CLEAR_TIME
     2656                           .sym    _CLEAR_TIME,_CLEAR_TIME,32,2,0
     2657                           .func   454
     2658                   ;******************************************************************************
     2659                   ;* FUNCTION NAME: _CLEAR_TIME                                                 *
     2660                   ;*                                                                            *
     2661                   ;*   Architecture       : TMS320C33                                           *
     2662                   ;*   Calling Convention : TI Standard Register Parameters                     *
     2663                   ;*   Function Uses Regs : r0,ar0,ar2                                          *
     2664                   ;*   Regs Saved         :                                                     *
     2665                   ;*   Stack Frame        : Full (w/ debug)                                     *
     2666                   ;*   Total Frame Size   : 2 Call + 0 Parm + 1 Auto + 0 SOE = 3 words          *
     2667                   ;******************************************************************************
     2668 00000173          _CLEAR_TIME:
     2669                   ;* ar2   assigned to _p
     2670                           .sym    _p,10,24,17,32,_tm
     2671                           .sym    _p,1,24,1,32,_tm
     2672                           .line   1
     2673                   ;----------------------------------------------------------------------
     2674                   ; 454 | void CLEAR_TIME(struct tm *p)                                          
     2675                   ;----------------------------------------------------------------------
     2676 00000173 0f2b0000         push      fp
     2677 00000174 500b0014         ldiu      sp,fp
     2678 00000175 02740001         addi      1,sp
     2679                           .line   2
     2680 00000176 154a0301         sti       ar2,*+fp(1)           ; |455| 
     2681                           .line   3
     2682                   ;----------------------------------------------------------------------
     2683                   ; 456 | p->tm_sec       = 0;            /* seconds after the minute   - [0,59]
     2684                   ;     |  */                                                                    
     2685                   ;----------------------------------------------------------------------
     2686 00000177 5008000a         ldiu      ar2,ar0
     2687 00000178 50600000         ldiu      0,r0                  ; |456| 
     2688 00000179 1540c000         sti       r0,*ar0               ; |456| 
     2689                           .line   4
     2690                   ;----------------------------------------------------------------------
     2691                   ; 457 | p->tm_min       = 0;            /* minutes after the hour     - [0,59]
     2692                   ;     |  */                                                                    
     2693                   ;----------------------------------------------------------------------
     2694 0000017a 50480301         ldiu      *+fp(1),ar0           ; |457| 
     2695 0000017b 15400001         sti       r0,*+ar0(1)           ; |457| 
     2696                           .line   5
     2697                   ;----------------------------------------------------------------------
     2698                   ; 458 | p->tm_hour      = 0;            /* hours after the midnight   - [0,23]
     2699                   ;     |  */                                                                    
     2700                   ;----------------------------------------------------------------------
TMS320C3x/4x COFF AssemblerVersion 5.12     Thu Apr 21 09:27:38 2022
Copyright (c) 1987-1999 Texas Instruments Incorporatedasm30.exe -@_4A4.AAB 

Y:\workspace_eea\V615\APP\SOURCE\ASM\timer.asm                       PAGE   51

     2701 0000017c 50480301         ldiu      *+fp(1),ar0           ; |458| 
     2702 0000017d 15400002         sti       r0,*+ar0(2)           ; |458| 
     2703                           .line   6
     2704                   ;----------------------------------------------------------------------
     2705                   ; 459 | p->tm_mday      = 0;            /* day of the month           - [1,31]
     2706                   ;     |  */                                                                    
     2707                   ;----------------------------------------------------------------------
     2708 0000017e 50480301         ldiu      *+fp(1),ar0           ; |459| 
     2709 0000017f 15400003         sti       r0,*+ar0(3)           ; |459| 
     2710                           .line   7
     2711                   ;----------------------------------------------------------------------
     2712                   ; 460 | p->tm_mon       = 0;            /* months since January       - [0,11]
     2713                   ;     |  */                                                                    
     2714                   ;----------------------------------------------------------------------
     2715 00000180 50480301         ldiu      *+fp(1),ar0           ; |460| 
     2716 00000181 15400004         sti       r0,*+ar0(4)           ; |460| 
     2717                           .line   8
     2718                   ;----------------------------------------------------------------------
     2719                   ; 461 | p->tm_year      = 0;            /* years since 1900
     2720                   ;     |  */                                                                    
     2721                   ;----------------------------------------------------------------------
     2722 00000182 50480301         ldiu      *+fp(1),ar0           ; |461| 
     2723 00000183 15400005         sti       r0,*+ar0(5)           ; |461| 
     2724                           .line   9
     2725                   ;----------------------------------------------------------------------
     2726                   ; 462 | p->tm_wday      = 0;            /* days since Sunday          - [0,6]
     2727                   ;     |  */                                                                    
     2728                   ;----------------------------------------------------------------------
     2729 00000184 50480301         ldiu      *+fp(1),ar0           ; |462| 
     2730 00000185 15400006         sti       r0,*+ar0(6)           ; |462| 
     2731                           .line   10
     2732                   ;----------------------------------------------------------------------
     2733                   ; 463 | p->tm_yday      = 0;            /* days since Jan 1st         - [0,365]
     2734                   ;     |  */                                                                    
     2735                   ;----------------------------------------------------------------------
     2736 00000186 50480301         ldiu      *+fp(1),ar0           ; |463| 
     2737 00000187 15400007         sti       r0,*+ar0(7)           ; |463| 
     2738                           .line   11
     2739                   ;----------------------------------------------------------------------
     2740                   ; 464 | p->tm_isdst = 0;                /* Daylight Savings Time flag
     2741                   ;     |  */                                                                    
     2742                   ;----------------------------------------------------------------------
     2743 00000188 50480301         ldiu      *+fp(1),ar0           ; |464| 
     2744 00000189 15400008         sti       r0,*+ar0(8)           ; |464| 
     2745                           .line   12
     2746                                                           ; Begin Epilog Code
     2747 0000018a 50410b01         ldiu      *-fp(1),r1
     2748 0000018b 504bc300         ldiu      *fp,fp
     2749                                                           ; Unallocate the Frame
     2750 0000018c 18740003         subi      3,sp
     2751 0000018d 68000001         bu        r1
     2752                   ;*      Branch Occurs to r1 
     2753                           .endfunc        465,000000000h,1
     2754                   
TMS320C3x/4x COFF AssemblerVersion 5.12     Thu Apr 21 09:27:38 2022
Copyright (c) 1987-1999 Texas Instruments Incorporatedasm30.exe -@_4A4.AAB 

Y:\workspace_eea\V615\APP\SOURCE\ASM\timer.asm                       PAGE   52

     2755                   
     2756                   
     2757                           .global _vect_tm
     2758 00000000          _vect_tm:       .usect  "internal_RAM",1,1
     2759                           .sym    _vect_tm,_vect_tm,20,2,32
     2760                   
     2761                           .global _vect_pt0
     2762 00000001          _vect_pt0:      .usect  "internal_RAM",1,1
     2763                           .sym    _vect_pt0,_vect_pt0,20,2,32
     2764                   
     2765                           .global _vect_pt1
     2766 00000002          _vect_pt1:      .usect  "internal_RAM",1,1
     2767                           .sym    _vect_pt1,_vect_pt1,20,2,32
     2768                   
     2769                           .global _vect_pt2
     2770 00000003          _vect_pt2:      .usect  "internal_RAM",1,1
     2771                           .sym    _vect_pt2,_vect_pt2,20,2,32
     2772                   
     2773                           .global _vect_pt3
     2774 00000004          _vect_pt3:      .usect  "internal_RAM",1,1
     2775                           .sym    _vect_pt3,_vect_pt3,20,2,32
     2776                   
     2777                           .global _vect_pt4
     2778 00000005          _vect_pt4:      .usect  "internal_RAM",1,1
     2779                           .sym    _vect_pt4,_vect_pt4,20,2,32
     2780                   
     2781                           .global _vect_pt5
     2782 00000006          _vect_pt5:      .usect  "internal_RAM",1,1
     2783                           .sym    _vect_pt5,_vect_pt5,20,2,32
     2784                   
     2785                           .global _vect_pt6
     2786 00000007          _vect_pt6:      .usect  "internal_RAM",1,1
     2787                           .sym    _vect_pt6,_vect_pt6,20,2,32
     2788                   
     2789                           .global _vect_pt7
     2790 00000008          _vect_pt7:      .usect  "internal_RAM",1,1
     2791                           .sym    _vect_pt7,_vect_pt7,20,2,32
     2792                   
     2793                           .global _TIMER0_COUNTER
     2794 00000009          _TIMER0_COUNTER:        .usect  "internal_RAM",1,1
     2795                           .sym    _TIMER0_COUNTER,_TIMER0_COUNTER,4,2,32
     2796                   
     2797                           .global _TIME0
     2798 00000000                  .bss    _TIME0,1
     2799                           .sym    _TIME0,_TIME0,6,2,32
     2800                   
     2801                           .global _TIME1
     2802 00000001                  .bss    _TIME1,1
     2803                           .sym    _TIME1,_TIME1,6,2,32
     2804                   
     2805                           .global _QUEUE_TMR
     2806 0000000a          _QUEUE_TMR:     .usect  "internal_RAM",400,1
     2807                           .sym    _QUEUE_TMR,_QUEUE_TMR,56,2,12800,.fake11,40
     2808                   
TMS320C3x/4x COFF AssemblerVersion 5.12     Thu Apr 21 09:27:38 2022
Copyright (c) 1987-1999 Texas Instruments Incorporatedasm30.exe -@_4A4.AAB 

Y:\workspace_eea\V615\APP\SOURCE\ASM\timer.asm                       PAGE   53

     2809                           .global _LIST_TMR_EMPTY
     2810 0000019a          _LIST_TMR_EMPTY:        .usect  "internal_RAM",3,1
     2811                           .sym    _LIST_TMR_EMPTY,_LIST_TMR_EMPTY,8,2,96,.fake4
     2812                   
     2813                           .global _GATE_TIMEOUT
     2814 00000002                  .bss    _GATE_TIMEOUT,1
     2815                           .sym    _GATE_TIMEOUT,_GATE_TIMEOUT,14,2,32
     2816                   
     2817                           .global _TIMER1_COUNTER
     2818 0000019d          _TIMER1_COUNTER:        .usect  "internal_RAM",9,1
     2819                           .sym    _TIMER1_COUNTER,_TIMER1_COUNTER,52,2,288,,9
     2820                   
     2821                           .global _LIST_TIMER0
     2822 000001a6          _LIST_TIMER0:   .usect  "internal_RAM",3,1
     2823                           .sym    _LIST_TIMER0,_LIST_TIMER0,8,2,96,.fake4
     2824                   ;******************************************************************************
     2825                   ;* CONSTANT TABLE                                                             *
     2826                   ;******************************************************************************
     2827 00000000                  .sect   ".const"
     2828 00000003                  .bss    CL1,1
     2829 00000004                  .bss    CL2,1
     2830 00000005                  .bss    CL3,1
     2831 00000006                  .bss    CL4,1
     2832 00000007                  .bss    CL5,1
     2833 00000008                  .bss    CL6,1
     2834 00000009                  .bss    CL7,1
     2835 0000000a                  .bss    CL8,1
     2836 0000000b                  .bss    CL9,1
     2837 0000000c                  .bss    CL10,1
     2838 0000000d                  .bss    CL11,1
     2839 0000000e                  .bss    CL12,1
     2840 0000000f                  .bss    CL13,1
     2841 00000010                  .bss    CL14,1
     2842 00000011                  .bss    CL15,1
     2843 00000012                  .bss    CL16,1
     2844 00000013                  .bss    CL17,1
     2845 00000014                  .bss    CL18,1
     2846 00000015                  .bss    CL19,1
     2847 00000016                  .bss    CL20,1
     2848 00000017                  .bss    CL21,1
     2849 00000018                  .bss    CL22,1
     2850 00000019                  .bss    CL23,1
     2851 0000001a                  .bss    CL24,1
     2852 0000001b                  .bss    CL25,1
     2853 0000001c                  .bss    CL26,1
     2854 0000001d                  .bss    CL27,1
     2855 0000001e                  .bss    CL28,1
     2856 0000001f                  .bss    CL29,1
     2857 00000020                  .bss    CL30,1
     2858 00000021                  .bss    CL31,1
     2859 00000022                  .bss    CL32,1
     2860 00000023                  .bss    CL33,1
     2861 00000024                  .bss    CL34,1
     2862 00000025                  .bss    CL35,1
TMS320C3x/4x COFF AssemblerVersion 5.12     Thu Apr 21 09:27:38 2022
Copyright (c) 1987-1999 Texas Instruments Incorporatedasm30.exe -@_4A4.AAB 

Y:\workspace_eea\V615\APP\SOURCE\ASM\timer.asm                       PAGE   54

     2863 00000026                  .bss    CL36,1
     2864 00000027                  .bss    CL37,1
     2865 00000028                  .bss    CL38,1
     2866 00000029                  .bss    CL39,1
     2867 0000002a                  .bss    CL40,1
     2868 0000002b                  .bss    CL41,1
     2869 0000002c                  .bss    CL42,1
     2870 0000002d                  .bss    CL43,1
     2871 0000002e                  .bss    CL44,1
     2872 0000002f                  .bss    CL45,1
     2873 00000030                  .bss    CL46,1
     2874 00000031                  .bss    CL47,1
     2875 00000032                  .bss    CL48,1
     2876 00000033                  .bss    CL49,1
     2877                   
     2878 00000000                  .sect   ".cinit"
     2879 00000000 00000031         .field          49,32
     2880 00000001 00000003-        .field          CL1+0,32
     2881 00000002 000001a6-        .field          _LIST_TIMER0,32
     2882 00000003 000000ee+        .field          _Timer_Remove,32
     2883 00000004 0000019a-        .field          _LIST_TMR_EMPTY,32
     2884 00000005 00000000!        .field          _List_Pop,32
     2885 00000006 00000000!        .field          _DIAGNOSTICS,32
     2886 00000007 00000000!        .field          _List_Remove,32
     2887 00000008 00000000!        .field          _List_Add,32
     2888 00000009 00000000-        .field          _TIME0,32
     2889 0000000a 00000000!        .field          _ceil,32
     2890 0000000b 00000000!        .field          _CLOCK,32
     2891 0000000c 20000000         .word           020000000H ; float   4.294967296000000e+09
     2892 0000000d ff000000         .word           0FF000000H ; double  5.000000000000000e-01
     2893 0000000e 00808020         .field          8421408,32
     2894 0000000f 00808028         .field          8421416,32
     2895 00000010 1f000000         .word           01F000000H ; float   2.147483648000000e+09
     2896 00000011 0a02e000         .word           00A02E000H ; double  1.047000000000000e+03
     2897 00000012 00000001-        .field          _TIME1,32
     2898 00000013 00000009-        .field          _TIMER0_COUNTER,32
     2899 00000014 00000000!        .field          _List_Init,32
     2900 00000015 0000000a-        .field          _QUEUE_TMR,32
     2901 00000016 0000000b-        .field          _QUEUE_TMR+1,32
     2902 00000017 0000000c-        .field          _QUEUE_TMR+2,32
     2903 00000018 0000000d-        .field          _QUEUE_TMR+3,32
     2904 00000019 0000000e-        .field          _QUEUE_TMR+4,32
     2905 0000001a 0000000f-        .field          _QUEUE_TMR+5,32
     2906 0000001b 00000010-        .field          _QUEUE_TMR+6,32
     2907 0000001c 00000011-        .field          _QUEUE_TMR+7,32
     2908 0000001d 00000012-        .field          _QUEUE_TMR+8,32
     2909 0000001e 0000019d-        .field          _TIMER1_COUNTER,32
     2910 0000001f 00000025!        .field          _PORT+37,32
     2911 00000020 00808030         .field          8421424,32
     2912 00000021 00808038         .field          8421432,32
     2913 00000022 3b9aca00         .field          1000000000,32
     2914 00000023 00000000!        .field          _SA,32
     2915 00000024 f9000000         .word           0F9000000H ; double  7.812500000000000e-03
     2916 00000025 00900011         .field          9437201,32
TMS320C3x/4x COFF AssemblerVersion 5.12     Thu Apr 21 09:27:38 2022
Copyright (c) 1987-1999 Texas Instruments Incorporatedasm30.exe -@_4A4.AAB 

Y:\workspace_eea\V615\APP\SOURCE\ASM\timer.asm                       PAGE   55

     2917 00000026 00900012         .field          9437202,32
     2918 00000027 08000000         .word           008000000H ; double  2.560000000000000e+02
     2919 00000028 00000000!        .field          _DIO_AUX_FREQ_MODE,32
     2920 00000029 00900004         .field          9437188,32
     2921 0000002a 00900006         .field          9437190,32
     2922 0000002b 00000002-        .field          _GATE_TIMEOUT,32
     2923 0000002c 00000004!        .field          _RTC+4,32
     2924 0000002d 00000003!        .field          _RTC+3,32
     2925 0000002e 00000002!        .field          _RTC+2,32
     2926 0000002f 00000007!        .field          _RTC+7,32
     2927 00000030 00000006!        .field          _RTC+6,32
     2928 00000031 00000008!        .field          _RTC+8,32
     2929 00000032 00000005!        .field          _RTC+5,32
     2930                   
     2931 0000018e                  .sect   ".text"
     2932                   ;******************************************************************************
     2933                   ;* UNDEFINED EXTERNAL REFERENCES                                              *
     2934                   ;******************************************************************************
     2935                   
     2936                           .global _ceil
     2937                   
     2938                           .global _List_Add
     2939                   
     2940                           .global _List_Remove
     2941                   
     2942                           .global _List_Pop
     2943                   
     2944                           .global _List_Init
     2945                   
     2946                           .global _RTC
     2947                   
     2948                           .global _DIAGNOSTICS
     2949                   
     2950                           .global _PORT
     2951                   
     2952                           .global _CLOCK
     2953                   
     2954                           .global _SA
     2955                   
     2956                           .global _DIO_AUX_FREQ_MODE
     2957                           .global DIV_F30

 No Errors,  No Warnings
TMS320C3x/4x COFF AssemblerVersion 5.12     Thu Apr 21 09:27:38 2022
Copyright (c) 1987-1999 Texas Instruments Incorporatedasm30.exe -@_4A4.AAB 

Y:\workspace_eea\V615\APP\SOURCE\ASM\timer.asm                       PAGE   56

LABEL                            VALUE       DEFN    REF

.BIGMODEL                        00000001       0 
.C30                             00000000       0 
.C30INTERRUPT                    00000000       0 
.C31                             00000000       0 
.C32                             00000000       0 
.C33                             00000001       0 
.C3X                             00000001       0 
.C3x                             00000001       0 
.C40                             00000000       0 
.C44                             00000000       0 
.C4X                             00000000       0 
.C4x                             00000000       0 
.REGPARM                         00000001       0 
.TMS320C30                       00000001       0 
.TMS320C31                       00000000       0 
.TMS320C32                       00000000       0 
.TMS320C40                       00000000       0 
.TMS320C44                       00000000       0 
.TMS320xx                        00000021       0 
.tms320C30                       00000001       0 
.tms320C31                       00000000       0 
.tms320C32                       00000000       0 
.tms320C40                       00000000       0 
.tms320C44                       00000000       0 
.tms320xx                        00000021       0 
.tmx320C40                       00000000       0 
CL1                              00000003-   2828    777    778    811    812 
                                                    1382   1383   1799   1800 
                                                    2880 
CL10                             0000000c-   2837   1687   1688   1749   1750 
                                                    1770   1771 
CL11                             0000000d-   2838   1689   1691   1739   1741 
                                                    1751   1753   1772   1774 
CL12                             0000000e-   2839   1693   1695   1703   1756 
                                                    1758   1776   1778 
CL13                             0000000f-   2840   1726   1727 
CL14                             00000010-   2841   1734   1735 
CL15                             00000011-   2842   1736   1738 
CL16                             00000012-   2843   1763   1764 
CL17                             00000013-   2844   1782   1783 
CL18                             00000014-   2845   1789   1790 
CL19                             00000015-   2846   1797   1798   1807   1808 
CL2                              00000004-   2829    895    897 
CL20                             00000016-   2847   1834   1836   1917   1920 
CL21                             00000017-   2848   1843   1845 
CL22                             00000018-   2849   1852   1854 
CL23                             00000019-   2850   1861   1863 
CL24                             0000001a-   2851   1870   1872 
CL25                             0000001b-   2852   1879   1882 
CL26                             0000001c-   2853   1888   1890 
CL27                             0000001d-   2854   1898   1900 
TMS320C3x/4x COFF AssemblerVersion 5.12     Thu Apr 21 09:27:38 2022
Copyright (c) 1987-1999 Texas Instruments Incorporatedasm30.exe -@_4A4.AAB 

Y:\workspace_eea\V615\APP\SOURCE\ASM\timer.asm                       PAGE   57

LABEL                            VALUE       DEFN    REF

CL28                             0000001e-   2855   1906   1908 
CL29                             0000001f-   2856   1949   1951 
CL3                              00000005-   2830    960    961   1430   1431 
                                                    1809   1810   1921   1922 
CL30                             00000020-   2857   1957   1959 
CL31                             00000021-   2858   1990   1991 
CL32                             00000022-   2859   1999   2000 
CL33                             00000023-   2860   2001   2002 
CL34                             00000024-   2861   2086   2087 
CL35                             00000025-   2862   2153   2155 
CL36                             00000026-   2863   2167   2168 
CL37                             00000027-   2864   2193   2194   2208   2209 
                                                    2227   2228 
CL38                             00000028-   2865   2266   2268 
CL39                             00000029-   2866   2283   2284   2307   2308 
CL4                              00000006-   2831    958    959 
CL40                             0000002a-   2867   2294   2295   2317   2318 
                                                    2338   2339   2376   2377 
CL41                             0000002b-   2868   2350   2351   2388   2389 
CL42                             0000002c-   2869   2409   2410 
CL43                             0000002d-   2870   2471   2472 
CL44                             0000002e-   2871   2495   2496 
CL45                             0000002f-   2872   2519   2520 
CL46                             00000030-   2873   2544   2545 
CL47                             00000031-   2874   2568   2569 
CL48                             00000032-   2875   2592   2593 
CL49                             00000033-   2876   2616   2617 
CL5                              00000007-   2832    976    977 
CL6                              00000008-   2833   1414   1417 
CL7                              00000009-   2834   1427   1428   1915   1916 
CL8                              0000000a-   2835   1508   1509   1544   1546 
                                                    1761   1762 
CL9                              0000000b-   2836   1514   1515 
DIV_F30                          REF                1512   1759   1780   2957 
FP                               0000000b       7 
L10                              0000002d+    871    922    928 
L11                              00000030+    880    910 
L13                              00000039+    900    889 
L16                              0000003f+    918    815 
L19                              00000046+    930    824    869    878    916 
L21                              0000004e+    953    937 
L23                              00000060+    995    970 
L25                              0000008b+   1086   1074 
L26                              0000008f+   1095   1084 
L28                              000000a6+   1153   1111 
L29                              000000ab+   1168   1199 
L31                              000000b8+   1201   1166   1177 
L34                              000000cd+   1254   1208 
L36                              000000d3+   1270   1262 
L37                              000000ea+   1326    846    948    990   1148 
                                                    1249 
TMS320C3x/4x COFF AssemblerVersion 5.12     Thu Apr 21 09:27:38 2022
Copyright (c) 1987-1999 Texas Instruments Incorporatedasm30.exe -@_4A4.AAB 

Y:\workspace_eea\V615\APP\SOURCE\ASM\timer.asm                       PAGE   58

LABEL                            VALUE       DEFN    REF

L4                               00000015+    804    791    796 
L41                              00000102+   1409   1392 
L43                              0000010f+   1434   1421 
L48                              0000001c'   1539   1531 
L5                               0000001a+    817    925 
L54                              00000027+   1721   1712 
L55                              0000006c+   1828   1930 
L56                              000000a8+   1932   1826 
L57                              000000ae+   1944   1967 
L58                              000000bc+   1969   1942 
L59                              000000be+   1977   1680 
L6                               0000001d+    826    861 
L61                              000000cb+   2009   1975   1984 
L66                              00000062'   2133   2123 
L68                              00000067'   2148   2131   2140 
L69                              0000007a'   2186   2245 
L70                              00000083'   2201   2242 
L71                              0000008f'   2219   2247 
L73                              0000009b'   2238   2184 
L77                              000000a1'   2249   2090 
L78                              000000a9'   2270   2199   2217   2236 
L8                               00000027+    851    835 
L80                              000000b9'   2302   2277 
L81                              000000c5'   2323   2300 
L83                              000000db'   2369   2330 
L84                              000000ed'   2404   2367 
_CLEAR_TIME                      00000173'   2668   2655   2656   2656 
_CLOCK                           REF                2890   2952 
_DIAGNOSTICS                     REF                2885   2948 
_DIO_AUX_FREQ_MODE               REF                2919   2956 
_GATE_TIMEOUT                    00000002-   2814   2813   2815   2815   2922 
_GET_TIME                        000000f6'   2444   2431   2432   2432 
_LIST_TIMER0                     000001a6-   2822   2821   2823   2823   2881 
_LIST_TMR_EMPTY                  0000019a-   2810   2809   2811   2811   2883 
_List_Add                        REF                2887   2938 
_List_Init                       REF                2899   2944 
_List_Pop                        REF                2884   2942 
_List_Remove                     REF                2886   2940 
_PORT                            REF                2910   2950 
_QUEUE_TMR                       0000000a-   2806   2805   2807   2807   2900 
                                                    2901   2902   2903   2904 
                                                    2905   2906   2907   2908 
_RTC                             REF                2923   2924   2925   2926 
                                                    2927   2928   2929   2946 
_SA                              REF                2914   2954 
_Setup_Gate                      00000041'   2043   2030   2031   2031 
_Setup_Timer                     00000000+   1645   1631   1632   1632 
_TIME0                           00000000-   2798   2797   2799   2799   2888 
_TIME1                           00000001-   2802   2801   2803   2803   2897 
_TIMER0_COUNTER                  00000009-   2794   2793   2795   2795   2898 
_TIMER1_COUNTER                  0000019d-   2818   2817   2819   2819   2909 
TMS320C3x/4x COFF AssemblerVersion 5.12     Thu Apr 21 09:27:38 2022
Copyright (c) 1987-1999 Texas Instruments Incorporatedasm30.exe -@_4A4.AAB 

Y:\workspace_eea\V615\APP\SOURCE\ASM\timer.asm                       PAGE   59

LABEL                            VALUE       DEFN    REF

_Timer_Create                    00000000'   1471   1458   1459   1459 
_Timer_Insert                    00000000+    734    721    722    722 
_Timer_Remove                    000000ee+   1353   1340   1341   1341   2882 
_ceil                            REF                2889   2936 
_vect_pt0                        00000001-   2762   2761   2763   2763 
_vect_pt1                        00000002-   2766   2765   2767   2767 
_vect_pt2                        00000003-   2770   2769   2771   2771 
_vect_pt3                        00000004-   2774   2773   2775   2775 
_vect_pt4                        00000005-   2778   2777   2779   2779 
_vect_pt5                        00000006-   2782   2781   2783   2783 
_vect_pt6                        00000007-   2786   2785   2787   2787 
_vect_pt7                        00000008-   2790   2789   2791   2791 
_vect_tm                         00000000-   2758   2757   2759   2759 
fp                               0000000b       6   1502   1503   1524   1538 
                                                    1545   1547   1554   1555 
                                                    1561   1562   1568   1569 
                                                    1575   1582   1588   1589 
                                                    1595   1596   1602   1603 
                                                    1610   1620   1621   1621 
                                                    1658   1659   1672   1673 
                                                    1696   1697   1710   1719 
                                                    1720   1737   1757   1779 
                                                    1818   1833   1844   1853 
                                                    1862   1871   1880   1889 
                                                    1897   1907   1918   1927 
                                                    1928   1938   1950   1958 
                                                    1964   1965   1982   2012 
                                                    2013   2013   2063   2064 
                                                    2072   2073   2074   2075 
                                                    2098   2104   2105   2116 
                                                    2130   2138   2147   2154 
                                                    2156   2161   2169   2176 
                                                    2183   2233   2240   2255 
                                                    2260   2267   2275   2328 
                                                    2420   2421   2421   2453 
                                                    2454   2460   2475   2485 
                                                    2499   2505   2512   2523 
                                                    2531   2536   2548   2556 
                                                    2560   2572   2583   2585 
                                                    2596   2606   2609   2620 
                                                    2633   2634   2644   2645 
                                                    2645   2676   2677   2680 
                                                    2694   2701   2708   2715 
                                                    2722   2729   2736   2743 
                                                    2747   2748   2748 
