TMS320C3x/4x COFF AssemblerVersion 5.12     Mon Oct 31 11:29:48 2011
Copyright (c) 1987-1999 Texas Instruments Incorporatedasm30.exe -@_330.AAB 

D:\CCS\EEA_SA_V611beta\BOOT\SOURCE\ASM\flash.asm                     PAGE    1

        1                   ;******************************************************************************
        2                   ;* TMS320C3x/4x ANSI C Code Generator                            Version 5.11 *
        3                   ;* Date/Time created: Mon Oct 31 11:29:49 2011                                *
        4                   ;******************************************************************************
        5                           .regalias       ; enable floating point register aliases
        6          0000000b fp      .set    ar3
        7          0000000b FP      .set    ar3
        8                   ;******************************************************************************
        9                   ;* GLOBAL FILE PARAMETERS                                                     *
       10                   ;*                                                                            *
       11                   ;*   Optimization       : Always Choose Smaller Code Size                     *
       12                   ;*   Memory             : Big Memory Model                                    *
       13                   ;*   Float-to-Int       : Normal Conversions (round toward zero)              *
       14                   ;*   Multiply           : in Software (32 bits)                               *
       15                   ;*   Memory Info        : Unmapped Memory Exists                              *
       16                   ;*   Repeat Loops       : Use RPTS and/or RPTB                                *
       17                   ;*   Calls              : Normal Library ASM calls                            *
       18                   ;*   Debug Info         : Standard TI Debug Information                       *
       19                   ;******************************************************************************
       20                   ;       C:\tic3x4x\c3x4x\cgtools\bin\ac30.exe -@_330.AAA 
       21                           .file   "flash.c"
       22                           .file   "D:\CCS\EEA_SA_V611beta\INCLUDE\ETC.H"
       23                           .sym    _BOOL,0,14,13,32
       24                           .file   "D:\CCS\EEA_SA_V611beta\BOOT\SOURCE\INCLUDE\BUFFER.H"
       25                           .stag   .fake0,131744
       26                           .member _head,0,4,8,32
       27                           .member _tail,32,4,8,32
       28                           .member _n,64,4,8,32
       29                           .member _CRC16,96,14,8,32
       30                           .member _buff,128,62,8,131584,,4112
       31                           .member _locked,131712,14,8,32
       32                           .eos
       33                           .sym    _BFR,0,8,13,131744,.fake0
       34                           .file   "D:\CCS\EEA_SA_V611beta\INCLUDE\FLASH.H"
       35                           .file   "D:\CCS\EEA_SA_V611beta\BOOT\SOURCE\INCLUDE\SERIAL.H"
       36                           .stag   .fake1,263936
       37                           .member _STAT,0,12,8,32
       38                           .member _TMR_Network_WDOG,32,14,8,32
       39                           .member _TMR_EOT_Delay,64,14,8,32
       40                           .member _TMR_Preamble_Delay,96,14,8,32
       41                           .member _TMR_Suffix_Delay,128,14,8,32
       42                           .member _TMR_Char,160,14,8,32
       43                           .member _TMR_enabled,192,14,8,32
       44                           .member _tvector,224,20,8,32
       45                           .member _pvector,256,20,8,32
       46                           .member _i,288,14,8,32
       47                           .member _func,320,14,8,32
       48                           .member _Slave_ID,352,14,8,32
       49                           .member _TXbuf,384,8,8,131744,.fake0
       50                           .member _TX_complete,132128,14,8,32
       51                           .member _RXbuf,132160,8,8,131744,.fake0
       52                           .member _RX_pending,263904,14,8,32
       53                           .eos
       54                           .sym    _PORTV,0,8,13,263936,.fake1
TMS320C3x/4x COFF AssemblerVersion 5.12     Mon Oct 31 11:29:48 2011
Copyright (c) 1987-1999 Texas Instruments Incorporatedasm30.exe -@_330.AAB 

D:\CCS\EEA_SA_V611beta\BOOT\SOURCE\ASM\flash.asm                     PAGE    2

       55                           .file   "D:\CCS\EEA_SA_V611beta\BOOT\SOURCE\INCLUDE\MODBUSRTU.H"
       56                           .file   "D:\CCS\EEA_SA_V611beta\INCLUDE\I2C.H"
       57                           .file   "D:\CCS\EEA_SA_V611beta\BOOT\SOURCE\INCLUDE\GLBLS.H"
       58                           .file   "flash.c"
       59 00000000                  .sect    "internal_RAM"
       60                   
       61                           .global _FLASH_SIZE
       62                           .sym    _FLASH_SIZE,_FLASH_SIZE,46,2,0
       63                           .func   14
       64                   ;******************************************************************************
       65                   ;* FUNCTION NAME: _FLASH_SIZE                                                 *
       66                   ;*                                                                            *
       67                   ;*   Architecture       : TMS320C33                                           *
       68                   ;*   Calling Convention : TI Standard Register Parameters                     *
       69                   ;*   Function Uses Regs : r0,ar0,ar1,fp,st                                    *
       70                   ;*   Regs Saved         :                                                     *
       71                   ;*   Stack Frame        : Full (w/ debug)                                     *
       72                   ;*   Total Frame Size   : 2 Call + 0 Parm + 3 Auto + 0 SOE = 5 words          *
       73                   ;******************************************************************************
       74 00000000          _FLASH_SIZE:
       75                           .sym    _dev_id,1,14,1,32
       76                           .sym    _r,2,62,1,64,,2
       77                           .line   1
       78                   ;----------------------------------------------------------------------
       79                   ;  14 | unsigned int FLASH_SIZE(void)                                          
       80                   ;  16 | unsigned int dev_id;                                                   
       81                   ;  17 | unsigned int r[2];                                                     
       82                   ;----------------------------------------------------------------------
       83 00000000 0f2b0000         push      fp
       84 00000001 500b0014         ldiu      sp,fp
       85 00000002 02740003         addi      3,sp
       86                           .line   6
       87                   ;----------------------------------------------------------------------
       88                   ;  19 | _GIEP;                                                                 
       89                   ;----------------------------------------------------------------------
       90 00000003 0f350000         push    ST                      
       91 00000004 03752000         andn    2000h, ST       
       92                           .line   8
       93                   ;----------------------------------------------------------------------
       94                   ;  21 | r[0] = 0;                                                              
       95                   ;----------------------------------------------------------------------
       96 00000005 5008000b         ldiu      fp,ar0                ; |21| 
       97 00000006 02680002         addi      2,ar0                 ; |21| 
       98 00000007 50600000         ldiu      0,r0                  ; |21| 
       99 00000008 1540c000         sti       r0,*ar0               ; |21| 
      100                           .line   9
      101                   ;----------------------------------------------------------------------
      102                   ;  22 | r[1] = 0;                                                              
      103                   ;----------------------------------------------------------------------
      104 00000009 5008000b         ldiu      fp,ar0                ; |22| 
      105 0000000a 02680003         addi      3,ar0                 ; |22| 
      106 0000000b 1540c000         sti       r0,*ar0               ; |22| 
      107                           .line   11
      108                   ;----------------------------------------------------------------------
TMS320C3x/4x COFF AssemblerVersion 5.12     Mon Oct 31 11:29:48 2011
Copyright (c) 1987-1999 Texas Instruments Incorporatedasm30.exe -@_330.AAB 

D:\CCS\EEA_SA_V611beta\BOOT\SOURCE\ASM\flash.asm                     PAGE    3

      109                   ;  24 | *FLASH_LOC = READ_CONFIG;                                              
      110                   ;----------------------------------------------------------------------
      111 0000000c 08700000-        ldp       @CL1,DP
      112 0000000d 50280001-        ldiu      @CL1,ar0              ; |24| 
      113 0000000e 08700000-        ldp       @CL2,DP
      114 0000000f 50200002-        ldiu      @CL2,r0               ; |24| 
      115 00000010 1540c000         sti       r0,*ar0               ; |24| 
      116                           .line   12
      117                   ;----------------------------------------------------------------------
      118                   ;  25 | dev_id = FLASH_LOC[1];                                                 
      119                   ;----------------------------------------------------------------------
      120 00000011 08700000-        ldp       @CL3,DP
      121 00000012 50280003-        ldiu      @CL3,ar0              ; |25| 
      122 00000013 5040c000         ldiu      *ar0,r0               ; |25| 
      123 00000014 15400301         sti       r0,*+fp(1)            ; |25| 
      124                           .line   13
      125                   ;----------------------------------------------------------------------
      126                   ;  26 | *FLASH_LOC = READ_ARRAY;                                               
      127                   ;----------------------------------------------------------------------
      128 00000015 08700000-        ldp       @CL1,DP
      129 00000016 50280001-        ldiu      @CL1,ar0              ; |26| 
      130 00000017 08700000-        ldp       @CL4,DP
      131 00000018 50200004-        ldiu      @CL4,r0               ; |26| 
      132 00000019 1540c000         sti       r0,*ar0               ; |26| 
      133                           .line   15
      134                   ;----------------------------------------------------------------------
      135                   ;  28 | GIEP;                                                                  
      136                   ;  30 | switch(dev_id & 0xFFFF)                                                
      137                   ;  32 |         case 0x88C1:                                                   
      138                   ;----------------------------------------------------------------------
      139 0000001a 0e350000         pop             ST                      
      140 0000001b 6a000018         bu        L7                    ; |13| 
      141                   ;*      Branch Occurs to L7             ; |13| 
      142 0000001c          L2:        
      143                           .line   21
      144                   ;----------------------------------------------------------------------
      145                   ;  34 | r[0] = 0x80000;                                                        
      146                   ;----------------------------------------------------------------------
      147 0000001c 5008000b         ldiu      fp,ar0                ; |34| 
      148 0000001d 08700000-        ldp       @CL5,DP
      149 0000001e 02680002         addi      2,ar0                 ; |34| 
      150 0000001f 50200005-        ldiu      @CL5,r0               ; |34| 
      151 00000020 1540c000         sti       r0,*ar0               ; |34| 
      152                           .line   22
      153                   ;----------------------------------------------------------------------
      154                   ;  35 | break;                                                                 
      155                   ;  38 | case 0x88C3:                                                           
      156                   ;----------------------------------------------------------------------
      157 00000021 6a00003a         bu        L18                   ; |35| 
      158                   ;*      Branch Occurs to L18            ; |35| 
      159 00000022          L3:        
      160                           .line   27
      161                   ;----------------------------------------------------------------------
      162                   ;  40 | r[0] = 0x100000;                                                       
TMS320C3x/4x COFF AssemblerVersion 5.12     Mon Oct 31 11:29:48 2011
Copyright (c) 1987-1999 Texas Instruments Incorporatedasm30.exe -@_330.AAB 

D:\CCS\EEA_SA_V611beta\BOOT\SOURCE\ASM\flash.asm                     PAGE    4

      163                   ;----------------------------------------------------------------------
      164 00000022 5008000b         ldiu      fp,ar0                ; |40| 
      165 00000023 08700000-        ldp       @CL6,DP
      166 00000024 02680002         addi      2,ar0                 ; |40| 
      167 00000025 50200006-        ldiu      @CL6,r0               ; |40| 
      168 00000026 1540c000         sti       r0,*ar0               ; |40| 
      169                           .line   28
      170                   ;----------------------------------------------------------------------
      171                   ;  41 | break;                                                                 
      172                   ;  44 | case 0x88C5:                                                           
      173                   ;----------------------------------------------------------------------
      174 00000027 6a000034         bu        L18                   ; |41| 
      175                   ;*      Branch Occurs to L18            ; |41| 
      176 00000028          L4:        
      177                           .line   33
      178                   ;----------------------------------------------------------------------
      179                   ;  46 | r[0] = 0x200000;                                                       
      180                   ;----------------------------------------------------------------------
      181 00000028 5008000b         ldiu      fp,ar0                ; |46| 
      182 00000029 08700000-        ldp       @CL7,DP
      183 0000002a 02680002         addi      2,ar0                 ; |46| 
      184 0000002b 50200007-        ldiu      @CL7,r0               ; |46| 
      185 0000002c 1540c000         sti       r0,*ar0               ; |46| 
      186                           .line   34
      187                   ;----------------------------------------------------------------------
      188                   ;  47 | break;                                                                 
      189                   ;  50 | case 0x88CD:                                                           
      190                   ;----------------------------------------------------------------------
      191 0000002d 6a00002e         bu        L18                   ; |47| 
      192                   ;*      Branch Occurs to L18            ; |47| 
      193 0000002e          L5:        
      194                           .line   39
      195                   ;----------------------------------------------------------------------
      196                   ;  52 | r[0] = 0x400000;                                                       
      197                   ;----------------------------------------------------------------------
      198 0000002e 5008000b         ldiu      fp,ar0                ; |52| 
      199 0000002f 08700000-        ldp       @CL8,DP
      200 00000030 02680002         addi      2,ar0                 ; |52| 
      201 00000031 50200008-        ldiu      @CL8,r0               ; |52| 
      202 00000032 1540c000         sti       r0,*ar0               ; |52| 
      203                           .line   40
      204                   ;----------------------------------------------------------------------
      205                   ;  53 | break;                                                                 
      206                   ;  57 | switch(dev_id >> 16)                                                   
      207                   ;  59 | case 0x88C1:                                                           
      208                   ;----------------------------------------------------------------------
      209 00000033 6a000028         bu        L18                   ; |53| 
      210                   ;*      Branch Occurs to L18            ; |53| 
      211 00000034          L7:        
      212                           .line   17
      213 00000034 08700000-        ldp       @CL9,DP
      214 00000035 50200009-        ldiu      @CL9,r0               ; |30| 
      215 00000036 08700000-        ldp       @CL10,DP
      216 00000037 02c00301         and       *+fp(1),r0            ; |30| 
TMS320C3x/4x COFF AssemblerVersion 5.12     Mon Oct 31 11:29:48 2011
Copyright (c) 1987-1999 Texas Instruments Incorporatedasm30.exe -@_330.AAB 

D:\CCS\EEA_SA_V611beta\BOOT\SOURCE\ASM\flash.asm                     PAGE    5

      217 00000038 04a0000a-        cmpi      @CL10,r0              ; |30| 
      218 00000039 6a05ffe2         beq       L2                    ; |30| 
      219                   ;*      Branch Occurs to L2             ; |30| 
      220 0000003a 08700000-        ldp       @CL11,DP
      221 0000003b 04a0000b-        cmpi      @CL11,r0              ; |30| 
      222 0000003c 6a05ffe5         beq       L3                    ; |30| 
      223                   ;*      Branch Occurs to L3             ; |30| 
      224 0000003d 08700000-        ldp       @CL12,DP
      225 0000003e 04a0000c-        cmpi      @CL12,r0              ; |30| 
      226 0000003f 6a05ffe8         beq       L4                    ; |30| 
      227                   ;*      Branch Occurs to L4             ; |30| 
      228 00000040 08700000-        ldp       @CL13,DP
      229 00000041 04a0000d-        cmpi      @CL13,r0              ; |30| 
      230 00000042 6a05ffeb         beq       L5                    ; |30| 
      231                   ;*      Branch Occurs to L5             ; |30| 
      232 00000043 6a000018         bu        L18                   ; |30| 
      233                   ;*      Branch Occurs to L18            ; |30| 
      234 00000044          L13:        
      235                           .line   48
      236                   ;----------------------------------------------------------------------
      237                   ;  61 | r[1] = 0x80000;                                                        
      238                   ;----------------------------------------------------------------------
      239 00000044 5008000b         ldiu      fp,ar0                ; |61| 
      240 00000045 08700000-        ldp       @CL5,DP
      241 00000046 02680003         addi      3,ar0                 ; |61| 
      242 00000047 50200005-        ldiu      @CL5,r0               ; |61| 
      243 00000048 1540c000         sti       r0,*ar0               ; |61| 
      244                           .line   49
      245                   ;----------------------------------------------------------------------
      246                   ;  62 | break;                                                                 
      247                   ;  65 | case 0x88C3:                                                           
      248                   ;----------------------------------------------------------------------
      249 00000049 6a000020         bu        L22                   ; |62| 
      250                   ;*      Branch Occurs to L22            ; |62| 
      251 0000004a          L14:        
      252                           .line   54
      253                   ;----------------------------------------------------------------------
      254                   ;  67 | r[1] = 0x100000;                                                       
      255                   ;----------------------------------------------------------------------
      256 0000004a 5008000b         ldiu      fp,ar0                ; |67| 
      257 0000004b 08700000-        ldp       @CL6,DP
      258 0000004c 02680003         addi      3,ar0                 ; |67| 
      259 0000004d 50200006-        ldiu      @CL6,r0               ; |67| 
      260 0000004e 1540c000         sti       r0,*ar0               ; |67| 
      261                           .line   55
      262                   ;----------------------------------------------------------------------
      263                   ;  68 | break;                                                                 
      264                   ;  71 | case 0x88C5:                                                           
      265                   ;----------------------------------------------------------------------
      266 0000004f 6a00001a         bu        L22                   ; |68| 
      267                   ;*      Branch Occurs to L22            ; |68| 
      268 00000050          L15:        
      269                           .line   60
      270                   ;----------------------------------------------------------------------
TMS320C3x/4x COFF AssemblerVersion 5.12     Mon Oct 31 11:29:48 2011
Copyright (c) 1987-1999 Texas Instruments Incorporatedasm30.exe -@_330.AAB 

D:\CCS\EEA_SA_V611beta\BOOT\SOURCE\ASM\flash.asm                     PAGE    6

      271                   ;  73 | r[1] = 0x200000;                                                       
      272                   ;----------------------------------------------------------------------
      273 00000050 5008000b         ldiu      fp,ar0                ; |73| 
      274 00000051 08700000-        ldp       @CL7,DP
      275 00000052 02680003         addi      3,ar0                 ; |73| 
      276 00000053 50200007-        ldiu      @CL7,r0               ; |73| 
      277 00000054 1540c000         sti       r0,*ar0               ; |73| 
      278                           .line   61
      279                   ;----------------------------------------------------------------------
      280                   ;  74 | break;                                                                 
      281                   ;  77 | case 0x88CD:                                                           
      282                   ;----------------------------------------------------------------------
      283 00000055 6a000014         bu        L22                   ; |74| 
      284                   ;*      Branch Occurs to L22            ; |74| 
      285 00000056          L16:        
      286                           .line   66
      287                   ;----------------------------------------------------------------------
      288                   ;  79 | r[1] = 0x400000;                                                       
      289                   ;----------------------------------------------------------------------
      290 00000056 5008000b         ldiu      fp,ar0                ; |79| 
      291 00000057 08700000-        ldp       @CL8,DP
      292 00000058 02680003         addi      3,ar0                 ; |79| 
      293 00000059 50200008-        ldiu      @CL8,r0               ; |79| 
      294 0000005a 1540c000         sti       r0,*ar0               ; |79| 
      295                           .line   67
      296                   ;----------------------------------------------------------------------
      297                   ;  80 | break;                                                                 
      298                   ;----------------------------------------------------------------------
      299 0000005b 6a00000e         bu        L22                   ; |80| 
      300                   ;*      Branch Occurs to L22            ; |80| 
      301 0000005c          L18:        
      302                           .line   44
      303 0000005c 50400301         ldiu      *+fp(1),r0            ; |57| 
      304 0000005d 09e0fff0         lsh       -16,r0                ; |57| 
      305 0000005e 08700000-        ldp       @CL10,DP
      306 0000005f 04a0000a-        cmpi      @CL10,r0              ; |57| 
      307 00000060 6a05ffe3         beq       L13                   ; |57| 
      308                   ;*      Branch Occurs to L13            ; |57| 
      309 00000061 08700000-        ldp       @CL11,DP
      310 00000062 04a0000b-        cmpi      @CL11,r0              ; |57| 
      311 00000063 6a05ffe6         beq       L14                   ; |57| 
      312                   ;*      Branch Occurs to L14            ; |57| 
      313 00000064 08700000-        ldp       @CL12,DP
      314 00000065 04a0000c-        cmpi      @CL12,r0              ; |57| 
      315 00000066 6a05ffe9         beq       L15                   ; |57| 
      316                   ;*      Branch Occurs to L15            ; |57| 
      317 00000067 08700000-        ldp       @CL13,DP
      318 00000068 04a0000d-        cmpi      @CL13,r0              ; |57| 
      319 00000069 6a05ffec         beq       L16                   ; |57| 
      320                   ;*      Branch Occurs to L16            ; |57| 
      321 0000006a          L22:        
      322                           .line   71
      323                   ;----------------------------------------------------------------------
      324                   ;  84 | if (r[0]<r[1]) return r[0];                                            
TMS320C3x/4x COFF AssemblerVersion 5.12     Mon Oct 31 11:29:48 2011
Copyright (c) 1987-1999 Texas Instruments Incorporatedasm30.exe -@_330.AAB 

D:\CCS\EEA_SA_V611beta\BOOT\SOURCE\ASM\flash.asm                     PAGE    7

      325                   ;----------------------------------------------------------------------
      326 0000006a 5008000b         ldiu      fp,ar0                ; |84| 
      327 0000006b 5009000b         ldiu      fp,ar1                ; |84| 
      328 0000006c 02680003         addi      3,ar0                 ; |84| 
      329 0000006d 02690002         addi      2,ar1                 ; |84| 
      330 0000006e 23e0c1c0         cmpi3     *ar0,*ar1             ; |84| 
      331 0000006f 6a040004         bhs       L25                   ; |84| 
      332                   ;*      Branch Occurs to L25            ; |84| 
      333 00000070 6a200004         bud       L26                   ; |84| 
      334 00000071 5008000b         ldiu      fp,ar0                ; |84| 
      335 00000072 02680002         addi      2,ar0                 ; |84| 
      336 00000073 5040c000         ldiu      *ar0,r0               ; |84| 
      337                   ;*      Branch Occurs to L26            ; |84| 
      338 00000074          L25:        
      339                           .line   72
      340                   ;----------------------------------------------------------------------
      341                   ;  85 | else return r[1];                                                      
      342                   ;----------------------------------------------------------------------
      343 00000074 5008000b         ldiu      fp,ar0                ; |85| 
      344 00000075 02680003         addi      3,ar0                 ; |85| 
      345 00000076 5040c000         ldiu      *ar0,r0               ; |85| 
      346 00000077          L26:        
      347                           .line   73
      348                                                           ; Begin Epilog Code
      349 00000077 50410b01         ldiu      *-fp(1),r1            ; |86| 
      350 00000078 504bc300         ldiu      *fp,fp                ; |86| 
      351                                                           ; Unallocate the Frame
      352 00000079 18740005         subi      5,sp                  ; |86| 
      353 0000007a 68000001         bu        r1
      354                   ;*      Branch Occurs to r1 
      355                           .endfunc        86,000000000h,3
      356                   
      357                   
      358 0000007b                  .sect    "internal_RAM"
      359                   
      360                           .global _FLASH_CHECK_ADDR
      361                           .sym    _FLASH_CHECK_ADDR,_FLASH_CHECK_ADDR,36,2,0
      362                           .func   88
      363                   ;******************************************************************************
      364                   ;* FUNCTION NAME: _FLASH_CHECK_ADDR                                           *
      365                   ;*                                                                            *
      366                   ;*   Architecture       : TMS320C33                                           *
      367                   ;*   Calling Convention : TI Standard Register Parameters                     *
      368                   ;*   Function Uses Regs : r0,r1,r2,ar2,st                                     *
      369                   ;*   Regs Saved         :                                                     *
      370                   ;*   Stack Frame        : Full (w/ debug)                                     *
      371                   ;*   Total Frame Size   : 2 Call + 0 Parm + 5 Auto + 0 SOE = 7 words          *
      372                   ;******************************************************************************
      373 0000007b          _FLASH_CHECK_ADDR:
      374                   ;* ar2   assigned to _addr
      375                           .sym    _addr,10,30,17,32
      376                   ;* r2    assigned to _n
      377                           .sym    _n,2,14,17,32
      378                           .sym    _addr,1,30,1,32
TMS320C3x/4x COFF AssemblerVersion 5.12     Mon Oct 31 11:29:48 2011
Copyright (c) 1987-1999 Texas Instruments Incorporatedasm30.exe -@_330.AAB 

D:\CCS\EEA_SA_V611beta\BOOT\SOURCE\ASM\flash.asm                     PAGE    8

      379                           .sym    _n,2,14,1,32
      380                           .sym    _dev_id,3,14,1,32
      381                           .sym    _f,4,14,1,32
      382                           .sym    _mask,5,14,1,32
      383                           .line   1
      384                   ;----------------------------------------------------------------------
      385                   ;  88 | int FLASH_CHECK_ADDR(unsigned int* addr, unsigned int n)               
      386                   ;----------------------------------------------------------------------
      387 0000007b 0f2b0000         push      fp
      388 0000007c 500b0014         ldiu      sp,fp
      389 0000007d 02740005         addi      5,sp
      390                           .line   2
      391                   ;----------------------------------------------------------------------
      392                   ;  90 | unsigned int dev_id;                                                   
      393                   ;  91 | unsigned int f;                                                        
      394                   ;  92 | unsigned int mask;                                                     
      395                   ;----------------------------------------------------------------------
      396 0000007e 15420302         sti       r2,*+fp(2)            ; |89| 
      397 0000007f 154a0301         sti       ar2,*+fp(1)           ; |89| 
      398                           .line   7
      399                   ;----------------------------------------------------------------------
      400                   ;  94 | f = FLASH_SIZE();                                                      
      401                   ;----------------------------------------------------------------------
      402 00000080 08700000-        ldp       @CL14,DP
      403 00000081 5020000e-        ldiu      @CL14,r0              ; |94| 
      404 00000082 70000000         callu     r0                    ; far call to _FLASH_SIZE       ; |94| 
      405                                                           ; |94| Far Call Occurs
      406 00000083 15400304         sti       r0,*+fp(4)            ; |94| 
      407                           .line   9
      408                   ;----------------------------------------------------------------------
      409                   ;  96 | if (addr >= (FLASH_LOC+f)) return FLASH_ERROR_BLKADDR;                 
      410                   ;----------------------------------------------------------------------
      411 00000084 08700000-        ldp       @CL1,DP
      412 00000085 50410301         ldiu      *+fp(1),r1            ; |96| 
      413 00000086 50200001-        ldiu      @CL1,r0               ; |96| 
      414 00000087 02400304         addi      *+fp(4),r0            ; |96| Unsigned
      415 00000088 23800100         cmpi3     r0,r1                 ; |96| 
      416 00000089 6a010004         blo       L30                   ; |96| 
      417                   ;*      Branch Occurs to L30            ; |96| 
      418 0000008a 6a20006a         bud       L53                   ; |96| 
      419 0000008b 0c800000         nop
      420 0000008c 0c800000         nop
      421 0000008d 50600020         ldiu      32,r0                 ; |96| 
      422                   ;*      Branch Occurs to L53            ; |96| 
      423 0000008e          L30:        
      424                           .line   10
      425                   ;----------------------------------------------------------------------
      426                   ;  97 | if (addr < FLASH_LOC) return FLASH_ERROR_BLKADDR;                      
      427                   ;----------------------------------------------------------------------
      428 0000008e 08700000-        ldp       @CL1,DP
      429 0000008f 50400301         ldiu      *+fp(1),r0            ; |97| 
      430 00000090 04a00001-        cmpi      @CL1,r0               ; |97| 
      431 00000091 6a040004         bhs       L32                   ; |97| 
      432                   ;*      Branch Occurs to L32            ; |97| 
TMS320C3x/4x COFF AssemblerVersion 5.12     Mon Oct 31 11:29:48 2011
Copyright (c) 1987-1999 Texas Instruments Incorporatedasm30.exe -@_330.AAB 

D:\CCS\EEA_SA_V611beta\BOOT\SOURCE\ASM\flash.asm                     PAGE    9

      433 00000092 6a200062         bud       L53                   ; |97| 
      434 00000093 0c800000         nop
      435 00000094 0c800000         nop
      436 00000095 50600020         ldiu      32,r0                 ; |97| 
      437                   ;*      Branch Occurs to L53            ; |97| 
      438 00000096          L32:        
      439                           .line   12
      440                   ;----------------------------------------------------------------------
      441                   ;  99 | if (addr < (FLASH_LOC+FLASH_SECTOR_SIZE))                              
      442                   ;----------------------------------------------------------------------
      443 00000096 08700000-        ldp       @CL15,DP
      444 00000097 50400301         ldiu      *+fp(1),r0            ; |99| 
      445 00000098 04a0000f-        cmpi      @CL15,r0              ; |99| 
      446 00000099 6a04002c         bhs       L43                   ; |99| 
      447                   ;*      Branch Occurs to L43            ; |99| 
      448                           .line   14
      449                   ;----------------------------------------------------------------------
      450                   ; 101 | if (n==0)                                                              
      451                   ;----------------------------------------------------------------------
      452 0000009a 50400302         ldiu      *+fp(2),r0            ; |101| 
      453 0000009b 04e00000         cmpi      0,r0                  ; |101| 
      454 0000009c 6a060009         bne       L36                   ; |101| 
      455                   ;*      Branch Occurs to L36            ; |101| 
      456                           .line   16
      457                   ;----------------------------------------------------------------------
      458                   ; 103 | if ((((unsigned int)addr-(unsigned int)FLASH_LOC)%FLASH_CFGB_SIZE) == 0
      459                   ;     | )                                                                      
      460                   ;----------------------------------------------------------------------
      461 0000009d 08700000-        ldp       @CL8,DP
      462 0000009e 50200008-        ldiu      @CL8,r0               ; |103| 
      463 0000009f 19c00301         subri     *+fp(1),r0            ; |103| Unsigned
      464 000000a0 1a600fff         tstb      4095,r0               ; |103| 
      465 000000a1 6a060004         bne       L36                   ; |103| 
      466                   ;*      Branch Occurs to L36            ; |103| 
      467                           .line   17
      468                   ;----------------------------------------------------------------------
      469                   ; 104 | return 0;                                                              
      470                   ;----------------------------------------------------------------------
      471 000000a2 6a200052         bud       L53                   ; |104| 
      472 000000a3 0c800000         nop
      473 000000a4 0c800000         nop
      474 000000a5 50600000         ldiu      0,r0                  ; |104| 
      475                   ;*      Branch Occurs to L53            ; |104| 
      476 000000a6          L36:        
      477                           .line   19
      478                   ;----------------------------------------------------------------------
      479                   ; 106 | if (n>FLASH_CFGB_SIZE) return FLASH_ERROR_BLKADDR;                     
      480                   ;----------------------------------------------------------------------
      481 000000a6 50400302         ldiu      *+fp(2),r0            ; |106| 
      482 000000a7 04e01000         cmpi      4096,r0               ; |106| 
      483 000000a8 6a020004         bls       L38                   ; |106| 
      484                   ;*      Branch Occurs to L38            ; |106| 
      485 000000a9 6a20004b         bud       L53                   ; |106| 
      486 000000aa 0c800000         nop
TMS320C3x/4x COFF AssemblerVersion 5.12     Mon Oct 31 11:29:48 2011
Copyright (c) 1987-1999 Texas Instruments Incorporatedasm30.exe -@_330.AAB 

D:\CCS\EEA_SA_V611beta\BOOT\SOURCE\ASM\flash.asm                     PAGE   10

      487 000000ab 0c800000         nop
      488 000000ac 50600020         ldiu      32,r0                 ; |106| 
      489                   ;*      Branch Occurs to L53            ; |106| 
      490 000000ad          L38:        
      491                           .line   20
      492                   ;----------------------------------------------------------------------
      493                   ; 107 | if (((unsigned int)addr+n-1) >= ((unsigned int)FLASH_LOC+FLASH_SECTOR_S
      494                   ;     | IZE)) return FLASH_ERROR_BLKADDR;                                      
      495                   ;----------------------------------------------------------------------
      496 000000ad 50400302         ldiu      *+fp(2),r0            ; |107| 
      497 000000ae 08700000-        ldp       @CL16,DP
      498 000000af 02400301         addi      *+fp(1),r0            ; |107| Unsigned
      499 000000b0 18600001         subi      1,r0                  ; |107| Unsigned
      500 000000b1 04a00010-        cmpi      @CL16,r0              ; |107| 
      501 000000b2 6a010004         blo       L40                   ; |107| 
      502                   ;*      Branch Occurs to L40            ; |107| 
      503 000000b3 6a200041         bud       L53                   ; |107| 
      504 000000b4 0c800000         nop
      505 000000b5 0c800000         nop
      506 000000b6 50600020         ldiu      32,r0                 ; |107| 
      507                   ;*      Branch Occurs to L53            ; |107| 
      508 000000b7          L40:        
      509                           .line   21
      510                   ;----------------------------------------------------------------------
      511                   ; 108 | mask = 0xFFFFFFFF ^ (FLASH_CFGB_SIZE-1);                               
      512                   ;----------------------------------------------------------------------
      513 000000b7 08700000-        ldp       @CL17,DP
      514 000000b8 50200011-        ldiu      @CL17,r0              ; |108| 
      515 000000b9 15400305         sti       r0,*+fp(5)            ; |108| 
      516                           .line   22
      517                   ;----------------------------------------------------------------------
      518                   ; 109 | f = ((unsigned int)addr&mask) + FLASH_CFGB_SIZE;                       
      519                   ;----------------------------------------------------------------------
      520 000000ba 02c00301         and       *+fp(1),r0            ; |109| 
      521 000000bb 02601000         addi      4096,r0               ; |109| Unsigned
      522 000000bc 15400304         sti       r0,*+fp(4)            ; |109| 
      523                           .line   23
      524                   ;----------------------------------------------------------------------
      525                   ; 110 | if (((unsigned int)addr+n-1) < ((unsigned int)f)) return 0;            
      526                   ; 112 | else                                                                   
      527                   ;----------------------------------------------------------------------
      528 000000bd 50400302         ldiu      *+fp(2),r0            ; |110| 
      529 000000be 02400301         addi      *+fp(1),r0            ; |110| Unsigned
      530 000000bf 18600001         subi      1,r0                  ; |110| Unsigned
      531 000000c0 04c00304         cmpi      *+fp(4),r0            ; |110| 
      532 000000c1 6a040034         bhs       L52                   ; |110| 
      533                   ;*      Branch Occurs to L52            ; |110| 
      534 000000c2 6a200032         bud       L53                   ; |110| 
      535 000000c3 0c800000         nop
      536 000000c4 0c800000         nop
      537 000000c5 50600000         ldiu      0,r0                  ; |110| 
      538                   ;*      Branch Occurs to L53            ; |110| 
      539 000000c6          L43:        
      540                           .line   27
TMS320C3x/4x COFF AssemblerVersion 5.12     Mon Oct 31 11:29:48 2011
Copyright (c) 1987-1999 Texas Instruments Incorporatedasm30.exe -@_330.AAB 

D:\CCS\EEA_SA_V611beta\BOOT\SOURCE\ASM\flash.asm                     PAGE   11

      541                   ;----------------------------------------------------------------------
      542                   ; 114 | if (n==0)                                                              
      543                   ;----------------------------------------------------------------------
      544 000000c6 50400302         ldiu      *+fp(2),r0            ; |114| 
      545 000000c7 04e00000         cmpi      0,r0                  ; |114| 
      546 000000c8 6a060009         bne       L46                   ; |114| 
      547                   ;*      Branch Occurs to L46            ; |114| 
      548                           .line   29
      549                   ;----------------------------------------------------------------------
      550                   ; 116 | if ((((unsigned int)addr-(unsigned int)FLASH_LOC)%FLASH_SECTOR_SIZE) ==
      551                   ;     |  0)                                                                    
      552                   ;----------------------------------------------------------------------
      553 000000c9 08700000-        ldp       @CL8,DP
      554 000000ca 50200008-        ldiu      @CL8,r0               ; |116| 
      555 000000cb 19c00301         subri     *+fp(1),r0            ; |116| Unsigned
      556 000000cc 1a607fff         tstb      32767,r0              ; |116| 
      557 000000cd 6a060004         bne       L46                   ; |116| 
      558                   ;*      Branch Occurs to L46            ; |116| 
      559                           .line   30
      560                   ;----------------------------------------------------------------------
      561                   ; 117 | return 0;                                                              
      562                   ;----------------------------------------------------------------------
      563 000000ce 6a200026         bud       L53                   ; |117| 
      564 000000cf 0c800000         nop
      565 000000d0 0c800000         nop
      566 000000d1 50600000         ldiu      0,r0                  ; |117| 
      567                   ;*      Branch Occurs to L53            ; |117| 
      568 000000d2          L46:        
      569                           .line   32
      570                   ;----------------------------------------------------------------------
      571                   ; 119 | if (n>FLASH_SECTOR_SIZE) return FLASH_ERROR_BLKADDR;                   
      572                   ;----------------------------------------------------------------------
      573 000000d2 08700000-        ldp       @CL18,DP
      574 000000d3 50400302         ldiu      *+fp(2),r0            ; |119| 
      575 000000d4 04a00012-        cmpi      @CL18,r0              ; |119| 
      576 000000d5 6a020004         bls       L48                   ; |119| 
      577                   ;*      Branch Occurs to L48            ; |119| 
      578 000000d6 6a20001e         bud       L53                   ; |119| 
      579 000000d7 0c800000         nop
      580 000000d8 0c800000         nop
      581 000000d9 50600020         ldiu      32,r0                 ; |119| 
      582                   ;*      Branch Occurs to L53            ; |119| 
      583 000000da          L48:        
      584                           .line   33
      585                   ;----------------------------------------------------------------------
      586                   ; 120 | if (((unsigned int)addr+n-1) >= ((unsigned int)FLASH_LOC+f)) return FLA
      587                   ;     | SH_ERROR_BLKADDR;                                                      
      588                   ;----------------------------------------------------------------------
      589 000000da 08700000-        ldp       @CL8,DP
      590 000000db 50400302         ldiu      *+fp(2),r0            ; |120| 
      591 000000dc 50210008-        ldiu      @CL8,r1               ; |120| 
      592 000000dd 02400301         addi      *+fp(1),r0            ; |120| Unsigned
      593 000000de 02410304         addi      *+fp(4),r1            ; |120| Unsigned
      594 000000df 18600001         subi      1,r0                  ; |120| Unsigned
TMS320C3x/4x COFF AssemblerVersion 5.12     Mon Oct 31 11:29:48 2011
Copyright (c) 1987-1999 Texas Instruments Incorporatedasm30.exe -@_330.AAB 

D:\CCS\EEA_SA_V611beta\BOOT\SOURCE\ASM\flash.asm                     PAGE   12

      595 000000e0 23800001         cmpi3     r1,r0                 ; |120| 
      596 000000e1 6a010004         blo       L50                   ; |120| 
      597                   ;*      Branch Occurs to L50            ; |120| 
      598 000000e2 6a200012         bud       L53                   ; |120| 
      599 000000e3 0c800000         nop
      600 000000e4 0c800000         nop
      601 000000e5 50600020         ldiu      32,r0                 ; |120| 
      602                   ;*      Branch Occurs to L53            ; |120| 
      603 000000e6          L50:        
      604                           .line   34
      605                   ;----------------------------------------------------------------------
      606                   ; 121 | mask = 0xFFFFFFFF ^ (FLASH_SECTOR_SIZE-1);                             
      607                   ;----------------------------------------------------------------------
      608 000000e6 08700000-        ldp       @CL19,DP
      609 000000e7 50200013-        ldiu      @CL19,r0              ; |121| 
      610 000000e8 15400305         sti       r0,*+fp(5)            ; |121| 
      611                           .line   35
      612                   ;----------------------------------------------------------------------
      613                   ; 122 | f = ((unsigned int)addr&mask) + FLASH_SECTOR_SIZE;                     
      614                   ;----------------------------------------------------------------------
      615 000000e9 08700000-        ldp       @CL18,DP
      616 000000ea 02c00301         and       *+fp(1),r0            ; |122| 
      617 000000eb 02200012-        addi      @CL18,r0              ; |122| Unsigned
      618 000000ec 15400304         sti       r0,*+fp(4)            ; |122| 
      619                           .line   36
      620                   ;----------------------------------------------------------------------
      621                   ; 123 | if (((unsigned int)addr+n-1) < ((unsigned int)f)) return 0;            
      622                   ;----------------------------------------------------------------------
      623 000000ed 50400302         ldiu      *+fp(2),r0            ; |123| 
      624 000000ee 02400301         addi      *+fp(1),r0            ; |123| Unsigned
      625 000000ef 18600001         subi      1,r0                  ; |123| Unsigned
      626 000000f0 04c00304         cmpi      *+fp(4),r0            ; |123| 
      627 000000f1 6a040004         bhs       L52                   ; |123| 
      628                   ;*      Branch Occurs to L52            ; |123| 
      629 000000f2 6a200002         bud       L53                   ; |123| 
      630 000000f3 0c800000         nop
      631 000000f4 0c800000         nop
      632 000000f5 50600000         ldiu      0,r0                  ; |123| 
      633                   ;*      Branch Occurs to L53            ; |123| 
      634 000000f6          L52:        
      635                           .line   39
      636                   ;----------------------------------------------------------------------
      637                   ; 126 | return FLASH_ERROR_BLKADDR;                                            
      638                   ;----------------------------------------------------------------------
      639 000000f6 50600020         ldiu      32,r0                 ; |126| 
      640 000000f7          L53:        
      641                           .line   40
      642                                                           ; Begin Epilog Code
      643 000000f7 50410b01         ldiu      *-fp(1),r1            ; |127| 
      644 000000f8 504bc300         ldiu      *fp,fp                ; |127| 
      645                                                           ; Unallocate the Frame
      646 000000f9 18740007         subi      7,sp                  ; |127| 
      647 000000fa 68000001         bu        r1
      648                   ;*      Branch Occurs to r1 
TMS320C3x/4x COFF AssemblerVersion 5.12     Mon Oct 31 11:29:48 2011
Copyright (c) 1987-1999 Texas Instruments Incorporatedasm30.exe -@_330.AAB 

D:\CCS\EEA_SA_V611beta\BOOT\SOURCE\ASM\flash.asm                     PAGE   13

      649                           .endfunc        127,000000000h,5
      650                   
      651                   
      652 000000fb                  .sect    "internal_RAM"
      653                   
      654                           .global _FLASH_LOCK_BLK
      655                           .sym    _FLASH_LOCK_BLK,_FLASH_LOCK_BLK,36,2,0
      656                           .func   129
      657                   ;******************************************************************************
      658                   ;* FUNCTION NAME: _FLASH_LOCK_BLK                                             *
      659                   ;*                                                                            *
      660                   ;*   Architecture       : TMS320C33                                           *
      661                   ;*   Calling Convention : TI Standard Register Parameters                     *
      662                   ;*   Function Uses Regs : r0,r2,ar0,ar2,st                                    *
      663                   ;*   Regs Saved         :                                                     *
      664                   ;*   Stack Frame        : Full (w/ debug)                                     *
      665                   ;*   Total Frame Size   : 2 Call + 0 Parm + 4 Auto + 0 SOE = 6 words          *
      666                   ;******************************************************************************
      667 000000fb          _FLASH_LOCK_BLK:
      668                   ;* ar2   assigned to _addr
      669                           .sym    _addr,10,30,17,32
      670                   ;* r2    assigned to _lock
      671                           .sym    _lock,2,4,17,32
      672                           .sym    _addr,1,30,1,32
      673                           .sym    _lock,2,4,1,32
      674                           .sym    _i,3,4,1,32
      675                           .sym    _r,4,4,1,32
      676                           .line   1
      677                   ;----------------------------------------------------------------------
      678                   ; 129 | int FLASH_LOCK_BLK(unsigned int* addr, int lock)                       
      679                   ;----------------------------------------------------------------------
      680 000000fb 0f2b0000         push      fp
      681 000000fc 500b0014         ldiu      sp,fp
      682 000000fd 02740004         addi      4,sp
      683                           .line   2
      684                   ;----------------------------------------------------------------------
      685                   ; 131 | int i;                                                                 
      686                   ; 132 | int r;                                                                 
      687                   ;----------------------------------------------------------------------
      688 000000fe 15420302         sti       r2,*+fp(2)            ; |130| 
      689 000000ff 154a0301         sti       ar2,*+fp(1)           ; |130| 
      690                           .line   6
      691                   ;----------------------------------------------------------------------
      692                   ; 134 | i = FLASH_CHECK_ADDR(addr, 0);                                         
      693                   ;----------------------------------------------------------------------
      694 00000100 08700000-        ldp       @CL20,DP
      695 00000101 50200014-        ldiu      @CL20,r0              ; |134| 
      696 00000102 50620000         ldiu      0,r2                  ; |134| 
      697 00000103 70000000         callu     r0                    ; far call to _FLASH_CHECK_ADDR ; |134| 
      698                                                           ; |134| Far Call Occurs
      699 00000104 15400303         sti       r0,*+fp(3)            ; |134| 
      700                           .line   7
      701                   ;----------------------------------------------------------------------
      702                   ; 135 | if (i) return i;                                                       
TMS320C3x/4x COFF AssemblerVersion 5.12     Mon Oct 31 11:29:48 2011
Copyright (c) 1987-1999 Texas Instruments Incorporatedasm30.exe -@_330.AAB 

D:\CCS\EEA_SA_V611beta\BOOT\SOURCE\ASM\flash.asm                     PAGE   14

      703                   ;----------------------------------------------------------------------
      704 00000105 04e00000         cmpi      0,r0                  ; |135| 
      705 00000106 6a050001         beq       L57                   ; |135| 
      706                   ;*      Branch Occurs to L57            ; |135| 
      707 00000107 6a000030         bu        L66                   ; |135| 
      708                   ;*      Branch Occurs to L66            ; |135| 
      709 00000108          L57:        
      710                           .line   9
      711                   ;----------------------------------------------------------------------
      712                   ; 137 | _GIEP;                                                                 
      713                   ; 139 | switch(lock)                                                           
      714                   ; 141 |         case 0:                                                        
      715                   ;----------------------------------------------------------------------
      716 00000108 0f350000         push    ST                      
      717 00000109 03752000         andn    2000h, ST       
      718 0000010a 6a00001b         bu        L62                   ; |128| 
      719                   ;*      Branch Occurs to L62            ; |128| 
      720 0000010b          L58:        
      721                           .line   15
      722                   ;----------------------------------------------------------------------
      723                   ; 143 | addr[0] = BLOCK_LOCK;                                                  
      724                   ;----------------------------------------------------------------------
      725 0000010b 08700000-        ldp       @CL21,DP
      726 0000010c 50480301         ldiu      *+fp(1),ar0           ; |143| 
      727 0000010d 50200015-        ldiu      @CL21,r0              ; |143| 
      728 0000010e 1540c000         sti       r0,*ar0               ; |143| 
      729                           .line   16
      730                   ;----------------------------------------------------------------------
      731                   ; 144 | addr[0] = BLOCK_LOCK_UNLOCK;                                           
      732                   ;----------------------------------------------------------------------
      733 0000010f 08700000-        ldp       @CL22,DP
      734 00000110 50480301         ldiu      *+fp(1),ar0           ; |144| 
      735 00000111 50200016-        ldiu      @CL22,r0              ; |144| 
      736 00000112 1540c000         sti       r0,*ar0               ; |144| 
      737                           .line   17
      738                   ;----------------------------------------------------------------------
      739                   ; 145 | break;                                                                 
      740                   ; 148 | case 1:                                                                
      741                   ;----------------------------------------------------------------------
      742 00000113 6a000019         bu        L65                   ; |145| 
      743                   ;*      Branch Occurs to L65            ; |145| 
      744 00000114          L59:        
      745                           .line   22
      746                   ;----------------------------------------------------------------------
      747                   ; 150 | addr[0] = BLOCK_LOCK;                                                  
      748                   ;----------------------------------------------------------------------
      749 00000114 08700000-        ldp       @CL21,DP
      750 00000115 50480301         ldiu      *+fp(1),ar0           ; |150| 
      751 00000116 50200015-        ldiu      @CL21,r0              ; |150| 
      752 00000117 1540c000         sti       r0,*ar0               ; |150| 
      753                           .line   23
      754                   ;----------------------------------------------------------------------
      755                   ; 151 | addr[0] = BLOCK_LOCK_LOCK;                                             
      756                   ;----------------------------------------------------------------------
TMS320C3x/4x COFF AssemblerVersion 5.12     Mon Oct 31 11:29:48 2011
Copyright (c) 1987-1999 Texas Instruments Incorporatedasm30.exe -@_330.AAB 

D:\CCS\EEA_SA_V611beta\BOOT\SOURCE\ASM\flash.asm                     PAGE   15

      757 00000118 08700000-        ldp       @CL23,DP
      758 00000119 50480301         ldiu      *+fp(1),ar0           ; |151| 
      759 0000011a 50200017-        ldiu      @CL23,r0              ; |151| 
      760 0000011b 1540c000         sti       r0,*ar0               ; |151| 
      761                           .line   24
      762                   ;----------------------------------------------------------------------
      763                   ; 152 | break;                                                                 
      764                   ; 155 | case 2:                                                                
      765                   ;----------------------------------------------------------------------
      766 0000011c 6a000010         bu        L65                   ; |152| 
      767                   ;*      Branch Occurs to L65            ; |152| 
      768 0000011d          L60:        
      769                           .line   29
      770                   ;----------------------------------------------------------------------
      771                   ; 157 | addr[0] = BLOCK_LOCK;                                                  
      772                   ;----------------------------------------------------------------------
      773 0000011d 08700000-        ldp       @CL21,DP
      774 0000011e 50480301         ldiu      *+fp(1),ar0           ; |157| 
      775 0000011f 50200015-        ldiu      @CL21,r0              ; |157| 
      776 00000120 1540c000         sti       r0,*ar0               ; |157| 
      777                           .line   30
      778                   ;----------------------------------------------------------------------
      779                   ; 158 | addr[0] = BLOCK_LOCK_LOCKDOWN;                                         
      780                   ;----------------------------------------------------------------------
      781 00000121 08700000-        ldp       @CL24,DP
      782 00000122 50480301         ldiu      *+fp(1),ar0           ; |158| 
      783 00000123 50200018-        ldiu      @CL24,r0              ; |158| 
      784 00000124 1540c000         sti       r0,*ar0               ; |158| 
      785                           .line   31
      786                   ;----------------------------------------------------------------------
      787                   ; 159 | break;                                                                 
      788                   ;----------------------------------------------------------------------
      789 00000125 6a000007         bu        L65                   ; |159| 
      790                   ;*      Branch Occurs to L65            ; |159| 
      791 00000126          L62:        
      792                           .line   11
      793 00000126 50400302         ldiu      *+fp(2),r0            ; |139| 
      794 00000127 04e00000         cmpi      0,r0                  ; |139| 
      795 00000128 6a05ffe2         beq       L58                   ; |139| 
      796                   ;*      Branch Occurs to L58            ; |139| 
      797 00000129 04e00001         cmpi      1,r0                  ; |139| 
      798 0000012a 6a05ffe9         beq       L59                   ; |139| 
      799                   ;*      Branch Occurs to L59            ; |139| 
      800 0000012b 04e00002         cmpi      2,r0                  ; |139| 
      801 0000012c 6a05fff0         beq       L60                   ; |139| 
      802                   ;*      Branch Occurs to L60            ; |139| 
      803 0000012d          L65:        
      804                           .line   35
      805                   ;----------------------------------------------------------------------
      806                   ; 163 | r = FLASH_STATUS();                                                    
      807                   ;----------------------------------------------------------------------
      808 0000012d 08700000-        ldp       @CL25,DP
      809 0000012e 50200019-        ldiu      @CL25,r0              ; |163| 
      810 0000012f 70000000         callu     r0                    ; far call to _FLASH_STATUS     ; |163| 
TMS320C3x/4x COFF AssemblerVersion 5.12     Mon Oct 31 11:29:48 2011
Copyright (c) 1987-1999 Texas Instruments Incorporatedasm30.exe -@_330.AAB 

D:\CCS\EEA_SA_V611beta\BOOT\SOURCE\ASM\flash.asm                     PAGE   16

      811                                                           ; |163| Far Call Occurs
      812 00000130 15400304         sti       r0,*+fp(4)            ; |163| 
      813                           .line   37
      814                   ;----------------------------------------------------------------------
      815                   ; 165 | *FLASH_LOC = READ_ARRAY;                                               
      816                   ;----------------------------------------------------------------------
      817 00000131 08700000-        ldp       @CL1,DP
      818 00000132 50280001-        ldiu      @CL1,ar0              ; |165| 
      819 00000133 08700000-        ldp       @CL4,DP
      820 00000134 50200004-        ldiu      @CL4,r0               ; |165| 
      821 00000135 1540c000         sti       r0,*ar0               ; |165| 
      822                           .line   39
      823                   ;----------------------------------------------------------------------
      824                   ; 167 | GIEP;                                                                  
      825                   ;----------------------------------------------------------------------
      826 00000136 0e350000         pop             ST                      
      827                           .line   41
      828                   ;----------------------------------------------------------------------
      829                   ; 169 | return r;                                                              
      830                   ;----------------------------------------------------------------------
      831 00000137 50400304         ldiu      *+fp(4),r0            ; |169| 
      832 00000138          L66:        
      833                           .line   42
      834                                                           ; Begin Epilog Code
      835 00000138 50410b01         ldiu      *-fp(1),r1            ; |170| 
      836 00000139 504bc300         ldiu      *fp,fp                ; |170| 
      837                                                           ; Unallocate the Frame
      838 0000013a 18740006         subi      6,sp                  ; |170| 
      839 0000013b 68000001         bu        r1
      840                   ;*      Branch Occurs to r1 
      841                           .endfunc        170,000000000h,4
      842                   
      843                   
      844 0000013c                  .sect    "internal_RAM"
      845                   
      846                           .global _FLASH_ERASE_BLK
      847                           .sym    _FLASH_ERASE_BLK,_FLASH_ERASE_BLK,36,2,0
      848                           .func   172
      849                   ;******************************************************************************
      850                   ;* FUNCTION NAME: _FLASH_ERASE_BLK                                            *
      851                   ;*                                                                            *
      852                   ;*   Architecture       : TMS320C33                                           *
      853                   ;*   Calling Convention : TI Standard Register Parameters                     *
      854                   ;*   Function Uses Regs : r0,r2,ar0,ar2,st                                    *
      855                   ;*   Regs Saved         :                                                     *
      856                   ;*   Stack Frame        : Full (w/ debug)                                     *
      857                   ;*   Total Frame Size   : 2 Call + 0 Parm + 4 Auto + 0 SOE = 6 words          *
      858                   ;******************************************************************************
      859 0000013c          _FLASH_ERASE_BLK:
      860                   ;* ar2   assigned to _addr
      861                           .sym    _addr,10,30,17,32
      862                           .sym    _addr,1,30,1,32
      863                           .sym    _status,2,14,1,32
      864                           .sym    _i,3,4,1,32
TMS320C3x/4x COFF AssemblerVersion 5.12     Mon Oct 31 11:29:48 2011
Copyright (c) 1987-1999 Texas Instruments Incorporatedasm30.exe -@_330.AAB 

D:\CCS\EEA_SA_V611beta\BOOT\SOURCE\ASM\flash.asm                     PAGE   17

      865                           .sym    _r,4,4,1,32
      866                           .line   1
      867                   ;----------------------------------------------------------------------
      868                   ; 172 | int FLASH_ERASE_BLK(unsigned int* addr)                                
      869                   ;----------------------------------------------------------------------
      870 0000013c 0f2b0000         push      fp
      871 0000013d 500b0014         ldiu      sp,fp
      872 0000013e 02740004         addi      4,sp
      873                           .line   2
      874                   ;----------------------------------------------------------------------
      875                   ; 174 | unsigned int status;                                                   
      876                   ; 175 | int i;                                                                 
      877                   ; 176 | int r;                                                                 
      878                   ;----------------------------------------------------------------------
      879 0000013f 154a0301         sti       ar2,*+fp(1)           ; |173| 
      880                           .line   7
      881                   ;----------------------------------------------------------------------
      882                   ; 178 | i = FLASH_CHECK_ADDR(addr, 0);                                         
      883                   ;----------------------------------------------------------------------
      884 00000140 08700000-        ldp       @CL20,DP
      885 00000141 50620000         ldiu      0,r2                  ; |178| 
      886 00000142 50200014-        ldiu      @CL20,r0              ; |178| 
      887 00000143 70000000         callu     r0                    ; far call to _FLASH_CHECK_ADDR ; |178| 
      888                                                           ; |178| Far Call Occurs
      889 00000144 15400303         sti       r0,*+fp(3)            ; |178| 
      890                           .line   8
      891                   ;----------------------------------------------------------------------
      892                   ; 179 | if (i) return i;                                                       
      893                   ;----------------------------------------------------------------------
      894 00000145 04e00000         cmpi      0,r0                  ; |179| 
      895 00000146 6a050001         beq       L70                   ; |179| 
      896                   ;*      Branch Occurs to L70            ; |179| 
      897 00000147 6a000045         bu        L73                   ; |179| 
      898                   ;*      Branch Occurs to L73            ; |179| 
      899 00000148          L70:        
      900                           .line   10
      901                   ;----------------------------------------------------------------------
      902                   ; 181 | _GIEP; DISABLE_WDOG;                                                   
      903                   ;----------------------------------------------------------------------
      904 00000148 0f350000         push    ST                      
      905 00000149 03752000         andn    2000h, ST       
      906 0000014a 0f350000         push    ST                      
      907 0000014b 03752000         andn    2000h, ST       
      908 0000014c 08700000-        ldp       @CL26,DP
      909 0000014d 5028001a-        ldiu      @CL26,ar0             ; |181| 
      910 0000014e 506000f7         ldiu      247,r0                ; |181| 
      911 0000014f 21a0c000         and3      r0,*ar0,r0            ; |181| 
      912 00000150 1540c000         sti       r0,*ar0               ; |181| 
      913 00000151 0e350000         pop             ST                      
      914                           .line   12
      915                   ;----------------------------------------------------------------------
      916                   ; 183 | FLASH_LOCK_BLK(addr, FALSE);                                           
      917                   ;----------------------------------------------------------------------
      918 00000152 50620000         ldiu      0,r2                  ; |183| 
TMS320C3x/4x COFF AssemblerVersion 5.12     Mon Oct 31 11:29:48 2011
Copyright (c) 1987-1999 Texas Instruments Incorporatedasm30.exe -@_330.AAB 

D:\CCS\EEA_SA_V611beta\BOOT\SOURCE\ASM\flash.asm                     PAGE   18

      919 00000153 08700000-        ldp       @CL27,DP
      920 00000154 504a0301         ldiu      *+fp(1),ar2           ; |183| 
      921 00000155 5020001b-        ldiu      @CL27,r0              ; |183| 
      922 00000156 70000000         callu     r0                    ; far call to _FLASH_LOCK_BLK   ; |183| 
      923                                                           ; |183| Far Call Occurs
      924                           .line   14
      925                   ;----------------------------------------------------------------------
      926                   ; 185 | *FLASH_LOC = BLOCK_ERASE;                                              
      927                   ;----------------------------------------------------------------------
      928 00000157 08700000-        ldp       @CL1,DP
      929 00000158 50280001-        ldiu      @CL1,ar0              ; |185| 
      930 00000159 08700000-        ldp       @CL28,DP
      931 0000015a 5020001c-        ldiu      @CL28,r0              ; |185| 
      932 0000015b 1540c000         sti       r0,*ar0               ; |185| 
      933                           .line   15
      934                   ;----------------------------------------------------------------------
      935                   ; 186 | addr[0] = BLOCK_ERASE_CONFIRM;                                         
      936                   ;----------------------------------------------------------------------
      937 0000015c 08700000-        ldp       @CL22,DP
      938 0000015d 50480301         ldiu      *+fp(1),ar0           ; |186| 
      939 0000015e 50200016-        ldiu      @CL22,r0              ; |186| 
      940 0000015f 1540c000         sti       r0,*ar0               ; |186| 
      941                           .line   17
      942                   ;----------------------------------------------------------------------
      943                   ; 188 | status = *FLASH_LOC;                                                   
      944                   ;----------------------------------------------------------------------
      945 00000160 08700000-        ldp       @CL1,DP
      946 00000161 50280001-        ldiu      @CL1,ar0              ; |188| 
      947 00000162 5040c000         ldiu      *ar0,r0               ; |188| 
      948 00000163 15400302         sti       r0,*+fp(2)            ; |188| 
      949                           .line   18
      950                   ;----------------------------------------------------------------------
      951                   ; 189 | while (!((status & 0x00800080)==0x00800080))                           
      952                   ;----------------------------------------------------------------------
      953 00000164 08700000-        ldp       @CL29,DP
      954 00000165 5020001d-        ldiu      @CL29,r0              ; |189| 
      955 00000166 02c00302         and       *+fp(2),r0            ; |189| 
      956 00000167 04a0001d-        cmpi      @CL29,r0              ; |189| 
      957 00000168 6a050009         beq       L72                   ; |189| 
      958                   ;*      Branch Occurs to L72            ; |189| 
      959 00000169          L71:        
      960                           .line   20
      961                   ;----------------------------------------------------------------------
      962                   ; 191 | status = *FLASH_LOC;                                                   
      963                   ;----------------------------------------------------------------------
      964 00000169 08700000-        ldp       @CL1,DP
      965 0000016a 50280001-        ldiu      @CL1,ar0              ; |191| 
      966 0000016b 5040c000         ldiu      *ar0,r0               ; |191| 
      967 0000016c 15400302         sti       r0,*+fp(2)            ; |191| 
      968                           .line   18
      969 0000016d 08700000-        ldp       @CL29,DP
      970 0000016e 5020001d-        ldiu      @CL29,r0              ; |189| 
      971 0000016f 02c00302         and       *+fp(2),r0            ; |189| 
      972 00000170 04a0001d-        cmpi      @CL29,r0              ; |189| 
TMS320C3x/4x COFF AssemblerVersion 5.12     Mon Oct 31 11:29:48 2011
Copyright (c) 1987-1999 Texas Instruments Incorporatedasm30.exe -@_330.AAB 

D:\CCS\EEA_SA_V611beta\BOOT\SOURCE\ASM\flash.asm                     PAGE   19

      973 00000171 6a06fff7         bne       L71                   ; |189| 
      974                   ;*      Branch Occurs to L71            ; |189| 
      975 00000172          L72:        
      976                           .line   23
      977                   ;----------------------------------------------------------------------
      978                   ; 194 | r = FLASH_STATUS();                                                    
      979                   ;----------------------------------------------------------------------
      980 00000172 08700000-        ldp       @CL25,DP
      981 00000173 50200019-        ldiu      @CL25,r0              ; |194| 
      982 00000174 70000000         callu     r0                    ; far call to _FLASH_STATUS     ; |194| 
      983                                                           ; |194| Far Call Occurs
      984 00000175 15400304         sti       r0,*+fp(4)            ; |194| 
      985                           .line   25
      986                   ;----------------------------------------------------------------------
      987                   ; 196 | *FLASH_LOC = READ_ARRAY;                                               
      988                   ;----------------------------------------------------------------------
      989 00000176 08700000-        ldp       @CL1,DP
      990 00000177 50280001-        ldiu      @CL1,ar0              ; |196| 
      991 00000178 08700000-        ldp       @CL4,DP
      992 00000179 50200004-        ldiu      @CL4,r0               ; |196| 
      993 0000017a 1540c000         sti       r0,*ar0               ; |196| 
      994                           .line   27
      995                   ;----------------------------------------------------------------------
      996                   ; 198 | FLASH_LOCK_BLK(addr, TRUE);                                            
      997                   ;----------------------------------------------------------------------
      998 0000017b 50620001         ldiu      1,r2                  ; |198| 
      999 0000017c 08700000-        ldp       @CL27,DP
     1000 0000017d 504a0301         ldiu      *+fp(1),ar2           ; |198| 
     1001 0000017e 5020001b-        ldiu      @CL27,r0              ; |198| 
     1002 0000017f 70000000         callu     r0                    ; far call to _FLASH_LOCK_BLK   ; |198| 
     1003                                                           ; |198| Far Call Occurs
     1004                           .line   29
     1005                   ;----------------------------------------------------------------------
     1006                   ; 200 | ENABLE_WDOG; GIEP;                                                     
     1007                   ;----------------------------------------------------------------------
     1008 00000180 0f350000         push    ST                      
     1009 00000181 03752000         andn    2000h, ST       
     1010 00000182 08700000-        ldp       @CL26,DP
     1011 00000183 5028001a-        ldiu      @CL26,ar0             ; |200| 
     1012 00000184 50600008         ldiu      8,r0                  ; |200| 
     1013 00000185 25a0c000         or3       r0,*ar0,r0            ; |200| 
     1014 00000186 1540c000         sti       r0,*ar0               ; |200| 
     1015 00000187 50600080         ldiu      128,r0                ; |200| 
     1016 00000188 25a0c000         or3       r0,*ar0,r0            ; |200| 
     1017 00000189 1540c000         sti       r0,*ar0               ; |200| 
     1018 0000018a 0e350000         pop             ST                      
     1019 0000018b 0e350000         pop             ST                      
     1020                           .line   31
     1021                   ;----------------------------------------------------------------------
     1022                   ; 202 | return r;                                                              
     1023                   ;----------------------------------------------------------------------
     1024 0000018c 50400304         ldiu      *+fp(4),r0            ; |202| 
     1025 0000018d          L73:        
     1026                           .line   32
TMS320C3x/4x COFF AssemblerVersion 5.12     Mon Oct 31 11:29:48 2011
Copyright (c) 1987-1999 Texas Instruments Incorporatedasm30.exe -@_330.AAB 

D:\CCS\EEA_SA_V611beta\BOOT\SOURCE\ASM\flash.asm                     PAGE   20

     1027                                                           ; Begin Epilog Code
     1028 0000018d 50410b01         ldiu      *-fp(1),r1            ; |203| 
     1029 0000018e 504bc300         ldiu      *fp,fp                ; |203| 
     1030                                                           ; Unallocate the Frame
     1031 0000018f 18740006         subi      6,sp                  ; |203| 
     1032 00000190 68000001         bu        r1
     1033                   ;*      Branch Occurs to r1 
     1034                           .endfunc        203,000000000h,4
     1035                   
     1036                   
     1037 00000191                  .sect    "internal_RAM"
     1038                   
     1039                           .global _FLASH_WRITE_BLK
     1040                           .sym    _FLASH_WRITE_BLK,_FLASH_WRITE_BLK,36,2,0
     1041                           .func   205
     1042                   ;******************************************************************************
     1043                   ;* FUNCTION NAME: _FLASH_WRITE_BLK                                            *
     1044                   ;*                                                                            *
     1045                   ;*   Architecture       : TMS320C33                                           *
     1046                   ;*   Calling Convention : TI Standard Register Parameters                     *
     1047                   ;*   Function Uses Regs : r0,r2,r3,ar0,ar1,ar2,ir0,ir1,st                     *
     1048                   ;*   Regs Saved         :                                                     *
     1049                   ;*   Stack Frame        : Full (w/ debug)                                     *
     1050                   ;*   Total Frame Size   : 2 Call + 0 Parm + 6 Auto + 0 SOE = 8 words          *
     1051                   ;******************************************************************************
     1052 00000191          _FLASH_WRITE_BLK:
     1053                   ;* ar2   assigned to _addr
     1054                           .sym    _addr,10,30,17,32
     1055                   ;* r2    assigned to _data
     1056                           .sym    _data,2,30,17,32
     1057                   ;* r3    assigned to _n
     1058                           .sym    _n,3,14,17,32
     1059                           .sym    _addr,1,30,1,32
     1060                           .sym    _data,2,30,1,32
     1061                           .sym    _n,3,14,1,32
     1062                           .sym    _r,4,14,1,32
     1063                           .sym    _status,5,14,1,32
     1064                           .sym    _i,6,4,1,32
     1065                           .line   1
     1066                   ;----------------------------------------------------------------------
     1067                   ; 205 | int FLASH_WRITE_BLK(unsigned int* addr, unsigned int* data, unsigned in
     1068                   ;     | t n)                                                                   
     1069                   ;----------------------------------------------------------------------
     1070 00000191 0f2b0000         push      fp
     1071 00000192 500b0014         ldiu      sp,fp
     1072 00000193 02740006         addi      6,sp
     1073                           .line   2
     1074                   ;----------------------------------------------------------------------
     1075                   ; 207 | unsigned int r;                                                        
     1076                   ; 208 | unsigned int status;                                                   
     1077                   ; 209 | int i;                                                                 
     1078                   ;----------------------------------------------------------------------
     1079 00000194 15430303         sti       r3,*+fp(3)            ; |206| 
     1080 00000195 15420302         sti       r2,*+fp(2)            ; |206| 
TMS320C3x/4x COFF AssemblerVersion 5.12     Mon Oct 31 11:29:48 2011
Copyright (c) 1987-1999 Texas Instruments Incorporatedasm30.exe -@_330.AAB 

D:\CCS\EEA_SA_V611beta\BOOT\SOURCE\ASM\flash.asm                     PAGE   21

     1081 00000196 154a0301         sti       ar2,*+fp(1)           ; |206| 
     1082                           .line   7
     1083                   ;----------------------------------------------------------------------
     1084                   ; 211 | i = FLASH_CHECK_ADDR(addr, n);                                         
     1085                   ;----------------------------------------------------------------------
     1086 00000197 08700000-        ldp       @CL20,DP
     1087 00000198 50200014-        ldiu      @CL20,r0              ; |211| 
     1088 00000199 50020003         ldiu      r3,r2
     1089 0000019a 70000000         callu     r0                    ; far call to _FLASH_CHECK_ADDR ; |211| 
     1090                                                           ; |211| Far Call Occurs
     1091 0000019b 15400306         sti       r0,*+fp(6)            ; |211| 
     1092                           .line   8
     1093                   ;----------------------------------------------------------------------
     1094                   ; 212 | if (i) return i;                                                       
     1095                   ;----------------------------------------------------------------------
     1096 0000019c 04e00000         cmpi      0,r0                  ; |212| 
     1097 0000019d 6a050001         beq       L77                   ; |212| 
     1098                   ;*      Branch Occurs to L77            ; |212| 
     1099 0000019e 6a00006e         bu        L87                   ; |212| 
     1100                   ;*      Branch Occurs to L87            ; |212| 
     1101 0000019f          L77:        
     1102                           .line   10
     1103                   ;----------------------------------------------------------------------
     1104                   ; 214 | _GIEP; DISABLE_WDOG;                                                   
     1105                   ;----------------------------------------------------------------------
     1106 0000019f 0f350000         push    ST                      
     1107 000001a0 03752000         andn    2000h, ST       
     1108 000001a1 0f350000         push    ST                      
     1109 000001a2 03752000         andn    2000h, ST       
     1110 000001a3 08700000-        ldp       @CL26,DP
     1111 000001a4 5028001a-        ldiu      @CL26,ar0             ; |214| 
     1112 000001a5 506000f7         ldiu      247,r0                ; |214| 
     1113 000001a6 21a0c000         and3      r0,*ar0,r0            ; |214| 
     1114 000001a7 1540c000         sti       r0,*ar0               ; |214| 
     1115 000001a8 0e350000         pop             ST                      
     1116                           .line   12
     1117                   ;----------------------------------------------------------------------
     1118                   ; 216 | FLASH_LOCK_BLK(addr, FALSE);                                           
     1119                   ;----------------------------------------------------------------------
     1120 000001a9 50620000         ldiu      0,r2                  ; |216| 
     1121 000001aa 08700000-        ldp       @CL27,DP
     1122 000001ab 504a0301         ldiu      *+fp(1),ar2           ; |216| 
     1123 000001ac 5020001b-        ldiu      @CL27,r0              ; |216| 
     1124 000001ad 70000000         callu     r0                    ; far call to _FLASH_LOCK_BLK   ; |216| 
     1125                                                           ; |216| Far Call Occurs
     1126                           .line   14
     1127                   ;----------------------------------------------------------------------
     1128                   ; 218 | for (i=0;i<n;i++)                                                      
     1129                   ;----------------------------------------------------------------------
     1130 000001ae 50600000         ldiu      0,r0                  ; |218| 
     1131 000001af 15400306         sti       r0,*+fp(6)            ; |218| 
     1132 000001b0 50400306         ldiu      *+fp(6),r0            ; |218| 
     1133 000001b1 04c00303         cmpi      *+fp(3),r0            ; |218| 
     1134 000001b2 6a040028         bhs       L81                   ; |218| 
TMS320C3x/4x COFF AssemblerVersion 5.12     Mon Oct 31 11:29:48 2011
Copyright (c) 1987-1999 Texas Instruments Incorporatedasm30.exe -@_330.AAB 

D:\CCS\EEA_SA_V611beta\BOOT\SOURCE\ASM\flash.asm                     PAGE   22

     1135                   ;*      Branch Occurs to L81            ; |218| 
     1136 000001b3          L78:        
     1137                           .line   16
     1138                   ;----------------------------------------------------------------------
     1139                   ; 220 | *FLASH_LOC = PROGRAM;                                                  
     1140                   ;----------------------------------------------------------------------
     1141 000001b3 08700000-        ldp       @CL1,DP
     1142 000001b4 50280001-        ldiu      @CL1,ar0              ; |220| 
     1143 000001b5 08700000-        ldp       @CL30,DP
     1144 000001b6 5020001e-        ldiu      @CL30,r0              ; |220| 
     1145 000001b7 1540c000         sti       r0,*ar0               ; |220| 
     1146                           .line   17
     1147                   ;----------------------------------------------------------------------
     1148                   ; 221 | addr[i] = data[i];                                                     
     1149                   ;----------------------------------------------------------------------
     1150 000001b8 50490306         ldiu      *+fp(6),ar1           ; |221| 
     1151 000001b9 50510302         ldiu      *+fp(2),ir0           ; |221| 
     1152 000001ba 50520301         ldiu      *+fp(1),ir1           ; |221| 
     1153 000001bb 50080009         ldiu      ar1,ar0               ; |221| 
     1154 000001bc 50404100         ldiu      *+ar1(ir0),r0         ; |221| 
     1155 000001bd 15408000         sti       r0,*+ar0(ir1)         ; |221| 
     1156                           .line   18
     1157                   ;----------------------------------------------------------------------
     1158                   ; 222 | *FLASH_LOC = READ_STATUS;                                              
     1159                   ;----------------------------------------------------------------------
     1160 000001be 08700000-        ldp       @CL1,DP
     1161 000001bf 50280001-        ldiu      @CL1,ar0              ; |222| 
     1162 000001c0 08700000-        ldp       @CL31,DP
     1163 000001c1 5020001f-        ldiu      @CL31,r0              ; |222| 
     1164 000001c2 1540c000         sti       r0,*ar0               ; |222| 
     1165                           .line   19
     1166                   ;----------------------------------------------------------------------
     1167                   ; 223 | status = *FLASH_LOC;                                                   
     1168                   ;----------------------------------------------------------------------
     1169 000001c3 08700000-        ldp       @CL1,DP
     1170 000001c4 50280001-        ldiu      @CL1,ar0              ; |223| 
     1171 000001c5 5040c000         ldiu      *ar0,r0               ; |223| 
     1172 000001c6 15400305         sti       r0,*+fp(5)            ; |223| 
     1173                           .line   20
     1174                   ;----------------------------------------------------------------------
     1175                   ; 224 | while (!((status & 0x00800080)==0x00800080))                           
     1176                   ;----------------------------------------------------------------------
     1177 000001c7 08700000-        ldp       @CL29,DP
     1178 000001c8 5020001d-        ldiu      @CL29,r0              ; |224| 
     1179 000001c9 02c00305         and       *+fp(5),r0            ; |224| 
     1180 000001ca 04a0001d-        cmpi      @CL29,r0              ; |224| 
     1181 000001cb 6a050009         beq       L80                   ; |224| 
     1182                   ;*      Branch Occurs to L80            ; |224| 
     1183 000001cc          L79:        
     1184                           .line   22
     1185                   ;----------------------------------------------------------------------
     1186                   ; 226 | status = *FLASH_LOC;                                                   
     1187                   ;----------------------------------------------------------------------
     1188 000001cc 08700000-        ldp       @CL1,DP
TMS320C3x/4x COFF AssemblerVersion 5.12     Mon Oct 31 11:29:48 2011
Copyright (c) 1987-1999 Texas Instruments Incorporatedasm30.exe -@_330.AAB 

D:\CCS\EEA_SA_V611beta\BOOT\SOURCE\ASM\flash.asm                     PAGE   23

     1189 000001cd 50280001-        ldiu      @CL1,ar0              ; |226| 
     1190 000001ce 5040c000         ldiu      *ar0,r0               ; |226| 
     1191 000001cf 15400305         sti       r0,*+fp(5)            ; |226| 
     1192                           .line   20
     1193 000001d0 08700000-        ldp       @CL29,DP
     1194 000001d1 5020001d-        ldiu      @CL29,r0              ; |224| 
     1195 000001d2 02c00305         and       *+fp(5),r0            ; |224| 
     1196 000001d3 04a0001d-        cmpi      @CL29,r0              ; |224| 
     1197 000001d4 6a06fff7         bne       L79                   ; |224| 
     1198                   ;*      Branch Occurs to L79            ; |224| 
     1199 000001d5          L80:        
     1200                           .line   14
     1201 000001d5 50600001         ldiu      1,r0                  ; |218| 
     1202 000001d6 02400306         addi      *+fp(6),r0            ; |218| 
     1203 000001d7 15400306         sti       r0,*+fp(6)            ; |218| 
     1204 000001d8 50400306         ldiu      *+fp(6),r0            ; |218| 
     1205 000001d9 04c00303         cmpi      *+fp(3),r0            ; |218| 
     1206 000001da 6a01ffd8         blo       L78                   ; |218| 
     1207                   ;*      Branch Occurs to L78            ; |218| 
     1208 000001db          L81:        
     1209                           .line   26
     1210                   ;----------------------------------------------------------------------
     1211                   ; 230 | r = FLASH_STATUS();                                                    
     1212                   ;----------------------------------------------------------------------
     1213 000001db 08700000-        ldp       @CL25,DP
     1214 000001dc 50200019-        ldiu      @CL25,r0              ; |230| 
     1215 000001dd 70000000         callu     r0                    ; far call to _FLASH_STATUS     ; |230| 
     1216                                                           ; |230| Far Call Occurs
     1217 000001de 15400304         sti       r0,*+fp(4)            ; |230| 
     1218                           .line   28
     1219                   ;----------------------------------------------------------------------
     1220                   ; 232 | *FLASH_LOC = READ_ARRAY;                                               
     1221                   ;----------------------------------------------------------------------
     1222 000001df 08700000-        ldp       @CL1,DP
     1223 000001e0 50280001-        ldiu      @CL1,ar0              ; |232| 
     1224 000001e1 08700000-        ldp       @CL4,DP
     1225 000001e2 50200004-        ldiu      @CL4,r0               ; |232| 
     1226 000001e3 1540c000         sti       r0,*ar0               ; |232| 
     1227                           .line   30
     1228                   ;----------------------------------------------------------------------
     1229                   ; 234 | FLASH_LOCK_BLK(addr, TRUE);                                            
     1230                   ;----------------------------------------------------------------------
     1231 000001e4 50620001         ldiu      1,r2                  ; |234| 
     1232 000001e5 08700000-        ldp       @CL27,DP
     1233 000001e6 504a0301         ldiu      *+fp(1),ar2           ; |234| 
     1234 000001e7 5020001b-        ldiu      @CL27,r0              ; |234| 
     1235 000001e8 70000000         callu     r0                    ; far call to _FLASH_LOCK_BLK   ; |234| 
     1236                                                           ; |234| Far Call Occurs
     1237                           .line   32
     1238                   ;----------------------------------------------------------------------
     1239                   ; 236 | if (!r)                                                                
     1240                   ;----------------------------------------------------------------------
     1241 000001e9 50400304         ldiu      *+fp(4),r0            ; |236| 
     1242 000001ea 04e00000         cmpi      0,r0                  ; |236| 
TMS320C3x/4x COFF AssemblerVersion 5.12     Mon Oct 31 11:29:48 2011
Copyright (c) 1987-1999 Texas Instruments Incorporatedasm30.exe -@_330.AAB 

D:\CCS\EEA_SA_V611beta\BOOT\SOURCE\ASM\flash.asm                     PAGE   24

     1243 000001eb 6a060014         bne       L86                   ; |236| 
     1244                   ;*      Branch Occurs to L86            ; |236| 
     1245                           .line   34
     1246                   ;----------------------------------------------------------------------
     1247                   ; 238 | for (i=0;i<n;i++)                                                      
     1248                   ;----------------------------------------------------------------------
     1249 000001ec 50600000         ldiu      0,r0                  ; |238| 
     1250 000001ed 15400306         sti       r0,*+fp(6)            ; |238| 
     1251 000001ee 50400306         ldiu      *+fp(6),r0            ; |238| 
     1252 000001ef 04c00303         cmpi      *+fp(3),r0            ; |238| 
     1253 000001f0 6a04000f         bhs       L86                   ; |238| 
     1254                   ;*      Branch Occurs to L86            ; |238| 
     1255 000001f1          L83:        
     1256                           .line   36
     1257                   ;----------------------------------------------------------------------
     1258                   ; 240 | if (addr[i] != data[i])                                                
     1259                   ;----------------------------------------------------------------------
     1260 000001f1 50490306         ldiu      *+fp(6),ar1           ; |240| 
     1261 000001f2 50520302         ldiu      *+fp(2),ir1           ; |240| 
     1262 000001f3 50510301         ldiu      *+fp(1),ir0           ; |240| 
     1263 000001f4 50080009         ldiu      ar1,ar0               ; |240| 
     1264 000001f5 23e04081         cmpi3     *+ar1(ir1),*+ar0(ir0) ; |240| 
     1265 000001f6 6a050003         beq       L85                   ; |240| 
     1266                   ;*      Branch Occurs to L85            ; |240| 
     1267                           .line   38
     1268                   ;----------------------------------------------------------------------
     1269                   ; 242 | r = FLASH_ERROR_PROG;                                                  
     1270                   ;----------------------------------------------------------------------
     1271 000001f7 50600002         ldiu      2,r0                  ; |242| 
     1272 000001f8 15400304         sti       r0,*+fp(4)            ; |242| 
     1273                           .line   39
     1274                   ;----------------------------------------------------------------------
     1275                   ; 243 | break;                                                                 
     1276                   ;----------------------------------------------------------------------
     1277 000001f9 6a000006         bu        L86                   ; |243| 
     1278                   ;*      Branch Occurs to L86            ; |243| 
     1279 000001fa          L85:        
     1280                           .line   34
     1281 000001fa 50600001         ldiu      1,r0                  ; |238| 
     1282 000001fb 02400306         addi      *+fp(6),r0            ; |238| 
     1283 000001fc 15400306         sti       r0,*+fp(6)            ; |238| 
     1284 000001fd 50400306         ldiu      *+fp(6),r0            ; |238| 
     1285 000001fe 04c00303         cmpi      *+fp(3),r0            ; |238| 
     1286 000001ff 6a01fff1         blo       L83                   ; |238| 
     1287                   ;*      Branch Occurs to L83            ; |238| 
     1288 00000200          L86:        
     1289                           .line   44
     1290                   ;----------------------------------------------------------------------
     1291                   ; 248 | ENABLE_WDOG; GIEP;                                                     
     1292                   ;----------------------------------------------------------------------
     1293 00000200 0f350000         push    ST                      
     1294 00000201 03752000         andn    2000h, ST       
     1295 00000202 08700000-        ldp       @CL26,DP
     1296 00000203 5028001a-        ldiu      @CL26,ar0             ; |248| 
TMS320C3x/4x COFF AssemblerVersion 5.12     Mon Oct 31 11:29:48 2011
Copyright (c) 1987-1999 Texas Instruments Incorporatedasm30.exe -@_330.AAB 

D:\CCS\EEA_SA_V611beta\BOOT\SOURCE\ASM\flash.asm                     PAGE   25

     1297 00000204 50600008         ldiu      8,r0                  ; |248| 
     1298 00000205 25a0c000         or3       r0,*ar0,r0            ; |248| 
     1299 00000206 1540c000         sti       r0,*ar0               ; |248| 
     1300 00000207 50600080         ldiu      128,r0                ; |248| 
     1301 00000208 25a0c000         or3       r0,*ar0,r0            ; |248| 
     1302 00000209 1540c000         sti       r0,*ar0               ; |248| 
     1303 0000020a 0e350000         pop             ST                      
     1304 0000020b 0e350000         pop             ST                      
     1305                           .line   46
     1306                   ;----------------------------------------------------------------------
     1307                   ; 250 | return r;                                                              
     1308                   ;----------------------------------------------------------------------
     1309 0000020c 50400304         ldiu      *+fp(4),r0            ; |250| 
     1310 0000020d          L87:        
     1311                           .line   47
     1312                                                           ; Begin Epilog Code
     1313 0000020d 50410b01         ldiu      *-fp(1),r1            ; |251| 
     1314 0000020e 504bc300         ldiu      *fp,fp                ; |251| 
     1315                                                           ; Unallocate the Frame
     1316 0000020f 18740008         subi      8,sp                  ; |251| 
     1317 00000210 68000001         bu        r1
     1318                   ;*      Branch Occurs to r1 
     1319                           .endfunc        251,000000000h,6
     1320                   
     1321                   
     1322 00000211                  .sect    "internal_RAM"
     1323                   
     1324                           .global _FLASH_STATUS
     1325                           .sym    _FLASH_STATUS,_FLASH_STATUS,36,2,0
     1326                           .func   253
     1327                   ;******************************************************************************
     1328                   ;* FUNCTION NAME: _FLASH_STATUS                                               *
     1329                   ;*                                                                            *
     1330                   ;*   Architecture       : TMS320C33                                           *
     1331                   ;*   Calling Convention : TI Standard Register Parameters                     *
     1332                   ;*   Function Uses Regs : r0,ar0,st                                           *
     1333                   ;*   Regs Saved         :                                                     *
     1334                   ;*   Stack Frame        : Full (w/ debug)                                     *
     1335                   ;*   Total Frame Size   : 2 Call + 0 Parm + 2 Auto + 0 SOE = 4 words          *
     1336                   ;******************************************************************************
     1337 00000211          _FLASH_STATUS:
     1338                           .sym    _r,1,14,1,32
     1339                           .sym    _status,2,14,1,32
     1340                           .line   1
     1341                   ;----------------------------------------------------------------------
     1342                   ; 253 | int FLASH_STATUS(void)                                                 
     1343                   ; 255 | unsigned int r;                                                        
     1344                   ; 256 | unsigned int status;                                                   
     1345                   ;----------------------------------------------------------------------
     1346 00000211 0f2b0000         push      fp
     1347 00000212 500b0014         ldiu      sp,fp
     1348 00000213 02740002         addi      2,sp
     1349                           .line   6
     1350                   ;----------------------------------------------------------------------
TMS320C3x/4x COFF AssemblerVersion 5.12     Mon Oct 31 11:29:48 2011
Copyright (c) 1987-1999 Texas Instruments Incorporatedasm30.exe -@_330.AAB 

D:\CCS\EEA_SA_V611beta\BOOT\SOURCE\ASM\flash.asm                     PAGE   26

     1351                   ; 258 | r = 0;                                                                 
     1352                   ;----------------------------------------------------------------------
     1353 00000214 50600000         ldiu      0,r0                  ; |258| 
     1354 00000215 15400301         sti       r0,*+fp(1)            ; |258| 
     1355                           .line   8
     1356                   ;----------------------------------------------------------------------
     1357                   ; 260 | _GIEP; DISABLE_WDOG;                                                   
     1358                   ;----------------------------------------------------------------------
     1359 00000216 0f350000         push    ST                      
     1360 00000217 03752000         andn    2000h, ST       
     1361 00000218 0f350000         push    ST                      
     1362 00000219 03752000         andn    2000h, ST       
     1363 0000021a 08700000-        ldp       @CL26,DP
     1364 0000021b 5028001a-        ldiu      @CL26,ar0             ; |260| 
     1365 0000021c 506000f7         ldiu      247,r0                ; |260| 
     1366 0000021d 21a0c000         and3      r0,*ar0,r0            ; |260| 
     1367 0000021e 1540c000         sti       r0,*ar0               ; |260| 
     1368 0000021f 0e350000         pop             ST                      
     1369                           .line   9
     1370                   ;----------------------------------------------------------------------
     1371                   ; 261 | *FLASH_LOC = READ_STATUS;                                              
     1372                   ;----------------------------------------------------------------------
     1373 00000220 08700000-        ldp       @CL1,DP
     1374 00000221 50280001-        ldiu      @CL1,ar0              ; |261| 
     1375 00000222 08700000-        ldp       @CL31,DP
     1376 00000223 5020001f-        ldiu      @CL31,r0              ; |261| 
     1377 00000224 1540c000         sti       r0,*ar0               ; |261| 
     1378                           .line   10
     1379                   ;----------------------------------------------------------------------
     1380                   ; 262 | status = *FLASH_LOC;                                                   
     1381                   ; 264 | while(TRUE)                                                            
     1382                   ;----------------------------------------------------------------------
     1383 00000225 08700000-        ldp       @CL1,DP
     1384 00000226 50280001-        ldiu      @CL1,ar0              ; |262| 
     1385 00000227 5040c000         ldiu      *ar0,r0               ; |262| 
     1386 00000228 15400302         sti       r0,*+fp(2)            ; |262| 
     1387                           .line   14
     1388                   ;----------------------------------------------------------------------
     1389                   ; 266 | if (status&0x00080008)                                                 
     1390                   ;----------------------------------------------------------------------
     1391 00000229 08700000-        ldp       @CL32,DP
     1392 0000022a 50200020-        ldiu      @CL32,r0              ; |266| 
     1393 0000022b 1a400302         tstb      *+fp(2),r0            ; |266| 
     1394 0000022c 6a050008         beq       L91                   ; |266| 
     1395                   ;*      Branch Occurs to L91            ; |266| 
     1396                           .line   16
     1397                   ;----------------------------------------------------------------------
     1398                   ; 268 | r = FLASH_ERROR_VPP;                                                   
     1399                   ;----------------------------------------------------------------------
     1400 0000022d 50600001         ldiu      1,r0                  ; |268| 
     1401 0000022e 15400301         sti       r0,*+fp(1)            ; |268| 
     1402                           .line   17
     1403                   ;----------------------------------------------------------------------
     1404                   ; 269 | *FLASH_LOC = CLEAR_STATUS;                                             
TMS320C3x/4x COFF AssemblerVersion 5.12     Mon Oct 31 11:29:48 2011
Copyright (c) 1987-1999 Texas Instruments Incorporatedasm30.exe -@_330.AAB 

D:\CCS\EEA_SA_V611beta\BOOT\SOURCE\ASM\flash.asm                     PAGE   27

     1405                   ;----------------------------------------------------------------------
     1406 0000022f 08700000-        ldp       @CL1,DP
     1407 00000230 50280001-        ldiu      @CL1,ar0              ; |269| 
     1408 00000231 08700000-        ldp       @CL33,DP
     1409 00000232 50200021-        ldiu      @CL33,r0              ; |269| 
     1410 00000233 1540c000         sti       r0,*ar0               ; |269| 
     1411                           .line   18
     1412                   ;----------------------------------------------------------------------
     1413                   ; 270 | break;                                                                 
     1414                   ;----------------------------------------------------------------------
     1415 00000234 6a000030         bu        L100                  ; |270| 
     1416                   ;*      Branch Occurs to L100           ; |270| 
     1417 00000235          L91:        
     1418                           .line   21
     1419                   ;----------------------------------------------------------------------
     1420                   ; 273 | if (status&0x00100010)                                                 
     1421                   ;----------------------------------------------------------------------
     1422 00000235 08700000-        ldp       @CL34,DP
     1423 00000236 50200022-        ldiu      @CL34,r0              ; |273| 
     1424 00000237 1a400302         tstb      *+fp(2),r0            ; |273| 
     1425 00000238 6a050008         beq       L93                   ; |273| 
     1426                   ;*      Branch Occurs to L93            ; |273| 
     1427                           .line   23
     1428                   ;----------------------------------------------------------------------
     1429                   ; 275 | r = FLASH_ERROR_PROG;                                                  
     1430                   ;----------------------------------------------------------------------
     1431 00000239 50600002         ldiu      2,r0                  ; |275| 
     1432 0000023a 15400301         sti       r0,*+fp(1)            ; |275| 
     1433                           .line   24
     1434                   ;----------------------------------------------------------------------
     1435                   ; 276 | *FLASH_LOC = CLEAR_STATUS;                                             
     1436                   ;----------------------------------------------------------------------
     1437 0000023b 08700000-        ldp       @CL1,DP
     1438 0000023c 50280001-        ldiu      @CL1,ar0              ; |276| 
     1439 0000023d 08700000-        ldp       @CL33,DP
     1440 0000023e 50200021-        ldiu      @CL33,r0              ; |276| 
     1441 0000023f 1540c000         sti       r0,*ar0               ; |276| 
     1442                           .line   25
     1443                   ;----------------------------------------------------------------------
     1444                   ; 277 | break;                                                                 
     1445                   ;----------------------------------------------------------------------
     1446 00000240 6a000024         bu        L100                  ; |277| 
     1447                   ;*      Branch Occurs to L100           ; |277| 
     1448 00000241          L93:        
     1449                           .line   28
     1450                   ;----------------------------------------------------------------------
     1451                   ; 280 | if (status&0x00020002)                                                 
     1452                   ;----------------------------------------------------------------------
     1453 00000241 08700000-        ldp       @CL35,DP
     1454 00000242 50200023-        ldiu      @CL35,r0              ; |280| 
     1455 00000243 1a400302         tstb      *+fp(2),r0            ; |280| 
     1456 00000244 6a050008         beq       L95                   ; |280| 
     1457                   ;*      Branch Occurs to L95            ; |280| 
     1458                           .line   30
TMS320C3x/4x COFF AssemblerVersion 5.12     Mon Oct 31 11:29:48 2011
Copyright (c) 1987-1999 Texas Instruments Incorporatedasm30.exe -@_330.AAB 

D:\CCS\EEA_SA_V611beta\BOOT\SOURCE\ASM\flash.asm                     PAGE   28

     1459                   ;----------------------------------------------------------------------
     1460                   ; 282 | r = FLASH_ERROR_LOCKED;                                                
     1461                   ;----------------------------------------------------------------------
     1462 00000245 50600004         ldiu      4,r0                  ; |282| 
     1463 00000246 15400301         sti       r0,*+fp(1)            ; |282| 
     1464                           .line   31
     1465                   ;----------------------------------------------------------------------
     1466                   ; 283 | *FLASH_LOC = CLEAR_STATUS;                                             
     1467                   ;----------------------------------------------------------------------
     1468 00000247 08700000-        ldp       @CL1,DP
     1469 00000248 50280001-        ldiu      @CL1,ar0              ; |283| 
     1470 00000249 08700000-        ldp       @CL33,DP
     1471 0000024a 50200021-        ldiu      @CL33,r0              ; |283| 
     1472 0000024b 1540c000         sti       r0,*ar0               ; |283| 
     1473                           .line   32
     1474                   ;----------------------------------------------------------------------
     1475                   ; 284 | break;                                                                 
     1476                   ;----------------------------------------------------------------------
     1477 0000024c 6a000018         bu        L100                  ; |284| 
     1478                   ;*      Branch Occurs to L100           ; |284| 
     1479 0000024d          L95:        
     1480                           .line   35
     1481                   ;----------------------------------------------------------------------
     1482                   ; 287 | if (status&0x00300030)                                                 
     1483                   ;----------------------------------------------------------------------
     1484 0000024d 08700000-        ldp       @CL36,DP
     1485 0000024e 50200024-        ldiu      @CL36,r0              ; |287| 
     1486 0000024f 1a400302         tstb      *+fp(2),r0            ; |287| 
     1487 00000250 6a050008         beq       L97                   ; |287| 
     1488                   ;*      Branch Occurs to L97            ; |287| 
     1489                           .line   37
     1490                   ;----------------------------------------------------------------------
     1491                   ; 289 | r = FLASH_ERROR_CMD_SEQ;                                               
     1492                   ;----------------------------------------------------------------------
     1493 00000251 50600010         ldiu      16,r0                 ; |289| 
     1494 00000252 15400301         sti       r0,*+fp(1)            ; |289| 
     1495                           .line   38
     1496                   ;----------------------------------------------------------------------
     1497                   ; 290 | *FLASH_LOC = CLEAR_STATUS;                                             
     1498                   ;----------------------------------------------------------------------
     1499 00000253 08700000-        ldp       @CL1,DP
     1500 00000254 50280001-        ldiu      @CL1,ar0              ; |290| 
     1501 00000255 08700000-        ldp       @CL33,DP
     1502 00000256 50200021-        ldiu      @CL33,r0              ; |290| 
     1503 00000257 1540c000         sti       r0,*ar0               ; |290| 
     1504                           .line   39
     1505                   ;----------------------------------------------------------------------
     1506                   ; 291 | break;                                                                 
     1507                   ;----------------------------------------------------------------------
     1508 00000258 6a00000c         bu        L100                  ; |291| 
     1509                   ;*      Branch Occurs to L100           ; |291| 
     1510 00000259          L97:        
     1511                           .line   42
     1512                   ;----------------------------------------------------------------------
TMS320C3x/4x COFF AssemblerVersion 5.12     Mon Oct 31 11:29:48 2011
Copyright (c) 1987-1999 Texas Instruments Incorporatedasm30.exe -@_330.AAB 

D:\CCS\EEA_SA_V611beta\BOOT\SOURCE\ASM\flash.asm                     PAGE   29

     1513                   ; 294 | if (status&0x00200020)                                                 
     1514                   ;----------------------------------------------------------------------
     1515 00000259 08700000-        ldp       @CL28,DP
     1516 0000025a 5020001c-        ldiu      @CL28,r0              ; |294| 
     1517 0000025b 1a400302         tstb      *+fp(2),r0            ; |294| 
     1518 0000025c 6a050008         beq       L100                  ; |294| 
     1519                   ;*      Branch Occurs to L100           ; |294| 
     1520                           .line   44
     1521                   ;----------------------------------------------------------------------
     1522                   ; 296 | r = FLASH_ERROR_BLK_ERASE;                                             
     1523                   ;----------------------------------------------------------------------
     1524 0000025d 50600008         ldiu      8,r0                  ; |296| 
     1525 0000025e 15400301         sti       r0,*+fp(1)            ; |296| 
     1526                           .line   45
     1527                   ;----------------------------------------------------------------------
     1528                   ; 297 | *FLASH_LOC = CLEAR_STATUS;                                             
     1529                   ;----------------------------------------------------------------------
     1530 0000025f 08700000-        ldp       @CL1,DP
     1531 00000260 50280001-        ldiu      @CL1,ar0              ; |297| 
     1532 00000261 08700000-        ldp       @CL33,DP
     1533 00000262 50200021-        ldiu      @CL33,r0              ; |297| 
     1534 00000263 1540c000         sti       r0,*ar0               ; |297| 
     1535                           .line   46
     1536                   ;----------------------------------------------------------------------
     1537                   ; 298 | break;                                                                 
     1538                   ;----------------------------------------------------------------------
     1539 00000264 6a000000         bu        L100                  ; |298| 
     1540                   ;*      Branch Occurs to L100           ; |298| 
     1541                           .line   49
     1542                   ;----------------------------------------------------------------------
     1543                   ; 301 | break;                                                                 
     1544                   ;----------------------------------------------------------------------
     1545                           .line   50
     1546 00000265          L100:        
     1547                           .line   52
     1548                   ;----------------------------------------------------------------------
     1549                   ; 304 | ENABLE_WDOG; GIEP;                                                     
     1550                   ;----------------------------------------------------------------------
     1551 00000265 0f350000         push    ST                      
     1552 00000266 03752000         andn    2000h, ST       
     1553 00000267 08700000-        ldp       @CL26,DP
     1554 00000268 5028001a-        ldiu      @CL26,ar0             ; |304| 
     1555 00000269 50600008         ldiu      8,r0                  ; |304| 
     1556 0000026a 25a0c000         or3       r0,*ar0,r0            ; |304| 
     1557 0000026b 1540c000         sti       r0,*ar0               ; |304| 
     1558 0000026c 50600080         ldiu      128,r0                ; |304| 
     1559 0000026d 25a0c000         or3       r0,*ar0,r0            ; |304| 
     1560 0000026e 1540c000         sti       r0,*ar0               ; |304| 
     1561 0000026f 0e350000         pop             ST                      
     1562 00000270 0e350000         pop             ST                      
     1563                           .line   53
     1564                   ;----------------------------------------------------------------------
     1565                   ; 305 | return r;                                                              
     1566                   ;----------------------------------------------------------------------
TMS320C3x/4x COFF AssemblerVersion 5.12     Mon Oct 31 11:29:48 2011
Copyright (c) 1987-1999 Texas Instruments Incorporatedasm30.exe -@_330.AAB 

D:\CCS\EEA_SA_V611beta\BOOT\SOURCE\ASM\flash.asm                     PAGE   30

     1567 00000271 50400301         ldiu      *+fp(1),r0            ; |305| 
     1568                           .line   54
     1569                                                           ; Begin Epilog Code
     1570 00000272 50410b01         ldiu      *-fp(1),r1            ; |306| 
     1571 00000273 504bc300         ldiu      *fp,fp                ; |306| 
     1572                                                           ; Unallocate the Frame
     1573 00000274 18740004         subi      4,sp                  ; |306| 
     1574 00000275 68000001         bu        r1
     1575                   ;*      Branch Occurs to r1 
     1576                           .endfunc        306,000000000h,2
     1577                   
     1578                   
     1579 00000276                  .sect    "internal_RAM"
     1580                   
     1581                           .global _FLASH_READ_ESN_MFGR
     1582                           .sym    _FLASH_READ_ESN_MFGR,_FLASH_READ_ESN_MFGR,32,2,0
     1583                           .func   308
     1584                   ;******************************************************************************
     1585                   ;* FUNCTION NAME: _FLASH_READ_ESN_MFGR                                        *
     1586                   ;*                                                                            *
     1587                   ;*   Architecture       : TMS320C33                                           *
     1588                   ;*   Calling Convention : TI Standard Register Parameters                     *
     1589                   ;*   Function Uses Regs : r0,ar0,ar1,ar2,ir0,ir1,st                           *
     1590                   ;*   Regs Saved         :                                                     *
     1591                   ;*   Stack Frame        : Full (w/ debug)                                     *
     1592                   ;*   Total Frame Size   : 2 Call + 0 Parm + 2 Auto + 0 SOE = 4 words          *
     1593                   ;******************************************************************************
     1594 00000276          _FLASH_READ_ESN_MFGR:
     1595                   ;* ar2   assigned to _dat
     1596                           .sym    _dat,10,30,17,32
     1597                           .sym    _dat,1,30,1,32
     1598                           .sym    _i,2,4,1,32
     1599                           .line   1
     1600                   ;----------------------------------------------------------------------
     1601                   ; 308 | void FLASH_READ_ESN_MFGR(unsigned int* dat)                            
     1602                   ;----------------------------------------------------------------------
     1603 00000276 0f2b0000         push      fp
     1604 00000277 500b0014         ldiu      sp,fp
     1605 00000278 02740002         addi      2,sp
     1606                           .line   2
     1607                   ;----------------------------------------------------------------------
     1608                   ; 310 | int i;                                                                 
     1609                   ;----------------------------------------------------------------------
     1610 00000279 154a0301         sti       ar2,*+fp(1)           ; |309| 
     1611                           .line   5
     1612                   ;----------------------------------------------------------------------
     1613                   ; 312 | _GIEP; DISABLE_WDOG;                                                   
     1614                   ;----------------------------------------------------------------------
     1615 0000027a 0f350000         push    ST                      
     1616 0000027b 03752000         andn    2000h, ST       
     1617 0000027c 0f350000         push    ST                      
     1618 0000027d 03752000         andn    2000h, ST       
     1619 0000027e 08700000-        ldp       @CL26,DP
     1620 0000027f 5028001a-        ldiu      @CL26,ar0             ; |312| 
TMS320C3x/4x COFF AssemblerVersion 5.12     Mon Oct 31 11:29:48 2011
Copyright (c) 1987-1999 Texas Instruments Incorporatedasm30.exe -@_330.AAB 

D:\CCS\EEA_SA_V611beta\BOOT\SOURCE\ASM\flash.asm                     PAGE   31

     1621 00000280 506000f7         ldiu      247,r0                ; |312| 
     1622 00000281 21a0c000         and3      r0,*ar0,r0            ; |312| 
     1623 00000282 1540c000         sti       r0,*ar0               ; |312| 
     1624 00000283 0e350000         pop             ST                      
     1625                           .line   6
     1626                   ;----------------------------------------------------------------------
     1627                   ; 313 | *FLASH_LOC = READ_CONFIG;                                              
     1628                   ;----------------------------------------------------------------------
     1629 00000284 08700000-        ldp       @CL1,DP
     1630 00000285 50280001-        ldiu      @CL1,ar0              ; |313| 
     1631 00000286 08700000-        ldp       @CL2,DP
     1632 00000287 50200002-        ldiu      @CL2,r0               ; |313| 
     1633 00000288 1540c000         sti       r0,*ar0               ; |313| 
     1634                           .line   7
     1635                   ;----------------------------------------------------------------------
     1636                   ; 314 | for(i=0;i<4;i++)                                                       
     1637                   ;----------------------------------------------------------------------
     1638 00000289 50600000         ldiu      0,r0                  ; |314| 
     1639 0000028a 15400302         sti       r0,*+fp(2)            ; |314| 
     1640 0000028b 04e00004         cmpi      4,r0                  ; |314| 
     1641 0000028c 6a0a000c         bge       L105                  ; |314| 
     1642                   ;*      Branch Occurs to L105           ; |314| 
     1643 0000028d          L104:        
     1644                           .line   9
     1645                   ;----------------------------------------------------------------------
     1646                   ; 316 | dat[i] = FLASH_LOC[i+0x81];                                            
     1647                   ;----------------------------------------------------------------------
     1648 0000028d 08700000-        ldp       @CL37,DP
     1649 0000028e 50510302         ldiu      *+fp(2),ir0           ; |316| 
     1650 0000028f 50520301         ldiu      *+fp(1),ir1           ; |316| 
     1651 00000290 50290025-        ldiu      @CL37,ar1             ; |316| 
     1652 00000291 50080011         ldiu      ir0,ar0               ; |316| 
     1653 00000292 50404100         ldiu      *+ar1(ir0),r0         ; |316| 
     1654 00000293 15408000         sti       r0,*+ar0(ir1)         ; |316| 
     1655                           .line   7
     1656 00000294 50600001         ldiu      1,r0                  ; |314| 
     1657 00000295 02400302         addi      *+fp(2),r0            ; |314| 
     1658 00000296 15400302         sti       r0,*+fp(2)            ; |314| 
     1659 00000297 04e00004         cmpi      4,r0                  ; |314| 
     1660 00000298 6a07fff4         blt       L104                  ; |314| 
     1661                   ;*      Branch Occurs to L104           ; |314| 
     1662 00000299          L105:        
     1663                           .line   12
     1664                   ;----------------------------------------------------------------------
     1665                   ; 319 | dat[4] = FLASH_LOC[0x80];       /*ESN status - check bits 0,16, if they
     1666                   ;     |  are 0 then it is locked*/                                             
     1667                   ;----------------------------------------------------------------------
     1668 00000299 08700000-        ldp       @CL38,DP
     1669 0000029a 50280026-        ldiu      @CL38,ar0             ; |319| 
     1670 0000029b 50490301         ldiu      *+fp(1),ar1           ; |319| 
     1671 0000029c 5040c000         ldiu      *ar0,r0               ; |319| 
     1672 0000029d 15400104         sti       r0,*+ar1(4)           ; |319| 
     1673                           .line   14
     1674                   ;----------------------------------------------------------------------
TMS320C3x/4x COFF AssemblerVersion 5.12     Mon Oct 31 11:29:48 2011
Copyright (c) 1987-1999 Texas Instruments Incorporatedasm30.exe -@_330.AAB 

D:\CCS\EEA_SA_V611beta\BOOT\SOURCE\ASM\flash.asm                     PAGE   32

     1675                   ; 321 | *FLASH_LOC = READ_ARRAY;                                               
     1676                   ;----------------------------------------------------------------------
     1677 0000029e 08700000-        ldp       @CL1,DP
     1678 0000029f 50280001-        ldiu      @CL1,ar0              ; |321| 
     1679 000002a0 08700000-        ldp       @CL4,DP
     1680 000002a1 50200004-        ldiu      @CL4,r0               ; |321| 
     1681 000002a2 1540c000         sti       r0,*ar0               ; |321| 
     1682                           .line   15
     1683                   ;----------------------------------------------------------------------
     1684                   ; 322 | ENABLE_WDOG; GIEP;                                                     
     1685                   ;----------------------------------------------------------------------
     1686 000002a3 0f350000         push    ST                      
     1687 000002a4 03752000         andn    2000h, ST       
     1688 000002a5 08700000-        ldp       @CL26,DP
     1689 000002a6 5028001a-        ldiu      @CL26,ar0             ; |322| 
     1690 000002a7 50600008         ldiu      8,r0                  ; |322| 
     1691 000002a8 25a0c000         or3       r0,*ar0,r0            ; |322| 
     1692 000002a9 1540c000         sti       r0,*ar0               ; |322| 
     1693 000002aa 50600080         ldiu      128,r0                ; |322| 
     1694 000002ab 25a0c000         or3       r0,*ar0,r0            ; |322| 
     1695 000002ac 1540c000         sti       r0,*ar0               ; |322| 
     1696 000002ad 0e350000         pop             ST                      
     1697 000002ae 0e350000         pop             ST                      
     1698                           .line   16
     1699                                                           ; Begin Epilog Code
     1700 000002af 50410b01         ldiu      *-fp(1),r1
     1701 000002b0 504bc300         ldiu      *fp,fp
     1702                                                           ; Unallocate the Frame
     1703 000002b1 18740004         subi      4,sp
     1704 000002b2 68000001         bu        r1
     1705                   ;*      Branch Occurs to r1 
     1706                           .endfunc        323,000000000h,2
     1707                   
     1708                   
     1709 000002b3                  .sect    "internal_RAM"
     1710                   
     1711                           .global _FLASH_READ_ESN_USER
     1712                           .sym    _FLASH_READ_ESN_USER,_FLASH_READ_ESN_USER,32,2,0
     1713                           .func   325
     1714                   ;******************************************************************************
     1715                   ;* FUNCTION NAME: _FLASH_READ_ESN_USER                                        *
     1716                   ;*                                                                            *
     1717                   ;*   Architecture       : TMS320C33                                           *
     1718                   ;*   Calling Convention : TI Standard Register Parameters                     *
     1719                   ;*   Function Uses Regs : r0,ar0,ar1,ar2,ir0,ir1,st                           *
     1720                   ;*   Regs Saved         :                                                     *
     1721                   ;*   Stack Frame        : Full (w/ debug)                                     *
     1722                   ;*   Total Frame Size   : 2 Call + 0 Parm + 2 Auto + 0 SOE = 4 words          *
     1723                   ;******************************************************************************
     1724 000002b3          _FLASH_READ_ESN_USER:
     1725                   ;* ar2   assigned to _dat
     1726                           .sym    _dat,10,30,17,32
     1727                           .sym    _dat,1,30,1,32
     1728                           .sym    _i,2,4,1,32
TMS320C3x/4x COFF AssemblerVersion 5.12     Mon Oct 31 11:29:48 2011
Copyright (c) 1987-1999 Texas Instruments Incorporatedasm30.exe -@_330.AAB 

D:\CCS\EEA_SA_V611beta\BOOT\SOURCE\ASM\flash.asm                     PAGE   33

     1729                           .line   1
     1730                   ;----------------------------------------------------------------------
     1731                   ; 325 | void FLASH_READ_ESN_USER(unsigned int* dat)                            
     1732                   ;----------------------------------------------------------------------
     1733 000002b3 0f2b0000         push      fp
     1734 000002b4 500b0014         ldiu      sp,fp
     1735 000002b5 02740002         addi      2,sp
     1736                           .line   2
     1737                   ;----------------------------------------------------------------------
     1738                   ; 327 | int i;                                                                 
     1739                   ;----------------------------------------------------------------------
     1740 000002b6 154a0301         sti       ar2,*+fp(1)           ; |326| 
     1741                           .line   5
     1742                   ;----------------------------------------------------------------------
     1743                   ; 329 | _GIEP; DISABLE_WDOG;                                                   
     1744                   ;----------------------------------------------------------------------
     1745 000002b7 0f350000         push    ST                      
     1746 000002b8 03752000         andn    2000h, ST       
     1747 000002b9 0f350000         push    ST                      
     1748 000002ba 03752000         andn    2000h, ST       
     1749 000002bb 08700000-        ldp       @CL26,DP
     1750 000002bc 5028001a-        ldiu      @CL26,ar0             ; |329| 
     1751 000002bd 506000f7         ldiu      247,r0                ; |329| 
     1752 000002be 21a0c000         and3      r0,*ar0,r0            ; |329| 
     1753 000002bf 1540c000         sti       r0,*ar0               ; |329| 
     1754 000002c0 0e350000         pop             ST                      
     1755                           .line   6
     1756                   ;----------------------------------------------------------------------
     1757                   ; 330 | *FLASH_LOC = READ_CONFIG;                                              
     1758                   ;----------------------------------------------------------------------
     1759 000002c1 08700000-        ldp       @CL1,DP
     1760 000002c2 50280001-        ldiu      @CL1,ar0              ; |330| 
     1761 000002c3 08700000-        ldp       @CL2,DP
     1762 000002c4 50200002-        ldiu      @CL2,r0               ; |330| 
     1763 000002c5 1540c000         sti       r0,*ar0               ; |330| 
     1764                           .line   7
     1765                   ;----------------------------------------------------------------------
     1766                   ; 331 | for(i=0;i<4;i++)                                                       
     1767                   ;----------------------------------------------------------------------
     1768 000002c6 50600000         ldiu      0,r0                  ; |331| 
     1769 000002c7 15400302         sti       r0,*+fp(2)            ; |331| 
     1770 000002c8 04e00004         cmpi      4,r0                  ; |331| 
     1771 000002c9 6a0a000c         bge       L110                  ; |331| 
     1772                   ;*      Branch Occurs to L110           ; |331| 
     1773 000002ca          L109:        
     1774                           .line   9
     1775                   ;----------------------------------------------------------------------
     1776                   ; 333 | dat[i] = FLASH_LOC[i+0x85];                                            
     1777                   ;----------------------------------------------------------------------
     1778 000002ca 08700000-        ldp       @CL39,DP
     1779 000002cb 50510302         ldiu      *+fp(2),ir0           ; |333| 
     1780 000002cc 50520301         ldiu      *+fp(1),ir1           ; |333| 
     1781 000002cd 50290027-        ldiu      @CL39,ar1             ; |333| 
     1782 000002ce 50080011         ldiu      ir0,ar0               ; |333| 
TMS320C3x/4x COFF AssemblerVersion 5.12     Mon Oct 31 11:29:48 2011
Copyright (c) 1987-1999 Texas Instruments Incorporatedasm30.exe -@_330.AAB 

D:\CCS\EEA_SA_V611beta\BOOT\SOURCE\ASM\flash.asm                     PAGE   34

     1783 000002cf 50404100         ldiu      *+ar1(ir0),r0         ; |333| 
     1784 000002d0 15408000         sti       r0,*+ar0(ir1)         ; |333| 
     1785                           .line   7
     1786 000002d1 50600001         ldiu      1,r0                  ; |331| 
     1787 000002d2 02400302         addi      *+fp(2),r0            ; |331| 
     1788 000002d3 15400302         sti       r0,*+fp(2)            ; |331| 
     1789 000002d4 04e00004         cmpi      4,r0                  ; |331| 
     1790 000002d5 6a07fff4         blt       L109                  ; |331| 
     1791                   ;*      Branch Occurs to L109           ; |331| 
     1792 000002d6          L110:        
     1793                           .line   12
     1794                   ;----------------------------------------------------------------------
     1795                   ; 336 | dat[4] = FLASH_LOC[0x80];       /*ESN status - check bits 1,17, if they
     1796                   ;     |  are 0 then it is locked*/                                             
     1797                   ;----------------------------------------------------------------------
     1798 000002d6 08700000-        ldp       @CL38,DP
     1799 000002d7 50280026-        ldiu      @CL38,ar0             ; |336| 
     1800 000002d8 50490301         ldiu      *+fp(1),ar1           ; |336| 
     1801 000002d9 5040c000         ldiu      *ar0,r0               ; |336| 
     1802 000002da 15400104         sti       r0,*+ar1(4)           ; |336| 
     1803                           .line   14
     1804                   ;----------------------------------------------------------------------
     1805                   ; 338 | *FLASH_LOC = READ_ARRAY;                                               
     1806                   ;----------------------------------------------------------------------
     1807 000002db 08700000-        ldp       @CL1,DP
     1808 000002dc 50280001-        ldiu      @CL1,ar0              ; |338| 
     1809 000002dd 08700000-        ldp       @CL4,DP
     1810 000002de 50200004-        ldiu      @CL4,r0               ; |338| 
     1811 000002df 1540c000         sti       r0,*ar0               ; |338| 
     1812                           .line   15
     1813                   ;----------------------------------------------------------------------
     1814                   ; 339 | ENABLE_WDOG; GIEP;                                                     
     1815                   ;----------------------------------------------------------------------
     1816 000002e0 0f350000         push    ST                      
     1817 000002e1 03752000         andn    2000h, ST       
     1818 000002e2 08700000-        ldp       @CL26,DP
     1819 000002e3 5028001a-        ldiu      @CL26,ar0             ; |339| 
     1820 000002e4 50600008         ldiu      8,r0                  ; |339| 
     1821 000002e5 25a0c000         or3       r0,*ar0,r0            ; |339| 
     1822 000002e6 1540c000         sti       r0,*ar0               ; |339| 
     1823 000002e7 50600080         ldiu      128,r0                ; |339| 
     1824 000002e8 25a0c000         or3       r0,*ar0,r0            ; |339| 
     1825 000002e9 1540c000         sti       r0,*ar0               ; |339| 
     1826 000002ea 0e350000         pop             ST                      
     1827 000002eb 0e350000         pop             ST                      
     1828                           .line   16
     1829                                                           ; Begin Epilog Code
     1830 000002ec 50410b01         ldiu      *-fp(1),r1
     1831 000002ed 504bc300         ldiu      *fp,fp
     1832                                                           ; Unallocate the Frame
     1833 000002ee 18740004         subi      4,sp
     1834 000002ef 68000001         bu        r1
     1835                   ;*      Branch Occurs to r1 
     1836                           .endfunc        340,000000000h,2
TMS320C3x/4x COFF AssemblerVersion 5.12     Mon Oct 31 11:29:48 2011
Copyright (c) 1987-1999 Texas Instruments Incorporatedasm30.exe -@_330.AAB 

D:\CCS\EEA_SA_V611beta\BOOT\SOURCE\ASM\flash.asm                     PAGE   35

     1837                   
     1838                   
     1839 000002f0                  .sect    "internal_RAM"
     1840                   
     1841                           .global _FLASH_WRITE_ESN_USER
     1842                           .sym    _FLASH_WRITE_ESN_USER,_FLASH_WRITE_ESN_USER,36,2,0
     1843                           .func   342
     1844                   ;******************************************************************************
     1845                   ;* FUNCTION NAME: _FLASH_WRITE_ESN_USER                                       *
     1846                   ;*                                                                            *
     1847                   ;*   Architecture       : TMS320C33                                           *
     1848                   ;*   Calling Convention : TI Standard Register Parameters                     *
     1849                   ;*   Function Uses Regs : r0,ar0,ar1,ar2,ir0,ir1,st                           *
     1850                   ;*   Regs Saved         :                                                     *
     1851                   ;*   Stack Frame        : Full (w/ debug)                                     *
     1852                   ;*   Total Frame Size   : 2 Call + 0 Parm + 4 Auto + 0 SOE = 6 words          *
     1853                   ;******************************************************************************
     1854 000002f0          _FLASH_WRITE_ESN_USER:
     1855                   ;* ar2   assigned to _dat
     1856                           .sym    _dat,10,30,17,32
     1857                           .sym    _dat,1,30,1,32
     1858                           .sym    _r,2,4,1,32
     1859                           .sym    _i,3,4,1,32
     1860                           .sym    _status,4,14,1,32
     1861                           .line   1
     1862                   ;----------------------------------------------------------------------
     1863                   ; 342 | int FLASH_WRITE_ESN_USER(unsigned int* dat)                            
     1864                   ;----------------------------------------------------------------------
     1865 000002f0 0f2b0000         push      fp
     1866 000002f1 500b0014         ldiu      sp,fp
     1867 000002f2 02740004         addi      4,sp
     1868                           .line   2
     1869                   ;----------------------------------------------------------------------
     1870                   ; 344 | int r;                                                                 
     1871                   ; 345 | int i;                                                                 
     1872                   ; 346 | unsigned int status;                                                   
     1873                   ;----------------------------------------------------------------------
     1874 000002f3 154a0301         sti       ar2,*+fp(1)           ; |343| 
     1875                           .line   7
     1876                   ;----------------------------------------------------------------------
     1877                   ; 348 | _GIEP; DISABLE_WDOG;                                                   
     1878                   ;----------------------------------------------------------------------
     1879 000002f4 0f350000         push    ST                      
     1880 000002f5 03752000         andn    2000h, ST       
     1881 000002f6 0f350000         push    ST                      
     1882 000002f7 03752000         andn    2000h, ST       
     1883 000002f8 08700000-        ldp       @CL26,DP
     1884 000002f9 5028001a-        ldiu      @CL26,ar0             ; |348| 
     1885 000002fa 506000f7         ldiu      247,r0                ; |348| 
     1886 000002fb 21a0c000         and3      r0,*ar0,r0            ; |348| 
     1887 000002fc 1540c000         sti       r0,*ar0               ; |348| 
     1888 000002fd 0e350000         pop             ST                      
     1889                           .line   9
     1890                   ;----------------------------------------------------------------------
TMS320C3x/4x COFF AssemblerVersion 5.12     Mon Oct 31 11:29:48 2011
Copyright (c) 1987-1999 Texas Instruments Incorporatedasm30.exe -@_330.AAB 

D:\CCS\EEA_SA_V611beta\BOOT\SOURCE\ASM\flash.asm                     PAGE   36

     1891                   ; 350 | *FLASH_LOC = READ_CONFIG;                                              
     1892                   ;----------------------------------------------------------------------
     1893 000002fe 08700000-        ldp       @CL1,DP
     1894 000002ff 50280001-        ldiu      @CL1,ar0              ; |350| 
     1895 00000300 08700000-        ldp       @CL2,DP
     1896 00000301 50200002-        ldiu      @CL2,r0               ; |350| 
     1897 00000302 1540c000         sti       r0,*ar0               ; |350| 
     1898                           .line   10
     1899                   ;----------------------------------------------------------------------
     1900                   ; 351 | status = FLASH_LOC[0x80];                                              
     1901                   ;----------------------------------------------------------------------
     1902 00000303 08700000-        ldp       @CL38,DP
     1903 00000304 50280026-        ldiu      @CL38,ar0             ; |351| 
     1904 00000305 5040c000         ldiu      *ar0,r0               ; |351| 
     1905 00000306 15400304         sti       r0,*+fp(4)            ; |351| 
     1906                           .line   11
     1907                   ;----------------------------------------------------------------------
     1908                   ; 352 | *FLASH_LOC = READ_ARRAY;                                               
     1909                   ;----------------------------------------------------------------------
     1910 00000307 08700000-        ldp       @CL1,DP
     1911 00000308 50280001-        ldiu      @CL1,ar0              ; |352| 
     1912 00000309 08700000-        ldp       @CL4,DP
     1913 0000030a 50200004-        ldiu      @CL4,r0               ; |352| 
     1914 0000030b 1540c000         sti       r0,*ar0               ; |352| 
     1915                           .line   12
     1916                   ;----------------------------------------------------------------------
     1917                   ; 353 | if ((status & 0x00020002) != 0x00020002)                               
     1918                   ;----------------------------------------------------------------------
     1919 0000030c 08700000-        ldp       @CL35,DP
     1920 0000030d 50200023-        ldiu      @CL35,r0              ; |353| 
     1921 0000030e 02c00304         and       *+fp(4),r0            ; |353| 
     1922 0000030f 04a00023-        cmpi      @CL35,r0              ; |353| 
     1923 00000310 6a050010         beq       L115                  ; |353| 
     1924                   ;*      Branch Occurs to L115           ; |353| 
     1925                           .line   14
     1926                   ;----------------------------------------------------------------------
     1927                   ; 355 | ENABLE_WDOG; GIEP;                                                     
     1928                   ;----------------------------------------------------------------------
     1929 00000311 0f350000         push    ST                      
     1930 00000312 03752000         andn    2000h, ST       
     1931 00000313 08700000-        ldp       @CL26,DP
     1932 00000314 5028001a-        ldiu      @CL26,ar0             ; |355| 
     1933 00000315 50600008         ldiu      8,r0                  ; |355| 
     1934 00000316 25a0c000         or3       r0,*ar0,r0            ; |355| 
     1935 00000317 1540c000         sti       r0,*ar0               ; |355| 
     1936 00000318 50600080         ldiu      128,r0                ; |355| 
     1937 00000319 25a0c000         or3       r0,*ar0,r0            ; |355| 
     1938 0000031a 1540c000         sti       r0,*ar0               ; |355| 
     1939 0000031b 0e350000         pop             ST                      
     1940 0000031c 0e350000         pop             ST                      
     1941                           .line   15
     1942                   ;----------------------------------------------------------------------
     1943                   ; 356 | return -1;      /*protection register is already locked*/              
     1944                   ;----------------------------------------------------------------------
TMS320C3x/4x COFF AssemblerVersion 5.12     Mon Oct 31 11:29:48 2011
Copyright (c) 1987-1999 Texas Instruments Incorporatedasm30.exe -@_330.AAB 

D:\CCS\EEA_SA_V611beta\BOOT\SOURCE\ASM\flash.asm                     PAGE   37

     1945 0000031d 6a200047         bud       L120                  ; |356| 
     1946 0000031e 0c800000         nop
     1947 0000031f 0c800000         nop
     1948 00000320 5060ffff         ldiu      -1,r0                 ; |356| 
     1949                   ;*      Branch Occurs to L120           ; |356| 
     1950 00000321          L115:        
     1951                           .line   18
     1952                   ;----------------------------------------------------------------------
     1953                   ; 359 | for(i=0;i<4;i++)                                                       
     1954                   ;----------------------------------------------------------------------
     1955 00000321 50600000         ldiu      0,r0                  ; |359| 
     1956 00000322 15400303         sti       r0,*+fp(3)            ; |359| 
     1957 00000323 04e00004         cmpi      4,r0                  ; |359| 
     1958 00000324 6a0a0028         bge       L119                  ; |359| 
     1959                   ;*      Branch Occurs to L119           ; |359| 
     1960 00000325          L116:        
     1961                           .line   20
     1962                   ;----------------------------------------------------------------------
     1963                   ; 361 | *FLASH_LOC = PROTECT_PROG;                                             
     1964                   ;----------------------------------------------------------------------
     1965 00000325 08700000-        ldp       @CL1,DP
     1966 00000326 50280001-        ldiu      @CL1,ar0              ; |361| 
     1967 00000327 08700000-        ldp       @CL40,DP
     1968 00000328 50200028-        ldiu      @CL40,r0              ; |361| 
     1969 00000329 1540c000         sti       r0,*ar0               ; |361| 
     1970                           .line   21
     1971                   ;----------------------------------------------------------------------
     1972                   ; 362 | dat[i] = FLASH_LOC[i+0x85];                                            
     1973                   ;----------------------------------------------------------------------
     1974 0000032a 08700000-        ldp       @CL39,DP
     1975 0000032b 50510303         ldiu      *+fp(3),ir0           ; |362| 
     1976 0000032c 50290027-        ldiu      @CL39,ar1             ; |362| 
     1977 0000032d 50520301         ldiu      *+fp(1),ir1           ; |362| 
     1978 0000032e 50080011         ldiu      ir0,ar0               ; |362| 
     1979 0000032f 50404100         ldiu      *+ar1(ir0),r0         ; |362| 
     1980 00000330 15408000         sti       r0,*+ar0(ir1)         ; |362| 
     1981                           .line   22
     1982                   ;----------------------------------------------------------------------
     1983                   ; 363 | *FLASH_LOC = READ_STATUS;                                              
     1984                   ;----------------------------------------------------------------------
     1985 00000331 08700000-        ldp       @CL1,DP
     1986 00000332 50280001-        ldiu      @CL1,ar0              ; |363| 
     1987 00000333 08700000-        ldp       @CL31,DP
     1988 00000334 5020001f-        ldiu      @CL31,r0              ; |363| 
     1989 00000335 1540c000         sti       r0,*ar0               ; |363| 
     1990                           .line   23
     1991                   ;----------------------------------------------------------------------
     1992                   ; 364 | status = *FLASH_LOC;                                                   
     1993                   ;----------------------------------------------------------------------
     1994 00000336 08700000-        ldp       @CL1,DP
     1995 00000337 50280001-        ldiu      @CL1,ar0              ; |364| 
     1996 00000338 5040c000         ldiu      *ar0,r0               ; |364| 
     1997 00000339 15400304         sti       r0,*+fp(4)            ; |364| 
     1998                           .line   24
TMS320C3x/4x COFF AssemblerVersion 5.12     Mon Oct 31 11:29:48 2011
Copyright (c) 1987-1999 Texas Instruments Incorporatedasm30.exe -@_330.AAB 

D:\CCS\EEA_SA_V611beta\BOOT\SOURCE\ASM\flash.asm                     PAGE   38

     1999                   ;----------------------------------------------------------------------
     2000                   ; 365 | while (!((status & 0x00800080)==0x00800080))                           
     2001                   ;----------------------------------------------------------------------
     2002 0000033a 08700000-        ldp       @CL29,DP
     2003 0000033b 5020001d-        ldiu      @CL29,r0              ; |365| 
     2004 0000033c 02c00304         and       *+fp(4),r0            ; |365| 
     2005 0000033d 04a0001d-        cmpi      @CL29,r0              ; |365| 
     2006 0000033e 6a050009         beq       L118                  ; |365| 
     2007                   ;*      Branch Occurs to L118           ; |365| 
     2008 0000033f          L117:        
     2009                           .line   26
     2010                   ;----------------------------------------------------------------------
     2011                   ; 367 | status = *FLASH_LOC;                                                   
     2012                   ;----------------------------------------------------------------------
     2013 0000033f 08700000-        ldp       @CL1,DP
     2014 00000340 50280001-        ldiu      @CL1,ar0              ; |367| 
     2015 00000341 5040c000         ldiu      *ar0,r0               ; |367| 
     2016 00000342 15400304         sti       r0,*+fp(4)            ; |367| 
     2017                           .line   24
     2018 00000343 08700000-        ldp       @CL29,DP
     2019 00000344 5020001d-        ldiu      @CL29,r0              ; |365| 
     2020 00000345 02c00304         and       *+fp(4),r0            ; |365| 
     2021 00000346 04a0001d-        cmpi      @CL29,r0              ; |365| 
     2022 00000347 6a06fff7         bne       L117                  ; |365| 
     2023                   ;*      Branch Occurs to L117           ; |365| 
     2024 00000348          L118:        
     2025                           .line   18
     2026 00000348 50600001         ldiu      1,r0                  ; |359| 
     2027 00000349 02400303         addi      *+fp(3),r0            ; |359| 
     2028 0000034a 15400303         sti       r0,*+fp(3)            ; |359| 
     2029 0000034b 04e00004         cmpi      4,r0                  ; |359| 
     2030 0000034c 6a07ffd8         blt       L116                  ; |359| 
     2031                   ;*      Branch Occurs to L116           ; |359| 
     2032 0000034d          L119:        
     2033                           .line   30
     2034                   ;----------------------------------------------------------------------
     2035                   ; 371 | r = FLASH_STATUS();                                                    
     2036                   ;----------------------------------------------------------------------
     2037 0000034d 08700000-        ldp       @CL25,DP
     2038 0000034e 50200019-        ldiu      @CL25,r0              ; |371| 
     2039 0000034f 70000000         callu     r0                    ; far call to _FLASH_STATUS     ; |371| 
     2040                                                           ; |371| Far Call Occurs
     2041 00000350 15400302         sti       r0,*+fp(2)            ; |371| 
     2042                           .line   32
     2043                   ;----------------------------------------------------------------------
     2044                   ; 373 | *FLASH_LOC = READ_ARRAY;                                               
     2045                   ;----------------------------------------------------------------------
     2046 00000351 08700000-        ldp       @CL1,DP
     2047 00000352 50280001-        ldiu      @CL1,ar0              ; |373| 
     2048 00000353 08700000-        ldp       @CL4,DP
     2049 00000354 50200004-        ldiu      @CL4,r0               ; |373| 
     2050 00000355 1540c000         sti       r0,*ar0               ; |373| 
     2051                           .line   34
     2052                   ;----------------------------------------------------------------------
TMS320C3x/4x COFF AssemblerVersion 5.12     Mon Oct 31 11:29:48 2011
Copyright (c) 1987-1999 Texas Instruments Incorporatedasm30.exe -@_330.AAB 

D:\CCS\EEA_SA_V611beta\BOOT\SOURCE\ASM\flash.asm                     PAGE   39

     2053                   ; 375 | r = FLASH_LOCK_ESN_USER();                                             
     2054                   ;----------------------------------------------------------------------
     2055 00000356 08700000-        ldp       @CL41,DP
     2056 00000357 50200029-        ldiu      @CL41,r0              ; |375| 
     2057 00000358 70000000         callu     r0                    ; far call to _FLASH_LOCK_ESN_USER      ; |375| 
     2058                                                           ; |375| Far Call Occurs
     2059 00000359 15400302         sti       r0,*+fp(2)            ; |375| 
     2060                           .line   36
     2061                   ;----------------------------------------------------------------------
     2062                   ; 377 | ENABLE_WDOG; GIEP;                                                     
     2063                   ;----------------------------------------------------------------------
     2064 0000035a 0f350000         push    ST                      
     2065 0000035b 03752000         andn    2000h, ST       
     2066 0000035c 08700000-        ldp       @CL26,DP
     2067 0000035d 5028001a-        ldiu      @CL26,ar0             ; |377| 
     2068 0000035e 50600008         ldiu      8,r0                  ; |377| 
     2069 0000035f 25a0c000         or3       r0,*ar0,r0            ; |377| 
     2070 00000360 1540c000         sti       r0,*ar0               ; |377| 
     2071 00000361 50600080         ldiu      128,r0                ; |377| 
     2072 00000362 25a0c000         or3       r0,*ar0,r0            ; |377| 
     2073 00000363 1540c000         sti       r0,*ar0               ; |377| 
     2074 00000364 0e350000         pop             ST                      
     2075 00000365 0e350000         pop             ST                      
     2076                           .line   38
     2077                   ;----------------------------------------------------------------------
     2078                   ; 379 | return r;                                                              
     2079                   ;----------------------------------------------------------------------
     2080 00000366 50400302         ldiu      *+fp(2),r0            ; |379| 
     2081 00000367          L120:        
     2082                           .line   39
     2083                                                           ; Begin Epilog Code
     2084 00000367 50410b01         ldiu      *-fp(1),r1            ; |380| 
     2085 00000368 504bc300         ldiu      *fp,fp                ; |380| 
     2086                                                           ; Unallocate the Frame
     2087 00000369 18740006         subi      6,sp                  ; |380| 
     2088 0000036a 68000001         bu        r1
     2089                   ;*      Branch Occurs to r1 
     2090                           .endfunc        380,000000000h,4
     2091                   
     2092                   
     2093 0000036b                  .sect    "internal_RAM"
     2094                   
     2095                           .global _FLASH_LOCK_ESN_USER
     2096                           .sym    _FLASH_LOCK_ESN_USER,_FLASH_LOCK_ESN_USER,36,2,0
     2097                           .func   382
     2098                   ;******************************************************************************
     2099                   ;* FUNCTION NAME: _FLASH_LOCK_ESN_USER                                        *
     2100                   ;*                                                                            *
     2101                   ;*   Architecture       : TMS320C33                                           *
     2102                   ;*   Calling Convention : TI Standard Register Parameters                     *
     2103                   ;*   Function Uses Regs : r0,ar0,st                                           *
     2104                   ;*   Regs Saved         :                                                     *
     2105                   ;*   Stack Frame        : Full (w/ debug)                                     *
     2106                   ;*   Total Frame Size   : 2 Call + 0 Parm + 2 Auto + 0 SOE = 4 words          *
TMS320C3x/4x COFF AssemblerVersion 5.12     Mon Oct 31 11:29:48 2011
Copyright (c) 1987-1999 Texas Instruments Incorporatedasm30.exe -@_330.AAB 

D:\CCS\EEA_SA_V611beta\BOOT\SOURCE\ASM\flash.asm                     PAGE   40

     2107                   ;******************************************************************************
     2108 0000036b          _FLASH_LOCK_ESN_USER:
     2109                           .sym    _r,1,4,1,32
     2110                           .sym    _status,2,14,1,32
     2111                           .line   1
     2112                   ;----------------------------------------------------------------------
     2113                   ; 382 | int FLASH_LOCK_ESN_USER(void)                                          
     2114                   ; 384 | int r;                                                                 
     2115                   ; 385 | unsigned int status;                                                   
     2116                   ;----------------------------------------------------------------------
     2117 0000036b 0f2b0000         push      fp
     2118 0000036c 500b0014         ldiu      sp,fp
     2119 0000036d 02740002         addi      2,sp
     2120                           .line   6
     2121                   ;----------------------------------------------------------------------
     2122                   ; 387 | _GIEP; DISABLE_WDOG;                                                   
     2123                   ;----------------------------------------------------------------------
     2124 0000036e 0f350000         push    ST                      
     2125 0000036f 03752000         andn    2000h, ST       
     2126 00000370 0f350000         push    ST                      
     2127 00000371 03752000         andn    2000h, ST       
     2128 00000372 08700000-        ldp       @CL26,DP
     2129 00000373 5028001a-        ldiu      @CL26,ar0             ; |387| 
     2130 00000374 506000f7         ldiu      247,r0                ; |387| 
     2131 00000375 21a0c000         and3      r0,*ar0,r0            ; |387| 
     2132 00000376 1540c000         sti       r0,*ar0               ; |387| 
     2133 00000377 0e350000         pop             ST                      
     2134                           .line   8
     2135                   ;----------------------------------------------------------------------
     2136                   ; 389 | *FLASH_LOC = PROTECT_PROG;                                             
     2137                   ;----------------------------------------------------------------------
     2138 00000378 08700000-        ldp       @CL1,DP
     2139 00000379 50280001-        ldiu      @CL1,ar0              ; |389| 
     2140 0000037a 08700000-        ldp       @CL40,DP
     2141 0000037b 50200028-        ldiu      @CL40,r0              ; |389| 
     2142 0000037c 1540c000         sti       r0,*ar0               ; |389| 
     2143                           .line   9
     2144                   ;----------------------------------------------------------------------
     2145                   ; 390 | FLASH_LOC[0x80] = 0xFFFDFFFD;   /* PERMANENTLY LOCK user ESN */        
     2146                   ;----------------------------------------------------------------------
     2147 0000037d 08700000-        ldp       @CL38,DP
     2148 0000037e 50280026-        ldiu      @CL38,ar0             ; |390| 
     2149 0000037f 08700000-        ldp       @CL42,DP
     2150 00000380 5020002a-        ldiu      @CL42,r0              ; |390| 
     2151 00000381 1540c000         sti       r0,*ar0               ; |390| 
     2152                           .line   10
     2153                   ;----------------------------------------------------------------------
     2154                   ; 391 | *FLASH_LOC = READ_STATUS;                                              
     2155                   ;----------------------------------------------------------------------
     2156 00000382 08700000-        ldp       @CL1,DP
     2157 00000383 50280001-        ldiu      @CL1,ar0              ; |391| 
     2158 00000384 08700000-        ldp       @CL31,DP
     2159 00000385 5020001f-        ldiu      @CL31,r0              ; |391| 
     2160 00000386 1540c000         sti       r0,*ar0               ; |391| 
TMS320C3x/4x COFF AssemblerVersion 5.12     Mon Oct 31 11:29:48 2011
Copyright (c) 1987-1999 Texas Instruments Incorporatedasm30.exe -@_330.AAB 

D:\CCS\EEA_SA_V611beta\BOOT\SOURCE\ASM\flash.asm                     PAGE   41

     2161                           .line   11
     2162                   ;----------------------------------------------------------------------
     2163                   ; 392 | status = *FLASH_LOC;                                                   
     2164                   ;----------------------------------------------------------------------
     2165 00000387 08700000-        ldp       @CL1,DP
     2166 00000388 50280001-        ldiu      @CL1,ar0              ; |392| 
     2167 00000389 5040c000         ldiu      *ar0,r0               ; |392| 
     2168 0000038a 15400302         sti       r0,*+fp(2)            ; |392| 
     2169                           .line   12
     2170                   ;----------------------------------------------------------------------
     2171                   ; 393 | while (!((status & 0x00800080)==0x00800080))                           
     2172                   ;----------------------------------------------------------------------
     2173 0000038b 08700000-        ldp       @CL29,DP
     2174 0000038c 5020001d-        ldiu      @CL29,r0              ; |393| 
     2175 0000038d 02c00302         and       *+fp(2),r0            ; |393| 
     2176 0000038e 04a0001d-        cmpi      @CL29,r0              ; |393| 
     2177 0000038f 6a050009         beq       L124                  ; |393| 
     2178                   ;*      Branch Occurs to L124           ; |393| 
     2179 00000390          L123:        
     2180                           .line   14
     2181                   ;----------------------------------------------------------------------
     2182                   ; 395 | status = *FLASH_LOC;                                                   
     2183                   ;----------------------------------------------------------------------
     2184 00000390 08700000-        ldp       @CL1,DP
     2185 00000391 50280001-        ldiu      @CL1,ar0              ; |395| 
     2186 00000392 5040c000         ldiu      *ar0,r0               ; |395| 
     2187 00000393 15400302         sti       r0,*+fp(2)            ; |395| 
     2188                           .line   12
     2189 00000394 08700000-        ldp       @CL29,DP
     2190 00000395 5020001d-        ldiu      @CL29,r0              ; |393| 
     2191 00000396 02c00302         and       *+fp(2),r0            ; |393| 
     2192 00000397 04a0001d-        cmpi      @CL29,r0              ; |393| 
     2193 00000398 6a06fff7         bne       L123                  ; |393| 
     2194                   ;*      Branch Occurs to L123           ; |393| 
     2195 00000399          L124:        
     2196                           .line   17
     2197                   ;----------------------------------------------------------------------
     2198                   ; 398 | r = FLASH_STATUS();                                                    
     2199                   ;----------------------------------------------------------------------
     2200 00000399 08700000-        ldp       @CL25,DP
     2201 0000039a 50200019-        ldiu      @CL25,r0              ; |398| 
     2202 0000039b 70000000         callu     r0                    ; far call to _FLASH_STATUS     ; |398| 
     2203                                                           ; |398| Far Call Occurs
     2204 0000039c 15400301         sti       r0,*+fp(1)            ; |398| 
     2205                           .line   19
     2206                   ;----------------------------------------------------------------------
     2207                   ; 400 | *FLASH_LOC = READ_ARRAY;                                               
     2208                   ;----------------------------------------------------------------------
     2209 0000039d 08700000-        ldp       @CL1,DP
     2210 0000039e 50280001-        ldiu      @CL1,ar0              ; |400| 
     2211 0000039f 08700000-        ldp       @CL4,DP
     2212 000003a0 50200004-        ldiu      @CL4,r0               ; |400| 
     2213 000003a1 1540c000         sti       r0,*ar0               ; |400| 
     2214                           .line   21
TMS320C3x/4x COFF AssemblerVersion 5.12     Mon Oct 31 11:29:48 2011
Copyright (c) 1987-1999 Texas Instruments Incorporatedasm30.exe -@_330.AAB 

D:\CCS\EEA_SA_V611beta\BOOT\SOURCE\ASM\flash.asm                     PAGE   42

     2215                   ;----------------------------------------------------------------------
     2216                   ; 402 | ENABLE_WDOG; GIEP;                                                     
     2217                   ;----------------------------------------------------------------------
     2218 000003a2 0f350000         push    ST                      
     2219 000003a3 03752000         andn    2000h, ST       
     2220 000003a4 08700000-        ldp       @CL26,DP
     2221 000003a5 5028001a-        ldiu      @CL26,ar0             ; |402| 
     2222 000003a6 50600008         ldiu      8,r0                  ; |402| 
     2223 000003a7 25a0c000         or3       r0,*ar0,r0            ; |402| 
     2224 000003a8 1540c000         sti       r0,*ar0               ; |402| 
     2225 000003a9 50600080         ldiu      128,r0                ; |402| 
     2226 000003aa 25a0c000         or3       r0,*ar0,r0            ; |402| 
     2227 000003ab 1540c000         sti       r0,*ar0               ; |402| 
     2228 000003ac 0e350000         pop             ST                      
     2229 000003ad 0e350000         pop             ST                      
     2230                           .line   23
     2231                   ;----------------------------------------------------------------------
     2232                   ; 404 | return r;                                                              
     2233                   ;----------------------------------------------------------------------
     2234 000003ae 50400301         ldiu      *+fp(1),r0            ; |404| 
     2235                           .line   24
     2236                                                           ; Begin Epilog Code
     2237 000003af 50410b01         ldiu      *-fp(1),r1            ; |405| 
     2238 000003b0 504bc300         ldiu      *fp,fp                ; |405| 
     2239                                                           ; Unallocate the Frame
     2240 000003b1 18740004         subi      4,sp                  ; |405| 
     2241 000003b2 68000001         bu        r1
     2242                   ;*      Branch Occurs to r1 
     2243                           .endfunc        405,000000000h,2
     2244                   
     2245                   
     2246                   
     2247                           .global _SRAM_SCRATCHPAD
     2248 00000000                  .bss    _SRAM_SCRATCHPAD,1
     2249                           .sym    _SRAM_SCRATCHPAD,_SRAM_SCRATCHPAD,30,2,32
     2250                   ;******************************************************************************
     2251                   ;* CONSTANT TABLE                                                             *
     2252                   ;******************************************************************************
     2253 00000000                  .sect   ".const"
     2254 00000001                  .bss    CL1,1
     2255 00000002                  .bss    CL2,1
     2256 00000003                  .bss    CL3,1
     2257 00000004                  .bss    CL4,1
     2258 00000005                  .bss    CL5,1
     2259 00000006                  .bss    CL6,1
     2260 00000007                  .bss    CL7,1
     2261 00000008                  .bss    CL8,1
     2262 00000009                  .bss    CL9,1
     2263 0000000a                  .bss    CL10,1
     2264 0000000b                  .bss    CL11,1
     2265 0000000c                  .bss    CL12,1
     2266 0000000d                  .bss    CL13,1
     2267 0000000e                  .bss    CL14,1
     2268 0000000f                  .bss    CL15,1
TMS320C3x/4x COFF AssemblerVersion 5.12     Mon Oct 31 11:29:48 2011
Copyright (c) 1987-1999 Texas Instruments Incorporatedasm30.exe -@_330.AAB 

D:\CCS\EEA_SA_V611beta\BOOT\SOURCE\ASM\flash.asm                     PAGE   43

     2269 00000010                  .bss    CL16,1
     2270 00000011                  .bss    CL17,1
     2271 00000012                  .bss    CL18,1
     2272 00000013                  .bss    CL19,1
     2273 00000014                  .bss    CL20,1
     2274 00000015                  .bss    CL21,1
     2275 00000016                  .bss    CL22,1
     2276 00000017                  .bss    CL23,1
     2277 00000018                  .bss    CL24,1
     2278 00000019                  .bss    CL25,1
     2279 0000001a                  .bss    CL26,1
     2280 0000001b                  .bss    CL27,1
     2281 0000001c                  .bss    CL28,1
     2282 0000001d                  .bss    CL29,1
     2283 0000001e                  .bss    CL30,1
     2284 0000001f                  .bss    CL31,1
     2285 00000020                  .bss    CL32,1
     2286 00000021                  .bss    CL33,1
     2287 00000022                  .bss    CL34,1
     2288 00000023                  .bss    CL35,1
     2289 00000024                  .bss    CL36,1
     2290 00000025                  .bss    CL37,1
     2291 00000026                  .bss    CL38,1
     2292 00000027                  .bss    CL39,1
     2293 00000028                  .bss    CL40,1
     2294 00000029                  .bss    CL41,1
     2295 0000002a                  .bss    CL42,1
     2296                   
     2297 00000000                  .sect   ".cinit"
     2298 00000000 0000002a         .field          42,32
     2299 00000001 00000001-        .field          CL1+0,32
     2300 00000002 00400000         .field          4194304,32
     2301 00000003 00900090         .field          9437328,32
     2302 00000004 00400001         .field          4194305,32
     2303 00000005 00ff00ff         .field          16711935,32
     2304 00000006 00080000         .field          524288,32
     2305 00000007 00100000         .field          1048576,32
     2306 00000008 00200000         .field          2097152,32
     2307 00000009 00400000         .field          4194304,32
     2308 0000000a 0000ffff         .field          65535,32
     2309 0000000b 000088c1         .field          35009,32
     2310 0000000c 000088c3         .field          35011,32
     2311 0000000d 000088c5         .field          35013,32
     2312 0000000e 000088cd         .field          35021,32
     2313 0000000f 00000000+        .field          _FLASH_SIZE,32
     2314 00000010 00408000         .field          4227072,32
     2315 00000011 00408000         .field          4227072,32
     2316 00000012 fffff000         .field          -4096,32
     2317 00000013 00008000         .field          32768,32
     2318 00000014 ffff8000         .field          -32768,32
     2319 00000015 0000007b+        .field          _FLASH_CHECK_ADDR,32
     2320 00000016 00600060         .field          6291552,32
     2321 00000017 00d000d0         .field          13631696,32
     2322 00000018 00010001         .field          65537,32
TMS320C3x/4x COFF AssemblerVersion 5.12     Mon Oct 31 11:29:48 2011
Copyright (c) 1987-1999 Texas Instruments Incorporatedasm30.exe -@_330.AAB 

D:\CCS\EEA_SA_V611beta\BOOT\SOURCE\ASM\flash.asm                     PAGE   44

     2323 00000019 002f002f         .field          3080239,32
     2324 0000001a 00000211+        .field          _FLASH_STATUS,32
     2325 0000001b 00900004         .field          9437188,32
     2326 0000001c 000000fb+        .field          _FLASH_LOCK_BLK,32
     2327 0000001d 00200020         .field          2097184,32
     2328 0000001e 00800080         .field          8388736,32
     2329 0000001f 00400040         .field          4194368,32
     2330 00000020 00700070         .field          7340144,32
     2331 00000021 00080008         .field          524296,32
     2332 00000022 00500050         .field          5242960,32
     2333 00000023 00100010         .field          1048592,32
     2334 00000024 00020002         .field          131074,32
     2335 00000025 00300030         .field          3145776,32
     2336 00000026 00400081         .field          4194433,32
     2337 00000027 00400080         .field          4194432,32
     2338 00000028 00400085         .field          4194437,32
     2339 00000029 00c000c0         .field          12583104,32
     2340 0000002a 0000036b+        .field          _FLASH_LOCK_ESN_USER,32
     2341 0000002b fffdfffd         .field          -131075,32
     2342                   
     2343 00000000                  .sect   ".text"

 No Errors,  No Warnings
TMS320C3x/4x COFF AssemblerVersion 5.12     Mon Oct 31 11:29:48 2011
Copyright (c) 1987-1999 Texas Instruments Incorporatedasm30.exe -@_330.AAB 

D:\CCS\EEA_SA_V611beta\BOOT\SOURCE\ASM\flash.asm                     PAGE   45

LABEL                            VALUE       DEFN    REF

.BIGMODEL                        00000001       0 
.C30                             00000000       0 
.C30INTERRUPT                    00000000       0 
.C31                             00000000       0 
.C32                             00000000       0 
.C33                             00000001       0 
.C3X                             00000001       0 
.C3x                             00000001       0 
.C40                             00000000       0 
.C44                             00000000       0 
.C4X                             00000000       0 
.C4x                             00000000       0 
.REGPARM                         00000001       0 
.TMS320C30                       00000001       0 
.TMS320C31                       00000000       0 
.TMS320C32                       00000000       0 
.TMS320C40                       00000000       0 
.TMS320C44                       00000000       0 
.TMS320xx                        00000021       0 
.tms320C30                       00000001       0 
.tms320C31                       00000000       0 
.tms320C32                       00000000       0 
.tms320C40                       00000000       0 
.tms320C44                       00000000       0 
.tms320xx                        00000021       0 
.tmx320C40                       00000000       0 
CL1                              00000001-   2254    111    112    128    129 
                                                     411    413    428    430 
                                                     817    818    928    929 
                                                     945    946    964    965 
                                                     989    990   1141   1142 
                                                    1160   1161   1169   1170 
                                                    1188   1189   1222   1223 
                                                    1373   1374   1383   1384 
                                                    1406   1407   1437   1438 
                                                    1468   1469   1499   1500 
                                                    1530   1531   1629   1630 
                                                    1677   1678   1759   1760 
                                                    1807   1808   1893   1894 
                                                    1910   1911   1965   1966 
                                                    1985   1986   1994   1995 
                                                    2013   2014   2046   2047 
                                                    2138   2139   2156   2157 
                                                    2165   2166   2184   2185 
                                                    2209   2210   2299 
CL10                             0000000a-   2263    215    217    305    306 
CL11                             0000000b-   2264    220    221    309    310 
CL12                             0000000c-   2265    224    225    313    314 
CL13                             0000000d-   2266    228    229    317    318 
CL14                             0000000e-   2267    402    403 
CL15                             0000000f-   2268    443    445 
TMS320C3x/4x COFF AssemblerVersion 5.12     Mon Oct 31 11:29:48 2011
Copyright (c) 1987-1999 Texas Instruments Incorporatedasm30.exe -@_330.AAB 

D:\CCS\EEA_SA_V611beta\BOOT\SOURCE\ASM\flash.asm                     PAGE   46

LABEL                            VALUE       DEFN    REF

CL16                             00000010-   2269    497    500 
CL17                             00000011-   2270    513    514 
CL18                             00000012-   2271    573    575    615    617 
CL19                             00000013-   2272    608    609 
CL2                              00000002-   2255    113    114   1631   1632 
                                                    1761   1762   1895   1896 
CL20                             00000014-   2273    694    695    884    886 
                                                    1086   1087 
CL21                             00000015-   2274    725    727    749    751 
                                                     773    775 
CL22                             00000016-   2275    733    735    937    939 
CL23                             00000017-   2276    757    759 
CL24                             00000018-   2277    781    783 
CL25                             00000019-   2278    808    809    980    981 
                                                    1213   1214   2037   2038 
                                                    2200   2201 
CL26                             0000001a-   2279    908    909   1010   1011 
                                                    1110   1111   1295   1296 
                                                    1363   1364   1553   1554 
                                                    1619   1620   1688   1689 
                                                    1749   1750   1818   1819 
                                                    1883   1884   1931   1932 
                                                    2066   2067   2128   2129 
                                                    2220   2221 
CL27                             0000001b-   2280    919    921    999   1001 
                                                    1121   1123   1232   1234 
CL28                             0000001c-   2281    930    931   1515   1516 
CL29                             0000001d-   2282    953    954    956    969 
                                                     970    972   1177   1178 
                                                    1180   1193   1194   1196 
                                                    2002   2003   2005   2018 
                                                    2019   2021   2173   2174 
                                                    2176   2189   2190   2192 
CL3                              00000003-   2256    120    121 
CL30                             0000001e-   2283   1143   1144 
CL31                             0000001f-   2284   1162   1163   1375   1376 
                                                    1987   1988   2158   2159 
CL32                             00000020-   2285   1391   1392 
CL33                             00000021-   2286   1408   1409   1439   1440 
                                                    1470   1471   1501   1502 
                                                    1532   1533 
CL34                             00000022-   2287   1422   1423 
CL35                             00000023-   2288   1453   1454   1919   1920 
                                                    1922 
CL36                             00000024-   2289   1484   1485 
CL37                             00000025-   2290   1648   1651 
CL38                             00000026-   2291   1668   1669   1798   1799 
                                                    1902   1903   2147   2148 
CL39                             00000027-   2292   1778   1781   1974   1976 
CL4                              00000004-   2257    130    131    819    820 
                                                     991    992   1224   1225 
                                                    1679   1680   1809   1810 
                                                    1912   1913   2048   2049 
                                                    2211   2212 
TMS320C3x/4x COFF AssemblerVersion 5.12     Mon Oct 31 11:29:48 2011
Copyright (c) 1987-1999 Texas Instruments Incorporatedasm30.exe -@_330.AAB 

D:\CCS\EEA_SA_V611beta\BOOT\SOURCE\ASM\flash.asm                     PAGE   47

LABEL                            VALUE       DEFN    REF

CL40                             00000028-   2293   1967   1968   2140   2141 
CL41                             00000029-   2294   2055   2056 
CL42                             0000002a-   2295   2149   2150 
CL5                              00000005-   2258    148    150    240    242 
CL6                              00000006-   2259    165    167    257    259 
CL7                              00000007-   2260    182    184    274    276 
CL8                              00000008-   2261    199    201    291    293 
                                                     461    462    553    554 
                                                     589    591 
CL9                              00000009-   2262    213    214 
FP                               0000000b       7 
L100                             00000265+   1546   1415   1446   1477   1508 
                                                    1518   1539 
L104                             0000028d+   1643   1660 
L105                             00000299+   1662   1641 
L109                             000002ca+   1773   1790 
L110                             000002d6+   1792   1771 
L115                             00000321+   1950   1923 
L116                             00000325+   1960   2030 
L117                             0000033f+   2008   2022 
L118                             00000348+   2024   2006 
L119                             0000034d+   2032   1958 
L120                             00000367+   2081   1945 
L123                             00000390+   2179   2193 
L124                             00000399+   2195   2177 
L13                              00000044+    234    307 
L14                              0000004a+    251    311 
L15                              00000050+    268    315 
L16                              00000056+    285    319 
L18                              0000005c+    301    157    174    191    209 
                                                     232 
L2                               0000001c+    142    218 
L22                              0000006a+    321    249    266    283    299 
L25                              00000074+    338    331 
L26                              00000077+    346    333 
L3                               00000022+    159    222 
L30                              0000008e+    423    416 
L32                              00000096+    438    431 
L36                              000000a6+    476    454    465 
L38                              000000ad+    490    483 
L4                               00000028+    176    226 
L40                              000000b7+    508    501 
L43                              000000c6+    539    446 
L46                              000000d2+    568    546    557 
L48                              000000da+    583    576 
L5                               0000002e+    193    230 
L50                              000000e6+    603    596 
L52                              000000f6+    634    532    627 
L53                              000000f7+    640    418    433    471    485 
                                                     503    534    563    578 
                                                     598    629 
TMS320C3x/4x COFF AssemblerVersion 5.12     Mon Oct 31 11:29:48 2011
Copyright (c) 1987-1999 Texas Instruments Incorporatedasm30.exe -@_330.AAB 

D:\CCS\EEA_SA_V611beta\BOOT\SOURCE\ASM\flash.asm                     PAGE   48

LABEL                            VALUE       DEFN    REF

L57                              00000108+    709    705 
L58                              0000010b+    720    795 
L59                              00000114+    744    798 
L60                              0000011d+    768    801 
L62                              00000126+    791    718 
L65                              0000012d+    803    742    766    789 
L66                              00000138+    832    707 
L7                               00000034+    211    140 
L70                              00000148+    899    895 
L71                              00000169+    959    973 
L72                              00000172+    975    957 
L73                              0000018d+   1025    897 
L77                              0000019f+   1101   1097 
L78                              000001b3+   1136   1206 
L79                              000001cc+   1183   1197 
L80                              000001d5+   1199   1181 
L81                              000001db+   1208   1134 
L83                              000001f1+   1255   1286 
L85                              000001fa+   1279   1265 
L86                              00000200+   1288   1243   1253   1277 
L87                              0000020d+   1310   1099 
L91                              00000235+   1417   1394 
L93                              00000241+   1448   1425 
L95                              0000024d+   1479   1456 
L97                              00000259+   1510   1487 
_FLASH_CHECK_ADDR                0000007b+    373    360    361    361   2319 
_FLASH_ERASE_BLK                 0000013c+    859    846    847    847 
_FLASH_LOCK_BLK                  000000fb+    667    654    655    655   2326 
_FLASH_LOCK_ESN_USER             0000036b+   2108   2095   2096   2096   2340 
_FLASH_READ_ESN_MFGR             00000276+   1594   1581   1582   1582 
_FLASH_READ_ESN_USER             000002b3+   1724   1711   1712   1712 
_FLASH_SIZE                      00000000+     74     61     62     62   2313 
_FLASH_STATUS                    00000211+   1337   1324   1325   1325   2324 
_FLASH_WRITE_BLK                 00000191+   1052   1039   1040   1040 
_FLASH_WRITE_ESN_USER            000002f0+   1854   1841   1842   1842 
_SRAM_SCRATCHPAD                 00000000-   2248   2247   2249   2249 
fp                               0000000b       6    871    879    889    920 
                                                     938    948    955    967 
                                                     971    984   1000   1024 
                                                    1028   1029   1029   1070 
                                                    1071   1079   1080   1081 
                                                    1091   1122   1131   1132 
                                                    1133   1150   1151   1152 
                                                    1172   1179   1191   1195 
                                                    1202   1203   1204   1205 
                                                    1217   1233   1241   1250 
                                                    1251   1252   1260   1261 
                                                    1262   1272   1282   1283 
                                                    1284   1285   1309   1313 
                                                    1314   1314   1346   1347 
                                                    1354   1386   1393   1401 
                                                    1424   1432   1455   1463 
                                                    1486   1494   1517   1525 
                                                    1567   1570   1571   1571 
                                                    1603   1604   1610   1639 
                                                    1649   1650   1657   1658 
                                                    1670   1700   1701   1701 
                                                    1733   1734   1740   1769 
                                                    1779   1780   1787   1788 
                                                    1800   1830   1831   1831 
                                                    1865   1866   1874   1905 
                                                    1921   1956   1975   1977 
                                                    1997   2004   2016   2020 
                                                    2027   2028   2041   2059 
                                                    2080   2084   2085   2085 
                                                    2117   2118   2168   2175 
                                                    2187   2191   2204   2234 
                                                    2237   2238   2238 
