TMS320C3x/4x COFF AssemblerVersion 5.12     Mon Oct 31 11:29:49 2011
Copyright (c) 1987-1999 Texas Instruments Incorporatedasm30.exe -@_71C.AAB 

D:\CCS\EEA_SA_V611beta\BOOT\SOURCE\ASM\lcd.asm                       PAGE    1

        1                   ;******************************************************************************
        2                   ;* TMS320C3x/4x ANSI C Code Generator                            Version 5.11 *
        3                   ;* Date/Time created: Mon Oct 31 11:29:49 2011                                *
        4                   ;******************************************************************************
        5                           .regalias       ; enable floating point register aliases
        6          0000000b fp      .set    ar3
        7          0000000b FP      .set    ar3
        8                   ;******************************************************************************
        9                   ;* GLOBAL FILE PARAMETERS                                                     *
       10                   ;*                                                                            *
       11                   ;*   Optimization       : Always Choose Smaller Code Size                     *
       12                   ;*   Memory             : Big Memory Model                                    *
       13                   ;*   Float-to-Int       : Normal Conversions (round toward zero)              *
       14                   ;*   Multiply           : in Software (32 bits)                               *
       15                   ;*   Memory Info        : Unmapped Memory Exists                              *
       16                   ;*   Repeat Loops       : Use RPTS and/or RPTB                                *
       17                   ;*   Calls              : Normal Library ASM calls                            *
       18                   ;*   Debug Info         : Standard TI Debug Information                       *
       19                   ;******************************************************************************
       20                   ;       C:\tic3x4x\c3x4x\cgtools\bin\ac30.exe -@_71C.AAA 
       21                           .file   "lcd.c"
       22                           .file   "D:\CCS\EEA_SA_V611beta\INCLUDE\ETC.H"
       23                           .sym    _BOOL,0,14,13,32
       24                           .file   "D:\CCS\EEA_SA_V611beta\BOOT\SOURCE\INCLUDE\BUFFER.H"
       25                           .stag   .fake0,131744
       26                           .member _head,0,4,8,32
       27                           .member _tail,32,4,8,32
       28                           .member _n,64,4,8,32
       29                           .member _CRC16,96,14,8,32
       30                           .member _buff,128,62,8,131584,,4112
       31                           .member _locked,131712,14,8,32
       32                           .eos
       33                           .sym    _BFR,0,8,13,131744,.fake0
       34                           .file   "D:\CCS\EEA_SA_V611beta\INCLUDE\FLASH.H"
       35                           .file   "D:\CCS\EEA_SA_V611beta\BOOT\SOURCE\INCLUDE\SERIAL.H"
       36                           .stag   .fake1,263936
       37                           .member _STAT,0,12,8,32
       38                           .member _TMR_Network_WDOG,32,14,8,32
       39                           .member _TMR_EOT_Delay,64,14,8,32
       40                           .member _TMR_Preamble_Delay,96,14,8,32
       41                           .member _TMR_Suffix_Delay,128,14,8,32
       42                           .member _TMR_Char,160,14,8,32
       43                           .member _TMR_enabled,192,14,8,32
       44                           .member _tvector,224,20,8,32
       45                           .member _pvector,256,20,8,32
       46                           .member _i,288,14,8,32
       47                           .member _func,320,14,8,32
       48                           .member _Slave_ID,352,14,8,32
       49                           .member _TXbuf,384,8,8,131744,.fake0
       50                           .member _TX_complete,132128,14,8,32
       51                           .member _RXbuf,132160,8,8,131744,.fake0
       52                           .member _RX_pending,263904,14,8,32
       53                           .eos
       54                           .sym    _PORTV,0,8,13,263936,.fake1
TMS320C3x/4x COFF AssemblerVersion 5.12     Mon Oct 31 11:29:49 2011
Copyright (c) 1987-1999 Texas Instruments Incorporatedasm30.exe -@_71C.AAB 

D:\CCS\EEA_SA_V611beta\BOOT\SOURCE\ASM\lcd.asm                       PAGE    2

       55                           .file   "D:\CCS\EEA_SA_V611beta\BOOT\SOURCE\INCLUDE\MODBUSRTU.H"
       56                           .file   "D:\CCS\EEA_SA_V611beta\INCLUDE\I2C.H"
       57                           .file   "D:\CCS\EEA_SA_V611beta\BOOT\SOURCE\INCLUDE\GLBLS.H"
       58                           .file   "lcd.c"
       59 00000000                  .sect    "internal_RAM"
       60                   
       61                           .global _I2C_TX_BYTE_5
       62                           .sym    _I2C_TX_BYTE_5,_I2C_TX_BYTE_5,46,2,0
       63                           .func   57
       64                   ;******************************************************************************
       65                   ;* FUNCTION NAME: _I2C_TX_BYTE_5                                              *
       66                   ;*                                                                            *
       67                   ;*   Architecture       : TMS320C33                                           *
       68                   ;*   Calling Convention : TI Standard Register Parameters                     *
       69                   ;*   Function Uses Regs : r0,ar0,ar2,st                                       *
       70                   ;*   Regs Saved         :                                                     *
       71                   ;*   Stack Frame        : Full (w/ debug)                                     *
       72                   ;*   Total Frame Size   : 2 Call + 0 Parm + 4 Auto + 0 SOE = 6 words          *
       73                   ;******************************************************************************
       74 00000000          _I2C_TX_BYTE_5:
       75                   ;* ar2   assigned to _b
       76                           .sym    _b,10,12,17,32
       77                           .sym    _b,1,12,1,32
       78                           .sym    _i,2,4,1,32
       79                           .sym    _dat,3,12,1,32
       80                           .sym    _ack,4,14,1,32
       81                           .line   1
       82                   ;----------------------------------------------------------------------
       83                   ;  57 | BOOL I2C_TX_BYTE_5(unsigned char b)                                    
       84                   ;----------------------------------------------------------------------
       85 00000000 0f2b0000         push      fp
       86 00000001 500b0014         ldiu      sp,fp
       87 00000002 02740004         addi      4,sp
       88                           .line   2
       89                   ;----------------------------------------------------------------------
       90                   ;  59 | int i;                                                                 
       91                   ;  60 | unsigned char dat;                                                     
       92                   ;  61 | BOOL ack;                                                              
       93                   ;----------------------------------------------------------------------
       94 00000003 154a0301         sti       ar2,*+fp(1)           ; |58| 
       95                           .line   7
       96                   ;----------------------------------------------------------------------
       97                   ;  63 | dat = b;                                                               
       98                   ;----------------------------------------------------------------------
       99 00000004 5000000a         ldiu      ar2,r0
      100 00000005 15400303         sti       r0,*+fp(3)            ; |63| 
      101                           .line   9
      102                   ;----------------------------------------------------------------------
      103                   ;  65 | for (i=0;i<8;i++)                                                      
      104                   ;----------------------------------------------------------------------
      105 00000006 50600000         ldiu      0,r0                  ; |65| 
      106 00000007 15400302         sti       r0,*+fp(2)            ; |65| 
      107 00000008 04e00008         cmpi      8,r0                  ; |65| 
      108 00000009 6a0a0026         bge       L6                    ; |65| 
TMS320C3x/4x COFF AssemblerVersion 5.12     Mon Oct 31 11:29:49 2011
Copyright (c) 1987-1999 Texas Instruments Incorporatedasm30.exe -@_71C.AAB 

D:\CCS\EEA_SA_V611beta\BOOT\SOURCE\ASM\lcd.asm                       PAGE    3

      109                   ;*      Branch Occurs to L6             ; |65| 
      110 0000000a          L2:        
      111                           .line   11
      112                   ;----------------------------------------------------------------------
      113                   ;  67 | if (dat&0x80)                                                          
      114                   ;----------------------------------------------------------------------
      115 0000000a 50600080         ldiu      128,r0                ; |67| 
      116 0000000b 1a400303         tstb      *+fp(3),r0            ; |67| 
      117 0000000c 6a050006         beq       L4                    ; |67| 
      118                   ;*      Branch Occurs to L4             ; |67| 
      119                           .line   13
      120                   ;----------------------------------------------------------------------
      121                   ;  69 | SDA_TX_HI_5;                                                           
      122                   ;  71 | else                                                                   
      123                   ;----------------------------------------------------------------------
      124 0000000d 08700000-        ldp       @CL1,DP
      125 0000000e 50280000-        ldiu      @CL1,ar0              ; |69| 
      126 0000000f 50600001         ldiu      1,r0                  ; |69| 
      127 00000010 25a0c000         or3       r0,*ar0,r0            ; |69| 
      128 00000011 1540c000         sti       r0,*ar0               ; |69| 
      129 00000012 6a000005         bu        L5                    ; |56| 
      130                   ;*      Branch Occurs to L5             ; |56| 
      131 00000013          L4:        
      132                           .line   17
      133                   ;----------------------------------------------------------------------
      134                   ;  73 | SDA_TX_LO_5;                                                           
      135                   ;----------------------------------------------------------------------
      136 00000013 08700000-        ldp       @CL1,DP
      137 00000014 50280000-        ldiu      @CL1,ar0              ; |73| 
      138 00000015 506000fe         ldiu      254,r0                ; |73| 
      139 00000016 21a0c000         and3      r0,*ar0,r0            ; |73| 
      140 00000017 1540c000         sti       r0,*ar0               ; |73| 
      141 00000018          L5:        
      142                           .line   20
      143                   ;----------------------------------------------------------------------
      144                   ;  76 | I2C_PULSE_5;                                                           
      145                   ;----------------------------------------------------------------------
      146 00000018 08700000-        ldp       @CL1,DP
      147 00000019 50280000-        ldiu      @CL1,ar0              ; |76| 
      148 0000001a 50600004         ldiu      4,r0                  ; |76| 
      149 0000001b 25a0c000         or3       r0,*ar0,r0            ; |76| 
      150 0000001c 1540c000         sti       r0,*ar0               ; |76| 
      151 0000001d 0f290000                 PUSH    AR1                     
      152 0000001e 08690004                 LDI             4,AR1           
      153 0000001f 6e46ffff                 .word   6E46FFFFh       
      154 00000020 0e290000                 POP             AR1                     
      155 00000021 506000fb         ldiu      251,r0                ; |76| 
      156 00000022 21a0c000         and3      r0,*ar0,r0            ; |76| 
      157 00000023 1540c000         sti       r0,*ar0               ; |76| 
      158 00000024 0f290000                 PUSH    AR1                     
      159 00000025 08690004                 LDI             4,AR1           
      160 00000026 6e46ffff                 .word   6E46FFFFh       
      161 00000027 0e290000                 POP             AR1                     
      162                           .line   22
TMS320C3x/4x COFF AssemblerVersion 5.12     Mon Oct 31 11:29:49 2011
Copyright (c) 1987-1999 Texas Instruments Incorporatedasm30.exe -@_71C.AAB 

D:\CCS\EEA_SA_V611beta\BOOT\SOURCE\ASM\lcd.asm                       PAGE    4

      163                   ;----------------------------------------------------------------------
      164                   ;  78 | dat = dat<<1;                                                          
      165                   ;----------------------------------------------------------------------
      166 00000028 50400303         ldiu      *+fp(3),r0            ; |78| 
      167 00000029 03e00001         ash       1,r0                  ; |78| 
      168 0000002a 15400303         sti       r0,*+fp(3)            ; |78| 
      169                           .line   9
      170 0000002b 50600001         ldiu      1,r0                  ; |65| 
      171 0000002c 02400302         addi      *+fp(2),r0            ; |65| 
      172 0000002d 15400302         sti       r0,*+fp(2)            ; |65| 
      173 0000002e 04e00008         cmpi      8,r0                  ; |65| 
      174 0000002f 6a07ffda         blt       L2                    ; |65| 
      175                   ;*      Branch Occurs to L2             ; |65| 
      176 00000030          L6:        
      177                           .line   25
      178                   ;----------------------------------------------------------------------
      179                   ;  81 | DISABLE_SDA_TX_5;                                                      
      180                   ;----------------------------------------------------------------------
      181 00000030 08700000-        ldp       @CL1,DP
      182 00000031 50280000-        ldiu      @CL1,ar0              ; |81| 
      183 00000032 506000fd         ldiu      253,r0                ; |81| 
      184 00000033 21a0c000         and3      r0,*ar0,r0            ; |81| 
      185 00000034 1540c000         sti       r0,*ar0               ; |81| 
      186                           .line   26
      187                   ;----------------------------------------------------------------------
      188                   ;  82 | SDA_TX_HI_5;                                                           
      189                   ;----------------------------------------------------------------------
      190 00000035 50600001         ldiu      1,r0                  ; |82| 
      191 00000036 25a0c000         or3       r0,*ar0,r0            ; |82| 
      192 00000037 1540c000         sti       r0,*ar0               ; |82| 
      193                           .line   27
      194                   ;----------------------------------------------------------------------
      195                   ;  83 | I2C_WAIT_HI;                                                           
      196                   ;----------------------------------------------------------------------
      197 00000038 0f290000                 PUSH    AR1                     
      198 00000039 08690004                 LDI             4,AR1           
      199 0000003a 6e46ffff                 .word   6E46FFFFh       
      200 0000003b 0e290000                 POP             AR1                     
      201                           .line   28
      202                   ;----------------------------------------------------------------------
      203                   ;  84 | SCL_HI_5;                                                              
      204                   ;----------------------------------------------------------------------
      205 0000003c 50600004         ldiu      4,r0                  ; |84| 
      206 0000003d 25a0c000         or3       r0,*ar0,r0            ; |84| 
      207 0000003e 1540c000         sti       r0,*ar0               ; |84| 
      208                           .line   29
      209                   ;----------------------------------------------------------------------
      210                   ;  85 | I2C_WAIT_HI;                                                           
      211                   ;----------------------------------------------------------------------
      212 0000003f 0f290000                 PUSH    AR1                     
      213 00000040 08690004                 LDI             4,AR1           
      214 00000041 6e46ffff                 .word   6E46FFFFh       
      215 00000042 0e290000                 POP             AR1                     
      216                           .line   30
TMS320C3x/4x COFF AssemblerVersion 5.12     Mon Oct 31 11:29:49 2011
Copyright (c) 1987-1999 Texas Instruments Incorporatedasm30.exe -@_71C.AAB 

D:\CCS\EEA_SA_V611beta\BOOT\SOURCE\ASM\lcd.asm                       PAGE    5

      217                   ;----------------------------------------------------------------------
      218                   ;  86 | if (SDA_RX_5) ack = FALSE;                                             
      219                   ;----------------------------------------------------------------------
      220 00000043 50600010         ldiu      16,r0                 ; |86| 
      221 00000044 27c000c0         tstb3     *ar0,r0               ; |86| 
      222 00000045 6a050003         beq       L8                    ; |86| 
      223                   ;*      Branch Occurs to L8             ; |86| 
      224 00000046 50600000         ldiu      0,r0                  ; |86| 
      225 00000047 15400304         sti       r0,*+fp(4)            ; |86| 
      226 00000048 6a000002         bu        L9                    ; |56| 
      227                   ;*      Branch Occurs to L9             ; |56| 
      228 00000049          L8:        
      229                           .line   31
      230                   ;----------------------------------------------------------------------
      231                   ;  87 | else ack = TRUE;                                                       
      232                   ;----------------------------------------------------------------------
      233 00000049 50600001         ldiu      1,r0                  ; |87| 
      234 0000004a 15400304         sti       r0,*+fp(4)            ; |87| 
      235 0000004b          L9:        
      236                           .line   32
      237                   ;----------------------------------------------------------------------
      238                   ;  88 | SCL_LO_5;                                                              
      239                   ;----------------------------------------------------------------------
      240 0000004b 08700000-        ldp       @CL1,DP
      241 0000004c 50280000-        ldiu      @CL1,ar0              ; |88| 
      242 0000004d 506000fb         ldiu      251,r0                ; |88| 
      243 0000004e 21a0c000         and3      r0,*ar0,r0            ; |88| 
      244 0000004f 1540c000         sti       r0,*ar0               ; |88| 
      245                           .line   33
      246                   ;----------------------------------------------------------------------
      247                   ;  89 | I2C_WAIT_LO;                                                           
      248                   ;----------------------------------------------------------------------
      249 00000050 0f290000                 PUSH    AR1                     
      250 00000051 08690004                 LDI             4,AR1           
      251 00000052 6e46ffff                 .word   6E46FFFFh       
      252 00000053 0e290000                 POP             AR1                     
      253                           .line   34
      254                   ;----------------------------------------------------------------------
      255                   ;  90 | ENABLE_SDA_TX_5;                                                       
      256                   ;----------------------------------------------------------------------
      257 00000054 50600002         ldiu      2,r0                  ; |90| 
      258 00000055 25a0c000         or3       r0,*ar0,r0            ; |90| 
      259 00000056 1540c000         sti       r0,*ar0               ; |90| 
      260                           .line   36
      261                   ;----------------------------------------------------------------------
      262                   ;  92 | return ack;                                                            
      263                   ;----------------------------------------------------------------------
      264 00000057 50400304         ldiu      *+fp(4),r0            ; |92| 
      265                           .line   37
      266                                                           ; Begin Epilog Code
      267 00000058 50410b01         ldiu      *-fp(1),r1            ; |93| 
      268 00000059 504bc300         ldiu      *fp,fp                ; |93| 
      269                                                           ; Unallocate the Frame
      270 0000005a 18740006         subi      6,sp                  ; |93| 
TMS320C3x/4x COFF AssemblerVersion 5.12     Mon Oct 31 11:29:49 2011
Copyright (c) 1987-1999 Texas Instruments Incorporatedasm30.exe -@_71C.AAB 

D:\CCS\EEA_SA_V611beta\BOOT\SOURCE\ASM\lcd.asm                       PAGE    6

      271 0000005b 68000001         bu        r1
      272                   ;*      Branch Occurs to r1 
      273                           .endfunc        93,000000000h,4
      274                   
      275                   
      276 0000005c                  .sect    "internal_RAM"
      277                   
      278                           .global _I2C_RX_BYTE_5
      279                           .sym    _I2C_RX_BYTE_5,_I2C_RX_BYTE_5,32,2,0
      280                           .func   95
      281                   ;******************************************************************************
      282                   ;* FUNCTION NAME: _I2C_RX_BYTE_5                                              *
      283                   ;*                                                                            *
      284                   ;*   Architecture       : TMS320C33                                           *
      285                   ;*   Calling Convention : TI Standard Register Parameters                     *
      286                   ;*   Function Uses Regs : r0,r2,ar0,ar2,st                                    *
      287                   ;*   Regs Saved         :                                                     *
      288                   ;*   Stack Frame        : Full (w/ debug)                                     *
      289                   ;*   Total Frame Size   : 2 Call + 0 Parm + 4 Auto + 0 SOE = 6 words          *
      290                   ;******************************************************************************
      291 0000005c          _I2C_RX_BYTE_5:
      292                   ;* ar2   assigned to _b
      293                           .sym    _b,10,28,17,32
      294                   ;* r2    assigned to _ack
      295                           .sym    _ack,2,14,17,32
      296                           .sym    _b,1,28,1,32
      297                           .sym    _ack,2,14,1,32
      298                           .sym    _i,3,4,1,32
      299                           .sym    _dat,4,12,1,32
      300                           .line   1
      301                   ;----------------------------------------------------------------------
      302                   ;  95 | void I2C_RX_BYTE_5(unsigned char* b, BOOL ack)                         
      303                   ;----------------------------------------------------------------------
      304 0000005c 0f2b0000         push      fp
      305 0000005d 500b0014         ldiu      sp,fp
      306 0000005e 02740004         addi      4,sp
      307                           .line   2
      308                   ;----------------------------------------------------------------------
      309                   ;  97 | int i;                                                                 
      310                   ;  98 | unsigned char dat;                                                     
      311                   ;----------------------------------------------------------------------
      312 0000005f 15420302         sti       r2,*+fp(2)            ; |96| 
      313 00000060 154a0301         sti       ar2,*+fp(1)           ; |96| 
      314                           .line   6
      315                   ;----------------------------------------------------------------------
      316                   ; 100 | dat = 0;                                                               
      317                   ;----------------------------------------------------------------------
      318 00000061 50600000         ldiu      0,r0                  ; |100| 
      319 00000062 15400304         sti       r0,*+fp(4)            ; |100| 
      320                           .line   8
      321                   ;----------------------------------------------------------------------
      322                   ; 102 | DISABLE_SDA_TX_5;                                                      
      323                   ;----------------------------------------------------------------------
      324 00000063 08700000-        ldp       @CL1,DP
TMS320C3x/4x COFF AssemblerVersion 5.12     Mon Oct 31 11:29:49 2011
Copyright (c) 1987-1999 Texas Instruments Incorporatedasm30.exe -@_71C.AAB 

D:\CCS\EEA_SA_V611beta\BOOT\SOURCE\ASM\lcd.asm                       PAGE    7

      325 00000064 50280000-        ldiu      @CL1,ar0              ; |102| 
      326 00000065 506000fd         ldiu      253,r0                ; |102| 
      327 00000066 21a0c000         and3      r0,*ar0,r0            ; |102| 
      328 00000067 1540c000         sti       r0,*ar0               ; |102| 
      329                           .line   9
      330                   ;----------------------------------------------------------------------
      331                   ; 103 | for (i=0;i<8;i++)                                                      
      332                   ;----------------------------------------------------------------------
      333 00000068 50600000         ldiu      0,r0                  ; |103| 
      334 00000069 15400303         sti       r0,*+fp(3)            ; |103| 
      335 0000006a 04e00008         cmpi      8,r0                  ; |103| 
      336 0000006b 6a0a0020         bge       L16                   ; |103| 
      337                   ;*      Branch Occurs to L16            ; |103| 
      338 0000006c          L13:        
      339                           .line   11
      340                   ;----------------------------------------------------------------------
      341                   ; 105 | SCL_HI_5;                                                              
      342                   ;----------------------------------------------------------------------
      343 0000006c 08700000-        ldp       @CL1,DP
      344 0000006d 50280000-        ldiu      @CL1,ar0              ; |105| 
      345 0000006e 50600004         ldiu      4,r0                  ; |105| 
      346 0000006f 25a0c000         or3       r0,*ar0,r0            ; |105| 
      347 00000070 1540c000         sti       r0,*ar0               ; |105| 
      348                           .line   12
      349                   ;----------------------------------------------------------------------
      350                   ; 106 | I2C_WAIT_HI;                                                           
      351                   ;----------------------------------------------------------------------
      352 00000071 0f290000                 PUSH    AR1                     
      353 00000072 08690004                 LDI             4,AR1           
      354 00000073 6e46ffff                 .word   6E46FFFFh       
      355 00000074 0e290000                 POP             AR1                     
      356                           .line   13
      357                   ;----------------------------------------------------------------------
      358                   ; 107 | if (SDA_RX_5)   dat |= 0x01;                                           
      359                   ;----------------------------------------------------------------------
      360 00000075 50600010         ldiu      16,r0                 ; |107| 
      361 00000076 27c000c0         tstb3     *ar0,r0               ; |107| 
      362 00000077 6a050003         beq       L15                   ; |107| 
      363                   ;*      Branch Occurs to L15            ; |107| 
      364 00000078 50600001         ldiu      1,r0                  ; |107| 
      365 00000079 10400304         or        *+fp(4),r0            ; |107| 
      366 0000007a 15400304         sti       r0,*+fp(4)            ; |107| 
      367 0000007b          L15:        
      368                           .line   14
      369                   ;----------------------------------------------------------------------
      370                   ; 108 | SCL_LO_5;                                                              
      371                   ;----------------------------------------------------------------------
      372 0000007b 08700000-        ldp       @CL1,DP
      373 0000007c 50280000-        ldiu      @CL1,ar0              ; |108| 
      374 0000007d 506000fb         ldiu      251,r0                ; |108| 
      375 0000007e 21a0c000         and3      r0,*ar0,r0            ; |108| 
      376 0000007f 1540c000         sti       r0,*ar0               ; |108| 
      377                           .line   15
      378                   ;----------------------------------------------------------------------
TMS320C3x/4x COFF AssemblerVersion 5.12     Mon Oct 31 11:29:49 2011
Copyright (c) 1987-1999 Texas Instruments Incorporatedasm30.exe -@_71C.AAB 

D:\CCS\EEA_SA_V611beta\BOOT\SOURCE\ASM\lcd.asm                       PAGE    8

      379                   ; 109 | I2C_WAIT_LO;                                                           
      380                   ;----------------------------------------------------------------------
      381 00000080 0f290000                 PUSH    AR1                     
      382 00000081 08690004                 LDI             4,AR1           
      383 00000082 6e46ffff                 .word   6E46FFFFh       
      384 00000083 0e290000                 POP             AR1                     
      385                           .line   16
      386                   ;----------------------------------------------------------------------
      387                   ; 110 | dat = dat<<1;                                                          
      388                   ;----------------------------------------------------------------------
      389 00000084 50400304         ldiu      *+fp(4),r0            ; |110| 
      390 00000085 03e00001         ash       1,r0                  ; |110| 
      391 00000086 15400304         sti       r0,*+fp(4)            ; |110| 
      392                           .line   9
      393 00000087 50600001         ldiu      1,r0                  ; |103| 
      394 00000088 02400303         addi      *+fp(3),r0            ; |103| 
      395 00000089 15400303         sti       r0,*+fp(3)            ; |103| 
      396 0000008a 04e00008         cmpi      8,r0                  ; |103| 
      397 0000008b 6a07ffe0         blt       L13                   ; |103| 
      398                   ;*      Branch Occurs to L13            ; |103| 
      399 0000008c          L16:        
      400                           .line   19
      401                   ;----------------------------------------------------------------------
      402                   ; 113 | dat = dat>>1;                                                          
      403                   ;----------------------------------------------------------------------
      404 0000008c 50400304         ldiu      *+fp(4),r0            ; |113| 
      405 0000008d 09e0ffff         lsh       -1,r0                 ; |113| 
      406 0000008e 15400304         sti       r0,*+fp(4)            ; |113| 
      407                           .line   21
      408                   ;----------------------------------------------------------------------
      409                   ; 115 | ENABLE_SDA_TX_5;                                                       
      410                   ;----------------------------------------------------------------------
      411 0000008f 08700000-        ldp       @CL1,DP
      412 00000090 50280000-        ldiu      @CL1,ar0              ; |115| 
      413 00000091 50600002         ldiu      2,r0                  ; |115| 
      414 00000092 25a0c000         or3       r0,*ar0,r0            ; |115| 
      415 00000093 1540c000         sti       r0,*ar0               ; |115| 
      416                           .line   22
      417                   ;----------------------------------------------------------------------
      418                   ; 116 | if (ack)                                                               
      419                   ;----------------------------------------------------------------------
      420 00000094 50400302         ldiu      *+fp(2),r0            ; |116| 
      421 00000095 04e00000         cmpi      0,r0                  ; |116| 
      422 00000096 6a050006         beq       L18                   ; |116| 
      423                   ;*      Branch Occurs to L18            ; |116| 
      424                           .line   24
      425                   ;----------------------------------------------------------------------
      426                   ; 118 | SDA_TX_LO_5;                                                           
      427                   ; 120 | else                                                                   
      428                   ;----------------------------------------------------------------------
      429 00000097 08700000-        ldp       @CL1,DP
      430 00000098 50280000-        ldiu      @CL1,ar0              ; |118| 
      431 00000099 506000fe         ldiu      254,r0                ; |118| 
      432 0000009a 21a0c000         and3      r0,*ar0,r0            ; |118| 
TMS320C3x/4x COFF AssemblerVersion 5.12     Mon Oct 31 11:29:49 2011
Copyright (c) 1987-1999 Texas Instruments Incorporatedasm30.exe -@_71C.AAB 

D:\CCS\EEA_SA_V611beta\BOOT\SOURCE\ASM\lcd.asm                       PAGE    9

      433 0000009b 1540c000         sti       r0,*ar0               ; |118| 
      434 0000009c 6a000005         bu        L19                   ; |94| 
      435                   ;*      Branch Occurs to L19            ; |94| 
      436 0000009d          L18:        
      437                           .line   28
      438                   ;----------------------------------------------------------------------
      439                   ; 122 | SDA_TX_HI_5;                                                           
      440                   ;----------------------------------------------------------------------
      441 0000009d 08700000-        ldp       @CL1,DP
      442 0000009e 50280000-        ldiu      @CL1,ar0              ; |122| 
      443 0000009f 50600001         ldiu      1,r0                  ; |122| 
      444 000000a0 25a0c000         or3       r0,*ar0,r0            ; |122| 
      445 000000a1 1540c000         sti       r0,*ar0               ; |122| 
      446 000000a2          L19:        
      447                           .line   30
      448                   ;----------------------------------------------------------------------
      449                   ; 124 | I2C_PULSE_5;                                                           
      450                   ;----------------------------------------------------------------------
      451 000000a2 08700000-        ldp       @CL1,DP
      452 000000a3 50280000-        ldiu      @CL1,ar0              ; |124| 
      453 000000a4 50600004         ldiu      4,r0                  ; |124| 
      454 000000a5 25a0c000         or3       r0,*ar0,r0            ; |124| 
      455 000000a6 1540c000         sti       r0,*ar0               ; |124| 
      456 000000a7 0f290000                 PUSH    AR1                     
      457 000000a8 08690004                 LDI             4,AR1           
      458 000000a9 6e46ffff                 .word   6E46FFFFh       
      459 000000aa 0e290000                 POP             AR1                     
      460 000000ab 506000fb         ldiu      251,r0                ; |124| 
      461 000000ac 21a0c000         and3      r0,*ar0,r0            ; |124| 
      462 000000ad 1540c000         sti       r0,*ar0               ; |124| 
      463 000000ae 0f290000                 PUSH    AR1                     
      464 000000af 08690004                 LDI             4,AR1           
      465 000000b0 6e46ffff                 .word   6E46FFFFh       
      466 000000b1 0e290000                 POP             AR1                     
      467                           .line   32
      468                   ;----------------------------------------------------------------------
      469                   ; 126 | b[0] = dat;                                                            
      470                   ;----------------------------------------------------------------------
      471 000000b2 50480301         ldiu      *+fp(1),ar0           ; |126| 
      472 000000b3 50400304         ldiu      *+fp(4),r0            ; |126| 
      473 000000b4 1540c000         sti       r0,*ar0               ; |126| 
      474                           .line   33
      475                                                           ; Begin Epilog Code
      476 000000b5 50410b01         ldiu      *-fp(1),r1
      477 000000b6 504bc300         ldiu      *fp,fp
      478                                                           ; Unallocate the Frame
      479 000000b7 18740006         subi      6,sp
      480 000000b8 68000001         bu        r1
      481                   ;*      Branch Occurs to r1 
      482                           .endfunc        127,000000000h,4
      483                   
      484                   
      485 000000b9                  .sect    "internal_RAM"
      486                   
TMS320C3x/4x COFF AssemblerVersion 5.12     Mon Oct 31 11:29:49 2011
Copyright (c) 1987-1999 Texas Instruments Incorporatedasm30.exe -@_71C.AAB 

D:\CCS\EEA_SA_V611beta\BOOT\SOURCE\ASM\lcd.asm                       PAGE   10

      487                           .global _Write_I2C_5
      488                           .sym    _Write_I2C_5,_Write_I2C_5,46,2,0
      489                           .func   129
      490                   ;******************************************************************************
      491                   ;* FUNCTION NAME: _Write_I2C_5                                                *
      492                   ;*                                                                            *
      493                   ;*   Architecture       : TMS320C33                                           *
      494                   ;*   Calling Convention : TI Standard Register Parameters                     *
      495                   ;*   Function Uses Regs : r0,r2,r3,ar0,ar2,ir0,st                             *
      496                   ;*   Regs Saved         :                                                     *
      497                   ;*   Stack Frame        : Full (w/ debug)                                     *
      498                   ;*   Total Frame Size   : 2 Call + 0 Parm + 7 Auto + 0 SOE = 9 words          *
      499                   ;******************************************************************************
      500 000000b9          _Write_I2C_5:
      501                   ;* ar2   assigned to _addr
      502                           .sym    _addr,10,4,17,32
      503                   ;* r2    assigned to _n
      504                           .sym    _n,2,4,17,32
      505                   ;* r3    assigned to _p
      506                           .sym    _p,3,28,17,32
      507                           .sym    _addr,1,4,1,32
      508                           .sym    _n,2,4,1,32
      509                           .sym    _p,3,28,1,32
      510                           .sym    _i,4,4,1,32
      511                           .sym    _dat,5,12,1,32
      512                           .sym    _ack,6,14,1,32
      513                           .sym    _r,7,14,1,32
      514                           .line   1
      515                   ;----------------------------------------------------------------------
      516                   ; 129 | BOOL Write_I2C_5(int addr, int n, unsigned char* p)                    
      517                   ;----------------------------------------------------------------------
      518 000000b9 0f2b0000         push      fp
      519 000000ba 500b0014         ldiu      sp,fp
      520 000000bb 02740007         addi      7,sp
      521                           .line   2
      522                   ;----------------------------------------------------------------------
      523                   ; 131 | int i;                                                                 
      524                   ; 132 | unsigned char dat;                                                     
      525                   ; 133 | BOOL ack;                                                              
      526                   ; 134 | BOOL r;                                                                
      527                   ;----------------------------------------------------------------------
      528 000000bc 15430303         sti       r3,*+fp(3)            ; |130| 
      529 000000bd 15420302         sti       r2,*+fp(2)            ; |130| 
      530 000000be 154a0301         sti       ar2,*+fp(1)           ; |130| 
      531                           .line   8
      532                   ;----------------------------------------------------------------------
      533                   ; 136 | r = TRUE;                                                              
      534                   ;----------------------------------------------------------------------
      535 000000bf 50600001         ldiu      1,r0                  ; |136| 
      536 000000c0 15400307         sti       r0,*+fp(7)            ; |136| 
      537                           .line   10
      538                   ;----------------------------------------------------------------------
      539                   ; 138 | I2C_START_5;                                                           
      540                   ; 140 | while(TRUE)                                                            
TMS320C3x/4x COFF AssemblerVersion 5.12     Mon Oct 31 11:29:49 2011
Copyright (c) 1987-1999 Texas Instruments Incorporatedasm30.exe -@_71C.AAB 

D:\CCS\EEA_SA_V611beta\BOOT\SOURCE\ASM\lcd.asm                       PAGE   11

      541                   ;----------------------------------------------------------------------
      542 000000c1 08700000-        ldp       @CL1,DP
      543 000000c2 50280000-        ldiu      @CL1,ar0              ; |138| 
      544 000000c3 50600004         ldiu      4,r0                  ; |138| 
      545 000000c4 25a0c000         or3       r0,*ar0,r0            ; |138| 
      546 000000c5 1540c000         sti       r0,*ar0               ; |138| 
      547 000000c6 50600001         ldiu      1,r0                  ; |138| 
      548 000000c7 25a0c000         or3       r0,*ar0,r0            ; |138| 
      549 000000c8 1540c000         sti       r0,*ar0               ; |138| 
      550 000000c9 50600008         ldiu      8,r0                  ; |138| 
      551 000000ca 25a0c000         or3       r0,*ar0,r0            ; |138| 
      552 000000cb 1540c000         sti       r0,*ar0               ; |138| 
      553 000000cc 50600002         ldiu      2,r0                  ; |138| 
      554 000000cd 25a0c000         or3       r0,*ar0,r0            ; |138| 
      555 000000ce 1540c000         sti       r0,*ar0               ; |138| 
      556 000000cf 0f290000                 PUSH    AR1                     
      557 000000d0 0869000f                 LDI             15,AR1          
      558 000000d1 6e46ffff                 .word   6E46FFFFh       
      559 000000d2 0e290000                 POP             AR1                     
      560 000000d3 506000fe         ldiu      254,r0                ; |138| 
      561 000000d4 21a0c000         and3      r0,*ar0,r0            ; |138| 
      562 000000d5 1540c000         sti       r0,*ar0               ; |138| 
      563 000000d6 0f290000                 PUSH    AR1                     
      564 000000d7 0869000f                 LDI             15,AR1          
      565 000000d8 6e46ffff                 .word   6E46FFFFh       
      566 000000d9 0e290000                 POP             AR1                     
      567 000000da 506000fb         ldiu      251,r0                ; |138| 
      568 000000db 21a0c000         and3      r0,*ar0,r0            ; |138| 
      569 000000dc 1540c000         sti       r0,*ar0               ; |138| 
      570 000000dd 0f290000                 PUSH    AR1                     
      571 000000de 0869000f                 LDI             15,AR1          
      572 000000df 6e46ffff                 .word   6E46FFFFh       
      573 000000e0 0e290000                 POP             AR1                     
      574                           .line   14
      575                   ;----------------------------------------------------------------------
      576                   ; 142 | dat = addr;                                             /* address with
      577                   ;     | out read bit set */                                                    
      578                   ;----------------------------------------------------------------------
      579 000000e1 50400301         ldiu      *+fp(1),r0            ; |142| 
      580 000000e2 15400305         sti       r0,*+fp(5)            ; |142| 
      581                           .line   15
      582                   ;----------------------------------------------------------------------
      583                   ; 143 | ack = I2C_TX_BYTE_5(dat);                                              
      584                   ;----------------------------------------------------------------------
      585 000000e3 08700000-        ldp       @CL2,DP
      586 000000e4 500a0000         ldiu      r0,ar2
      587 000000e5 50200001-        ldiu      @CL2,r0               ; |143| 
      588 000000e6 70000000         callu     r0                    ; far call to _I2C_TX_BYTE_5    ; |143| 
      589                                                           ; |143| Far Call Occurs
      590 000000e7 15400306         sti       r0,*+fp(6)            ; |143| 
      591                           .line   16
      592                   ;----------------------------------------------------------------------
      593                   ; 144 | if (!ack)                                                              
      594                   ;----------------------------------------------------------------------
TMS320C3x/4x COFF AssemblerVersion 5.12     Mon Oct 31 11:29:49 2011
Copyright (c) 1987-1999 Texas Instruments Incorporatedasm30.exe -@_71C.AAB 

D:\CCS\EEA_SA_V611beta\BOOT\SOURCE\ASM\lcd.asm                       PAGE   12

      595 000000e8 04e00000         cmpi      0,r0                  ; |144| 
      596 000000e9 6a060003         bne       L24                   ; |144| 
      597                   ;*      Branch Occurs to L24            ; |144| 
      598                           .line   18
      599                   ;----------------------------------------------------------------------
      600                   ; 146 | r = FALSE;                                                             
      601                   ;----------------------------------------------------------------------
      602 000000ea 50600000         ldiu      0,r0                  ; |146| 
      603 000000eb 15400307         sti       r0,*+fp(7)            ; |146| 
      604                           .line   19
      605                   ;----------------------------------------------------------------------
      606                   ; 147 | break;                                                                 
      607                   ; 150 | //              ack = I2C_TX_BYTE_5(n);                 /* the number o
      608                   ;     | f bytes to write */                                                    
      609                   ; 151 | //              if (!ack)                                              
      610                   ; 152 | //              {                                                      
      611                   ; 153 | //                      r = FALSE;                                     
      612                   ; 154 | //                      break;                                         
      613                   ; 155 | //              }                                                      
      614                   ;----------------------------------------------------------------------
      615 000000ec 6a000016         bu        L30                   ; |147| 
      616                   ;*      Branch Occurs to L30            ; |147| 
      617 000000ed          L24:        
      618                           .line   29
      619                   ;----------------------------------------------------------------------
      620                   ; 157 | for (i=0;i<n;i++)                                                      
      621                   ;----------------------------------------------------------------------
      622 000000ed 50600000         ldiu      0,r0                  ; |157| 
      623 000000ee 15400304         sti       r0,*+fp(4)            ; |157| 
      624 000000ef 04c00302         cmpi      *+fp(2),r0            ; |157| 
      625 000000f0 6a0a0012         bge       L30                   ; |157| 
      626                   ;*      Branch Occurs to L30            ; |157| 
      627 000000f1          L25:        
      628                           .line   31
      629                   ;----------------------------------------------------------------------
      630                   ; 159 | ack = I2C_TX_BYTE_5(p[i]);      /* write the bytes */                  
      631                   ;----------------------------------------------------------------------
      632 000000f1 08700000-        ldp       @CL2,DP
      633 000000f2 50510303         ldiu      *+fp(3),ir0           ; |159| 
      634 000000f3 50480304         ldiu      *+fp(4),ar0           ; |159| 
      635 000000f4 50200001-        ldiu      @CL2,r0               ; |159| 
      636 000000f5 504a4000         ldiu      *+ar0(ir0),ar2        ; |159| 
      637 000000f6 70000000         callu     r0                    ; far call to _I2C_TX_BYTE_5    ; |159| 
      638                                                           ; |159| Far Call Occurs
      639 000000f7 15400306         sti       r0,*+fp(6)            ; |159| 
      640                           .line   32
      641                   ;----------------------------------------------------------------------
      642                   ; 160 | if (!ack)                                                              
      643                   ;----------------------------------------------------------------------
      644 000000f8 04e00000         cmpi      0,r0                  ; |160| 
      645 000000f9 6a060003         bne       L27                   ; |160| 
      646                   ;*      Branch Occurs to L27            ; |160| 
      647                           .line   34
      648                   ;----------------------------------------------------------------------
TMS320C3x/4x COFF AssemblerVersion 5.12     Mon Oct 31 11:29:49 2011
Copyright (c) 1987-1999 Texas Instruments Incorporatedasm30.exe -@_71C.AAB 

D:\CCS\EEA_SA_V611beta\BOOT\SOURCE\ASM\lcd.asm                       PAGE   13

      649                   ; 162 | r = FALSE;                                                             
      650                   ;----------------------------------------------------------------------
      651 000000fa 50600000         ldiu      0,r0                  ; |162| 
      652 000000fb 15400307         sti       r0,*+fp(7)            ; |162| 
      653                           .line   35
      654                   ;----------------------------------------------------------------------
      655                   ; 163 | break;                                                                 
      656                   ;----------------------------------------------------------------------
      657 000000fc 6a000006         bu        L30                   ; |163| 
      658                   ;*      Branch Occurs to L30            ; |163| 
      659 000000fd          L27:        
      660                           .line   29
      661 000000fd 50600001         ldiu      1,r0                  ; |157| 
      662 000000fe 02400304         addi      *+fp(4),r0            ; |157| 
      663 000000ff 15400304         sti       r0,*+fp(4)            ; |157| 
      664 00000100 04c00302         cmpi      *+fp(2),r0            ; |157| 
      665 00000101 6a07ffef         blt       L25                   ; |157| 
      666                   ;*      Branch Occurs to L25            ; |157| 
      667                           .line   39
      668                   ;----------------------------------------------------------------------
      669                   ; 167 | break;                                                                 
      670                   ;----------------------------------------------------------------------
      671 00000102 6a000000         bu        L30                   ; |167| 
      672                   ;*      Branch Occurs to L30            ; |167| 
      673                           .line   40
      674 00000103          L30:        
      675                           .line   42
      676                   ;----------------------------------------------------------------------
      677                   ; 170 | I2C_STOP_5;                                                            
      678                   ;----------------------------------------------------------------------
      679 00000103 08700000-        ldp       @CL1,DP
      680 00000104 50280000-        ldiu      @CL1,ar0              ; |170| 
      681 00000105 50600002         ldiu      2,r0                  ; |170| 
      682 00000106 25a0c000         or3       r0,*ar0,r0            ; |170| 
      683 00000107 1540c000         sti       r0,*ar0               ; |170| 
      684 00000108 506000fe         ldiu      254,r0                ; |170| 
      685 00000109 21a0c000         and3      r0,*ar0,r0            ; |170| 
      686 0000010a 1540c000         sti       r0,*ar0               ; |170| 
      687 0000010b 0f290000                 PUSH    AR1                     
      688 0000010c 0869000f                 LDI             15,AR1          
      689 0000010d 6e46ffff                 .word   6E46FFFFh       
      690 0000010e 0e290000                 POP             AR1                     
      691 0000010f 50600004         ldiu      4,r0                  ; |170| 
      692 00000110 25a0c000         or3       r0,*ar0,r0            ; |170| 
      693 00000111 1540c000         sti       r0,*ar0               ; |170| 
      694 00000112 506000f7         ldiu      247,r0                ; |170| 
      695 00000113 21a0c000         and3      r0,*ar0,r0            ; |170| 
      696 00000114 1540c000         sti       r0,*ar0               ; |170| 
      697 00000115 0f290000                 PUSH    AR1                     
      698 00000116 0869000f                 LDI             15,AR1          
      699 00000117 6e46ffff                 .word   6E46FFFFh       
      700 00000118 0e290000                 POP             AR1                     
      701 00000119 50600001         ldiu      1,r0                  ; |170| 
      702 0000011a 25a0c000         or3       r0,*ar0,r0            ; |170| 
TMS320C3x/4x COFF AssemblerVersion 5.12     Mon Oct 31 11:29:49 2011
Copyright (c) 1987-1999 Texas Instruments Incorporatedasm30.exe -@_71C.AAB 

D:\CCS\EEA_SA_V611beta\BOOT\SOURCE\ASM\lcd.asm                       PAGE   14

      703 0000011b 1540c000         sti       r0,*ar0               ; |170| 
      704 0000011c 506000fd         ldiu      253,r0                ; |170| 
      705 0000011d 21a0c000         and3      r0,*ar0,r0            ; |170| 
      706 0000011e 1540c000         sti       r0,*ar0               ; |170| 
      707 0000011f 0f290000                 PUSH    AR1                     
      708 00000120 0869000f                 LDI             15,AR1          
      709 00000121 6e46ffff                 .word   6E46FFFFh       
      710 00000122 0e290000                 POP             AR1                     
      711                           .line   44
      712                   ;----------------------------------------------------------------------
      713                   ; 172 | return r;                                                              
      714                   ;----------------------------------------------------------------------
      715 00000123 50400307         ldiu      *+fp(7),r0            ; |172| 
      716                           .line   45
      717                                                           ; Begin Epilog Code
      718 00000124 50410b01         ldiu      *-fp(1),r1            ; |173| 
      719 00000125 504bc300         ldiu      *fp,fp                ; |173| 
      720                                                           ; Unallocate the Frame
      721 00000126 18740009         subi      9,sp                  ; |173| 
      722 00000127 68000001         bu        r1
      723                   ;*      Branch Occurs to r1 
      724                           .endfunc        173,000000000h,7
      725                   
      726                   
      727 00000128                  .sect    "internal_RAM"
      728                   
      729                           .global _Read_I2C_5
      730                           .sym    _Read_I2C_5,_Read_I2C_5,46,2,0
      731                           .func   175
      732                   ;******************************************************************************
      733                   ;* FUNCTION NAME: _Read_I2C_5                                                 *
      734                   ;*                                                                            *
      735                   ;*   Architecture       : TMS320C33                                           *
      736                   ;*   Calling Convention : TI Standard Register Parameters                     *
      737                   ;*   Function Uses Regs : r0,r1,r2,r3,ar0,ar2,st                              *
      738                   ;*   Regs Saved         :                                                     *
      739                   ;*   Stack Frame        : Full (w/ debug)                                     *
      740                   ;*   Total Frame Size   : 2 Call + 0 Parm + 8 Auto + 0 SOE = 10 words         *
      741                   ;******************************************************************************
      742 00000128          _Read_I2C_5:
      743                   ;* ar2   assigned to _addr
      744                           .sym    _addr,10,4,17,32
      745                   ;* r2    assigned to _n
      746                           .sym    _n,2,4,17,32
      747                   ;* r3    assigned to _p
      748                           .sym    _p,3,28,17,32
      749                           .sym    _addr,1,4,1,32
      750                           .sym    _n,2,4,1,32
      751                           .sym    _p,3,28,1,32
      752                           .sym    _i,4,4,1,32
      753                           .sym    _j,5,4,1,32
      754                           .sym    _dat,6,12,1,32
      755                           .sym    _ack,7,14,1,32
      756                           .sym    _r,8,14,1,32
TMS320C3x/4x COFF AssemblerVersion 5.12     Mon Oct 31 11:29:49 2011
Copyright (c) 1987-1999 Texas Instruments Incorporatedasm30.exe -@_71C.AAB 

D:\CCS\EEA_SA_V611beta\BOOT\SOURCE\ASM\lcd.asm                       PAGE   15

      757                           .line   1
      758                   ;----------------------------------------------------------------------
      759                   ; 175 | BOOL Read_I2C_5(int addr, int n, unsigned char* p)                     
      760                   ;----------------------------------------------------------------------
      761 00000128 0f2b0000         push      fp
      762 00000129 500b0014         ldiu      sp,fp
      763 0000012a 02740008         addi      8,sp
      764                           .line   2
      765                   ;----------------------------------------------------------------------
      766                   ; 177 | int i,j;                                                               
      767                   ; 178 | unsigned char dat;                                                     
      768                   ; 179 | BOOL ack;                                                              
      769                   ; 180 | BOOL r;                                                                
      770                   ;----------------------------------------------------------------------
      771 0000012b 15430303         sti       r3,*+fp(3)            ; |176| 
      772 0000012c 15420302         sti       r2,*+fp(2)            ; |176| 
      773 0000012d 154a0301         sti       ar2,*+fp(1)           ; |176| 
      774                           .line   8
      775                   ;----------------------------------------------------------------------
      776                   ; 182 | r = TRUE;                                                              
      777                   ;----------------------------------------------------------------------
      778 0000012e 50600001         ldiu      1,r0                  ; |182| 
      779 0000012f 15400308         sti       r0,*+fp(8)            ; |182| 
      780                           .line   10
      781                   ;----------------------------------------------------------------------
      782                   ; 184 | I2C_START_5;                                                           
      783                   ; 186 | while(TRUE)                                                            
      784                   ;----------------------------------------------------------------------
      785 00000130 08700000-        ldp       @CL1,DP
      786 00000131 50280000-        ldiu      @CL1,ar0              ; |184| 
      787 00000132 50600004         ldiu      4,r0                  ; |184| 
      788 00000133 25a0c000         or3       r0,*ar0,r0            ; |184| 
      789 00000134 1540c000         sti       r0,*ar0               ; |184| 
      790 00000135 50600001         ldiu      1,r0                  ; |184| 
      791 00000136 25a0c000         or3       r0,*ar0,r0            ; |184| 
      792 00000137 1540c000         sti       r0,*ar0               ; |184| 
      793 00000138 50600008         ldiu      8,r0                  ; |184| 
      794 00000139 25a0c000         or3       r0,*ar0,r0            ; |184| 
      795 0000013a 1540c000         sti       r0,*ar0               ; |184| 
      796 0000013b 50600002         ldiu      2,r0                  ; |184| 
      797 0000013c 25a0c000         or3       r0,*ar0,r0            ; |184| 
      798 0000013d 1540c000         sti       r0,*ar0               ; |184| 
      799 0000013e 0f290000                 PUSH    AR1                     
      800 0000013f 0869000f                 LDI             15,AR1          
      801 00000140 6e46ffff                 .word   6E46FFFFh       
      802 00000141 0e290000                 POP             AR1                     
      803 00000142 506000fe         ldiu      254,r0                ; |184| 
      804 00000143 21a0c000         and3      r0,*ar0,r0            ; |184| 
      805 00000144 1540c000         sti       r0,*ar0               ; |184| 
      806 00000145 0f290000                 PUSH    AR1                     
      807 00000146 0869000f                 LDI             15,AR1          
      808 00000147 6e46ffff                 .word   6E46FFFFh       
      809 00000148 0e290000                 POP             AR1                     
      810 00000149 506000fb         ldiu      251,r0                ; |184| 
TMS320C3x/4x COFF AssemblerVersion 5.12     Mon Oct 31 11:29:49 2011
Copyright (c) 1987-1999 Texas Instruments Incorporatedasm30.exe -@_71C.AAB 

D:\CCS\EEA_SA_V611beta\BOOT\SOURCE\ASM\lcd.asm                       PAGE   16

      811 0000014a 21a0c000         and3      r0,*ar0,r0            ; |184| 
      812 0000014b 1540c000         sti       r0,*ar0               ; |184| 
      813 0000014c 0f290000                 PUSH    AR1                     
      814 0000014d 0869000f                 LDI             15,AR1          
      815 0000014e 6e46ffff                 .word   6E46FFFFh       
      816 0000014f 0e290000                 POP             AR1                     
      817                           .line   14
      818                   ;----------------------------------------------------------------------
      819                   ; 188 | dat = addr | 0x01;                              /* address with read bi
      820                   ;     | t set */                                                               
      821                   ;----------------------------------------------------------------------
      822 00000150 50600001         ldiu      1,r0                  ; |188| 
      823 00000151 10400301         or        *+fp(1),r0            ; |188| 
      824 00000152 15400306         sti       r0,*+fp(6)            ; |188| 
      825                           .line   15
      826                   ;----------------------------------------------------------------------
      827                   ; 189 | ack = I2C_TX_BYTE_5(dat);                                              
      828                   ;----------------------------------------------------------------------
      829 00000153 08700000-        ldp       @CL2,DP
      830 00000154 500a0000         ldiu      r0,ar2
      831 00000155 50200001-        ldiu      @CL2,r0               ; |189| 
      832 00000156 70000000         callu     r0                    ; far call to _I2C_TX_BYTE_5    ; |189| 
      833                                                           ; |189| Far Call Occurs
      834 00000157 15400307         sti       r0,*+fp(7)            ; |189| 
      835                           .line   16
      836                   ;----------------------------------------------------------------------
      837                   ; 190 | if (!ack)                                                              
      838                   ;----------------------------------------------------------------------
      839 00000158 04e00000         cmpi      0,r0                  ; |190| 
      840 00000159 6a060003         bne       L35                   ; |190| 
      841                   ;*      Branch Occurs to L35            ; |190| 
      842                           .line   18
      843                   ;----------------------------------------------------------------------
      844                   ; 192 | r = FALSE;                                                             
      845                   ;----------------------------------------------------------------------
      846 0000015a 50600000         ldiu      0,r0                  ; |192| 
      847 0000015b 15400308         sti       r0,*+fp(8)            ; |192| 
      848                           .line   19
      849                   ;----------------------------------------------------------------------
      850                   ; 193 | break;                                                                 
      851                   ; 196 | //              ack = I2C_TX_BYTE_5(n);                 /* the number o
      852                   ;     | f bytes to read */                                                     
      853                   ; 197 | //              if (!ack)                                              
      854                   ; 198 | //              {                                                      
      855                   ; 199 | //                      r = FALSE;                                     
      856                   ; 200 | //                      break;                                         
      857                   ; 201 | //              }                                                      
      858                   ;----------------------------------------------------------------------
      859 0000015c 6a00001d         bu        L39                   ; |193| 
      860                   ;*      Branch Occurs to L39            ; |193| 
      861 0000015d          L35:        
      862                           .line   29
      863                   ;----------------------------------------------------------------------
      864                   ; 203 | for (i=0;i<(n-1);i++)                                                  
TMS320C3x/4x COFF AssemblerVersion 5.12     Mon Oct 31 11:29:49 2011
Copyright (c) 1987-1999 Texas Instruments Incorporatedasm30.exe -@_71C.AAB 

D:\CCS\EEA_SA_V611beta\BOOT\SOURCE\ASM\lcd.asm                       PAGE   17

      865                   ;----------------------------------------------------------------------
      866 0000015d 50600000         ldiu      0,r0                  ; |203| 
      867 0000015e 15400304         sti       r0,*+fp(4)            ; |203| 
      868 0000015f 50600001         ldiu      1,r0                  ; |203| 
      869 00000160 50410304         ldiu      *+fp(4),r1            ; |203| 
      870 00000161 19c00302         subri     *+fp(2),r0            ; |203| 
      871 00000162 23800100         cmpi3     r0,r1                 ; |203| 
      872 00000163 6a0a000e         bge       L37                   ; |203| 
      873                   ;*      Branch Occurs to L37            ; |203| 
      874 00000164          L36:        
      875                           .line   31
      876                   ;----------------------------------------------------------------------
      877                   ; 205 | I2C_RX_BYTE_5(&p[i],1);         /* read the bytes */                   
      878                   ;----------------------------------------------------------------------
      879 00000164 504a0304         ldiu      *+fp(4),ar2           ; |205| 
      880 00000165 08700000-        ldp       @CL3,DP
      881 00000166 024a0303         addi      *+fp(3),ar2           ; |205| Unsigned
      882 00000167 50200002-        ldiu      @CL3,r0               ; |205| 
      883 00000168 50620001         ldiu      1,r2                  ; |205| 
      884 00000169 70000000         callu     r0                    ; far call to _I2C_RX_BYTE_5    ; |205| 
      885                                                           ; |205| Far Call Occurs
      886                           .line   29
      887 0000016a 50600001         ldiu      1,r0                  ; |203| 
      888 0000016b 02400304         addi      *+fp(4),r0            ; |203| 
      889 0000016c 15400304         sti       r0,*+fp(4)            ; |203| 
      890 0000016d 50600001         ldiu      1,r0                  ; |203| 
      891 0000016e 50410304         ldiu      *+fp(4),r1            ; |203| 
      892 0000016f 19c00302         subri     *+fp(2),r0            ; |203| 
      893 00000170 23800100         cmpi3     r0,r1                 ; |203| 
      894 00000171 6a07fff2         blt       L36                   ; |203| 
      895                   ;*      Branch Occurs to L36            ; |203| 
      896 00000172          L37:        
      897                           .line   34
      898                   ;----------------------------------------------------------------------
      899                   ; 208 | I2C_RX_BYTE_5(&p[n-1],0);               /* the final byte to read */   
      900                   ;----------------------------------------------------------------------
      901 00000172 504a0302         ldiu      *+fp(2),ar2           ; |208| 
      902 00000173 08700000-        ldp       @CL3,DP
      903 00000174 024a0303         addi      *+fp(3),ar2           ; |208| Unsigned
      904 00000175 50200002-        ldiu      @CL3,r0               ; |208| 
      905 00000176 186a0001         subi      1,ar2                 ; |208| Unsigned
      906 00000177 50620000         ldiu      0,r2                  ; |208| 
      907 00000178 70000000         callu     r0                    ; far call to _I2C_RX_BYTE_5    ; |208| 
      908                                                           ; |208| Far Call Occurs
      909                           .line   36
      910                   ;----------------------------------------------------------------------
      911                   ; 210 | break;                                                                 
      912                   ;----------------------------------------------------------------------
      913 00000179 6a000000         bu        L39                   ; |210| 
      914                   ;*      Branch Occurs to L39            ; |210| 
      915                           .line   37
      916 0000017a          L39:        
      917                           .line   39
      918                   ;----------------------------------------------------------------------
TMS320C3x/4x COFF AssemblerVersion 5.12     Mon Oct 31 11:29:49 2011
Copyright (c) 1987-1999 Texas Instruments Incorporatedasm30.exe -@_71C.AAB 

D:\CCS\EEA_SA_V611beta\BOOT\SOURCE\ASM\lcd.asm                       PAGE   18

      919                   ; 213 | I2C_STOP_5;                                                            
      920                   ;----------------------------------------------------------------------
      921 0000017a 08700000-        ldp       @CL1,DP
      922 0000017b 50280000-        ldiu      @CL1,ar0              ; |213| 
      923 0000017c 50600002         ldiu      2,r0                  ; |213| 
      924 0000017d 25a0c000         or3       r0,*ar0,r0            ; |213| 
      925 0000017e 1540c000         sti       r0,*ar0               ; |213| 
      926 0000017f 506000fe         ldiu      254,r0                ; |213| 
      927 00000180 21a0c000         and3      r0,*ar0,r0            ; |213| 
      928 00000181 1540c000         sti       r0,*ar0               ; |213| 
      929 00000182 0f290000                 PUSH    AR1                     
      930 00000183 0869000f                 LDI             15,AR1          
      931 00000184 6e46ffff                 .word   6E46FFFFh       
      932 00000185 0e290000                 POP             AR1                     
      933 00000186 50600004         ldiu      4,r0                  ; |213| 
      934 00000187 25a0c000         or3       r0,*ar0,r0            ; |213| 
      935 00000188 1540c000         sti       r0,*ar0               ; |213| 
      936 00000189 506000f7         ldiu      247,r0                ; |213| 
      937 0000018a 21a0c000         and3      r0,*ar0,r0            ; |213| 
      938 0000018b 1540c000         sti       r0,*ar0               ; |213| 
      939 0000018c 0f290000                 PUSH    AR1                     
      940 0000018d 0869000f                 LDI             15,AR1          
      941 0000018e 6e46ffff                 .word   6E46FFFFh       
      942 0000018f 0e290000                 POP             AR1                     
      943 00000190 50600001         ldiu      1,r0                  ; |213| 
      944 00000191 25a0c000         or3       r0,*ar0,r0            ; |213| 
      945 00000192 1540c000         sti       r0,*ar0               ; |213| 
      946 00000193 506000fd         ldiu      253,r0                ; |213| 
      947 00000194 21a0c000         and3      r0,*ar0,r0            ; |213| 
      948 00000195 1540c000         sti       r0,*ar0               ; |213| 
      949 00000196 0f290000                 PUSH    AR1                     
      950 00000197 0869000f                 LDI             15,AR1          
      951 00000198 6e46ffff                 .word   6E46FFFFh       
      952 00000199 0e290000                 POP             AR1                     
      953                           .line   41
      954                   ;----------------------------------------------------------------------
      955                   ; 215 | return r;                                                              
      956                   ;----------------------------------------------------------------------
      957 0000019a 50400308         ldiu      *+fp(8),r0            ; |215| 
      958                           .line   42
      959                                                           ; Begin Epilog Code
      960 0000019b 50410b01         ldiu      *-fp(1),r1            ; |216| 
      961 0000019c 504bc300         ldiu      *fp,fp                ; |216| 
      962                                                           ; Unallocate the Frame
      963 0000019d 1874000a         subi      10,sp                 ; |216| 
      964 0000019e 68000001         bu        r1
      965                   ;*      Branch Occurs to r1 
      966                           .endfunc        216,000000000h,8
      967                   
      968                   
      969 0000019f                  .sect    "internal_RAM"
      970                   
      971                           .global _LCD_CMD
      972                           .sym    _LCD_CMD,_LCD_CMD,32,2,0
TMS320C3x/4x COFF AssemblerVersion 5.12     Mon Oct 31 11:29:49 2011
Copyright (c) 1987-1999 Texas Instruments Incorporatedasm30.exe -@_71C.AAB 

D:\CCS\EEA_SA_V611beta\BOOT\SOURCE\ASM\lcd.asm                       PAGE   19

      973                           .func   218
      974                   ;******************************************************************************
      975                   ;* FUNCTION NAME: _LCD_CMD                                                    *
      976                   ;*                                                                            *
      977                   ;*   Architecture       : TMS320C33                                           *
      978                   ;*   Calling Convention : TI Standard Register Parameters                     *
      979                   ;*   Function Uses Regs : r0,r2,r3,ar0,ar1,ar2,fp,st                          *
      980                   ;*   Regs Saved         :                                                     *
      981                   ;*   Stack Frame        : Full (w/ debug)                                     *
      982                   ;*   Total Frame Size   : 2 Call + 0 Parm + 3 Auto + 0 SOE = 5 words          *
      983                   ;******************************************************************************
      984 0000019f          _LCD_CMD:
      985                   ;* ar2   assigned to _d
      986                           .sym    _d,10,4,17,32
      987                           .sym    _d,1,4,1,32
      988                           .sym    _t,2,60,1,64,,2
      989                           .line   1
      990                   ;----------------------------------------------------------------------
      991                   ; 218 | void LCD_CMD(int d)                                                    
      992                   ;----------------------------------------------------------------------
      993 0000019f 0f2b0000         push      fp
      994 000001a0 500b0014         ldiu      sp,fp
      995 000001a1 02740003         addi      3,sp
      996                           .line   2
      997                   ;----------------------------------------------------------------------
      998                   ; 220 | unsigned char t[2];                                                    
      999                   ;----------------------------------------------------------------------
     1000 000001a2 154a0301         sti       ar2,*+fp(1)           ; |219| 
     1001                           .line   5
     1002                   ;----------------------------------------------------------------------
     1003                   ; 222 | LCD[0] = 0xFF;                                                         
     1004                   ;----------------------------------------------------------------------
     1005 000001a3 08700000-        ldp       @CL4,DP
     1006 000001a4 50280003-        ldiu      @CL4,ar0              ; |222| 
     1007 000001a5 506000ff         ldiu      255,r0                ; |222| 
     1008 000001a6 1540c000         sti       r0,*ar0               ; |222| 
     1009                           .line   6
     1010                   ;----------------------------------------------------------------------
     1011                   ; 223 | LCD[1] &= (0xFF^LCDE^LCDRS);    /* clear enable, addr */               
     1012                   ;----------------------------------------------------------------------
     1013 000001a7 50280003-        ldiu      @CL4,ar0              ; |223| 
     1014 000001a8 506000fa         ldiu      250,r0                ; |223| 
     1015 000001a9 02c00001         and       *+ar0(1),r0           ; |223| 
     1016 000001aa 15400001         sti       r0,*+ar0(1)           ; |223| 
     1017                           .line   7
     1018                   ;----------------------------------------------------------------------
     1019                   ; 224 | LCD[1] |= LCDRW;                                /* set R/W */          
     1020                   ;----------------------------------------------------------------------
     1021 000001ab 50280003-        ldiu      @CL4,ar0              ; |224| 
     1022 000001ac 50600002         ldiu      2,r0                  ; |224| 
     1023 000001ad 10400001         or        *+ar0(1),r0           ; |224| 
     1024 000001ae 15400001         sti       r0,*+ar0(1)           ; |224| 
     1025                           .line   8
     1026                   ;----------------------------------------------------------------------
TMS320C3x/4x COFF AssemblerVersion 5.12     Mon Oct 31 11:29:49 2011
Copyright (c) 1987-1999 Texas Instruments Incorporatedasm30.exe -@_71C.AAB 

D:\CCS\EEA_SA_V611beta\BOOT\SOURCE\ASM\lcd.asm                       PAGE   20

     1027                   ; 225 | LCD[1] |= LCD_READ_MASK;                                               
     1028                   ;----------------------------------------------------------------------
     1029 000001af 50280003-        ldiu      @CL4,ar0              ; |225| 
     1030 000001b0 506000f8         ldiu      248,r0                ; |225| 
     1031 000001b1 10400001         or        *+ar0(1),r0           ; |225| 
     1032 000001b2 15400001         sti       r0,*+ar0(1)           ; |225| 
     1033                           .line   9
     1034                   ;----------------------------------------------------------------------
     1035                   ; 226 | Write_I2C_5(LCD_ADDR, 2, LCD);                                         
     1036                   ;----------------------------------------------------------------------
     1037 000001b3 08700000-        ldp       @CL5,DP
     1038 000001b4 50620002         ldiu      2,r2                  ; |226| 
     1039 000001b5 50200004-        ldiu      @CL5,r0               ; |226| 
     1040 000001b6 08700000-        ldp       @CL4,DP
     1041 000001b7 506a0040         ldiu      64,ar2                ; |226| 
     1042 000001b8 50230003-        ldiu      @CL4,r3               ; |226| 
     1043 000001b9 70000000         callu     r0                    ; far call to _Write_I2C_5      ; |226| 
     1044                                                           ; |226| Far Call Occurs
     1045                           .line   10
     1046                   ;----------------------------------------------------------------------
     1047                   ; 227 | Read_I2C_5(LCD_ADDR, 2, LCD);   /* UPDATE inputs */                    
     1048                   ;----------------------------------------------------------------------
     1049 000001ba 08700000-        ldp       @CL6,DP
     1050 000001bb 50200005-        ldiu      @CL6,r0               ; |227| 
     1051 000001bc 08700000-        ldp       @CL4,DP
     1052 000001bd 50230003-        ldiu      @CL4,r3               ; |227| 
     1053 000001be 506a0040         ldiu      64,ar2                ; |227| 
     1054 000001bf 50620002         ldiu      2,r2                  ; |227| 
     1055 000001c0 70000000         callu     r0                    ; far call to _Read_I2C_5       ; |227| 
     1056                                                           ; |227| Far Call Occurs
     1057                           .line   11
     1058                   ;----------------------------------------------------------------------
     1059                   ; 228 | LCD_DIPSW = LCD[1]&LCD_READ_MASK;                                      
     1060                   ; 230 | while (TRUE)                                                           
     1061                   ;----------------------------------------------------------------------
     1062 000001c1 08700000-        ldp       @CL8,DP
     1063 000001c2 50280007-        ldiu      @CL8,ar0              ; |228| 
     1064 000001c3 08700000-        ldp       @CL7,DP
     1065 000001c4 506000f8         ldiu      248,r0                ; |228| 
     1066 000001c5 50290006-        ldiu      @CL7,ar1              ; |228| 
     1067 000001c6 21a0c000         and3      r0,*ar0,r0            ; |228| 
     1068 000001c7 1540c100         sti       r0,*ar1               ; |228| 
     1069 000001c8          L43:        
     1070                           .line   15
     1071                   ;----------------------------------------------------------------------
     1072                   ; 232 | LCD[1] |= LCDE;                                 /* set enable */       
     1073                   ;----------------------------------------------------------------------
     1074 000001c8 08700000-        ldp       @CL4,DP
     1075 000001c9 50280003-        ldiu      @CL4,ar0              ; |232| 
     1076 000001ca 50600004         ldiu      4,r0                  ; |232| 
     1077 000001cb 10400001         or        *+ar0(1),r0           ; |232| 
     1078 000001cc 15400001         sti       r0,*+ar0(1)           ; |232| 
     1079                           .line   16
     1080                   ;----------------------------------------------------------------------
TMS320C3x/4x COFF AssemblerVersion 5.12     Mon Oct 31 11:29:49 2011
Copyright (c) 1987-1999 Texas Instruments Incorporatedasm30.exe -@_71C.AAB 

D:\CCS\EEA_SA_V611beta\BOOT\SOURCE\ASM\lcd.asm                       PAGE   21

     1081                   ; 233 | Write_I2C_5(LCD_ADDR, 2, LCD);                                         
     1082                   ;----------------------------------------------------------------------
     1083 000001cd 08700000-        ldp       @CL5,DP
     1084 000001ce 506a0040         ldiu      64,ar2                ; |233| 
     1085 000001cf 50200004-        ldiu      @CL5,r0               ; |233| 
     1086 000001d0 08700000-        ldp       @CL4,DP
     1087 000001d1 50620002         ldiu      2,r2                  ; |233| 
     1088 000001d2 50230003-        ldiu      @CL4,r3               ; |233| 
     1089 000001d3 70000000         callu     r0                    ; far call to _Write_I2C_5      ; |233| 
     1090                                                           ; |233| Far Call Occurs
     1091                           .line   18
     1092                   ;----------------------------------------------------------------------
     1093                   ; 235 | Read_I2C_5(LCD_ADDR, 2, t);                                            
     1094                   ;----------------------------------------------------------------------
     1095 000001d4 08700000-        ldp       @CL6,DP
     1096 000001d5 506a0040         ldiu      64,ar2                ; |235| 
     1097 000001d6 5003000b         ldiu      fp,r3                 ; |235| 
     1098 000001d7 50200005-        ldiu      @CL6,r0               ; |235| 
     1099 000001d8 50620002         ldiu      2,r2                  ; |235| 
     1100 000001d9 02630002         addi      2,r3                  ; |235| 
     1101 000001da 70000000         callu     r0                    ; far call to _Read_I2C_5       ; |235| 
     1102                                                           ; |235| Far Call Occurs
     1103                           .line   20
     1104                   ;----------------------------------------------------------------------
     1105                   ; 237 | LCD[1] &= (0xFF^LCDE);                  /* clear enable */             
     1106                   ;----------------------------------------------------------------------
     1107 000001db 08700000-        ldp       @CL4,DP
     1108 000001dc 50280003-        ldiu      @CL4,ar0              ; |237| 
     1109 000001dd 506000fb         ldiu      251,r0                ; |237| 
     1110 000001de 02c00001         and       *+ar0(1),r0           ; |237| 
     1111 000001df 15400001         sti       r0,*+ar0(1)           ; |237| 
     1112                           .line   21
     1113                   ;----------------------------------------------------------------------
     1114                   ; 238 | Write_I2C_5(LCD_ADDR, 2, LCD);                                         
     1115                   ;----------------------------------------------------------------------
     1116 000001e0 08700000-        ldp       @CL5,DP
     1117 000001e1 50200004-        ldiu      @CL5,r0               ; |238| 
     1118 000001e2 08700000-        ldp       @CL4,DP
     1119 000001e3 50620002         ldiu      2,r2                  ; |238| 
     1120 000001e4 50230003-        ldiu      @CL4,r3               ; |238| 
     1121 000001e5 506a0040         ldiu      64,ar2                ; |238| 
     1122 000001e6 70000000         callu     r0                    ; far call to _Write_I2C_5      ; |238| 
     1123                                                           ; |238| Far Call Occurs
     1124                           .line   23
     1125                   ;----------------------------------------------------------------------
     1126                   ; 240 | if ((t[0] & 0x80)==0) break;            /* BUSY */                     
     1127                   ;----------------------------------------------------------------------
     1128 000001e7 5008000b         ldiu      fp,ar0                ; |240| 
     1129 000001e8 02680002         addi      2,ar0                 ; |240| 
     1130 000001e9 50600080         ldiu      128,r0                ; |240| 
     1131 000001ea 27c000c0         tstb3     *ar0,r0               ; |240| 
     1132 000001eb 6a06ffdc         bne       L43                   ; |240| 
     1133                   ;*      Branch Occurs to L43            ; |240| 
     1134                           .line   24
TMS320C3x/4x COFF AssemblerVersion 5.12     Mon Oct 31 11:29:49 2011
Copyright (c) 1987-1999 Texas Instruments Incorporatedasm30.exe -@_71C.AAB 

D:\CCS\EEA_SA_V611beta\BOOT\SOURCE\ASM\lcd.asm                       PAGE   22

     1135                           .line   26
     1136                   ;----------------------------------------------------------------------
     1137                   ; 243 | LCD[0] = d;                                             /* COMMAND */  
     1138                   ;----------------------------------------------------------------------
     1139 000001ec 08700000-        ldp       @CL4,DP
     1140 000001ed 50280003-        ldiu      @CL4,ar0              ; |243| 
     1141 000001ee 50400301         ldiu      *+fp(1),r0            ; |243| 
     1142 000001ef 1540c000         sti       r0,*ar0               ; |243| 
     1143                           .line   27
     1144                   ;----------------------------------------------------------------------
     1145                   ; 244 | LCD[1] &= (0xFF^LCDRW^LCDRS);   /* clear R/W, addr */                  
     1146                   ;----------------------------------------------------------------------
     1147 000001f0 50280003-        ldiu      @CL4,ar0              ; |244| 
     1148 000001f1 506000fc         ldiu      252,r0                ; |244| 
     1149 000001f2 02c00001         and       *+ar0(1),r0           ; |244| 
     1150 000001f3 15400001         sti       r0,*+ar0(1)           ; |244| 
     1151                           .line   28
     1152                   ;----------------------------------------------------------------------
     1153                   ; 245 | Write_I2C_5(LCD_ADDR, 2, LCD);                                         
     1154                   ;----------------------------------------------------------------------
     1155 000001f4 08700000-        ldp       @CL5,DP
     1156 000001f5 506a0040         ldiu      64,ar2                ; |245| 
     1157 000001f6 50200004-        ldiu      @CL5,r0               ; |245| 
     1158 000001f7 08700000-        ldp       @CL4,DP
     1159 000001f8 50620002         ldiu      2,r2                  ; |245| 
     1160 000001f9 50230003-        ldiu      @CL4,r3               ; |245| 
     1161 000001fa 70000000         callu     r0                    ; far call to _Write_I2C_5      ; |245| 
     1162                                                           ; |245| Far Call Occurs
     1163                           .line   30
     1164                   ;----------------------------------------------------------------------
     1165                   ; 247 | LCD[1] |= LCDE;                                 /* set enable */       
     1166                   ;----------------------------------------------------------------------
     1167 000001fb 08700000-        ldp       @CL4,DP
     1168 000001fc 50280003-        ldiu      @CL4,ar0              ; |247| 
     1169 000001fd 50600004         ldiu      4,r0                  ; |247| 
     1170 000001fe 10400001         or        *+ar0(1),r0           ; |247| 
     1171 000001ff 15400001         sti       r0,*+ar0(1)           ; |247| 
     1172                           .line   31
     1173                   ;----------------------------------------------------------------------
     1174                   ; 248 | Write_I2C_5(LCD_ADDR, 2, LCD);                                         
     1175                   ;----------------------------------------------------------------------
     1176 00000200 08700000-        ldp       @CL5,DP
     1177 00000201 50200004-        ldiu      @CL5,r0               ; |248| 
     1178 00000202 08700000-        ldp       @CL4,DP
     1179 00000203 506a0040         ldiu      64,ar2                ; |248| 
     1180 00000204 50230003-        ldiu      @CL4,r3               ; |248| 
     1181 00000205 50620002         ldiu      2,r2                  ; |248| 
     1182 00000206 70000000         callu     r0                    ; far call to _Write_I2C_5      ; |248| 
     1183                                                           ; |248| Far Call Occurs
     1184                           .line   33
     1185                   ;----------------------------------------------------------------------
     1186                   ; 250 | LCD[1] &= (0xFF^LCDE);                  /* clear enable */             
     1187                   ;----------------------------------------------------------------------
     1188 00000207 08700000-        ldp       @CL4,DP
TMS320C3x/4x COFF AssemblerVersion 5.12     Mon Oct 31 11:29:49 2011
Copyright (c) 1987-1999 Texas Instruments Incorporatedasm30.exe -@_71C.AAB 

D:\CCS\EEA_SA_V611beta\BOOT\SOURCE\ASM\lcd.asm                       PAGE   23

     1189 00000208 50280003-        ldiu      @CL4,ar0              ; |250| 
     1190 00000209 506000fb         ldiu      251,r0                ; |250| 
     1191 0000020a 02c00001         and       *+ar0(1),r0           ; |250| 
     1192 0000020b 15400001         sti       r0,*+ar0(1)           ; |250| 
     1193                           .line   34
     1194                   ;----------------------------------------------------------------------
     1195                   ; 251 | Write_I2C_5(LCD_ADDR, 2, LCD);                                         
     1196                   ;----------------------------------------------------------------------
     1197 0000020c 08700000-        ldp       @CL5,DP
     1198 0000020d 50200004-        ldiu      @CL5,r0               ; |251| 
     1199 0000020e 08700000-        ldp       @CL4,DP
     1200 0000020f 506a0040         ldiu      64,ar2                ; |251| 
     1201 00000210 50230003-        ldiu      @CL4,r3               ; |251| 
     1202 00000211 50620002         ldiu      2,r2                  ; |251| 
     1203 00000212 70000000         callu     r0                    ; far call to _Write_I2C_5      ; |251| 
     1204                                                           ; |251| Far Call Occurs
     1205                           .line   35
     1206                                                           ; Begin Epilog Code
     1207 00000213 50410b01         ldiu      *-fp(1),r1
     1208 00000214 504bc300         ldiu      *fp,fp
     1209                                                           ; Unallocate the Frame
     1210 00000215 18740005         subi      5,sp
     1211 00000216 68000001         bu        r1
     1212                   ;*      Branch Occurs to r1 
     1213                           .endfunc        252,000000000h,3
     1214                   
     1215                   
     1216 00000217                  .sect    "internal_RAM"
     1217                   
     1218                           .global _LCD_CHAR
     1219                           .sym    _LCD_CHAR,_LCD_CHAR,32,2,0
     1220                           .func   254
     1221                   ;******************************************************************************
     1222                   ;* FUNCTION NAME: _LCD_CHAR                                                   *
     1223                   ;*                                                                            *
     1224                   ;*   Architecture       : TMS320C33                                           *
     1225                   ;*   Calling Convention : TI Standard Register Parameters                     *
     1226                   ;*   Function Uses Regs : r0,r2,r3,ar0,ar2,fp,st                              *
     1227                   ;*   Regs Saved         :                                                     *
     1228                   ;*   Stack Frame        : Full (w/ debug)                                     *
     1229                   ;*   Total Frame Size   : 2 Call + 0 Parm + 3 Auto + 0 SOE = 5 words          *
     1230                   ;******************************************************************************
     1231 00000217          _LCD_CHAR:
     1232                   ;* ar2   assigned to _d
     1233                           .sym    _d,10,4,17,32
     1234                           .sym    _d,1,4,1,32
     1235                           .sym    _t,2,60,1,64,,2
     1236                           .line   1
     1237                   ;----------------------------------------------------------------------
     1238                   ; 254 | void LCD_CHAR(int d)                                                   
     1239                   ;----------------------------------------------------------------------
     1240 00000217 0f2b0000         push      fp
     1241 00000218 500b0014         ldiu      sp,fp
     1242 00000219 02740003         addi      3,sp
TMS320C3x/4x COFF AssemblerVersion 5.12     Mon Oct 31 11:29:49 2011
Copyright (c) 1987-1999 Texas Instruments Incorporatedasm30.exe -@_71C.AAB 

D:\CCS\EEA_SA_V611beta\BOOT\SOURCE\ASM\lcd.asm                       PAGE   24

     1243                           .line   2
     1244                   ;----------------------------------------------------------------------
     1245                   ; 256 | unsigned char t[2];                                                    
     1246                   ;----------------------------------------------------------------------
     1247 0000021a 154a0301         sti       ar2,*+fp(1)           ; |255| 
     1248                           .line   5
     1249                   ;----------------------------------------------------------------------
     1250                   ; 258 | if (!LCD_PRESENT) return;                                              
     1251                   ;----------------------------------------------------------------------
     1252 0000021b 08700000-        ldp       @CL9,DP
     1253 0000021c 50280008-        ldiu      @CL9,ar0              ; |258| 
     1254 0000021d 5040c000         ldiu      *ar0,r0               ; |258| 
     1255 0000021e 04e00000         cmpi      0,r0                  ; |258| 
     1256 0000021f 6a05006e         beq       L51                   ; |258| 
     1257                   ;*      Branch Occurs to L51            ; |258| 
     1258                           .line   7
     1259                   ;----------------------------------------------------------------------
     1260                   ; 260 | LCD[0] = 0xFF;                                                         
     1261                   ;----------------------------------------------------------------------
     1262 00000220 08700000-        ldp       @CL4,DP
     1263 00000221 50280003-        ldiu      @CL4,ar0              ; |260| 
     1264 00000222 506000ff         ldiu      255,r0                ; |260| 
     1265 00000223 1540c000         sti       r0,*ar0               ; |260| 
     1266                           .line   8
     1267                   ;----------------------------------------------------------------------
     1268                   ; 261 | LCD[1] &= (0xFF^LCDE^LCDRS);    /* clear enable, addr */               
     1269                   ;----------------------------------------------------------------------
     1270 00000224 50280003-        ldiu      @CL4,ar0              ; |261| 
     1271 00000225 506000fa         ldiu      250,r0                ; |261| 
     1272 00000226 02c00001         and       *+ar0(1),r0           ; |261| 
     1273 00000227 15400001         sti       r0,*+ar0(1)           ; |261| 
     1274                           .line   9
     1275                   ;----------------------------------------------------------------------
     1276                   ; 262 | LCD[1] |= LCDRW;                                /* set R/W */          
     1277                   ;----------------------------------------------------------------------
     1278 00000228 50280003-        ldiu      @CL4,ar0              ; |262| 
     1279 00000229 50600002         ldiu      2,r0                  ; |262| 
     1280 0000022a 10400001         or        *+ar0(1),r0           ; |262| 
     1281 0000022b 15400001         sti       r0,*+ar0(1)           ; |262| 
     1282                           .line   10
     1283                   ;----------------------------------------------------------------------
     1284                   ; 263 | Write_I2C_5(LCD_ADDR, 2, LCD);                                         
     1285                   ; 265 | while (TRUE)                                                           
     1286                   ;----------------------------------------------------------------------
     1287 0000022c 08700000-        ldp       @CL5,DP
     1288 0000022d 506a0040         ldiu      64,ar2                ; |263| 
     1289 0000022e 50200004-        ldiu      @CL5,r0               ; |263| 
     1290 0000022f 08700000-        ldp       @CL4,DP
     1291 00000230 50620002         ldiu      2,r2                  ; |263| 
     1292 00000231 50230003-        ldiu      @CL4,r3               ; |263| 
     1293 00000232 70000000         callu     r0                    ; far call to _Write_I2C_5      ; |263| 
     1294                                                           ; |263| Far Call Occurs
     1295 00000233          L49:        
     1296                           .line   14
TMS320C3x/4x COFF AssemblerVersion 5.12     Mon Oct 31 11:29:49 2011
Copyright (c) 1987-1999 Texas Instruments Incorporatedasm30.exe -@_71C.AAB 

D:\CCS\EEA_SA_V611beta\BOOT\SOURCE\ASM\lcd.asm                       PAGE   25

     1297                   ;----------------------------------------------------------------------
     1298                   ; 267 | LCD[1] |= LCDE;                                 /* set enable */       
     1299                   ;----------------------------------------------------------------------
     1300 00000233 08700000-        ldp       @CL4,DP
     1301 00000234 50280003-        ldiu      @CL4,ar0              ; |267| 
     1302 00000235 50600004         ldiu      4,r0                  ; |267| 
     1303 00000236 10400001         or        *+ar0(1),r0           ; |267| 
     1304 00000237 15400001         sti       r0,*+ar0(1)           ; |267| 
     1305                           .line   15
     1306                   ;----------------------------------------------------------------------
     1307                   ; 268 | Write_I2C_5(LCD_ADDR, 2, LCD);                                         
     1308                   ;----------------------------------------------------------------------
     1309 00000238 08700000-        ldp       @CL5,DP
     1310 00000239 506a0040         ldiu      64,ar2                ; |268| 
     1311 0000023a 50200004-        ldiu      @CL5,r0               ; |268| 
     1312 0000023b 08700000-        ldp       @CL4,DP
     1313 0000023c 50620002         ldiu      2,r2                  ; |268| 
     1314 0000023d 50230003-        ldiu      @CL4,r3               ; |268| 
     1315 0000023e 70000000         callu     r0                    ; far call to _Write_I2C_5      ; |268| 
     1316                                                           ; |268| Far Call Occurs
     1317                           .line   17
     1318                   ;----------------------------------------------------------------------
     1319                   ; 270 | Read_I2C_5(LCD_ADDR, 2, t);                                            
     1320                   ;----------------------------------------------------------------------
     1321 0000023f 08700000-        ldp       @CL6,DP
     1322 00000240 506a0040         ldiu      64,ar2                ; |270| 
     1323 00000241 5003000b         ldiu      fp,r3                 ; |270| 
     1324 00000242 50200005-        ldiu      @CL6,r0               ; |270| 
     1325 00000243 50620002         ldiu      2,r2                  ; |270| 
     1326 00000244 02630002         addi      2,r3                  ; |270| 
     1327 00000245 70000000         callu     r0                    ; far call to _Read_I2C_5       ; |270| 
     1328                                                           ; |270| Far Call Occurs
     1329                           .line   19
     1330                   ;----------------------------------------------------------------------
     1331                   ; 272 | LCD[1] &= (0xFF^LCDE);                  /* clear enable */             
     1332                   ;----------------------------------------------------------------------
     1333 00000246 08700000-        ldp       @CL4,DP
     1334 00000247 50280003-        ldiu      @CL4,ar0              ; |272| 
     1335 00000248 506000fb         ldiu      251,r0                ; |272| 
     1336 00000249 02c00001         and       *+ar0(1),r0           ; |272| 
     1337 0000024a 15400001         sti       r0,*+ar0(1)           ; |272| 
     1338                           .line   20
     1339                   ;----------------------------------------------------------------------
     1340                   ; 273 | Write_I2C_5(LCD_ADDR, 2, LCD);                                         
     1341                   ;----------------------------------------------------------------------
     1342 0000024b 08700000-        ldp       @CL5,DP
     1343 0000024c 50200004-        ldiu      @CL5,r0               ; |273| 
     1344 0000024d 08700000-        ldp       @CL4,DP
     1345 0000024e 50620002         ldiu      2,r2                  ; |273| 
     1346 0000024f 50230003-        ldiu      @CL4,r3               ; |273| 
     1347 00000250 506a0040         ldiu      64,ar2                ; |273| 
     1348 00000251 70000000         callu     r0                    ; far call to _Write_I2C_5      ; |273| 
     1349                                                           ; |273| Far Call Occurs
     1350                           .line   22
TMS320C3x/4x COFF AssemblerVersion 5.12     Mon Oct 31 11:29:49 2011
Copyright (c) 1987-1999 Texas Instruments Incorporatedasm30.exe -@_71C.AAB 

D:\CCS\EEA_SA_V611beta\BOOT\SOURCE\ASM\lcd.asm                       PAGE   26

     1351                   ;----------------------------------------------------------------------
     1352                   ; 275 | if ((t[0] & 0x80)==0) break;            /* BUSY */                     
     1353                   ;----------------------------------------------------------------------
     1354 00000252 5008000b         ldiu      fp,ar0                ; |275| 
     1355 00000253 02680002         addi      2,ar0                 ; |275| 
     1356 00000254 50600080         ldiu      128,r0                ; |275| 
     1357 00000255 27c000c0         tstb3     *ar0,r0               ; |275| 
     1358 00000256 6a06ffdc         bne       L49                   ; |275| 
     1359                   ;*      Branch Occurs to L49            ; |275| 
     1360                           .line   23
     1361                           .line   25
     1362                   ;----------------------------------------------------------------------
     1363                   ; 278 | LCD[0] = d;                                             /* CHAR */     
     1364                   ;----------------------------------------------------------------------
     1365 00000257 08700000-        ldp       @CL4,DP
     1366 00000258 50280003-        ldiu      @CL4,ar0              ; |278| 
     1367 00000259 50400301         ldiu      *+fp(1),r0            ; |278| 
     1368 0000025a 1540c000         sti       r0,*ar0               ; |278| 
     1369                           .line   26
     1370                   ;----------------------------------------------------------------------
     1371                   ; 279 | LCD[1] &= (0xFF^LCDRW);                 /* clear R/W */                
     1372                   ;----------------------------------------------------------------------
     1373 0000025b 50280003-        ldiu      @CL4,ar0              ; |279| 
     1374 0000025c 506000fd         ldiu      253,r0                ; |279| 
     1375 0000025d 02c00001         and       *+ar0(1),r0           ; |279| 
     1376 0000025e 15400001         sti       r0,*+ar0(1)           ; |279| 
     1377                           .line   27
     1378                   ;----------------------------------------------------------------------
     1379                   ; 280 | LCD[1] |= LCDRS;                                /* set addr */         
     1380                   ;----------------------------------------------------------------------
     1381 0000025f 50280003-        ldiu      @CL4,ar0              ; |280| 
     1382 00000260 50600001         ldiu      1,r0                  ; |280| 
     1383 00000261 10400001         or        *+ar0(1),r0           ; |280| 
     1384 00000262 15400001         sti       r0,*+ar0(1)           ; |280| 
     1385                           .line   28
     1386                   ;----------------------------------------------------------------------
     1387                   ; 281 | Write_I2C_5(LCD_ADDR, 2, LCD);                                         
     1388                   ;----------------------------------------------------------------------
     1389 00000263 08700000-        ldp       @CL5,DP
     1390 00000264 506a0040         ldiu      64,ar2                ; |281| 
     1391 00000265 50200004-        ldiu      @CL5,r0               ; |281| 
     1392 00000266 08700000-        ldp       @CL4,DP
     1393 00000267 50620002         ldiu      2,r2                  ; |281| 
     1394 00000268 50230003-        ldiu      @CL4,r3               ; |281| 
     1395 00000269 70000000         callu     r0                    ; far call to _Write_I2C_5      ; |281| 
     1396                                                           ; |281| Far Call Occurs
     1397                           .line   30
     1398                   ;----------------------------------------------------------------------
     1399                   ; 283 | LCD[1] |= LCDE;                                 /* set enable */       
     1400                   ;----------------------------------------------------------------------
     1401 0000026a 08700000-        ldp       @CL4,DP
     1402 0000026b 50280003-        ldiu      @CL4,ar0              ; |283| 
     1403 0000026c 50600004         ldiu      4,r0                  ; |283| 
     1404 0000026d 10400001         or        *+ar0(1),r0           ; |283| 
TMS320C3x/4x COFF AssemblerVersion 5.12     Mon Oct 31 11:29:49 2011
Copyright (c) 1987-1999 Texas Instruments Incorporatedasm30.exe -@_71C.AAB 

D:\CCS\EEA_SA_V611beta\BOOT\SOURCE\ASM\lcd.asm                       PAGE   27

     1405 0000026e 15400001         sti       r0,*+ar0(1)           ; |283| 
     1406                           .line   31
     1407                   ;----------------------------------------------------------------------
     1408                   ; 284 | Write_I2C_5(LCD_ADDR, 2, LCD);                                         
     1409                   ;----------------------------------------------------------------------
     1410 0000026f 08700000-        ldp       @CL5,DP
     1411 00000270 50200004-        ldiu      @CL5,r0               ; |284| 
     1412 00000271 506a0040         ldiu      64,ar2                ; |284| 
     1413 00000272 08700000-        ldp       @CL4,DP
     1414 00000273 50620002         ldiu      2,r2                  ; |284| 
     1415 00000274 50230003-        ldiu      @CL4,r3               ; |284| 
     1416 00000275 70000000         callu     r0                    ; far call to _Write_I2C_5      ; |284| 
     1417                                                           ; |284| Far Call Occurs
     1418                           .line   33
     1419                   ;----------------------------------------------------------------------
     1420                   ; 286 | LCD[1] &= (0xFF^LCDE);                  /* clear enable */             
     1421                   ;----------------------------------------------------------------------
     1422 00000276 08700000-        ldp       @CL4,DP
     1423 00000277 50280003-        ldiu      @CL4,ar0              ; |286| 
     1424 00000278 506000fb         ldiu      251,r0                ; |286| 
     1425 00000279 02c00001         and       *+ar0(1),r0           ; |286| 
     1426 0000027a 15400001         sti       r0,*+ar0(1)           ; |286| 
     1427                           .line   34
     1428                   ;----------------------------------------------------------------------
     1429                   ; 287 | Write_I2C_5(LCD_ADDR, 2, LCD);                                         
     1430                   ;----------------------------------------------------------------------
     1431 0000027b 08700000-        ldp       @CL5,DP
     1432 0000027c 50200004-        ldiu      @CL5,r0               ; |287| 
     1433 0000027d 08700000-        ldp       @CL4,DP
     1434 0000027e 506a0040         ldiu      64,ar2                ; |287| 
     1435 0000027f 50230003-        ldiu      @CL4,r3               ; |287| 
     1436 00000280 50620002         ldiu      2,r2                  ; |287| 
     1437 00000281 70000000         callu     r0                    ; far call to _Write_I2C_5      ; |287| 
     1438                                                           ; |287| Far Call Occurs
     1439                           .line   36
     1440                   ;----------------------------------------------------------------------
     1441                   ; 289 | LCD[1] &= (0xFF^LCDRS);                 /* clear addr */               
     1442                   ;----------------------------------------------------------------------
     1443 00000282 08700000-        ldp       @CL4,DP
     1444 00000283 50280003-        ldiu      @CL4,ar0              ; |289| 
     1445 00000284 506000fe         ldiu      254,r0                ; |289| 
     1446 00000285 02c00001         and       *+ar0(1),r0           ; |289| 
     1447 00000286 15400001         sti       r0,*+ar0(1)           ; |289| 
     1448                           .line   37
     1449                   ;----------------------------------------------------------------------
     1450                   ; 290 | Write_I2C_5(LCD_ADDR, 2, LCD);                                         
     1451                   ;----------------------------------------------------------------------
     1452 00000287 08700000-        ldp       @CL5,DP
     1453 00000288 506a0040         ldiu      64,ar2                ; |290| 
     1454 00000289 50200004-        ldiu      @CL5,r0               ; |290| 
     1455 0000028a 08700000-        ldp       @CL4,DP
     1456 0000028b 50620002         ldiu      2,r2                  ; |290| 
     1457 0000028c 50230003-        ldiu      @CL4,r3               ; |290| 
     1458 0000028d 70000000         callu     r0                    ; far call to _Write_I2C_5      ; |290| 
TMS320C3x/4x COFF AssemblerVersion 5.12     Mon Oct 31 11:29:49 2011
Copyright (c) 1987-1999 Texas Instruments Incorporatedasm30.exe -@_71C.AAB 

D:\CCS\EEA_SA_V611beta\BOOT\SOURCE\ASM\lcd.asm                       PAGE   28

     1459                                                           ; |290| Far Call Occurs
     1460 0000028e          L51:        
     1461                           .line   38
     1462                                                           ; Begin Epilog Code
     1463 0000028e 50410b01         ldiu      *-fp(1),r1
     1464 0000028f 504bc300         ldiu      *fp,fp
     1465                                                           ; Unallocate the Frame
     1466 00000290 18740005         subi      5,sp
     1467 00000291 68000001         bu        r1
     1468                   ;*      Branch Occurs to r1 
     1469                           .endfunc        291,000000000h,3
     1470                   
     1471                   
     1472 00000292                  .sect    "internal_RAM"
     1473                   
     1474                           .global _LCD_STR
     1475                           .sym    _LCD_STR,_LCD_STR,32,2,0
     1476                           .func   293
     1477                   ;******************************************************************************
     1478                   ;* FUNCTION NAME: _LCD_STR                                                    *
     1479                   ;*                                                                            *
     1480                   ;*   Architecture       : TMS320C33                                           *
     1481                   ;*   Calling Convention : TI Standard Register Parameters                     *
     1482                   ;*   Function Uses Regs : r0,r2,ar0,ar2,ir0,st                                *
     1483                   ;*   Regs Saved         :                                                     *
     1484                   ;*   Stack Frame        : Full (w/ debug)                                     *
     1485                   ;*   Total Frame Size   : 2 Call + 0 Parm + 4 Auto + 0 SOE = 6 words          *
     1486                   ;******************************************************************************
     1487 00000292          _LCD_STR:
     1488                   ;* ar2   assigned to _s
     1489                           .sym    _s,10,18,17,32
     1490                   ;* r2    assigned to _line
     1491                           .sym    _line,2,4,17,32
     1492                           .sym    _s,1,18,1,32
     1493                           .sym    _line,2,4,1,32
     1494                           .sym    _addr,3,4,1,32
     1495                           .sym    _i,4,4,1,32
     1496                           .line   1
     1497                   ;----------------------------------------------------------------------
     1498                   ; 293 | void LCD_STR(char* s, int line)                                        
     1499                   ;----------------------------------------------------------------------
     1500 00000292 0f2b0000         push      fp
     1501 00000293 500b0014         ldiu      sp,fp
     1502 00000294 02740004         addi      4,sp
     1503                           .line   2
     1504                   ;----------------------------------------------------------------------
     1505                   ; 295 | int addr;                                                              
     1506                   ; 296 | int i;                                                                 
     1507                   ;----------------------------------------------------------------------
     1508 00000295 15420302         sti       r2,*+fp(2)            ; |294| 
     1509 00000296 154a0301         sti       ar2,*+fp(1)           ; |294| 
     1510                           .line   6
     1511                   ;----------------------------------------------------------------------
     1512                   ; 298 | if (!LCD_PRESENT) return;                                              
TMS320C3x/4x COFF AssemblerVersion 5.12     Mon Oct 31 11:29:49 2011
Copyright (c) 1987-1999 Texas Instruments Incorporatedasm30.exe -@_71C.AAB 

D:\CCS\EEA_SA_V611beta\BOOT\SOURCE\ASM\lcd.asm                       PAGE   29

     1513                   ; 300 | switch(line)                                                           
     1514                   ; 302 |         case 0:                                                        
     1515                   ;----------------------------------------------------------------------
     1516 00000297 08700000-        ldp       @CL9,DP
     1517 00000298 50280008-        ldiu      @CL9,ar0              ; |298| 
     1518 00000299 5040c000         ldiu      *ar0,r0               ; |298| 
     1519 0000029a 04e00000         cmpi      0,r0                  ; |298| 
     1520 0000029b 6a05002a         beq       L67                   ; |298| 
     1521                   ;*      Branch Occurs to L67            ; |298| 
     1522 0000029c 6a00000c         bu        L60                   ; |292| 
     1523                   ;*      Branch Occurs to L60            ; |292| 
     1524 0000029d          L55:        
     1525                           .line   12
     1526                   ;----------------------------------------------------------------------
     1527                   ; 304 | addr = 0x80;                                                           
     1528                   ;----------------------------------------------------------------------
     1529 0000029d 50600080         ldiu      128,r0                ; |304| 
     1530 0000029e 15400303         sti       r0,*+fp(3)            ; |304| 
     1531                           .line   13
     1532                   ;----------------------------------------------------------------------
     1533                   ; 305 | break;                                                                 
     1534                   ; 308 | case 1:                                                                
     1535                   ;----------------------------------------------------------------------
     1536 0000029f 6a000013         bu        L65                   ; |305| 
     1537                   ;*      Branch Occurs to L65            ; |305| 
     1538 000002a0          L56:        
     1539                           .line   18
     1540                   ;----------------------------------------------------------------------
     1541                   ; 310 | addr = 0xC0;                                                           
     1542                   ;----------------------------------------------------------------------
     1543 000002a0 506000c0         ldiu      192,r0                ; |310| 
     1544 000002a1 15400303         sti       r0,*+fp(3)            ; |310| 
     1545                           .line   19
     1546                   ;----------------------------------------------------------------------
     1547                   ; 311 | break;                                                                 
     1548                   ; 314 | case 2:                                                                
     1549                   ;----------------------------------------------------------------------
     1550 000002a2 6a000010         bu        L65                   ; |311| 
     1551                   ;*      Branch Occurs to L65            ; |311| 
     1552 000002a3          L57:        
     1553                           .line   24
     1554                   ;----------------------------------------------------------------------
     1555                   ; 316 | addr = 0x94;                                                           
     1556                   ;----------------------------------------------------------------------
     1557 000002a3 50600094         ldiu      148,r0                ; |316| 
     1558 000002a4 15400303         sti       r0,*+fp(3)            ; |316| 
     1559                           .line   25
     1560                   ;----------------------------------------------------------------------
     1561                   ; 317 | break;                                                                 
     1562                   ; 320 | case 3:                                                                
     1563                   ;----------------------------------------------------------------------
     1564 000002a5 6a00000d         bu        L65                   ; |317| 
     1565                   ;*      Branch Occurs to L65            ; |317| 
     1566 000002a6          L58:        
TMS320C3x/4x COFF AssemblerVersion 5.12     Mon Oct 31 11:29:49 2011
Copyright (c) 1987-1999 Texas Instruments Incorporatedasm30.exe -@_71C.AAB 

D:\CCS\EEA_SA_V611beta\BOOT\SOURCE\ASM\lcd.asm                       PAGE   30

     1567                           .line   30
     1568                   ;----------------------------------------------------------------------
     1569                   ; 322 | addr = 0xD4;                                                           
     1570                   ;----------------------------------------------------------------------
     1571 000002a6 506000d4         ldiu      212,r0                ; |322| 
     1572 000002a7 15400303         sti       r0,*+fp(3)            ; |322| 
     1573                           .line   31
     1574                   ;----------------------------------------------------------------------
     1575                   ; 323 | break;                                                                 
     1576                   ; 326 | default:                                                               
     1577                   ;----------------------------------------------------------------------
     1578 000002a8 6a00000a         bu        L65                   ; |323| 
     1579                   ;*      Branch Occurs to L65            ; |323| 
     1580                           .line   36
     1581                   ;----------------------------------------------------------------------
     1582                   ; 328 | return;                                                                
     1583                   ;----------------------------------------------------------------------
     1584 000002a9          L60:        
     1585                           .line   8
     1586 000002a9 50400302         ldiu      *+fp(2),r0            ; |300| 
     1587 000002aa 04e00000         cmpi      0,r0                  ; |300| 
     1588 000002ab 6a05fff1         beq       L55                   ; |300| 
     1589                   ;*      Branch Occurs to L55            ; |300| 
     1590 000002ac 04e00001         cmpi      1,r0                  ; |300| 
     1591 000002ad 6a05fff2         beq       L56                   ; |300| 
     1592                   ;*      Branch Occurs to L56            ; |300| 
     1593 000002ae 04e00002         cmpi      2,r0                  ; |300| 
     1594 000002af 6a05fff3         beq       L57                   ; |300| 
     1595                   ;*      Branch Occurs to L57            ; |300| 
     1596 000002b0 04e00003         cmpi      3,r0                  ; |300| 
     1597 000002b1 6a05fff4         beq       L58                   ; |300| 
     1598                   ;*      Branch Occurs to L58            ; |300| 
     1599 000002b2 6a000013         bu        L67                   ; |300| 
     1600                   ;*      Branch Occurs to L67            ; |300| 
     1601 000002b3          L65:        
     1602                           .line   40
     1603                   ;----------------------------------------------------------------------
     1604                   ; 332 | LCD_CMD(addr);                                                         
     1605                   ;----------------------------------------------------------------------
     1606 000002b3 08700000-        ldp       @CL10,DP
     1607 000002b4 504a0303         ldiu      *+fp(3),ar2           ; |332| 
     1608 000002b5 50200009-        ldiu      @CL10,r0              ; |332| 
     1609 000002b6 70000000         callu     r0                    ; far call to _LCD_CMD  ; |332| 
     1610                                                           ; |332| Far Call Occurs
     1611                           .line   41
     1612                   ;----------------------------------------------------------------------
     1613                   ; 333 | for (i=0;i<20;i++)                                                     
     1614                   ;----------------------------------------------------------------------
     1615 000002b7 50600000         ldiu      0,r0                  ; |333| 
     1616 000002b8 15400304         sti       r0,*+fp(4)            ; |333| 
     1617 000002b9 04e00014         cmpi      20,r0                 ; |333| 
     1618 000002ba 6a0a000b         bge       L67                   ; |333| 
     1619                   ;*      Branch Occurs to L67            ; |333| 
     1620 000002bb          L66:        
TMS320C3x/4x COFF AssemblerVersion 5.12     Mon Oct 31 11:29:49 2011
Copyright (c) 1987-1999 Texas Instruments Incorporatedasm30.exe -@_71C.AAB 

D:\CCS\EEA_SA_V611beta\BOOT\SOURCE\ASM\lcd.asm                       PAGE   31

     1621                           .line   43
     1622                   ;----------------------------------------------------------------------
     1623                   ; 335 | LCD_CHAR(s[i]);                                                        
     1624                   ;----------------------------------------------------------------------
     1625 000002bb 08700000-        ldp       @CL11,DP
     1626 000002bc 50510301         ldiu      *+fp(1),ir0           ; |335| 
     1627 000002bd 50480304         ldiu      *+fp(4),ar0           ; |335| 
     1628 000002be 5020000a-        ldiu      @CL11,r0              ; |335| 
     1629 000002bf 504a4000         ldiu      *+ar0(ir0),ar2        ; |335| 
     1630 000002c0 70000000         callu     r0                    ; far call to _LCD_CHAR ; |335| 
     1631                                                           ; |335| Far Call Occurs
     1632                           .line   41
     1633 000002c1 50600001         ldiu      1,r0                  ; |333| 
     1634 000002c2 02400304         addi      *+fp(4),r0            ; |333| 
     1635 000002c3 15400304         sti       r0,*+fp(4)            ; |333| 
     1636 000002c4 04e00014         cmpi      20,r0                 ; |333| 
     1637 000002c5 6a07fff5         blt       L66                   ; |333| 
     1638                   ;*      Branch Occurs to L66            ; |333| 
     1639 000002c6          L67:        
     1640                           .line   45
     1641                                                           ; Begin Epilog Code
     1642 000002c6 50410b01         ldiu      *-fp(1),r1
     1643 000002c7 504bc300         ldiu      *fp,fp
     1644                                                           ; Unallocate the Frame
     1645 000002c8 18740006         subi      6,sp
     1646 000002c9 68000001         bu        r1
     1647                   ;*      Branch Occurs to r1 
     1648                           .endfunc        337,000000000h,4
     1649                   
     1650                   
     1651 00000000                  .sect    ".text"
     1652                   
     1653                           .global _LCD_INIT
     1654                           .sym    _LCD_INIT,_LCD_INIT,46,2,0
     1655                           .func   339
     1656                   ;******************************************************************************
     1657                   ;* FUNCTION NAME: _LCD_INIT                                                   *
     1658                   ;*                                                                            *
     1659                   ;*   Architecture       : TMS320C33                                           *
     1660                   ;*   Calling Convention : TI Standard Register Parameters                     *
     1661                   ;*   Function Uses Regs : r0,r1,r2,r3,ar0,ar1,ar2,ir0,st                      *
     1662                   ;*   Regs Saved         :                                                     *
     1663                   ;*   Stack Frame        : Full (w/ debug)                                     *
     1664                   ;*   Total Frame Size   : 2 Call + 0 Parm + 3 Auto + 0 SOE = 5 words          *
     1665                   ;******************************************************************************
     1666 00000000          _LCD_INIT:
     1667                           .sym    _r,1,14,1,32
     1668                           .sym    _i,2,4,1,32
     1669                           .sym    _j,3,4,1,32
     1670                           .line   1
     1671                   ;----------------------------------------------------------------------
     1672                   ; 339 | BOOL LCD_INIT(void)                                                    
     1673                   ; 341 | BOOL r;                                                                
     1674                   ; 342 | int i;                                                                 
TMS320C3x/4x COFF AssemblerVersion 5.12     Mon Oct 31 11:29:49 2011
Copyright (c) 1987-1999 Texas Instruments Incorporatedasm30.exe -@_71C.AAB 

D:\CCS\EEA_SA_V611beta\BOOT\SOURCE\ASM\lcd.asm                       PAGE   32

     1675                   ; 343 | int j;                                                                 
     1676                   ;----------------------------------------------------------------------
     1677 00000000 0f2b0000         push      fp
     1678 00000001 500b0014         ldiu      sp,fp
     1679 00000002 02740003         addi      3,sp
     1680                           .line   7
     1681                   ;----------------------------------------------------------------------
     1682                   ; 345 | _GIEP;                                                                 
     1683                   ;----------------------------------------------------------------------
     1684 00000003 0f350000         push    ST                      
     1685 00000004 03752000         andn    2000h, ST       
     1686                           .line   9
     1687                   ;----------------------------------------------------------------------
     1688                   ; 347 | LCD_DIPSW = 0xFF;                                                      
     1689                   ;----------------------------------------------------------------------
     1690 00000005 08700000-        ldp       @CL7,DP
     1691 00000006 50280006-        ldiu      @CL7,ar0              ; |347| 
     1692 00000007 506000ff         ldiu      255,r0                ; |347| 
     1693 00000008 1540c000         sti       r0,*ar0               ; |347| 
     1694                           .line   10
     1695                   ;----------------------------------------------------------------------
     1696                   ; 348 | LCD[0] = 0xFF;                                                         
     1697                   ;----------------------------------------------------------------------
     1698 00000009 08700000-        ldp       @CL4,DP
     1699 0000000a 50280003-        ldiu      @CL4,ar0              ; |348| 
     1700 0000000b 1540c000         sti       r0,*ar0               ; |348| 
     1701                           .line   11
     1702                   ;----------------------------------------------------------------------
     1703                   ; 349 | LCD[1] = 0xFF;                                                         
     1704                   ;----------------------------------------------------------------------
     1705 0000000c 08700000-        ldp       @CL8,DP
     1706 0000000d 50280007-        ldiu      @CL8,ar0              ; |349| 
     1707 0000000e 1540c000         sti       r0,*ar0               ; |349| 
     1708                           .line   12
     1709                   ;----------------------------------------------------------------------
     1710                   ; 350 | LCD[1] |= LCD_READ_MASK;                                               
     1711                   ;----------------------------------------------------------------------
     1712 0000000f 08700000-        ldp       @CL4,DP
     1713 00000010 50280003-        ldiu      @CL4,ar0              ; |350| 
     1714 00000011 506000f8         ldiu      248,r0                ; |350| 
     1715 00000012 10400001         or        *+ar0(1),r0           ; |350| 
     1716 00000013 15400001         sti       r0,*+ar0(1)           ; |350| 
     1717                           .line   13
     1718                   ;----------------------------------------------------------------------
     1719                   ; 351 | r =     Write_I2C_5(LCD_ADDR, 2, LCD);                                 
     1720                   ;----------------------------------------------------------------------
     1721 00000014 08700000-        ldp       @CL5,DP
     1722 00000015 506a0040         ldiu      64,ar2                ; |351| 
     1723 00000016 50200004-        ldiu      @CL5,r0               ; |351| 
     1724 00000017 08700000-        ldp       @CL4,DP
     1725 00000018 50620002         ldiu      2,r2                  ; |351| 
     1726 00000019 50230003-        ldiu      @CL4,r3               ; |351| 
     1727 0000001a 70000000         callu     r0                    ; far call to _Write_I2C_5      ; |351| 
     1728                                                           ; |351| Far Call Occurs
TMS320C3x/4x COFF AssemblerVersion 5.12     Mon Oct 31 11:29:49 2011
Copyright (c) 1987-1999 Texas Instruments Incorporatedasm30.exe -@_71C.AAB 

D:\CCS\EEA_SA_V611beta\BOOT\SOURCE\ASM\lcd.asm                       PAGE   33

     1729 0000001b 15400301         sti       r0,*+fp(1)            ; |351| 
     1730                           .line   14
     1731                   ;----------------------------------------------------------------------
     1732                   ; 352 | r =     Read_I2C_5(LCD_ADDR, 2, LCD);                                  
     1733                   ;----------------------------------------------------------------------
     1734 0000001c 08700000-        ldp       @CL6,DP
     1735 0000001d 50200005-        ldiu      @CL6,r0               ; |352| 
     1736 0000001e 08700000-        ldp       @CL4,DP
     1737 0000001f 50230003-        ldiu      @CL4,r3               ; |352| 
     1738 00000020 50620002         ldiu      2,r2                  ; |352| 
     1739 00000021 506a0040         ldiu      64,ar2                ; |352| 
     1740 00000022 70000000         callu     r0                    ; far call to _Read_I2C_5       ; |352| 
     1741                                                           ; |352| Far Call Occurs
     1742 00000023 15400301         sti       r0,*+fp(1)            ; |352| 
     1743                           .line   15
     1744                   ;----------------------------------------------------------------------
     1745                   ; 353 | LCD_DIPSW = LCD[1]&LCD_READ_MASK;                                      
     1746                   ;----------------------------------------------------------------------
     1747 00000024 08700000-        ldp       @CL8,DP
     1748 00000025 50290007-        ldiu      @CL8,ar1              ; |353| 
     1749 00000026 08700000-        ldp       @CL7,DP
     1750 00000027 506000f8         ldiu      248,r0                ; |353| 
     1751 00000028 50280006-        ldiu      @CL7,ar0              ; |353| 
     1752 00000029 21a0c100         and3      r0,*ar1,r0            ; |353| 
     1753 0000002a 1540c000         sti       r0,*ar0               ; |353| 
     1754                           .line   17
     1755                   ;----------------------------------------------------------------------
     1756                   ; 355 | if (!r)                                                                
     1757                   ;----------------------------------------------------------------------
     1758 0000002b 50400301         ldiu      *+fp(1),r0            ; |355| 
     1759 0000002c 04e00000         cmpi      0,r0                  ; |355| 
     1760 0000002d 6a060005         bne       L71                   ; |355| 
     1761                   ;*      Branch Occurs to L71            ; |355| 
     1762                           .line   19
     1763                   ;----------------------------------------------------------------------
     1764                   ; 357 | LCD_PRESENT = FALSE;                                                   
     1765                   ; 359 | else                                                                   
     1766                   ;----------------------------------------------------------------------
     1767 0000002e 08700000-        ldp       @CL9,DP
     1768 0000002f 50280008-        ldiu      @CL9,ar0              ; |357| 
     1769 00000030 50600000         ldiu      0,r0                  ; |357| 
     1770 00000031 1540c000         sti       r0,*ar0               ; |357| 
     1771 00000032 6a000020         bu        L72                   ; |338| 
     1772                   ;*      Branch Occurs to L72            ; |338| 
     1773 00000033          L71:        
     1774                           .line   23
     1775                   ;----------------------------------------------------------------------
     1776                   ; 361 | LCD_PRESENT = TRUE;                                                    
     1777                   ;----------------------------------------------------------------------
     1778 00000033 08700000-        ldp       @CL9,DP
     1779 00000034 50280008-        ldiu      @CL9,ar0              ; |361| 
     1780 00000035 50600001         ldiu      1,r0                  ; |361| 
     1781 00000036 1540c000         sti       r0,*ar0               ; |361| 
     1782                           .line   24
TMS320C3x/4x COFF AssemblerVersion 5.12     Mon Oct 31 11:29:49 2011
Copyright (c) 1987-1999 Texas Instruments Incorporatedasm30.exe -@_71C.AAB 

D:\CCS\EEA_SA_V611beta\BOOT\SOURCE\ASM\lcd.asm                       PAGE   34

     1783                   ;----------------------------------------------------------------------
     1784                   ; 362 | LCD_CMD(0x38);          /* set 8 bit, 2 line     */                    
     1785                   ;----------------------------------------------------------------------
     1786 00000037 08700000-        ldp       @CL10,DP
     1787 00000038 506a0038         ldiu      56,ar2                ; |362| 
     1788 00000039 50200009-        ldiu      @CL10,r0              ; |362| 
     1789 0000003a 70000000         callu     r0                    ; far call to _LCD_CMD  ; |362| 
     1790                                                           ; |362| Far Call Occurs
     1791                           .line   25
     1792                   ;----------------------------------------------------------------------
     1793                   ; 363 | LCD_CMD(0x30);          /* set 8 bit             */                    
     1794                   ;----------------------------------------------------------------------
     1795 0000003b 08700000-        ldp       @CL10,DP
     1796 0000003c 50200009-        ldiu      @CL10,r0              ; |363| 
     1797 0000003d 506a0030         ldiu      48,ar2                ; |363| 
     1798 0000003e 70000000         callu     r0                    ; far call to _LCD_CMD  ; |363| 
     1799                                                           ; |363| Far Call Occurs
     1800                           .line   26
     1801                   ;----------------------------------------------------------------------
     1802                   ; 364 | LCD_CMD(0x38);          /* set 8 bit, 2 line     */                    
     1803                   ;----------------------------------------------------------------------
     1804 0000003f 08700000-        ldp       @CL10,DP
     1805 00000040 50200009-        ldiu      @CL10,r0              ; |364| 
     1806 00000041 506a0038         ldiu      56,ar2                ; |364| 
     1807 00000042 70000000         callu     r0                    ; far call to _LCD_CMD  ; |364| 
     1808                                                           ; |364| Far Call Occurs
     1809                           .line   27
     1810                   ;----------------------------------------------------------------------
     1811                   ; 365 | LCD_CMD(0x0C);          /* display ON, no cursor */                    
     1812                   ;----------------------------------------------------------------------
     1813 00000043 08700000-        ldp       @CL10,DP
     1814 00000044 50200009-        ldiu      @CL10,r0              ; |365| 
     1815 00000045 506a000c         ldiu      12,ar2                ; |365| 
     1816 00000046 70000000         callu     r0                    ; far call to _LCD_CMD  ; |365| 
     1817                                                           ; |365| Far Call Occurs
     1818                           .line   28
     1819                   ;----------------------------------------------------------------------
     1820                   ; 366 | LCD_CMD(0x01);          /* clear display         */                    
     1821                   ;----------------------------------------------------------------------
     1822 00000047 08700000-        ldp       @CL10,DP
     1823 00000048 50200009-        ldiu      @CL10,r0              ; |366| 
     1824 00000049 506a0001         ldiu      1,ar2                 ; |366| 
     1825 0000004a 70000000         callu     r0                    ; far call to _LCD_CMD  ; |366| 
     1826                                                           ; |366| Far Call Occurs
     1827                           .line   29
     1828                   ;----------------------------------------------------------------------
     1829                   ; 367 | LCD_CMD(0x06);          /* clear addr inc        */                    
     1830                   ;----------------------------------------------------------------------
     1831 0000004b 08700000-        ldp       @CL10,DP
     1832 0000004c 506a0006         ldiu      6,ar2                 ; |367| 
     1833 0000004d 50200009-        ldiu      @CL10,r0              ; |367| 
     1834 0000004e 70000000         callu     r0                    ; far call to _LCD_CMD  ; |367| 
     1835                                                           ; |367| Far Call Occurs
     1836                           .line   30
TMS320C3x/4x COFF AssemblerVersion 5.12     Mon Oct 31 11:29:49 2011
Copyright (c) 1987-1999 Texas Instruments Incorporatedasm30.exe -@_71C.AAB 

D:\CCS\EEA_SA_V611beta\BOOT\SOURCE\ASM\lcd.asm                       PAGE   35

     1837                   ;----------------------------------------------------------------------
     1838                   ; 368 | LCD_CMD(0x80);          /* set addr to zero      */                    
     1839                   ;----------------------------------------------------------------------
     1840 0000004f 08700000-        ldp       @CL10,DP
     1841 00000050 50200009-        ldiu      @CL10,r0              ; |368| 
     1842 00000051 506a0080         ldiu      128,ar2               ; |368| 
     1843 00000052 70000000         callu     r0                    ; far call to _LCD_CMD  ; |368| 
     1844                                                           ; |368| Far Call Occurs
     1845 00000053          L72:        
     1846                           .line   33
     1847                   ;----------------------------------------------------------------------
     1848                   ; 371 | for (i=0;i<21;i++)                                                     
     1849                   ;----------------------------------------------------------------------
     1850 00000053 50600000         ldiu      0,r0                  ; |371| 
     1851 00000054 15400302         sti       r0,*+fp(2)            ; |371| 
     1852 00000055 04e00015         cmpi      21,r0                 ; |371| 
     1853 00000056 50610020         ldiu      32,r1                 ; |373| 
     1854 00000057 6a0a0009         bge       L74                   ; |371| 
     1855                   ;*      Branch Occurs to L74            ; |371| 
     1856 00000058          L73:        
     1857                           .line   35
     1858                   ;----------------------------------------------------------------------
     1859                   ; 373 | LCD_DISP3[i] = 0x20;                                                   
     1860                   ;----------------------------------------------------------------------
     1861 00000058 08700000-        ldp       @CL12,DP
     1862 00000059 50510302         ldiu      *+fp(2),ir0           ; |373| 
     1863 0000005a 5028000b-        ldiu      @CL12,ar0             ; |373| 
     1864 0000005b 15414000         sti       r1,*+ar0(ir0)         ; |373| 
     1865                           .line   33
     1866 0000005c 50600001         ldiu      1,r0                  ; |371| 
     1867 0000005d 02400302         addi      *+fp(2),r0            ; |371| 
     1868 0000005e 15400302         sti       r0,*+fp(2)            ; |371| 
     1869 0000005f 04e00015         cmpi      21,r0                 ; |371| 
     1870 00000060 6a07fff7         blt       L73                   ; |371| 
     1871                   ;*      Branch Occurs to L73            ; |371| 
     1872 00000061          L74:        
     1873                           .line   38
     1874                   ;----------------------------------------------------------------------
     1875                   ; 376 | LCD_STR((char*)&LCD_DISP0,0);                                          
     1876                   ;----------------------------------------------------------------------
     1877 00000061 08700000-        ldp       @CL14,DP
     1878 00000062 5020000d-        ldiu      @CL14,r0              ; |376| 
     1879 00000063 08700000-        ldp       @CL13,DP
     1880 00000064 50620000         ldiu      0,r2                  ; |376| 
     1881 00000065 502a000c-        ldiu      @CL13,ar2             ; |376| 
     1882 00000066 70000000         callu     r0                    ; far call to _LCD_STR  ; |376| 
     1883                                                           ; |376| Far Call Occurs
     1884                           .line   39
     1885                   ;----------------------------------------------------------------------
     1886                   ; 377 | LCD_STR((char*)&LCD_DISP1,1);                                          
     1887                   ;----------------------------------------------------------------------
     1888 00000067 08700000-        ldp       @CL14,DP
     1889 00000068 5020000d-        ldiu      @CL14,r0              ; |377| 
     1890 00000069 08700000-        ldp       @CL15,DP
TMS320C3x/4x COFF AssemblerVersion 5.12     Mon Oct 31 11:29:49 2011
Copyright (c) 1987-1999 Texas Instruments Incorporatedasm30.exe -@_71C.AAB 

D:\CCS\EEA_SA_V611beta\BOOT\SOURCE\ASM\lcd.asm                       PAGE   36

     1891 0000006a 50620001         ldiu      1,r2                  ; |377| 
     1892 0000006b 502a000e-        ldiu      @CL15,ar2             ; |377| 
     1893 0000006c 70000000         callu     r0                    ; far call to _LCD_STR  ; |377| 
     1894                                                           ; |377| Far Call Occurs
     1895                           .line   40
     1896                   ;----------------------------------------------------------------------
     1897                   ; 378 | LCD_STR((char*)&LCD_DISP2,2);                                          
     1898                   ;----------------------------------------------------------------------
     1899 0000006d 08700000-        ldp       @CL14,DP
     1900 0000006e 5020000d-        ldiu      @CL14,r0              ; |378| 
     1901 0000006f 08700000-        ldp       @CL16,DP
     1902 00000070 50620002         ldiu      2,r2                  ; |378| 
     1903 00000071 502a000f-        ldiu      @CL16,ar2             ; |378| 
     1904 00000072 70000000         callu     r0                    ; far call to _LCD_STR  ; |378| 
     1905                                                           ; |378| Far Call Occurs
     1906                           .line   41
     1907                   ;----------------------------------------------------------------------
     1908                   ; 379 | LCD_STR((char*)&LCD_DISP3,3);                                          
     1909                   ;----------------------------------------------------------------------
     1910 00000073 08700000-        ldp       @CL14,DP
     1911 00000074 5020000d-        ldiu      @CL14,r0              ; |379| 
     1912 00000075 08700000-        ldp       @CL12,DP
     1913 00000076 502a000b-        ldiu      @CL12,ar2             ; |379| 
     1914 00000077 50620003         ldiu      3,r2                  ; |379| 
     1915 00000078 70000000         callu     r0                    ; far call to _LCD_STR  ; |379| 
     1916                                                           ; |379| Far Call Occurs
     1917                           .line   43
     1918                   ;----------------------------------------------------------------------
     1919                   ; 381 | GIEP;                                                                  
     1920                   ;----------------------------------------------------------------------
     1921 00000079 0e350000         pop             ST                      
     1922                           .line   44
     1923                   ;----------------------------------------------------------------------
     1924                   ; 382 | return LCD_PRESENT;                                                    
     1925                   ;----------------------------------------------------------------------
     1926 0000007a 08700000-        ldp       @CL9,DP
     1927 0000007b 50280008-        ldiu      @CL9,ar0              ; |382| 
     1928 0000007c 5040c000         ldiu      *ar0,r0               ; |382| 
     1929                           .line   45
     1930                                                           ; Begin Epilog Code
     1931 0000007d 50410b01         ldiu      *-fp(1),r1            ; |383| 
     1932 0000007e 504bc300         ldiu      *fp,fp                ; |383| 
     1933                                                           ; Unallocate the Frame
     1934 0000007f 18740005         subi      5,sp                  ; |383| 
     1935 00000080 68000001         bu        r1
     1936                   ;*      Branch Occurs to r1 
     1937                           .endfunc        383,000000000h,3
     1938                   
     1939                   
     1940                   ;******************************************************************************
     1941                   ;* CONSTANT TABLE                                                             *
     1942                   ;******************************************************************************
     1943 00000000                  .sect   ".const"
     1944 00000000                  .bss    CL1,1
TMS320C3x/4x COFF AssemblerVersion 5.12     Mon Oct 31 11:29:49 2011
Copyright (c) 1987-1999 Texas Instruments Incorporatedasm30.exe -@_71C.AAB 

D:\CCS\EEA_SA_V611beta\BOOT\SOURCE\ASM\lcd.asm                       PAGE   37

     1945 00000001                  .bss    CL2,1
     1946 00000002                  .bss    CL3,1
     1947 00000003                  .bss    CL4,1
     1948 00000004                  .bss    CL5,1
     1949 00000005                  .bss    CL6,1
     1950 00000006                  .bss    CL7,1
     1951 00000007                  .bss    CL8,1
     1952 00000008                  .bss    CL9,1
     1953 00000009                  .bss    CL10,1
     1954 0000000a                  .bss    CL11,1
     1955 0000000b                  .bss    CL12,1
     1956 0000000c                  .bss    CL13,1
     1957 0000000d                  .bss    CL14,1
     1958 0000000e                  .bss    CL15,1
     1959 0000000f                  .bss    CL16,1
     1960                   
     1961 00000000                  .sect   ".cinit"
     1962 00000000 00000010         .field          16,32
     1963 00000001 00000000-        .field          CL1+0,32
     1964 00000002 00900003         .field          9437187,32
     1965 00000003 00000000+        .field          _I2C_TX_BYTE_5,32
     1966 00000004 0000005c+        .field          _I2C_RX_BYTE_5,32
     1967 00000005 00000000!        .field          _LCD,32
     1968 00000006 000000b9+        .field          _Write_I2C_5,32
     1969 00000007 00000128+        .field          _Read_I2C_5,32
     1970 00000008 00000000!        .field          _LCD_DIPSW,32
     1971 00000009 00000001!        .field          _LCD+1,32
     1972 0000000a 00000000!        .field          _LCD_PRESENT,32
     1973 0000000b 0000019f+        .field          _LCD_CMD,32
     1974 0000000c 00000217+        .field          _LCD_CHAR,32
     1975 0000000d 00000000!        .field          _LCD_DISP3,32
     1976 0000000e 00000000!        .field          _LCD_DISP0,32
     1977 0000000f 00000292+        .field          _LCD_STR,32
     1978 00000010 00000000!        .field          _LCD_DISP1,32
     1979 00000011 00000000!        .field          _LCD_DISP2,32
     1980                   
     1981 00000081                  .sect   ".text"
     1982                   ;******************************************************************************
     1983                   ;* UNDEFINED EXTERNAL REFERENCES                                              *
     1984                   ;******************************************************************************
     1985                   
     1986                           .global _LCD_DIPSW
     1987                   
     1988                           .global _LCD
     1989                   
     1990                           .global _LCD_PRESENT
     1991                   
     1992                           .global _LCD_DISP0
     1993                   
     1994                           .global _LCD_DISP1
     1995                   
     1996                           .global _LCD_DISP2
     1997                   
     1998                           .global _LCD_DISP3
TMS320C3x/4x COFF AssemblerVersion 5.12     Mon Oct 31 11:29:49 2011
Copyright (c) 1987-1999 Texas Instruments Incorporatedasm30.exe -@_71C.AAB 

D:\CCS\EEA_SA_V611beta\BOOT\SOURCE\ASM\lcd.asm                       PAGE   38


 No Errors,  No Warnings
TMS320C3x/4x COFF AssemblerVersion 5.12     Mon Oct 31 11:29:49 2011
Copyright (c) 1987-1999 Texas Instruments Incorporatedasm30.exe -@_71C.AAB 

D:\CCS\EEA_SA_V611beta\BOOT\SOURCE\ASM\lcd.asm                       PAGE   39

LABEL                            VALUE       DEFN    REF

.BIGMODEL                        00000001       0 
.C30                             00000000       0 
.C30INTERRUPT                    00000000       0 
.C31                             00000000       0 
.C32                             00000000       0 
.C33                             00000001       0 
.C3X                             00000001       0 
.C3x                             00000001       0 
.C40                             00000000       0 
.C44                             00000000       0 
.C4X                             00000000       0 
.C4x                             00000000       0 
.REGPARM                         00000001       0 
.TMS320C30                       00000001       0 
.TMS320C31                       00000000       0 
.TMS320C32                       00000000       0 
.TMS320C40                       00000000       0 
.TMS320C44                       00000000       0 
.TMS320xx                        00000021       0 
.tms320C30                       00000001       0 
.tms320C31                       00000000       0 
.tms320C32                       00000000       0 
.tms320C40                       00000000       0 
.tms320C44                       00000000       0 
.tms320xx                        00000021       0 
.tmx320C40                       00000000       0 
CL1                              00000000-   1944    124    125    136    137 
                                                     146    147    181    182 
                                                     240    241    324    325 
                                                     343    344    372    373 
                                                     411    412    429    430 
                                                     441    442    451    452 
                                                     542    543    679    680 
                                                     785    786    921    922 
                                                    1963 
CL10                             00000009-   1953   1606   1608   1786   1788 
                                                    1795   1796   1804   1805 
                                                    1813   1814   1822   1823 
                                                    1831   1833   1840   1841 
CL11                             0000000a-   1954   1625   1628 
CL12                             0000000b-   1955   1861   1863   1912   1913 
CL13                             0000000c-   1956   1879   1881 
CL14                             0000000d-   1957   1877   1878   1888   1889 
                                                    1899   1900   1910   1911 
CL15                             0000000e-   1958   1890   1892 
CL16                             0000000f-   1959   1901   1903 
CL2                              00000001-   1945    585    587    632    635 
                                                     829    831 
CL3                              00000002-   1946    880    882    902    904 
TMS320C3x/4x COFF AssemblerVersion 5.12     Mon Oct 31 11:29:49 2011
Copyright (c) 1987-1999 Texas Instruments Incorporatedasm30.exe -@_71C.AAB 

D:\CCS\EEA_SA_V611beta\BOOT\SOURCE\ASM\lcd.asm                       PAGE   40

LABEL                            VALUE       DEFN    REF

CL4                              00000003-   1947   1005   1006   1013   1021 
                                                    1029   1040   1042   1051 
                                                    1052   1074   1075   1086 
                                                    1088   1107   1108   1118 
                                                    1120   1139   1140   1147 
                                                    1158   1160   1167   1168 
                                                    1178   1180   1188   1189 
                                                    1199   1201   1262   1263 
                                                    1270   1278   1290   1292 
                                                    1300   1301   1312   1314 
                                                    1333   1334   1344   1346 
                                                    1365   1366   1373   1381 
                                                    1392   1394   1401   1402 
                                                    1413   1415   1422   1423 
                                                    1433   1435   1443   1444 
                                                    1455   1457   1698   1699 
                                                    1712   1713   1724   1726 
                                                    1736   1737 
CL5                              00000004-   1948   1037   1039   1083   1085 
                                                    1116   1117   1155   1157 
                                                    1176   1177   1197   1198 
                                                    1287   1289   1309   1311 
                                                    1342   1343   1389   1391 
                                                    1410   1411   1431   1432 
                                                    1452   1454   1721   1723 
CL6                              00000005-   1949   1049   1050   1095   1098 
                                                    1321   1324   1734   1735 
CL7                              00000006-   1950   1064   1066   1690   1691 
                                                    1749   1751 
CL8                              00000007-   1951   1062   1063   1705   1706 
                                                    1747   1748 
CL9                              00000008-   1952   1252   1253   1516   1517 
                                                    1767   1768   1778   1779 
                                                    1926   1927 
FP                               0000000b       7 
L13                              0000006c+    338    397 
L15                              0000007b+    367    362 
L16                              0000008c+    399    336 
L18                              0000009d+    436    422 
L19                              000000a2+    446    434 
L2                               0000000a+    110    174 
L24                              000000ed+    617    596 
L25                              000000f1+    627    665 
L27                              000000fd+    659    645 
L30                              00000103+    674    615    625    657    671 
L35                              0000015d+    861    840 
L36                              00000164+    874    894 
L37                              00000172+    896    872 
L39                              0000017a+    916    859    913 
L4                               00000013+    131    117 
L43                              000001c8+   1069   1132 
TMS320C3x/4x COFF AssemblerVersion 5.12     Mon Oct 31 11:29:49 2011
Copyright (c) 1987-1999 Texas Instruments Incorporatedasm30.exe -@_71C.AAB 

D:\CCS\EEA_SA_V611beta\BOOT\SOURCE\ASM\lcd.asm                       PAGE   41

LABEL                            VALUE       DEFN    REF

L49                              00000233+   1295   1358 
L5                               00000018+    141    129 
L51                              0000028e+   1460   1256 
L55                              0000029d+   1524   1588 
L56                              000002a0+   1538   1591 
L57                              000002a3+   1552   1594 
L58                              000002a6+   1566   1597 
L6                               00000030+    176    108 
L60                              000002a9+   1584   1522 
L65                              000002b3+   1601   1536   1550   1564   1578 
L66                              000002bb+   1620   1637 
L67                              000002c6+   1639   1520   1599   1618 
L71                              00000033'   1773   1760 
L72                              00000053'   1845   1771 
L73                              00000058'   1856   1870 
L74                              00000061'   1872   1854 
L8                               00000049+    228    222 
L9                               0000004b+    235    226 
_I2C_RX_BYTE_5                   0000005c+    291    278    279    279   1966 
_I2C_TX_BYTE_5                   00000000+     74     61     62     62   1965 
_LCD                             REF                1967   1971   1988 
_LCD_CHAR                        00000217+   1231   1218   1219   1219   1974 
_LCD_CMD                         0000019f+    984    971    972    972   1973 
_LCD_DIPSW                       REF                1970   1986 
_LCD_DISP0                       REF                1976   1992 
_LCD_DISP1                       REF                1978   1994 
_LCD_DISP2                       REF                1979   1996 
_LCD_DISP3                       REF                1975   1998 
_LCD_INIT                        00000000'   1666   1653   1654   1654 
_LCD_PRESENT                     REF                1972   1990 
_LCD_STR                         00000292+   1487   1474   1475   1475   1977 
_Read_I2C_5                      00000128+    742    729    730    730   1969 
_Write_I2C_5                     000000b9+    500    487    488    488   1968 
fp                               0000000b       6    116    166    168    171 
                                                     172    225    234    264 
                                                     267    268    268    304 
                                                     305    312    313    319 
                                                     334    365    366    389 
                                                     391    394    395    404 
                                                     406    420    471    472 
                                                     476    477    477    518 
                                                     519    528    529    530 
                                                     536    579    580    590 
                                                     603    623    624    633 
                                                     634    639    652    662 
                                                     663    664    715    718 
                                                     719    719    761    762 
                                                     771    772    773    779 
                                                     823    824    834    847 
                                                     867    869    870    879 
                                                     881    888    889    891 
                                                     892    901    903    957 
                                                     960    961    961    993 
                                                     994   1000   1097   1128 
                                                    1141   1207   1208   1208 
                                                    1240   1241   1247   1323 
                                                    1354   1367   1463   1464 
                                                    1464   1500   1501   1508 
                                                    1509   1530   1544   1558 
                                                    1572   1586   1607   1616 
                                                    1626   1627   1634   1635 
                                                    1642   1643   1643   1677 
                                                    1678   1729   1742   1758 
                                                    1851   1862   1867   1868 
                                                    1931   1932   1932 
