TMS320C3x/4x COFF AssemblerVersion 5.12     Mon Oct 31 11:29:47 2011
Copyright (c) 1987-1999 Texas Instruments Incorporatedasm30.exe -@_528.AAB 

D:\CCS\EEA_SA_V611beta\BOOT\SOURCE\ASM\main.asm                      PAGE    1

        1                   ;******************************************************************************
        2                   ;* TMS320C3x/4x ANSI C Code Generator                            Version 5.11 *
        3                   ;* Date/Time created: Mon Oct 31 11:29:48 2011                                *
        4                   ;******************************************************************************
        5                           .regalias       ; enable floating point register aliases
        6          0000000b fp      .set    ar3
        7          0000000b FP      .set    ar3
        8                   ;******************************************************************************
        9                   ;* GLOBAL FILE PARAMETERS                                                     *
       10                   ;*                                                                            *
       11                   ;*   Optimization       : Always Choose Smaller Code Size                     *
       12                   ;*   Memory             : Big Memory Model                                    *
       13                   ;*   Float-to-Int       : Normal Conversions (round toward zero)              *
       14                   ;*   Multiply           : in Software (32 bits)                               *
       15                   ;*   Memory Info        : Unmapped Memory Exists                              *
       16                   ;*   Repeat Loops       : Use RPTS and/or RPTB                                *
       17                   ;*   Calls              : Normal Library ASM calls                            *
       18                   ;*   Debug Info         : Standard TI Debug Information                       *
       19                   ;******************************************************************************
       20                   ;       C:\tic3x4x\c3x4x\cgtools\bin\ac30.exe -@_528.AAA 
       21                           .file   "main.c"
       22                           .file   "D:\CCS\EEA_SA_V611beta\INCLUDE\ETC.H"
       23                           .sym    _BOOL,0,14,13,32
       24                           .file   "D:\CCS\EEA_SA_V611beta\BOOT\SOURCE\INCLUDE\BUFFER.H"
       25                           .stag   .fake0,131744
       26                           .member _head,0,4,8,32
       27                           .member _tail,32,4,8,32
       28                           .member _n,64,4,8,32
       29                           .member _CRC16,96,14,8,32
       30                           .member _buff,128,62,8,131584,,4112
       31                           .member _locked,131712,14,8,32
       32                           .eos
       33                           .sym    _BFR,0,8,13,131744,.fake0
       34                           .file   "D:\CCS\EEA_SA_V611beta\INCLUDE\FLASH.H"
       35                           .file   "D:\CCS\EEA_SA_V611beta\BOOT\SOURCE\INCLUDE\SERIAL.H"
       36                           .stag   .fake1,263936
       37                           .member _STAT,0,12,8,32
       38                           .member _TMR_Network_WDOG,32,14,8,32
       39                           .member _TMR_EOT_Delay,64,14,8,32
       40                           .member _TMR_Preamble_Delay,96,14,8,32
       41                           .member _TMR_Suffix_Delay,128,14,8,32
       42                           .member _TMR_Char,160,14,8,32
       43                           .member _TMR_enabled,192,14,8,32
       44                           .member _tvector,224,20,8,32
       45                           .member _pvector,256,20,8,32
       46                           .member _i,288,14,8,32
       47                           .member _func,320,14,8,32
       48                           .member _Slave_ID,352,14,8,32
       49                           .member _TXbuf,384,8,8,131744,.fake0
       50                           .member _TX_complete,132128,14,8,32
       51                           .member _RXbuf,132160,8,8,131744,.fake0
       52                           .member _RX_pending,263904,14,8,32
       53                           .eos
       54                           .sym    _PORTV,0,8,13,263936,.fake1
TMS320C3x/4x COFF AssemblerVersion 5.12     Mon Oct 31 11:29:47 2011
Copyright (c) 1987-1999 Texas Instruments Incorporatedasm30.exe -@_528.AAB 

D:\CCS\EEA_SA_V611beta\BOOT\SOURCE\ASM\main.asm                      PAGE    2

       55                           .file   "D:\CCS\EEA_SA_V611beta\BOOT\SOURCE\INCLUDE\MODBUSRTU.H"
       56                           .file   "D:\CCS\EEA_SA_V611beta\INCLUDE\I2C.H"
       57                           .file   "D:\CCS\EEA_SA_V611beta\BOOT\SOURCE\INCLUDE\GLBLS.H"
       58                   
       59 00000000                  .sect   ".const"
       60 00000000          _copyright:
       61 00000000 00000028         .field          40,32           ; _copyright[0] @ 0
       62 00000001 00000063         .field          99,32           ; _copyright[1] @ 32
       63 00000002 00000029         .field          41,32           ; _copyright[2] @ 64
       64 00000003 00000032         .field          50,32           ; _copyright[3] @ 96
       65 00000004 00000030         .field          48,32           ; _copyright[4] @ 128
       66 00000005 00000030         .field          48,32           ; _copyright[5] @ 160
       67 00000006 00000037         .field          55,32           ; _copyright[6] @ 192
       68 00000007 00000020         .field          32,32           ; _copyright[7] @ 224
       69 00000008 00000050         .field          80,32           ; _copyright[8] @ 256
       70 00000009 00000068         .field          104,32          ; _copyright[9] @ 288
       71 0000000a 00000061         .field          97,32           ; _copyright[10] @ 320
       72 0000000b 00000073         .field          115,32          ; _copyright[11] @ 352
       73 0000000c 00000065         .field          101,32          ; _copyright[12] @ 384
       74 0000000d 00000020         .field          32,32           ; _copyright[13] @ 416
       75 0000000e 00000044         .field          68,32           ; _copyright[14] @ 448
       76 0000000f 00000079         .field          121,32          ; _copyright[15] @ 480
       77 00000010 0000006e         .field          110,32          ; _copyright[16] @ 512
       78 00000011 00000061         .field          97,32           ; _copyright[17] @ 544
       79 00000012 0000006d         .field          109,32          ; _copyright[18] @ 576
       80 00000013 00000069         .field          105,32          ; _copyright[19] @ 608
       81 00000014 00000063         .field          99,32           ; _copyright[20] @ 640
       82 00000015 00000073         .field          115,32          ; _copyright[21] @ 672
       83 00000016 0000002c         .field          44,32           ; _copyright[22] @ 704
       84 00000017 00000020         .field          32,32           ; _copyright[23] @ 736
       85 00000018 00000049         .field          73,32           ; _copyright[24] @ 768
       86 00000019 0000006e         .field          110,32          ; _copyright[25] @ 800
       87 0000001a 00000063         .field          99,32           ; _copyright[26] @ 832
       88 0000001b 0000002e         .field          46,32           ; _copyright[27] @ 864
       89 0000001c 00000000         .field          0,32            ; _copyright[28] @ 896
       90                   
       91 00000000                  .sect   ".text"
       92                   
       93                           .global _copyright
       94                           .sym    _copyright,_copyright,50,2,928,,29
       95                   
       96 0000001d                  .sect   ".const"
       97 0000001d          _LCD_DISP0:
       98 0000001d 00000050         .field          80,32           ; _LCD_DISP0[0] @ 0
       99 0000001e 00000068         .field          104,32          ; _LCD_DISP0[1] @ 32
      100 0000001f 00000061         .field          97,32           ; _LCD_DISP0[2] @ 64
      101 00000020 00000073         .field          115,32          ; _LCD_DISP0[3] @ 96
      102 00000021 00000065         .field          101,32          ; _LCD_DISP0[4] @ 128
      103 00000022 00000020         .field          32,32           ; _LCD_DISP0[5] @ 160
      104 00000023 00000044         .field          68,32           ; _LCD_DISP0[6] @ 192
      105 00000024 00000079         .field          121,32          ; _LCD_DISP0[7] @ 224
      106 00000025 0000006e         .field          110,32          ; _LCD_DISP0[8] @ 256
      107 00000026 00000061         .field          97,32           ; _LCD_DISP0[9] @ 288
      108 00000027 0000006d         .field          109,32          ; _LCD_DISP0[10] @ 320
TMS320C3x/4x COFF AssemblerVersion 5.12     Mon Oct 31 11:29:47 2011
Copyright (c) 1987-1999 Texas Instruments Incorporatedasm30.exe -@_528.AAB 

D:\CCS\EEA_SA_V611beta\BOOT\SOURCE\ASM\main.asm                      PAGE    3

      109 00000028 00000069         .field          105,32          ; _LCD_DISP0[11] @ 352
      110 00000029 00000063         .field          99,32           ; _LCD_DISP0[12] @ 384
      111 0000002a 00000073         .field          115,32          ; _LCD_DISP0[13] @ 416
      112 0000002b 0000002c         .field          44,32           ; _LCD_DISP0[14] @ 448
      113 0000002c 00000020         .field          32,32           ; _LCD_DISP0[15] @ 480
      114 0000002d 00000049         .field          73,32           ; _LCD_DISP0[16] @ 512
      115 0000002e 0000006e         .field          110,32          ; _LCD_DISP0[17] @ 544
      116 0000002f 00000063         .field          99,32           ; _LCD_DISP0[18] @ 576
      117 00000030 0000002e         .field          46,32           ; _LCD_DISP0[19] @ 608
      118 00000031 00000000         .field          0,32            ; _LCD_DISP0[20] @ 640
      119                   
      120 00000000                  .sect   ".text"
      121                   
      122                           .global _LCD_DISP0
      123                           .sym    _LCD_DISP0,_LCD_DISP0,50,2,672,,21
      124                   
      125 00000032                  .sect   ".const"
      126 00000032          _LCD_DISP1:
      127 00000032 00000020         .field          32,32           ; _LCD_DISP1[0] @ 0
      128 00000033 00000020         .field          32,32           ; _LCD_DISP1[1] @ 32
      129 00000034 00000020         .field          32,32           ; _LCD_DISP1[2] @ 64
      130 00000035 00000020         .field          32,32           ; _LCD_DISP1[3] @ 96
      131 00000036 00000020         .field          32,32           ; _LCD_DISP1[4] @ 128
      132 00000037 00000020         .field          32,32           ; _LCD_DISP1[5] @ 160
      133 00000038 00000020         .field          32,32           ; _LCD_DISP1[6] @ 192
      134 00000039 00000020         .field          32,32           ; _LCD_DISP1[7] @ 224
      135 0000003a 00000020         .field          32,32           ; _LCD_DISP1[8] @ 256
      136 0000003b 00000020         .field          32,32           ; _LCD_DISP1[9] @ 288
      137 0000003c 00000020         .field          32,32           ; _LCD_DISP1[10] @ 320
      138 0000003d 00000020         .field          32,32           ; _LCD_DISP1[11] @ 352
      139 0000003e 00000020         .field          32,32           ; _LCD_DISP1[12] @ 384
      140 0000003f 00000020         .field          32,32           ; _LCD_DISP1[13] @ 416
      141 00000040 00000020         .field          32,32           ; _LCD_DISP1[14] @ 448
      142 00000041 00000020         .field          32,32           ; _LCD_DISP1[15] @ 480
      143 00000042 00000020         .field          32,32           ; _LCD_DISP1[16] @ 512
      144 00000043 00000020         .field          32,32           ; _LCD_DISP1[17] @ 544
      145 00000044 00000020         .field          32,32           ; _LCD_DISP1[18] @ 576
      146 00000045 00000020         .field          32,32           ; _LCD_DISP1[19] @ 608
      147 00000046 00000000         .field          0,32            ; _LCD_DISP1[20] @ 640
      148                   
      149 00000000                  .sect   ".text"
      150                   
      151                           .global _LCD_DISP1
      152                           .sym    _LCD_DISP1,_LCD_DISP1,50,2,672,,21
      153                   
      154 00000047                  .sect   ".const"
      155 00000047          _LCD_DISP2:
      156 00000047 00000020         .field          32,32           ; _LCD_DISP2[0] @ 0
      157 00000048 00000042         .field          66,32           ; _LCD_DISP2[1] @ 32
      158 00000049 0000006f         .field          111,32          ; _LCD_DISP2[2] @ 64
      159 0000004a 0000006f         .field          111,32          ; _LCD_DISP2[3] @ 96
      160 0000004b 00000074         .field          116,32          ; _LCD_DISP2[4] @ 128
      161 0000004c 00000020         .field          32,32           ; _LCD_DISP2[5] @ 160
      162 0000004d 0000004c         .field          76,32           ; _LCD_DISP2[6] @ 192
TMS320C3x/4x COFF AssemblerVersion 5.12     Mon Oct 31 11:29:47 2011
Copyright (c) 1987-1999 Texas Instruments Incorporatedasm30.exe -@_528.AAB 

D:\CCS\EEA_SA_V611beta\BOOT\SOURCE\ASM\main.asm                      PAGE    4

      163 0000004e 0000006f         .field          111,32          ; _LCD_DISP2[7] @ 224
      164 0000004f 00000061         .field          97,32           ; _LCD_DISP2[8] @ 256
      165 00000050 00000064         .field          100,32          ; _LCD_DISP2[9] @ 288
      166 00000051 00000065         .field          101,32          ; _LCD_DISP2[10] @ 320
      167 00000052 00000072         .field          114,32          ; _LCD_DISP2[11] @ 352
      168 00000053 00000020         .field          32,32           ; _LCD_DISP2[12] @ 384
      169 00000054 00000020         .field          32,32           ; _LCD_DISP2[13] @ 416
      170 00000055 00000076         .field          118,32          ; _LCD_DISP2[14] @ 448
      171 00000056 00000031         .field          49,32           ; _LCD_DISP2[15] @ 480
      172 00000057 0000002e         .field          46,32           ; _LCD_DISP2[16] @ 512
      173 00000058 00000030         .field          48,32           ; _LCD_DISP2[17] @ 544
      174 00000059 00000039         .field          57,32           ; _LCD_DISP2[18] @ 576
      175 0000005a 00000020         .field          32,32           ; _LCD_DISP2[19] @ 608
      176 0000005b 00000000         .field          0,32            ; _LCD_DISP2[20] @ 640
      177                   
      178 00000000                  .sect   ".text"
      179                   
      180                           .global _LCD_DISP2
      181                           .sym    _LCD_DISP2,_LCD_DISP2,50,2,672,,21
      182                           .file   "main.c"
      183 00000000                  .sect    "copytoflash"
      184                   
      185                           .global _main
      186                           .sym    _main,_main,32,2,0
      187                           .func   15
      188                   ;******************************************************************************
      189                   ;* FUNCTION NAME: _main                                                       *
      190                   ;*                                                                            *
      191                   ;*   Architecture       : TMS320C33                                           *
      192                   ;*   Calling Convention : TI Standard Register Parameters                     *
      193                   ;*   Function Uses Regs : r0,r1,r2,r3,ar0,ar1,ar2,fp,ir0,ir1,st               *
      194                   ;*   Regs Saved         :                                                     *
      195                   ;*   Stack Frame        : Full (w/ debug)                                     *
      196                   ;*   Total Frame Size   : 2 Call + 0 Parm + 47 Auto + 0 SOE = 49 words        *
      197                   ;******************************************************************************
      198 00000000          _main:
      199                           .sym    _pass,1,14,1,32
      200                           .sym    _i,2,14,1,32
      201                           .sym    _j,3,14,1,32
      202                           .sym    _c,4,30,1,32
      203                           .sym    _d,5,14,1,32
      204                           .sym    _msgf,6,50,1,672,,21
      205                           .sym    _msgp,27,50,1,672,,21
      206                           .line   1
      207                   ;----------------------------------------------------------------------
      208                   ;  15 | void main(void)                                                        
      209                   ;  17 | BOOL pass;                                                             
      210                   ;  18 | unsigned int i;                                                        
      211                   ;  19 | unsigned int j;                                                        
      212                   ;  20 | unsigned int* c;                                                       
      213                   ;  21 | unsigned int d;                                                        
      214                   ;----------------------------------------------------------------------
      215 00000000 0f2b0000         push      fp
      216 00000001 500b0014         ldiu      sp,fp
TMS320C3x/4x COFF AssemblerVersion 5.12     Mon Oct 31 11:29:47 2011
Copyright (c) 1987-1999 Texas Instruments Incorporatedasm30.exe -@_528.AAB 

D:\CCS\EEA_SA_V611beta\BOOT\SOURCE\ASM\main.asm                      PAGE    5

      217 00000002 0274002f         addi      47,sp
      218                           .line   8
      219                   ;----------------------------------------------------------------------
      220                   ;  22 | char msgf[] = " Programming Failed ";                                  
      221                   ;----------------------------------------------------------------------
      222 00000003 5008000b         ldiu      fp,ar0                ; |22| 
      223 00000004 02680006         addi      6,ar0                 ; |22| 
      224 00000005 50600020         ldiu      32,r0                 ; |22| 
      225 00000006 1540c000         sti       r0,*ar0               ; |22| 
      226 00000007 5008000b         ldiu      fp,ar0                ; |22| 
      227 00000008 02680007         addi      7,ar0                 ; |22| 
      228 00000009 50600050         ldiu      80,r0                 ; |22| 
      229 0000000a 1540c000         sti       r0,*ar0               ; |22| 
      230 0000000b 5008000b         ldiu      fp,ar0                ; |22| 
      231 0000000c 02680008         addi      8,ar0                 ; |22| 
      232 0000000d 50600072         ldiu      114,r0                ; |22| 
      233 0000000e 1540c000         sti       r0,*ar0               ; |22| 
      234 0000000f 5008000b         ldiu      fp,ar0                ; |22| 
      235 00000010 02680009         addi      9,ar0                 ; |22| 
      236 00000011 5060006f         ldiu      111,r0                ; |22| 
      237 00000012 1540c000         sti       r0,*ar0               ; |22| 
      238 00000013 5008000b         ldiu      fp,ar0                ; |22| 
      239 00000014 0268000a         addi      10,ar0                ; |22| 
      240 00000015 50600067         ldiu      103,r0                ; |22| 
      241 00000016 1540c000         sti       r0,*ar0               ; |22| 
      242 00000017 5008000b         ldiu      fp,ar0                ; |22| 
      243 00000018 0268000b         addi      11,ar0                ; |22| 
      244 00000019 50600072         ldiu      114,r0                ; |22| 
      245 0000001a 1540c000         sti       r0,*ar0               ; |22| 
      246 0000001b 5008000b         ldiu      fp,ar0                ; |22| 
      247 0000001c 0268000c         addi      12,ar0                ; |22| 
      248 0000001d 50600061         ldiu      97,r0                 ; |22| 
      249 0000001e 1540c000         sti       r0,*ar0               ; |22| 
      250 0000001f 5008000b         ldiu      fp,ar0                ; |22| 
      251 00000020 0268000d         addi      13,ar0                ; |22| 
      252 00000021 5060006d         ldiu      109,r0                ; |22| 
      253 00000022 1540c000         sti       r0,*ar0               ; |22| 
      254 00000023 5008000b         ldiu      fp,ar0                ; |22| 
      255 00000024 0268000e         addi      14,ar0                ; |22| 
      256 00000025 1540c000         sti       r0,*ar0               ; |22| 
      257 00000026 5008000b         ldiu      fp,ar0                ; |22| 
      258 00000027 0268000f         addi      15,ar0                ; |22| 
      259 00000028 50600069         ldiu      105,r0                ; |22| 
      260 00000029 1540c000         sti       r0,*ar0               ; |22| 
      261 0000002a 5008000b         ldiu      fp,ar0                ; |22| 
      262 0000002b 02680010         addi      16,ar0                ; |22| 
      263 0000002c 5060006e         ldiu      110,r0                ; |22| 
      264 0000002d 1540c000         sti       r0,*ar0               ; |22| 
      265 0000002e 5008000b         ldiu      fp,ar0                ; |22| 
      266 0000002f 02680011         addi      17,ar0                ; |22| 
      267 00000030 50600067         ldiu      103,r0                ; |22| 
      268 00000031 1540c000         sti       r0,*ar0               ; |22| 
      269 00000032 5008000b         ldiu      fp,ar0                ; |22| 
      270 00000033 02680012         addi      18,ar0                ; |22| 
TMS320C3x/4x COFF AssemblerVersion 5.12     Mon Oct 31 11:29:47 2011
Copyright (c) 1987-1999 Texas Instruments Incorporatedasm30.exe -@_528.AAB 

D:\CCS\EEA_SA_V611beta\BOOT\SOURCE\ASM\main.asm                      PAGE    6

      271 00000034 50600020         ldiu      32,r0                 ; |22| 
      272 00000035 1540c000         sti       r0,*ar0               ; |22| 
      273 00000036 5008000b         ldiu      fp,ar0                ; |22| 
      274 00000037 02680013         addi      19,ar0                ; |22| 
      275 00000038 50600046         ldiu      70,r0                 ; |22| 
      276 00000039 1540c000         sti       r0,*ar0               ; |22| 
      277 0000003a 5008000b         ldiu      fp,ar0                ; |22| 
      278 0000003b 02680014         addi      20,ar0                ; |22| 
      279 0000003c 50600061         ldiu      97,r0                 ; |22| 
      280 0000003d 1540c000         sti       r0,*ar0               ; |22| 
      281 0000003e 5008000b         ldiu      fp,ar0                ; |22| 
      282 0000003f 02680015         addi      21,ar0                ; |22| 
      283 00000040 50600069         ldiu      105,r0                ; |22| 
      284 00000041 1540c000         sti       r0,*ar0               ; |22| 
      285 00000042 5008000b         ldiu      fp,ar0                ; |22| 
      286 00000043 02680016         addi      22,ar0                ; |22| 
      287 00000044 5060006c         ldiu      108,r0                ; |22| 
      288 00000045 1540c000         sti       r0,*ar0               ; |22| 
      289 00000046 5008000b         ldiu      fp,ar0                ; |22| 
      290 00000047 02680017         addi      23,ar0                ; |22| 
      291 00000048 50600065         ldiu      101,r0                ; |22| 
      292 00000049 1540c000         sti       r0,*ar0               ; |22| 
      293 0000004a 5008000b         ldiu      fp,ar0                ; |22| 
      294 0000004b 02680018         addi      24,ar0                ; |22| 
      295 0000004c 50600064         ldiu      100,r0                ; |22| 
      296 0000004d 1540c000         sti       r0,*ar0               ; |22| 
      297 0000004e 5008000b         ldiu      fp,ar0                ; |22| 
      298 0000004f 02680019         addi      25,ar0                ; |22| 
      299 00000050 50600020         ldiu      32,r0                 ; |22| 
      300 00000051 1540c000         sti       r0,*ar0               ; |22| 
      301 00000052 5008000b         ldiu      fp,ar0                ; |22| 
      302 00000053 0268001a         addi      26,ar0                ; |22| 
      303 00000054 50600000         ldiu      0,r0                  ; |22| 
      304 00000055 1540c000         sti       r0,*ar0               ; |22| 
      305                           .line   9
      306                   ;----------------------------------------------------------------------
      307                   ;  23 | char msgp[] = " Programming Passed ";                                  
      308                   ;----------------------------------------------------------------------
      309 00000056 5008000b         ldiu      fp,ar0                ; |23| 
      310 00000057 0268001b         addi      27,ar0                ; |23| 
      311 00000058 50600020         ldiu      32,r0                 ; |23| 
      312 00000059 1540c000         sti       r0,*ar0               ; |23| 
      313 0000005a 5008000b         ldiu      fp,ar0                ; |23| 
      314 0000005b 0268001c         addi      28,ar0                ; |23| 
      315 0000005c 50600050         ldiu      80,r0                 ; |23| 
      316 0000005d 1540c000         sti       r0,*ar0               ; |23| 
      317 0000005e 5008000b         ldiu      fp,ar0                ; |23| 
      318 0000005f 0268001d         addi      29,ar0                ; |23| 
      319 00000060 50600072         ldiu      114,r0                ; |23| 
      320 00000061 1540c000         sti       r0,*ar0               ; |23| 
      321 00000062 5008000b         ldiu      fp,ar0                ; |23| 
      322 00000063 0268001e         addi      30,ar0                ; |23| 
      323 00000064 5060006f         ldiu      111,r0                ; |23| 
      324 00000065 1540c000         sti       r0,*ar0               ; |23| 
TMS320C3x/4x COFF AssemblerVersion 5.12     Mon Oct 31 11:29:47 2011
Copyright (c) 1987-1999 Texas Instruments Incorporatedasm30.exe -@_528.AAB 

D:\CCS\EEA_SA_V611beta\BOOT\SOURCE\ASM\main.asm                      PAGE    7

      325 00000066 5008000b         ldiu      fp,ar0                ; |23| 
      326 00000067 0268001f         addi      31,ar0                ; |23| 
      327 00000068 50600067         ldiu      103,r0                ; |23| 
      328 00000069 1540c000         sti       r0,*ar0               ; |23| 
      329 0000006a 5008000b         ldiu      fp,ar0                ; |23| 
      330 0000006b 02680020         addi      32,ar0                ; |23| 
      331 0000006c 50600072         ldiu      114,r0                ; |23| 
      332 0000006d 1540c000         sti       r0,*ar0               ; |23| 
      333 0000006e 5008000b         ldiu      fp,ar0                ; |23| 
      334 0000006f 02680021         addi      33,ar0                ; |23| 
      335 00000070 50600061         ldiu      97,r0                 ; |23| 
      336 00000071 1540c000         sti       r0,*ar0               ; |23| 
      337 00000072 5008000b         ldiu      fp,ar0                ; |23| 
      338 00000073 02680022         addi      34,ar0                ; |23| 
      339 00000074 5060006d         ldiu      109,r0                ; |23| 
      340 00000075 1540c000         sti       r0,*ar0               ; |23| 
      341 00000076 5008000b         ldiu      fp,ar0                ; |23| 
      342 00000077 02680023         addi      35,ar0                ; |23| 
      343 00000078 1540c000         sti       r0,*ar0               ; |23| 
      344 00000079 5008000b         ldiu      fp,ar0                ; |23| 
      345 0000007a 02680024         addi      36,ar0                ; |23| 
      346 0000007b 50600069         ldiu      105,r0                ; |23| 
      347 0000007c 1540c000         sti       r0,*ar0               ; |23| 
      348 0000007d 5008000b         ldiu      fp,ar0                ; |23| 
      349 0000007e 02680025         addi      37,ar0                ; |23| 
      350 0000007f 5060006e         ldiu      110,r0                ; |23| 
      351 00000080 1540c000         sti       r0,*ar0               ; |23| 
      352 00000081 5008000b         ldiu      fp,ar0                ; |23| 
      353 00000082 02680026         addi      38,ar0                ; |23| 
      354 00000083 50600067         ldiu      103,r0                ; |23| 
      355 00000084 1540c000         sti       r0,*ar0               ; |23| 
      356 00000085 5008000b         ldiu      fp,ar0                ; |23| 
      357 00000086 02680027         addi      39,ar0                ; |23| 
      358 00000087 50600020         ldiu      32,r0                 ; |23| 
      359 00000088 1540c000         sti       r0,*ar0               ; |23| 
      360 00000089 5008000b         ldiu      fp,ar0                ; |23| 
      361 0000008a 02680028         addi      40,ar0                ; |23| 
      362 0000008b 50600050         ldiu      80,r0                 ; |23| 
      363 0000008c 1540c000         sti       r0,*ar0               ; |23| 
      364 0000008d 5008000b         ldiu      fp,ar0                ; |23| 
      365 0000008e 02680029         addi      41,ar0                ; |23| 
      366 0000008f 50600061         ldiu      97,r0                 ; |23| 
      367 00000090 1540c000         sti       r0,*ar0               ; |23| 
      368 00000091 5008000b         ldiu      fp,ar0                ; |23| 
      369 00000092 0268002a         addi      42,ar0                ; |23| 
      370 00000093 50600073         ldiu      115,r0                ; |23| 
      371 00000094 1540c000         sti       r0,*ar0               ; |23| 
      372 00000095 5008000b         ldiu      fp,ar0                ; |23| 
      373 00000096 0268002b         addi      43,ar0                ; |23| 
      374 00000097 1540c000         sti       r0,*ar0               ; |23| 
      375 00000098 5008000b         ldiu      fp,ar0                ; |23| 
      376 00000099 0268002c         addi      44,ar0                ; |23| 
      377 0000009a 50600065         ldiu      101,r0                ; |23| 
      378 0000009b 1540c000         sti       r0,*ar0               ; |23| 
TMS320C3x/4x COFF AssemblerVersion 5.12     Mon Oct 31 11:29:47 2011
Copyright (c) 1987-1999 Texas Instruments Incorporatedasm30.exe -@_528.AAB 

D:\CCS\EEA_SA_V611beta\BOOT\SOURCE\ASM\main.asm                      PAGE    8

      379 0000009c 5008000b         ldiu      fp,ar0                ; |23| 
      380 0000009d 0268002d         addi      45,ar0                ; |23| 
      381 0000009e 50600064         ldiu      100,r0                ; |23| 
      382 0000009f 1540c000         sti       r0,*ar0               ; |23| 
      383 000000a0 5008000b         ldiu      fp,ar0                ; |23| 
      384 000000a1 0268002e         addi      46,ar0                ; |23| 
      385 000000a2 50600020         ldiu      32,r0                 ; |23| 
      386 000000a3 1540c000         sti       r0,*ar0               ; |23| 
      387 000000a4 5008000b         ldiu      fp,ar0                ; |23| 
      388 000000a5 0268002f         addi      47,ar0                ; |23| 
      389 000000a6 50600000         ldiu      0,r0                  ; |23| 
      390 000000a7 1540c000         sti       r0,*ar0               ; |23| 
      391                           .line   11
      392                   ;----------------------------------------------------------------------
      393                   ;  25 | _GIE;                                                                  
      394                   ;----------------------------------------------------------------------
      395 000000a8 13fb0001         rpts    1                       
      396 000000a9 03752000         andn    2000h, ST       
      397                           .line   13
      398                   ;----------------------------------------------------------------------
      399                   ;  27 | LEDR_OFF;                                                              
      400                   ;----------------------------------------------------------------------
      401 000000aa 0f350000         push    ST                      
      402 000000ab 03752000         andn    2000h, ST       
      403 000000ac 08700000-        ldp       @CL1,DP
      404 000000ad 502821f4-        ldiu      @CL1,ar0              ; |27| 
      405 000000ae 50600080         ldiu      128,r0                ; |27| 
      406 000000af 25a0c000         or3       r0,*ar0,r0            ; |27| 
      407 000000b0 1540c000         sti       r0,*ar0               ; |27| 
      408 000000b1 0e350000         pop             ST                      
      409                           .line   14
      410                   ;----------------------------------------------------------------------
      411                   ;  28 | LEDG_OFF;                                                              
      412                   ;----------------------------------------------------------------------
      413 000000b2 0f350000         push    ST                      
      414 000000b3 03752000         andn    2000h, ST       
      415 000000b4 50600040         ldiu      64,r0                 ; |28| 
      416 000000b5 25a0c000         or3       r0,*ar0,r0            ; |28| 
      417 000000b6 1540c000         sti       r0,*ar0               ; |28| 
      418 000000b7 0e350000         pop             ST                      
      419                           .line   15
      420                   ;----------------------------------------------------------------------
      421                   ;  29 | DISABLE_BOOTINT;                                                       
      422                   ;----------------------------------------------------------------------
      423 000000b8 0f350000         push    ST                      
      424 000000b9 03752000         andn    2000h, ST       
      425 000000ba 08700000-        ldp       @CL2,DP
      426 000000bb 502821f5-        ldiu      @CL2,ar0              ; |29| 
      427 000000bc 50600010         ldiu      16,r0                 ; |29| 
      428 000000bd 25a0c000         or3       r0,*ar0,r0            ; |29| 
      429 000000be 1540c000         sti       r0,*ar0               ; |29| 
      430 000000bf 0e350000         pop             ST                      
      431                           .line   16
      432                   ;----------------------------------------------------------------------
TMS320C3x/4x COFF AssemblerVersion 5.12     Mon Oct 31 11:29:47 2011
Copyright (c) 1987-1999 Texas Instruments Incorporatedasm30.exe -@_528.AAB 

D:\CCS\EEA_SA_V611beta\BOOT\SOURCE\ASM\main.asm                      PAGE    9

      433                   ;  30 | DISABLE_HEATER;                                                        
      434                   ;----------------------------------------------------------------------
      435 000000c0 0f350000         push    ST                      
      436 000000c1 03752000         andn    2000h, ST       
      437 000000c2 08700000-        ldp       @CL1,DP
      438 000000c3 502821f4-        ldiu      @CL1,ar0              ; |30| 
      439 000000c4 50600002         ldiu      2,r0                  ; |30| 
      440 000000c5 25a0c000         or3       r0,*ar0,r0            ; |30| 
      441 000000c6 1540c000         sti       r0,*ar0               ; |30| 
      442 000000c7 0e350000         pop             ST                      
      443                           .line   18
      444                   ;----------------------------------------------------------------------
      445                   ;  32 | RELAY1_OFF;                                                            
      446                   ;----------------------------------------------------------------------
      447 000000c8 0f350000         push    ST                      
      448 000000c9 03752000         andn    2000h, ST       
      449 000000ca 08700000-        ldp       @CL3,DP
      450 000000cb 502821f6-        ldiu      @CL3,ar0              ; |32| 
      451 000000cc 506000fe         ldiu      254,r0                ; |32| 
      452 000000cd 21a0c000         and3      r0,*ar0,r0            ; |32| 
      453 000000ce 1540c000         sti       r0,*ar0               ; |32| 
      454 000000cf 0e350000         pop             ST                      
      455                           .line   19
      456                   ;----------------------------------------------------------------------
      457                   ;  33 | RELAY2_OFF;                                                            
      458                   ;----------------------------------------------------------------------
      459 000000d0 0f350000         push    ST                      
      460 000000d1 03752000         andn    2000h, ST       
      461 000000d2 506000fd         ldiu      253,r0                ; |33| 
      462 000000d3 21a0c000         and3      r0,*ar0,r0            ; |33| 
      463 000000d4 1540c000         sti       r0,*ar0               ; |33| 
      464 000000d5 0e350000         pop             ST                      
      465                           .line   21
      466                   ;----------------------------------------------------------------------
      467                   ;  35 | if (!PROGRAM_MODE)                                                     
      468                   ;----------------------------------------------------------------------
      469 000000d6 6a000000         bu        L3                    ; |35| 
      470                   ;*      Branch Occurs to L3             ; |35| 
      471                           .line   23
      472                   ;----------------------------------------------------------------------
      473                   ;  37 | main1();                                                               
      474                   ;----------------------------------------------------------------------
      475                           .line   24
      476                   ;----------------------------------------------------------------------
      477                   ;  38 | while(TRUE){}                                                          
      478                   ;----------------------------------------------------------------------
      479 000000d7          L3:        
      480                           .line   27
      481                   ;----------------------------------------------------------------------
      482                   ;  41 | *PBCR  = (PBCR_SWW_RDYandCNT | PBCR_WTCNT_5);   /* ws=5 for 90ns flash
      483                   ;     | */                                                                     
      484                   ;----------------------------------------------------------------------
      485 000000d7 08700000-        ldp       @CL5,DP
      486 000000d8 502821f8-        ldiu      @CL5,ar0              ; |41| 
TMS320C3x/4x COFF AssemblerVersion 5.12     Mon Oct 31 11:29:47 2011
Copyright (c) 1987-1999 Texas Instruments Incorporatedasm30.exe -@_528.AAB 

D:\CCS\EEA_SA_V611beta\BOOT\SOURCE\ASM\main.asm                      PAGE   10

      487 000000d9 506000b8         ldiu      184,r0                ; |41| 
      488 000000da 1540c000         sti       r0,*ar0               ; |41| 
      489                           .line   28
      490                   ;----------------------------------------------------------------------
      491                   ;  42 | NOPS;                                                                  
      492                   ;----------------------------------------------------------------------
      493 000000db 0c800000         NOP                     
      494 000000dc 0c800000         NOP                     
      495 000000dd 0c800000         NOP                     
      496                           .line   30
      497                   ;----------------------------------------------------------------------
      498                   ;  44 | DISABLE_WDOG;                                                          
      499                   ;----------------------------------------------------------------------
      500 000000de 0f350000         push    ST                      
      501 000000df 03752000         andn    2000h, ST       
      502 000000e0 08700000-        ldp       @CL6,DP
      503 000000e1 502821f9-        ldiu      @CL6,ar0              ; |44| 
      504 000000e2 506000f7         ldiu      247,r0                ; |44| 
      505 000000e3 21a0c000         and3      r0,*ar0,r0            ; |44| 
      506 000000e4 1540c000         sti       r0,*ar0               ; |44| 
      507 000000e5 0e350000         pop             ST                      
      508                           .line   32
      509                   ;----------------------------------------------------------------------
      510                   ;  46 | LCD_INIT();                                                            
      511                   ;----------------------------------------------------------------------
      512 000000e6 08700000-        ldp       @CL7,DP
      513 000000e7 502021fa-        ldiu      @CL7,r0               ; |46| 
      514 000000e8 70000000         callu     r0                    ; far call to _LCD_INIT ; |46| 
      515                                                           ; |46| Far Call Occurs
      516                           .line   34
      517                   ;----------------------------------------------------------------------
      518                   ;  48 | pass = TRUE;                                                           
      519                   ;----------------------------------------------------------------------
      520 000000e9 50600001         ldiu      1,r0                  ; |48| 
      521 000000ea 15400301         sti       r0,*+fp(1)            ; |48| 
      522                           .line   36
      523                   ;----------------------------------------------------------------------
      524                   ;  50 | for (i=0;i<FLASH_BOOT_SIZE;i++)                                        
      525                   ;----------------------------------------------------------------------
      526 000000eb 50600000         ldiu      0,r0                  ; |50| 
      527 000000ec 15400302         sti       r0,*+fp(2)            ; |50| 
      528 000000ed 04e02000         cmpi      8192,r0               ; |50| 
      529 000000ee 6a040015         bhs       L7                    ; |50| 
      530                   ;*      Branch Occurs to L7             ; |50| 
      531 000000ef          L4:        
      532                           .line   38
      533                   ;----------------------------------------------------------------------
      534                   ;  52 | boot_blk[i] = 0xFFFFFFFF;                                              
      535                   ;----------------------------------------------------------------------
      536 000000ef 08700000-        ldp       @CL8,DP
      537 000000f0 502821fb-        ldiu      @CL8,ar0              ; |52| 
      538 000000f1 08700000-        ldp       @CL9,DP
      539 000000f2 50510302         ldiu      *+fp(2),ir0           ; |52| 
      540 000000f3 502021fc-        ldiu      @CL9,r0               ; |52| 
TMS320C3x/4x COFF AssemblerVersion 5.12     Mon Oct 31 11:29:47 2011
Copyright (c) 1987-1999 Texas Instruments Incorporatedasm30.exe -@_528.AAB 

D:\CCS\EEA_SA_V611beta\BOOT\SOURCE\ASM\main.asm                      PAGE   11

      541 000000f4 15404000         sti       r0,*+ar0(ir0)         ; |52| 
      542                           .line   39
      543                   ;----------------------------------------------------------------------
      544                   ;  53 | if (boot_blk[i] != 0xFFFFFFFF) {pass = FALSE; break;}                  
      545                   ;----------------------------------------------------------------------
      546 000000f5 08700000-        ldp       @CL8,DP
      547 000000f6 502821fb-        ldiu      @CL8,ar0              ; |53| 
      548 000000f7 50510302         ldiu      *+fp(2),ir0           ; |53| 
      549 000000f8 08700000-        ldp       @CL9,DP
      550 000000f9 50404000         ldiu      *+ar0(ir0),r0         ; |53| 
      551 000000fa 04a021fc-        cmpi      @CL9,r0               ; |53| 
      552 000000fb 6a050003         beq       L6                    ; |53| 
      553                   ;*      Branch Occurs to L6             ; |53| 
      554 000000fc 50600000         ldiu      0,r0                  ; |53| 
      555 000000fd 15400301         sti       r0,*+fp(1)            ; |53| 
      556 000000fe 6a000005         bu        L7                    ; |53| 
      557                   ;*      Branch Occurs to L7             ; |53| 
      558 000000ff          L6:        
      559                           .line   36
      560 000000ff 50600001         ldiu      1,r0                  ; |50| 
      561 00000100 02400302         addi      *+fp(2),r0            ; |50| Unsigned
      562 00000101 15400302         sti       r0,*+fp(2)            ; |50| 
      563 00000102 04e02000         cmpi      8192,r0               ; |50| 
      564 00000103 6a01ffeb         blo       L4                    ; |50| 
      565                   ;*      Branch Occurs to L4             ; |50| 
      566 00000104          L7:        
      567                           .line   42
      568                   ;----------------------------------------------------------------------
      569                   ;  56 | FLASH_UNLOCK;                                                          
      570                   ;----------------------------------------------------------------------
      571 00000104 0f350000         push    ST                      
      572 00000105 03752000         andn    2000h, ST       
      573 00000106 08700000-        ldp       @CL3,DP
      574 00000107 502821f6-        ldiu      @CL3,ar0              ; |56| 
      575 00000108 50600004         ldiu      4,r0                  ; |56| 
      576 00000109 25a0c000         or3       r0,*ar0,r0            ; |56| 
      577 0000010a 1540c000         sti       r0,*ar0               ; |56| 
      578 0000010b 0e350000         pop             ST                      
      579                           .line   45
      580                   ;----------------------------------------------------------------------
      581                   ;  59 | call_to_main = (unsigned int)&main1 | 0x62000000;                      
      582                   ;----------------------------------------------------------------------
      583 0000010c 08700000-        ldp       @CL4,DP
      584 0000010d 502021f7-        ldiu      @CL4,r0               ; |59| 
      585 0000010e 08700000-        ldp       @CL10,DP
      586 0000010f 502821fd-        ldiu      @CL10,ar0             ; |59| 
      587 00000110 08700000-        ldp       @CL11,DP
      588 00000111 102021fe-        or        @CL11,r0              ; |59| 
      589 00000112 1540c000         sti       r0,*ar0               ; |59| 
      590                           .line   48
      591                   ;----------------------------------------------------------------------
      592                   ;  62 | boot_blk[0] = 0x00000020;
      593                   ;     |                                  /* memory width = 32 bits */          
      594                   ;----------------------------------------------------------------------
TMS320C3x/4x COFF AssemblerVersion 5.12     Mon Oct 31 11:29:47 2011
Copyright (c) 1987-1999 Texas Instruments Incorporatedasm30.exe -@_528.AAB 

D:\CCS\EEA_SA_V611beta\BOOT\SOURCE\ASM\main.asm                      PAGE   12

      595 00000113 08700000-        ldp       @CL8,DP
      596 00000114 502821fb-        ldiu      @CL8,ar0              ; |62| 
      597 00000115 50600020         ldiu      32,r0                 ; |62| 
      598 00000116 1540c000         sti       r0,*ar0               ; |62| 
      599                           .line   49
      600                   ;----------------------------------------------------------------------
      601                   ;  63 | if (boot_blk[0] != 0x00000020) pass = FALSE;                           
      602                   ;----------------------------------------------------------------------
      603 00000117 502821fb-        ldiu      @CL8,ar0              ; |63| 
      604 00000118 5040c000         ldiu      *ar0,r0               ; |63| 
      605 00000119 04e00020         cmpi      32,r0                 ; |63| 
      606 0000011a 6a050002         beq       L9                    ; |63| 
      607                   ;*      Branch Occurs to L9             ; |63| 
      608 0000011b 50600000         ldiu      0,r0                  ; |63| 
      609 0000011c 15400301         sti       r0,*+fp(1)            ; |63| 
      610 0000011d          L9:        
      611                           .line   50
      612                   ;----------------------------------------------------------------------
      613                   ;  64 | boot_blk[1] = (PBCR_SWW_RDYandCNT | PBCR_WTCNT_5);
      614                   ;     |          /* ws=5 for 90ns flash */                                     
      615                   ;----------------------------------------------------------------------
      616 0000011d 08700000-        ldp       @CL12,DP
      617 0000011e 502821ff-        ldiu      @CL12,ar0             ; |64| 
      618 0000011f 506000b8         ldiu      184,r0                ; |64| 
      619 00000120 1540c000         sti       r0,*ar0               ; |64| 
      620                           .line   51
      621                   ;----------------------------------------------------------------------
      622                   ;  65 | if (boot_blk[1] != (PBCR_SWW_RDYandCNT | PBCR_WTCNT_5)) pass = FALSE;  
      623                   ;----------------------------------------------------------------------
      624 00000121 502821ff-        ldiu      @CL12,ar0             ; |65| 
      625 00000122 5040c000         ldiu      *ar0,r0               ; |65| 
      626 00000123 04e000b8         cmpi      184,r0                ; |65| 
      627 00000124 6a050002         beq       L11                   ; |65| 
      628                   ;*      Branch Occurs to L11            ; |65| 
      629 00000125 50600000         ldiu      0,r0                  ; |65| 
      630 00000126 15400301         sti       r0,*+fp(1)            ; |65| 
      631 00000127          L11:        
      632                           .line   52
      633                   ;----------------------------------------------------------------------
      634                   ;  66 | boot_blk[2] = 0x00001FB0 - ((unsigned int)&c_int00 & 0x1FFF);   /* BOOT
      635                   ;     |  CODE SIZE */                                                          
      636                   ;----------------------------------------------------------------------
      637 00000127 08700000-        ldp       @CL14,DP
      638 00000128 50202201-        ldiu      @CL14,r0              ; |66| 
      639 00000129 08700000-        ldp       @CL13,DP
      640 0000012a 02e01fff         and       8191,r0               ; |66| 
      641 0000012b 50282200-        ldiu      @CL13,ar0             ; |66| 
      642 0000012c 19e01fb0         subri     8112,r0               ; |66| Unsigned
      643 0000012d 1540c000         sti       r0,*ar0               ; |66| 
      644                           .line   53
      645                   ;----------------------------------------------------------------------
      646                   ;  67 | if (boot_blk[2] != 0x00001FB0 - ((unsigned int)&c_int00 & 0x1FFF)) pass
      647                   ;     |  = FALSE;                                                              
      648                   ;----------------------------------------------------------------------
TMS320C3x/4x COFF AssemblerVersion 5.12     Mon Oct 31 11:29:47 2011
Copyright (c) 1987-1999 Texas Instruments Incorporatedasm30.exe -@_528.AAB 

D:\CCS\EEA_SA_V611beta\BOOT\SOURCE\ASM\main.asm                      PAGE   13

      649 0000012e 08700000-        ldp       @CL14,DP
      650 0000012f 50202201-        ldiu      @CL14,r0              ; |67| 
      651 00000130 08700000-        ldp       @CL13,DP
      652 00000131 50282200-        ldiu      @CL13,ar0             ; |67| 
      653 00000132 02e01fff         and       8191,r0               ; |67| 
      654 00000133 5041c000         ldiu      *ar0,r1               ; |67| 
      655 00000134 19e01fb0         subri     8112,r0               ; |67| Unsigned
      656 00000135 23800100         cmpi3     r0,r1                 ; |67| 
      657 00000136 6a050002         beq       L13                   ; |67| 
      658                   ;*      Branch Occurs to L13            ; |67| 
      659 00000137 50600000         ldiu      0,r0                  ; |67| 
      660 00000138 15400301         sti       r0,*+fp(1)            ; |67| 
      661 00000139          L13:        
      662                           .line   54
      663                   ;----------------------------------------------------------------------
      664                   ;  68 | boot_blk[3] = (unsigned int) &c_int00;
      665                   ;     |                  /* BOOT CODE DESTINATION ADDR */                      
      666                   ;----------------------------------------------------------------------
      667 00000139 08700000-        ldp       @CL15,DP
      668 0000013a 50282202-        ldiu      @CL15,ar0             ; |68| 
      669 0000013b 08700000-        ldp       @CL14,DP
      670 0000013c 50202201-        ldiu      @CL14,r0              ; |68| 
      671 0000013d 1540c000         sti       r0,*ar0               ; |68| 
      672                           .line   55
      673                   ;----------------------------------------------------------------------
      674                   ;  69 | if (boot_blk[3] != (unsigned int) &c_int00) pass = FALSE;              
      675                   ;----------------------------------------------------------------------
      676 0000013e 08700000-        ldp       @CL15,DP
      677 0000013f 50282202-        ldiu      @CL15,ar0             ; |69| 
      678 00000140 08700000-        ldp       @CL14,DP
      679 00000141 5040c000         ldiu      *ar0,r0               ; |69| 
      680 00000142 04a02201-        cmpi      @CL14,r0              ; |69| 
      681 00000143 6a050002         beq       L15                   ; |69| 
      682                   ;*      Branch Occurs to L15            ; |69| 
      683 00000144 50600000         ldiu      0,r0                  ; |69| 
      684 00000145 15400301         sti       r0,*+fp(1)            ; |69| 
      685 00000146          L15:        
      686                           .line   56
      687                   ;----------------------------------------------------------------------
      688                   ;  70 | c = (unsigned int*)c_int00;
      689                   ;     |                                  /* BOOT MIRROR IN RAM */              
      690                   ;----------------------------------------------------------------------
      691 00000146 08700000-        ldp       @CL14,DP
      692 00000147 50202201-        ldiu      @CL14,r0              ; |70| 
      693 00000148 15400304         sti       r0,*+fp(4)            ; |70| 
      694                           .line   57
      695                   ;----------------------------------------------------------------------
      696                   ;  71 | j=4;                                                                   
      697                   ;----------------------------------------------------------------------
      698 00000149 50600004         ldiu      4,r0                  ; |71| 
      699 0000014a 15400303         sti       r0,*+fp(3)            ; |71| 
      700                           .line   58
      701                   ;----------------------------------------------------------------------
      702                   ;  72 | for (i=0;i<boot_blk[2];i++)                                            
TMS320C3x/4x COFF AssemblerVersion 5.12     Mon Oct 31 11:29:47 2011
Copyright (c) 1987-1999 Texas Instruments Incorporatedasm30.exe -@_528.AAB 

D:\CCS\EEA_SA_V611beta\BOOT\SOURCE\ASM\main.asm                      PAGE   14

      703                   ;----------------------------------------------------------------------
      704 0000014b 50600000         ldiu      0,r0                  ; |72| 
      705 0000014c 15400302         sti       r0,*+fp(2)            ; |72| 
      706 0000014d 08700000-        ldp       @CL13,DP
      707 0000014e 50282200-        ldiu      @CL13,ar0             ; |72| 
      708 0000014f 23c000c0         cmpi3     *ar0,r0               ; |72| 
      709 00000150 6a04001a         bhs       L19                   ; |72| 
      710                   ;*      Branch Occurs to L19            ; |72| 
      711 00000151          L16:        
      712                           .line   60
      713                   ;----------------------------------------------------------------------
      714                   ;  74 | boot_blk[j] = c[i];                                                    
      715                   ;----------------------------------------------------------------------
      716 00000151 08700000-        ldp       @CL8,DP
      717 00000152 50520304         ldiu      *+fp(4),ir1           ; |74| 
      718 00000153 50480302         ldiu      *+fp(2),ar0           ; |74| 
      719 00000154 50510303         ldiu      *+fp(3),ir0           ; |74| 
      720 00000155 502921fb-        ldiu      @CL8,ar1              ; |74| 
      721 00000156 50408000         ldiu      *+ar0(ir1),r0         ; |74| 
      722 00000157 15404100         sti       r0,*+ar1(ir0)         ; |74| 
      723                           .line   61
      724                   ;----------------------------------------------------------------------
      725                   ;  75 | if (boot_blk[j] != c[i]) {pass = FALSE; break;}                        
      726                   ;----------------------------------------------------------------------
      727 00000158 502921fb-        ldiu      @CL8,ar1              ; |75| 
      728 00000159 50520304         ldiu      *+fp(4),ir1           ; |75| 
      729 0000015a 50480302         ldiu      *+fp(2),ar0           ; |75| 
      730 0000015b 50510303         ldiu      *+fp(3),ir0           ; |75| 
      731 0000015c 23e04180         cmpi3     *+ar0(ir1),*+ar1(ir0) ; |75| 
      732 0000015d 6a050003         beq       L18                   ; |75| 
      733                   ;*      Branch Occurs to L18            ; |75| 
      734 0000015e 50600000         ldiu      0,r0                  ; |75| 
      735 0000015f 15400301         sti       r0,*+fp(1)            ; |75| 
      736 00000160 6a00000a         bu        L19                   ; |75| 
      737                   ;*      Branch Occurs to L19            ; |75| 
      738 00000161          L18:        
      739                           .line   62
      740                   ;----------------------------------------------------------------------
      741                   ;  76 | j++;                                                                   
      742                   ;----------------------------------------------------------------------
      743 00000161 50600001         ldiu      1,r0                  ; |76| 
      744 00000162 02400303         addi      *+fp(3),r0            ; |76| Unsigned
      745 00000163 15400303         sti       r0,*+fp(3)            ; |76| 
      746                           .line   58
      747 00000164 50600001         ldiu      1,r0                  ; |72| 
      748 00000165 02400302         addi      *+fp(2),r0            ; |72| Unsigned
      749 00000166 15400302         sti       r0,*+fp(2)            ; |72| 
      750 00000167 08700000-        ldp       @CL13,DP
      751 00000168 50282200-        ldiu      @CL13,ar0             ; |72| 
      752 00000169 23c000c0         cmpi3     *ar0,r0               ; |72| 
      753 0000016a 6a01ffe6         blo       L16                   ; |72| 
      754                   ;*      Branch Occurs to L16            ; |72| 
      755 0000016b          L19:        
      756                           .line   66
TMS320C3x/4x COFF AssemblerVersion 5.12     Mon Oct 31 11:29:47 2011
Copyright (c) 1987-1999 Texas Instruments Incorporatedasm30.exe -@_528.AAB 

D:\CCS\EEA_SA_V611beta\BOOT\SOURCE\ASM\main.asm                      PAGE   15

      757                   ;----------------------------------------------------------------------
      758                   ;  80 | boot_blk[j] = 0x0000003F;
      759                   ;     |                                  /* BRANCH TABLE SIZE */               
      760                   ;----------------------------------------------------------------------
      761 0000016b 08700000-        ldp       @CL8,DP
      762 0000016c 50510303         ldiu      *+fp(3),ir0           ; |80| 
      763 0000016d 502821fb-        ldiu      @CL8,ar0              ; |80| 
      764 0000016e 5060003f         ldiu      63,r0                 ; |80| 
      765 0000016f 15404000         sti       r0,*+ar0(ir0)         ; |80| 
      766                           .line   67
      767                   ;----------------------------------------------------------------------
      768                   ;  81 | if (boot_blk[j] != 0x0000003F) pass = FALSE;                           
      769                   ;----------------------------------------------------------------------
      770 00000170 502821fb-        ldiu      @CL8,ar0              ; |81| 
      771 00000171 50510303         ldiu      *+fp(3),ir0           ; |81| 
      772 00000172 50404000         ldiu      *+ar0(ir0),r0         ; |81| 
      773 00000173 04e0003f         cmpi      63,r0                 ; |81| 
      774 00000174 6a050002         beq       L21                   ; |81| 
      775                   ;*      Branch Occurs to L21            ; |81| 
      776 00000175 50600000         ldiu      0,r0                  ; |81| 
      777 00000176 15400301         sti       r0,*+fp(1)            ; |81| 
      778 00000177          L21:        
      779                           .line   68
      780                   ;----------------------------------------------------------------------
      781                   ;  82 | j++;                                                                   
      782                   ;----------------------------------------------------------------------
      783 00000177 50600001         ldiu      1,r0                  ; |82| 
      784 00000178 02400303         addi      *+fp(3),r0            ; |82| Unsigned
      785 00000179 15400303         sti       r0,*+fp(3)            ; |82| 
      786                           .line   69
      787                   ;----------------------------------------------------------------------
      788                   ;  83 | boot_blk[j] = 0x00809FC1;
      789                   ;     |                                  /* BRANCH TABLE DESTINATION ADDR */   
      790                   ;----------------------------------------------------------------------
      791 0000017a 08700000-        ldp       @CL8,DP
      792 0000017b 502821fb-        ldiu      @CL8,ar0              ; |83| 
      793 0000017c 08700000-        ldp       @CL16,DP
      794 0000017d 50510303         ldiu      *+fp(3),ir0           ; |83| 
      795 0000017e 50202203-        ldiu      @CL16,r0              ; |83| 
      796 0000017f 15404000         sti       r0,*+ar0(ir0)         ; |83| 
      797                           .line   70
      798                   ;----------------------------------------------------------------------
      799                   ;  84 | if (boot_blk[j] != 0x00809FC1) pass = FALSE;                           
      800                   ;----------------------------------------------------------------------
      801 00000180 08700000-        ldp       @CL8,DP
      802 00000181 502821fb-        ldiu      @CL8,ar0              ; |84| 
      803 00000182 50510303         ldiu      *+fp(3),ir0           ; |84| 
      804 00000183 08700000-        ldp       @CL16,DP
      805 00000184 50404000         ldiu      *+ar0(ir0),r0         ; |84| 
      806 00000185 04a02203-        cmpi      @CL16,r0              ; |84| 
      807 00000186 6a050002         beq       L23                   ; |84| 
      808                   ;*      Branch Occurs to L23            ; |84| 
      809 00000187 50600000         ldiu      0,r0                  ; |84| 
      810 00000188 15400301         sti       r0,*+fp(1)            ; |84| 
TMS320C3x/4x COFF AssemblerVersion 5.12     Mon Oct 31 11:29:47 2011
Copyright (c) 1987-1999 Texas Instruments Incorporatedasm30.exe -@_528.AAB 

D:\CCS\EEA_SA_V611beta\BOOT\SOURCE\ASM\main.asm                      PAGE   16

      811 00000189          L23:        
      812                           .line   71
      813                   ;----------------------------------------------------------------------
      814                   ;  85 | c = (unsigned int*)0x00809FC1;
      815                   ;     |                          /* BR TABLE MIRROR IN RAM */                  
      816                   ;----------------------------------------------------------------------
      817 00000189 08700000-        ldp       @CL17,DP
      818 0000018a 50202204-        ldiu      @CL17,r0              ; |85| 
      819 0000018b 15400304         sti       r0,*+fp(4)            ; |85| 
      820                           .line   72
      821                   ;----------------------------------------------------------------------
      822                   ;  86 | j++;                                                                   
      823                   ;----------------------------------------------------------------------
      824 0000018c 50600001         ldiu      1,r0                  ; |86| 
      825 0000018d 02400303         addi      *+fp(3),r0            ; |86| Unsigned
      826 0000018e 15400303         sti       r0,*+fp(3)            ; |86| 
      827                           .line   73
      828                   ;----------------------------------------------------------------------
      829                   ;  87 | for (i=0;i<0x3F;i++)                                                   
      830                   ;----------------------------------------------------------------------
      831 0000018f 50600000         ldiu      0,r0                  ; |87| 
      832 00000190 15400302         sti       r0,*+fp(2)            ; |87| 
      833 00000191 04e0003f         cmpi      63,r0                 ; |87| 
      834 00000192 6a040018         bhs       L27                   ; |87| 
      835                   ;*      Branch Occurs to L27            ; |87| 
      836 00000193          L24:        
      837                           .line   75
      838                   ;----------------------------------------------------------------------
      839                   ;  89 | boot_blk[j] = c[i];                                                    
      840                   ;----------------------------------------------------------------------
      841 00000193 08700000-        ldp       @CL8,DP
      842 00000194 50520304         ldiu      *+fp(4),ir1           ; |89| 
      843 00000195 50490302         ldiu      *+fp(2),ar1           ; |89| 
      844 00000196 50510303         ldiu      *+fp(3),ir0           ; |89| 
      845 00000197 502821fb-        ldiu      @CL8,ar0              ; |89| 
      846 00000198 50408100         ldiu      *+ar1(ir1),r0         ; |89| 
      847 00000199 15404000         sti       r0,*+ar0(ir0)         ; |89| 
      848                           .line   76
      849                   ;----------------------------------------------------------------------
      850                   ;  90 | if (boot_blk[j] != c[i]) {pass = FALSE; break;}                        
      851                   ;----------------------------------------------------------------------
      852 0000019a 502921fb-        ldiu      @CL8,ar1              ; |90| 
      853 0000019b 50520304         ldiu      *+fp(4),ir1           ; |90| 
      854 0000019c 50480302         ldiu      *+fp(2),ar0           ; |90| 
      855 0000019d 50510303         ldiu      *+fp(3),ir0           ; |90| 
      856 0000019e 23e04180         cmpi3     *+ar0(ir1),*+ar1(ir0) ; |90| 
      857 0000019f 6a050003         beq       L26                   ; |90| 
      858                   ;*      Branch Occurs to L26            ; |90| 
      859 000001a0 50600000         ldiu      0,r0                  ; |90| 
      860 000001a1 15400301         sti       r0,*+fp(1)            ; |90| 
      861 000001a2 6a000008         bu        L27                   ; |90| 
      862                   ;*      Branch Occurs to L27            ; |90| 
      863 000001a3          L26:        
      864                           .line   77
TMS320C3x/4x COFF AssemblerVersion 5.12     Mon Oct 31 11:29:47 2011
Copyright (c) 1987-1999 Texas Instruments Incorporatedasm30.exe -@_528.AAB 

D:\CCS\EEA_SA_V611beta\BOOT\SOURCE\ASM\main.asm                      PAGE   17

      865                   ;----------------------------------------------------------------------
      866                   ;  91 | j++;                                                                   
      867                   ;----------------------------------------------------------------------
      868 000001a3 50600001         ldiu      1,r0                  ; |91| 
      869 000001a4 02400303         addi      *+fp(3),r0            ; |91| Unsigned
      870 000001a5 15400303         sti       r0,*+fp(3)            ; |91| 
      871                           .line   73
      872 000001a6 50600001         ldiu      1,r0                  ; |87| 
      873 000001a7 02400302         addi      *+fp(2),r0            ; |87| Unsigned
      874 000001a8 15400302         sti       r0,*+fp(2)            ; |87| 
      875 000001a9 04e0003f         cmpi      63,r0                 ; |87| 
      876 000001aa 6a01ffe8         blo       L24                   ; |87| 
      877                   ;*      Branch Occurs to L24            ; |87| 
      878 000001ab          L27:        
      879                           .line   81
      880                   ;----------------------------------------------------------------------
      881                   ;  95 | d = j;                                                                 
      882                   ;----------------------------------------------------------------------
      883 000001ab 50400303         ldiu      *+fp(3),r0            ; |95| 
      884 000001ac 15400305         sti       r0,*+fp(5)            ; |95| 
      885                           .line   82
      886                   ;----------------------------------------------------------------------
      887                   ;  96 | boot_blk[j] = 0x00001FB0 - boot_blk[2];                                
      888                   ;----------------------------------------------------------------------
      889 000001ad 08700000-        ldp       @CL13,DP
      890 000001ae 50282200-        ldiu      @CL13,ar0             ; |96| 
      891 000001af 50510303         ldiu      *+fp(3),ir0           ; |96| 
      892 000001b0 08700000-        ldp       @CL8,DP
      893 000001b1 5040c000         ldiu      *ar0,r0               ; |96| 
      894 000001b2 502921fb-        ldiu      @CL8,ar1              ; |96| 
      895 000001b3 19e01fb0         subri     8112,r0               ; |96| Unsigned
      896 000001b4 15404100         sti       r0,*+ar1(ir0)         ; |96| 
      897                           .line   83
      898                   ;----------------------------------------------------------------------
      899                   ;  97 | if (boot_blk[j] != 0x00001FB0 - boot_blk[2]) pass = FALSE;             
      900                   ;----------------------------------------------------------------------
      901 000001b5 08700000-        ldp       @CL13,DP
      902 000001b6 50282200-        ldiu      @CL13,ar0             ; |97| 
      903 000001b7 08700000-        ldp       @CL8,DP
      904 000001b8 502921fb-        ldiu      @CL8,ar1              ; |97| 
      905 000001b9 50510303         ldiu      *+fp(3),ir0           ; |97| 
      906                   
      907 000001ba c640c041         ldiu      *+ar1(ir0),r1         ; |97| 
      908                   ||      ldiu      *ar0,r0               ; |97| 
      909                   
      910 000001bb 19e01fb0         subri     8112,r0               ; |97| Unsigned
      911 000001bc 23800100         cmpi3     r0,r1                 ; |97| 
      912 000001bd 6a050002         beq       L29                   ; |97| 
      913                   ;*      Branch Occurs to L29            ; |97| 
      914 000001be 50600000         ldiu      0,r0                  ; |97| 
      915 000001bf 15400301         sti       r0,*+fp(1)            ; |97| 
      916 000001c0          L29:        
      917                           .line   84
      918                   ;----------------------------------------------------------------------
TMS320C3x/4x COFF AssemblerVersion 5.12     Mon Oct 31 11:29:47 2011
Copyright (c) 1987-1999 Texas Instruments Incorporatedasm30.exe -@_528.AAB 

D:\CCS\EEA_SA_V611beta\BOOT\SOURCE\ASM\main.asm                      PAGE   18

      919                   ;  98 | j++;                                                                   
      920                   ;----------------------------------------------------------------------
      921 000001c0 50600001         ldiu      1,r0                  ; |98| 
      922 000001c1 02400303         addi      *+fp(3),r0            ; |98| Unsigned
      923 000001c2 15400303         sti       r0,*+fp(3)            ; |98| 
      924                           .line   85
      925                   ;----------------------------------------------------------------------
      926                   ;  99 | boot_blk[j] = 0x00800000;                                              
      927                   ;----------------------------------------------------------------------
      928 000001c3 08700000-        ldp       @CL8,DP
      929 000001c4 502821fb-        ldiu      @CL8,ar0              ; |99| 
      930 000001c5 08700000-        ldp       @CL18,DP
      931 000001c6 50510303         ldiu      *+fp(3),ir0           ; |99| 
      932 000001c7 50202205-        ldiu      @CL18,r0              ; |99| 
      933 000001c8 15404000         sti       r0,*+ar0(ir0)         ; |99| 
      934                           .line   86
      935                   ;----------------------------------------------------------------------
      936                   ; 100 | if (boot_blk[j] != 0x00800000) pass = FALSE;                           
      937                   ;----------------------------------------------------------------------
      938 000001c9 08700000-        ldp       @CL8,DP
      939 000001ca 502821fb-        ldiu      @CL8,ar0              ; |100| 
      940 000001cb 50510303         ldiu      *+fp(3),ir0           ; |100| 
      941 000001cc 08700000-        ldp       @CL18,DP
      942 000001cd 50404000         ldiu      *+ar0(ir0),r0         ; |100| 
      943 000001ce 04a02205-        cmpi      @CL18,r0              ; |100| 
      944 000001cf 6a050002         beq       L31                   ; |100| 
      945                   ;*      Branch Occurs to L31            ; |100| 
      946 000001d0 50600000         ldiu      0,r0                  ; |100| 
      947 000001d1 15400301         sti       r0,*+fp(1)            ; |100| 
      948 000001d2          L31:        
      949                           .line   87
      950                   ;----------------------------------------------------------------------
      951                   ; 101 | c = (unsigned int*)0x00800000;                                         
      952                   ;----------------------------------------------------------------------
      953 000001d2 08700000-        ldp       @CL19,DP
      954 000001d3 50202206-        ldiu      @CL19,r0              ; |101| 
      955 000001d4 15400304         sti       r0,*+fp(4)            ; |101| 
      956                           .line   88
      957                   ;----------------------------------------------------------------------
      958                   ; 102 | j++;                                                                   
      959                   ;----------------------------------------------------------------------
      960 000001d5 50600001         ldiu      1,r0                  ; |102| 
      961 000001d6 02400303         addi      *+fp(3),r0            ; |102| Unsigned
      962 000001d7 15400303         sti       r0,*+fp(3)            ; |102| 
      963                           .line   89
      964                   ;----------------------------------------------------------------------
      965                   ; 103 | for (i=0;i<boot_blk[d];i++)                                            
      966                   ;----------------------------------------------------------------------
      967 000001d8 50600000         ldiu      0,r0                  ; |103| 
      968 000001d9 15400302         sti       r0,*+fp(2)            ; |103| 
      969 000001da 08700000-        ldp       @CL8,DP
      970 000001db 50510305         ldiu      *+fp(5),ir0           ; |103| 
      971 000001dc 502821fb-        ldiu      @CL8,ar0              ; |103| 
      972 000001dd 23c00040         cmpi3     *+ar0(ir0),r0         ; |103| 
TMS320C3x/4x COFF AssemblerVersion 5.12     Mon Oct 31 11:29:47 2011
Copyright (c) 1987-1999 Texas Instruments Incorporatedasm30.exe -@_528.AAB 

D:\CCS\EEA_SA_V611beta\BOOT\SOURCE\ASM\main.asm                      PAGE   19

      973 000001de 6a04001b         bhs       L35                   ; |103| 
      974                   ;*      Branch Occurs to L35            ; |103| 
      975 000001df          L32:        
      976                           .line   91
      977                   ;----------------------------------------------------------------------
      978                   ; 105 | boot_blk[j] = c[i];                                                    
      979                   ;----------------------------------------------------------------------
      980 000001df 08700000-        ldp       @CL8,DP
      981 000001e0 50510304         ldiu      *+fp(4),ir0           ; |105| 
      982 000001e1 50480302         ldiu      *+fp(2),ar0           ; |105| 
      983 000001e2 50520303         ldiu      *+fp(3),ir1           ; |105| 
      984 000001e3 502921fb-        ldiu      @CL8,ar1              ; |105| 
      985 000001e4 50404000         ldiu      *+ar0(ir0),r0         ; |105| 
      986 000001e5 15408100         sti       r0,*+ar1(ir1)         ; |105| 
      987                           .line   92
      988                   ;----------------------------------------------------------------------
      989                   ; 106 | if (boot_blk[j] != c[i]) {pass = FALSE; break;}                        
      990                   ;----------------------------------------------------------------------
      991 000001e6 502821fb-        ldiu      @CL8,ar0              ; |106| 
      992 000001e7 50510303         ldiu      *+fp(3),ir0           ; |106| 
      993 000001e8 50520304         ldiu      *+fp(4),ir1           ; |106| 
      994 000001e9 50490302         ldiu      *+fp(2),ar1           ; |106| 
      995 000001ea 23e04081         cmpi3     *+ar1(ir1),*+ar0(ir0) ; |106| 
      996 000001eb 6a050003         beq       L34                   ; |106| 
      997                   ;*      Branch Occurs to L34            ; |106| 
      998 000001ec 50600000         ldiu      0,r0                  ; |106| 
      999 000001ed 15400301         sti       r0,*+fp(1)            ; |106| 
     1000 000001ee 6a00000b         bu        L35                   ; |106| 
     1001                   ;*      Branch Occurs to L35            ; |106| 
     1002 000001ef          L34:        
     1003                           .line   93
     1004                   ;----------------------------------------------------------------------
     1005                   ; 107 | j++;                                                                   
     1006                   ;----------------------------------------------------------------------
     1007 000001ef 50600001         ldiu      1,r0                  ; |107| 
     1008 000001f0 02400303         addi      *+fp(3),r0            ; |107| Unsigned
     1009 000001f1 15400303         sti       r0,*+fp(3)            ; |107| 
     1010                           .line   89
     1011 000001f2 50600001         ldiu      1,r0                  ; |103| 
     1012 000001f3 02400302         addi      *+fp(2),r0            ; |103| Unsigned
     1013 000001f4 15400302         sti       r0,*+fp(2)            ; |103| 
     1014 000001f5 08700000-        ldp       @CL8,DP
     1015 000001f6 50510305         ldiu      *+fp(5),ir0           ; |103| 
     1016 000001f7 502821fb-        ldiu      @CL8,ar0              ; |103| 
     1017 000001f8 23c00040         cmpi3     *+ar0(ir0),r0         ; |103| 
     1018 000001f9 6a01ffe5         blo       L32                   ; |103| 
     1019                   ;*      Branch Occurs to L32            ; |103| 
     1020 000001fa          L35:        
     1021                           .line   96
     1022                   ;----------------------------------------------------------------------
     1023                   ; 110 | if (pass)                                                              
     1024                   ;----------------------------------------------------------------------
     1025 000001fa 50400301         ldiu      *+fp(1),r0            ; |110| 
     1026 000001fb 04e00000         cmpi      0,r0                  ; |110| 
TMS320C3x/4x COFF AssemblerVersion 5.12     Mon Oct 31 11:29:47 2011
Copyright (c) 1987-1999 Texas Instruments Incorporatedasm30.exe -@_528.AAB 

D:\CCS\EEA_SA_V611beta\BOOT\SOURCE\ASM\main.asm                      PAGE   20

     1027 000001fc 6a05003a         beq       L38                   ; |110| 
     1028                   ;*      Branch Occurs to L38            ; |110| 
     1029                           .line   98
     1030                   ;----------------------------------------------------------------------
     1031                   ; 112 | i = FLASH_ERASE_BLK((unsigned int*) FLASH_LOC);                        
     1032                   ;----------------------------------------------------------------------
     1033 000001fd 08700000-        ldp       @CL20,DP
     1034 000001fe 502a2207-        ldiu      @CL20,ar2             ; |112| 
     1035 000001ff 08700000-        ldp       @CL21,DP
     1036 00000200 50202208-        ldiu      @CL21,r0              ; |112| 
     1037 00000201 70000000         callu     r0                    ; far call to _FLASH_ERASE_BLK  ; |112| 
     1038                                                           ; |112| Far Call Occurs
     1039 00000202 15400302         sti       r0,*+fp(2)            ; |112| 
     1040                           .line   99
     1041                   ;----------------------------------------------------------------------
     1042                   ; 113 | i |= FLASH_WRITE_BLK((unsigned int*) FLASH_LOC, boot_blk, FLASH_CFGB_SI
     1043                   ;     | ZE);                                                                   
     1044                   ;----------------------------------------------------------------------
     1045 00000203 08700000-        ldp       @CL22,DP
     1046 00000204 50202209-        ldiu      @CL22,r0              ; |113| 
     1047 00000205 08700000-        ldp       @CL20,DP
     1048 00000206 502a2207-        ldiu      @CL20,ar2             ; |113| 
     1049 00000207 08700000-        ldp       @CL8,DP
     1050 00000208 50631000         ldiu      4096,r3               ; |113| 
     1051 00000209 502221fb-        ldiu      @CL8,r2               ; |113| 
     1052 0000020a 70000000         callu     r0                    ; far call to _FLASH_WRITE_BLK  ; |113| 
     1053                                                           ; |113| Far Call Occurs
     1054 0000020b 10400302         or        *+fp(2),r0            ; |113| 
     1055 0000020c 15400302         sti       r0,*+fp(2)            ; |113| 
     1056                           .line   100
     1057                   ;----------------------------------------------------------------------
     1058                   ; 114 | i |= FLASH_ERASE_BLK((unsigned int*) FLASH_LOC+FLASH_CFGB_SIZE);       
     1059                   ;----------------------------------------------------------------------
     1060 0000020d 08700000-        ldp       @CL23,DP
     1061 0000020e 502a220a-        ldiu      @CL23,ar2             ; |114| 
     1062 0000020f 08700000-        ldp       @CL21,DP
     1063 00000210 50202208-        ldiu      @CL21,r0              ; |114| 
     1064 00000211 70000000         callu     r0                    ; far call to _FLASH_ERASE_BLK  ; |114| 
     1065                                                           ; |114| Far Call Occurs
     1066 00000212 10400302         or        *+fp(2),r0            ; |114| 
     1067 00000213 15400302         sti       r0,*+fp(2)            ; |114| 
     1068                           .line   101
     1069                   ;----------------------------------------------------------------------
     1070                   ; 115 | i |= FLASH_WRITE_BLK((unsigned int*) FLASH_LOC+FLASH_CFGB_SIZE, boot_bl
     1071                   ;     | k+FLASH_CFGB_SIZE, FLASH_CFGB_SIZE);                                   
     1072                   ;----------------------------------------------------------------------
     1073 00000214 08700000-        ldp       @CL24,DP
     1074 00000215 5022220b-        ldiu      @CL24,r2              ; |115| 
     1075 00000216 08700000-        ldp       @CL22,DP
     1076 00000217 50202209-        ldiu      @CL22,r0              ; |115| 
     1077 00000218 08700000-        ldp       @CL23,DP
     1078 00000219 502a220a-        ldiu      @CL23,ar2             ; |115| 
     1079 0000021a 50631000         ldiu      4096,r3               ; |115| 
     1080 0000021b 70000000         callu     r0                    ; far call to _FLASH_WRITE_BLK  ; |115| 
TMS320C3x/4x COFF AssemblerVersion 5.12     Mon Oct 31 11:29:47 2011
Copyright (c) 1987-1999 Texas Instruments Incorporatedasm30.exe -@_528.AAB 

D:\CCS\EEA_SA_V611beta\BOOT\SOURCE\ASM\main.asm                      PAGE   21

     1081                                                           ; |115| Far Call Occurs
     1082 0000021c 10400302         or        *+fp(2),r0            ; |115| 
     1083 0000021d 15400302         sti       r0,*+fp(2)            ; |115| 
     1084                           .line   103
     1085                   ;----------------------------------------------------------------------
     1086                   ; 117 | FLASH_LOCK_BLK((unsigned int*) FLASH_LOC, 2);
     1087                   ;     |          /* lockdown */                                                
     1088                   ;----------------------------------------------------------------------
     1089 0000021e 08700000-        ldp       @CL20,DP
     1090 0000021f 502a2207-        ldiu      @CL20,ar2             ; |117| 
     1091 00000220 08700000-        ldp       @CL25,DP
     1092 00000221 5020220c-        ldiu      @CL25,r0              ; |117| 
     1093 00000222 50620002         ldiu      2,r2                  ; |117| 
     1094 00000223 70000000         callu     r0                    ; far call to _FLASH_LOCK_BLK   ; |117| 
     1095                                                           ; |117| Far Call Occurs
     1096                           .line   104
     1097                   ;----------------------------------------------------------------------
     1098                   ; 118 | FLASH_LOCK_BLK((unsigned int*) FLASH_LOC+FLASH_CFGB_SIZE, 2);   /* lock
     1099                   ;     | down */                                                                
     1100                   ;----------------------------------------------------------------------
     1101 00000224 08700000-        ldp       @CL23,DP
     1102 00000225 502a220a-        ldiu      @CL23,ar2             ; |118| 
     1103 00000226 08700000-        ldp       @CL25,DP
     1104 00000227 50620002         ldiu      2,r2                  ; |118| 
     1105 00000228 5020220c-        ldiu      @CL25,r0              ; |118| 
     1106 00000229 70000000         callu     r0                    ; far call to _FLASH_LOCK_BLK   ; |118| 
     1107                                                           ; |118| Far Call Occurs
     1108                           .line   106
     1109                   ;----------------------------------------------------------------------
     1110                   ; 120 | FLASH_LOCK;                                                            
     1111                   ;----------------------------------------------------------------------
     1112 0000022a 0f350000         push    ST                      
     1113 0000022b 03752000         andn    2000h, ST       
     1114 0000022c 08700000-        ldp       @CL3,DP
     1115 0000022d 502821f6-        ldiu      @CL3,ar0              ; |120| 
     1116 0000022e 506000fb         ldiu      251,r0                ; |120| 
     1117 0000022f 21a0c000         and3      r0,*ar0,r0            ; |120| 
     1118 00000230 1540c000         sti       r0,*ar0               ; |120| 
     1119 00000231 0e350000         pop             ST                      
     1120                           .line   108
     1121                   ;----------------------------------------------------------------------
     1122                   ; 122 | if (i) pass = FALSE;                                                   
     1123                   ;----------------------------------------------------------------------
     1124 00000232 50400302         ldiu      *+fp(2),r0            ; |122| 
     1125 00000233 04e00000         cmpi      0,r0                  ; |122| 
     1126 00000234 6a050002         beq       L38                   ; |122| 
     1127                   ;*      Branch Occurs to L38            ; |122| 
     1128 00000235 50600000         ldiu      0,r0                  ; |122| 
     1129 00000236 15400301         sti       r0,*+fp(1)            ; |122| 
     1130 00000237          L38:        
     1131                           .line   111
     1132                   ;----------------------------------------------------------------------
     1133                   ; 125 | DISABLE_WDOG;                                                          
     1134                   ;----------------------------------------------------------------------
TMS320C3x/4x COFF AssemblerVersion 5.12     Mon Oct 31 11:29:47 2011
Copyright (c) 1987-1999 Texas Instruments Incorporatedasm30.exe -@_528.AAB 

D:\CCS\EEA_SA_V611beta\BOOT\SOURCE\ASM\main.asm                      PAGE   22

     1135 00000237 0f350000         push    ST                      
     1136 00000238 03752000         andn    2000h, ST       
     1137 00000239 08700000-        ldp       @CL6,DP
     1138 0000023a 502821f9-        ldiu      @CL6,ar0              ; |125| 
     1139 0000023b 506000f7         ldiu      247,r0                ; |125| 
     1140 0000023c 21a0c000         and3      r0,*ar0,r0            ; |125| 
     1141 0000023d 1540c000         sti       r0,*ar0               ; |125| 
     1142 0000023e 0e350000         pop             ST                      
     1143                           .line   113
     1144                   ;----------------------------------------------------------------------
     1145                   ; 127 | ENABLE_BOOTINT;                                                        
     1146                   ;----------------------------------------------------------------------
     1147 0000023f 0f350000         push    ST                      
     1148 00000240 03752000         andn    2000h, ST       
     1149 00000241 08700000-        ldp       @CL2,DP
     1150 00000242 502821f5-        ldiu      @CL2,ar0              ; |127| 
     1151 00000243 506000ef         ldiu      239,r0                ; |127| 
     1152 00000244 21a0c000         and3      r0,*ar0,r0            ; |127| 
     1153 00000245 1540c000         sti       r0,*ar0               ; |127| 
     1154 00000246 0e350000         pop             ST                      
     1155                           .line   114
     1156                   ;----------------------------------------------------------------------
     1157                   ; 128 | CLEAR_INT_MASK;                                                        
     1158                   ;----------------------------------------------------------------------
     1159 00000247 08760000         ldi             0h, IE
     1160                           .line   115
     1161                   ;----------------------------------------------------------------------
     1162                   ; 129 | CLEAR_INT_PEND;                                                        
     1163                   ;----------------------------------------------------------------------
     1164 00000248 08770000         ldi             0h, IF
     1165                           .line   117
     1166                   ;----------------------------------------------------------------------
     1167                   ; 131 | if (!pass)                                                             
     1168                   ;----------------------------------------------------------------------
     1169 00000249 50400301         ldiu      *+fp(1),r0            ; |131| 
     1170 0000024a 04e00000         cmpi      0,r0                  ; |131| 
     1171 0000024b 6a06002e         bne       L42                   ; |131| 
     1172                   ;*      Branch Occurs to L42            ; |131| 
     1173                           .line   119
     1174                   ;----------------------------------------------------------------------
     1175                   ; 133 | LEDR_ON;                                                               
     1176                   ;----------------------------------------------------------------------
     1177 0000024c 0f350000         push    ST                      
     1178 0000024d 03752000         andn    2000h, ST       
     1179 0000024e 08700000-        ldp       @CL1,DP
     1180 0000024f 502821f4-        ldiu      @CL1,ar0              ; |133| 
     1181 00000250 5060007f         ldiu      127,r0                ; |133| 
     1182 00000251 21a0c000         and3      r0,*ar0,r0            ; |133| 
     1183 00000252 1540c000         sti       r0,*ar0               ; |133| 
     1184 00000253 0e350000         pop             ST                      
     1185                           .line   120
     1186                   ;----------------------------------------------------------------------
     1187                   ; 134 | LEDG_OFF;                                                              
     1188                   ;----------------------------------------------------------------------
TMS320C3x/4x COFF AssemblerVersion 5.12     Mon Oct 31 11:29:47 2011
Copyright (c) 1987-1999 Texas Instruments Incorporatedasm30.exe -@_528.AAB 

D:\CCS\EEA_SA_V611beta\BOOT\SOURCE\ASM\main.asm                      PAGE   23

     1189 00000254 0f350000         push    ST                      
     1190 00000255 03752000         andn    2000h, ST       
     1191 00000256 50600040         ldiu      64,r0                 ; |134| 
     1192 00000257 25a0c000         or3       r0,*ar0,r0            ; |134| 
     1193 00000258 1540c000         sti       r0,*ar0               ; |134| 
     1194 00000259 0e350000         pop             ST                      
     1195                           .line   121
     1196                   ;----------------------------------------------------------------------
     1197                   ; 135 | RELAY1_ON;                                                             
     1198                   ;----------------------------------------------------------------------
     1199 0000025a 0f350000         push    ST                      
     1200 0000025b 03752000         andn    2000h, ST       
     1201 0000025c 08700000-        ldp       @CL3,DP
     1202 0000025d 502821f6-        ldiu      @CL3,ar0              ; |135| 
     1203 0000025e 50600001         ldiu      1,r0                  ; |135| 
     1204 0000025f 25a0c000         or3       r0,*ar0,r0            ; |135| 
     1205 00000260 1540c000         sti       r0,*ar0               ; |135| 
     1206 00000261 0e350000         pop             ST                      
     1207                           .line   122
     1208                   ;----------------------------------------------------------------------
     1209                   ; 136 | RELAY2_OFF;                                                            
     1210                   ;----------------------------------------------------------------------
     1211 00000262 0f350000         push    ST                      
     1212 00000263 03752000         andn    2000h, ST       
     1213 00000264 506000fd         ldiu      253,r0                ; |136| 
     1214 00000265 21a0c000         and3      r0,*ar0,r0            ; |136| 
     1215 00000266 1540c000         sti       r0,*ar0               ; |136| 
     1216 00000267 0e350000         pop             ST                      
     1217                           .line   123
     1218                   ;----------------------------------------------------------------------
     1219                   ; 137 | for (i=0;i<20;i++) LCD_DISP3[i] = msgf[i];                             
     1220                   ; 139 | else                                                                   
     1221                   ;----------------------------------------------------------------------
     1222 00000268 50600000         ldiu      0,r0                  ; |137| 
     1223 00000269 15400302         sti       r0,*+fp(2)            ; |137| 
     1224 0000026a 04e00014         cmpi      20,r0                 ; |137| 
     1225 0000026b 6a04003b         bhs       L44                   ; |137| 
     1226                   ;*      Branch Occurs to L44            ; |137| 
     1227 0000026c          L40:        
     1228 0000026c 5008000b         ldiu      fp,ar0                ; |137| 
     1229 0000026d 50510302         ldiu      *+fp(2),ir0           ; |137| 
     1230 0000026e 08700000-        ldp       @CL26,DP
     1231 0000026f 02680006         addi      6,ar0                 ; |137| 
     1232 00000270 50120011         ldiu      ir0,ir1               ; |137| 
     1233 00000271 5029220d-        ldiu      @CL26,ar1             ; |137| 
     1234 00000272 50404000         ldiu      *+ar0(ir0),r0         ; |137| 
     1235 00000273 15408100         sti       r0,*+ar1(ir1)         ; |137| 
     1236 00000274 50600001         ldiu      1,r0                  ; |137| 
     1237 00000275 02400302         addi      *+fp(2),r0            ; |137| Unsigned
     1238 00000276 15400302         sti       r0,*+fp(2)            ; |137| 
     1239 00000277 04e00014         cmpi      20,r0                 ; |137| 
     1240 00000278 6a01fff3         blo       L40                   ; |137| 
     1241                   ;*      Branch Occurs to L40            ; |137| 
     1242 00000279 6a00002d         bu        L44                   ; |14| 
TMS320C3x/4x COFF AssemblerVersion 5.12     Mon Oct 31 11:29:47 2011
Copyright (c) 1987-1999 Texas Instruments Incorporatedasm30.exe -@_528.AAB 

D:\CCS\EEA_SA_V611beta\BOOT\SOURCE\ASM\main.asm                      PAGE   24

     1243                   ;*      Branch Occurs to L44            ; |14| 
     1244 0000027a          L42:        
     1245                           .line   127
     1246                   ;----------------------------------------------------------------------
     1247                   ; 141 | LEDR_OFF;                                                              
     1248                   ;----------------------------------------------------------------------
     1249 0000027a 0f350000         push    ST                      
     1250 0000027b 03752000         andn    2000h, ST       
     1251 0000027c 08700000-        ldp       @CL1,DP
     1252 0000027d 502821f4-        ldiu      @CL1,ar0              ; |141| 
     1253 0000027e 50600080         ldiu      128,r0                ; |141| 
     1254 0000027f 25a0c000         or3       r0,*ar0,r0            ; |141| 
     1255 00000280 1540c000         sti       r0,*ar0               ; |141| 
     1256 00000281 0e350000         pop             ST                      
     1257                           .line   128
     1258                   ;----------------------------------------------------------------------
     1259                   ; 142 | LEDG_ON;                                                               
     1260                   ;----------------------------------------------------------------------
     1261 00000282 0f350000         push    ST                      
     1262 00000283 03752000         andn    2000h, ST       
     1263 00000284 506000bf         ldiu      191,r0                ; |142| 
     1264 00000285 21a0c000         and3      r0,*ar0,r0            ; |142| 
     1265 00000286 1540c000         sti       r0,*ar0               ; |142| 
     1266 00000287 0e350000         pop             ST                      
     1267                           .line   129
     1268                   ;----------------------------------------------------------------------
     1269                   ; 143 | RELAY1_ON;                                                             
     1270                   ;----------------------------------------------------------------------
     1271 00000288 0f350000         push    ST                      
     1272 00000289 03752000         andn    2000h, ST       
     1273 0000028a 08700000-        ldp       @CL3,DP
     1274 0000028b 502821f6-        ldiu      @CL3,ar0              ; |143| 
     1275 0000028c 50600001         ldiu      1,r0                  ; |143| 
     1276 0000028d 25a0c000         or3       r0,*ar0,r0            ; |143| 
     1277 0000028e 1540c000         sti       r0,*ar0               ; |143| 
     1278 0000028f 0e350000         pop             ST                      
     1279                           .line   130
     1280                   ;----------------------------------------------------------------------
     1281                   ; 144 | RELAY2_ON;                                                             
     1282                   ;----------------------------------------------------------------------
     1283 00000290 0f350000         push    ST                      
     1284 00000291 03752000         andn    2000h, ST       
     1285 00000292 50600002         ldiu      2,r0                  ; |144| 
     1286 00000293 25a0c000         or3       r0,*ar0,r0            ; |144| 
     1287 00000294 1540c000         sti       r0,*ar0               ; |144| 
     1288 00000295 0e350000         pop             ST                      
     1289                           .line   131
     1290                   ;----------------------------------------------------------------------
     1291                   ; 145 | for (i=0;i<20;i++) LCD_DISP3[i] = msgp[i];                             
     1292                   ;----------------------------------------------------------------------
     1293 00000296 50600000         ldiu      0,r0                  ; |145| 
     1294 00000297 15400302         sti       r0,*+fp(2)            ; |145| 
     1295 00000298 04e00014         cmpi      20,r0                 ; |145| 
     1296 00000299 6a04000d         bhs       L44                   ; |145| 
TMS320C3x/4x COFF AssemblerVersion 5.12     Mon Oct 31 11:29:47 2011
Copyright (c) 1987-1999 Texas Instruments Incorporatedasm30.exe -@_528.AAB 

D:\CCS\EEA_SA_V611beta\BOOT\SOURCE\ASM\main.asm                      PAGE   25

     1297                   ;*      Branch Occurs to L44            ; |145| 
     1298 0000029a          L43:        
     1299 0000029a 5008000b         ldiu      fp,ar0                ; |145| 
     1300 0000029b 50510302         ldiu      *+fp(2),ir0           ; |145| 
     1301 0000029c 08700000-        ldp       @CL26,DP
     1302 0000029d 0268001b         addi      27,ar0                ; |145| 
     1303 0000029e 50120011         ldiu      ir0,ir1               ; |145| 
     1304 0000029f 5029220d-        ldiu      @CL26,ar1             ; |145| 
     1305 000002a0 50404000         ldiu      *+ar0(ir0),r0         ; |145| 
     1306 000002a1 15408100         sti       r0,*+ar1(ir1)         ; |145| 
     1307 000002a2 50600001         ldiu      1,r0                  ; |145| 
     1308 000002a3 02400302         addi      *+fp(2),r0            ; |145| Unsigned
     1309 000002a4 15400302         sti       r0,*+fp(2)            ; |145| 
     1310 000002a5 04e00014         cmpi      20,r0                 ; |145| 
     1311 000002a6 6a01fff3         blo       L43                   ; |145| 
     1312                   ;*      Branch Occurs to L43            ; |145| 
     1313 000002a7          L44:        
     1314                           .line   134
     1315                   ;----------------------------------------------------------------------
     1316                   ; 148 | LCD_STR((char*)&LCD_DISP3,3);                                          
     1317                   ;----------------------------------------------------------------------
     1318 000002a7 08700000-        ldp       @CL27,DP
     1319 000002a8 5020220e-        ldiu      @CL27,r0              ; |148| 
     1320 000002a9 08700000-        ldp       @CL26,DP
     1321 000002aa 50620003         ldiu      3,r2                  ; |148| 
     1322 000002ab 502a220d-        ldiu      @CL26,ar2             ; |148| 
     1323 000002ac 70000000         callu     r0                    ; far call to _LCD_STR  ; |148| 
     1324                                                           ; |148| Far Call Occurs
     1325                           .line   136
     1326                   ;----------------------------------------------------------------------
     1327                   ; 150 | for (i=0;i<9999999;i++){}                                              
     1328                   ;----------------------------------------------------------------------
     1329 000002ad 50600000         ldiu      0,r0                  ; |150| 
     1330 000002ae 15400302         sti       r0,*+fp(2)            ; |150| 
     1331 000002af 08700000-        ldp       @CL28,DP
     1332 000002b0 04a0220f-        cmpi      @CL28,r0              ; |150| 
     1333 000002b1 6a040006         bhs       L46                   ; |150| 
     1334                   ;*      Branch Occurs to L46            ; |150| 
     1335 000002b2          L45:        
     1336 000002b2 50600001         ldiu      1,r0                  ; |150| 
     1337 000002b3 02400302         addi      *+fp(2),r0            ; |150| Unsigned
     1338 000002b4 15400302         sti       r0,*+fp(2)            ; |150| 
     1339 000002b5 08700000-        ldp       @CL28,DP
     1340 000002b6 04a0220f-        cmpi      @CL28,r0              ; |150| 
     1341 000002b7 6a01fffa         blo       L45                   ; |150| 
     1342                   ;*      Branch Occurs to L45            ; |150| 
     1343 000002b8          L46:        
     1344                           .line   137
     1345                                                           ; Begin Epilog Code
     1346 000002b8 50410b01         ldiu      *-fp(1),r1
     1347 000002b9 504bc300         ldiu      *fp,fp
     1348                                                           ; Unallocate the Frame
     1349 000002ba 18740031         subi      49,sp
     1350 000002bb 68000001         bu        r1
TMS320C3x/4x COFF AssemblerVersion 5.12     Mon Oct 31 11:29:47 2011
Copyright (c) 1987-1999 Texas Instruments Incorporatedasm30.exe -@_528.AAB 

D:\CCS\EEA_SA_V611beta\BOOT\SOURCE\ASM\main.asm                      PAGE   26

     1351                   ;*      Branch Occurs to r1 
     1352                           .endfunc        151,000000000h,47
     1353                   
     1354                   
     1355 00000000                  .sect    ".text"
     1356                   
     1357                           .global _main1
     1358                           .sym    _main1,_main1,32,2,0
     1359                           .func   153
     1360                   ;******************************************************************************
     1361                   ;* FUNCTION NAME: _main1                                                      *
     1362                   ;*                                                                            *
     1363                   ;*   Architecture       : TMS320C33                                           *
     1364                   ;*   Calling Convention : TI Standard Register Parameters                     *
     1365                   ;*   Function Uses Regs : f0,r0,f2,r2,ar0,ar1,ar2,ir0,ir1,st                  *
     1366                   ;*   Regs Saved         :                                                     *
     1367                   ;*   Stack Frame        : Full (w/ debug)                                     *
     1368                   ;*   Total Frame Size   : 2 Call + 0 Parm + 4 Auto + 0 SOE = 6 words          *
     1369                   ;******************************************************************************
     1370 00000000          _main1:
     1371                           .sym    _i,1,14,1,32
     1372                           .sym    _j,2,14,1,32
     1373                           .sym    _s,3,30,1,32
     1374                           .sym    _d,4,30,1,32
     1375                           .line   1
     1376                   ;----------------------------------------------------------------------
     1377                   ; 153 | void main1(void)                                                       
     1378                   ; 155 | unsigned int i, j;                                                     
     1379                   ; 156 | unsigned int* s;                                                       
     1380                   ; 157 | unsigned int* d;                                                       
     1381                   ;----------------------------------------------------------------------
     1382 00000000 0f2b0000         push      fp
     1383 00000001 500b0014         ldiu      sp,fp
     1384 00000002 02740004         addi      4,sp
     1385                           .line   8
     1386                   ;----------------------------------------------------------------------
     1387                   ; 160 | _GIE;                                                                  
     1388                   ;----------------------------------------------------------------------
     1389 00000003 13fb0001         rpts    1                       
     1390 00000004 03752000         andn    2000h, ST       
     1391                           .line   10
     1392                   ;----------------------------------------------------------------------
     1393                   ; 162 | ENABLE_JTAG;                                                           
     1394                   ;----------------------------------------------------------------------
     1395 00000005 0f350000         push    ST                      
     1396 00000006 03752000         andn    2000h, ST       
     1397 00000007 08700000-        ldp       @CL1,DP
     1398 00000008 502821f4-        ldiu      @CL1,ar0              ; |162| 
     1399 00000009 506000fb         ldiu      251,r0                ; |162| 
     1400 0000000a 21a0c000         and3      r0,*ar0,r0            ; |162| 
     1401 0000000b 1540c000         sti       r0,*ar0               ; |162| 
     1402 0000000c 0e350000         pop             ST                      
     1403                           .line   12
     1404                   ;----------------------------------------------------------------------
TMS320C3x/4x COFF AssemblerVersion 5.12     Mon Oct 31 11:29:47 2011
Copyright (c) 1987-1999 Texas Instruments Incorporatedasm30.exe -@_528.AAB 

D:\CCS\EEA_SA_V611beta\BOOT\SOURCE\ASM\main.asm                      PAGE   27

     1405                   ; 164 | DISABLE_BOOTINT;                                                       
     1406                   ;----------------------------------------------------------------------
     1407 0000000d 0f350000         push    ST                      
     1408 0000000e 03752000         andn    2000h, ST       
     1409 0000000f 08700000-        ldp       @CL2,DP
     1410 00000010 502821f5-        ldiu      @CL2,ar0              ; |164| 
     1411 00000011 50600010         ldiu      16,r0                 ; |164| 
     1412 00000012 25a0c000         or3       r0,*ar0,r0            ; |164| 
     1413 00000013 1540c000         sti       r0,*ar0               ; |164| 
     1414 00000014 0e350000         pop             ST                      
     1415                           .line   13
     1416                   ;----------------------------------------------------------------------
     1417                   ; 165 | DISABLE_HEATER;                                                        
     1418                   ;----------------------------------------------------------------------
     1419 00000015 0f350000         push    ST                      
     1420 00000016 03752000         andn    2000h, ST       
     1421 00000017 08700000-        ldp       @CL1,DP
     1422 00000018 502821f4-        ldiu      @CL1,ar0              ; |165| 
     1423 00000019 50600002         ldiu      2,r0                  ; |165| 
     1424 0000001a 25a0c000         or3       r0,*ar0,r0            ; |165| 
     1425 0000001b 1540c000         sti       r0,*ar0               ; |165| 
     1426 0000001c 0e350000         pop             ST                      
     1427                           .line   15
     1428                   ;----------------------------------------------------------------------
     1429                   ; 167 | RELAY1_OFF;                                                            
     1430                   ;----------------------------------------------------------------------
     1431 0000001d 0f350000         push    ST                      
     1432 0000001e 03752000         andn    2000h, ST       
     1433 0000001f 08700000-        ldp       @CL3,DP
     1434 00000020 502821f6-        ldiu      @CL3,ar0              ; |167| 
     1435 00000021 506000fe         ldiu      254,r0                ; |167| 
     1436 00000022 21a0c000         and3      r0,*ar0,r0            ; |167| 
     1437 00000023 1540c000         sti       r0,*ar0               ; |167| 
     1438 00000024 0e350000         pop             ST                      
     1439                           .line   16
     1440                   ;----------------------------------------------------------------------
     1441                   ; 168 | RELAY2_OFF;                                                            
     1442                   ;----------------------------------------------------------------------
     1443 00000025 0f350000         push    ST                      
     1444 00000026 03752000         andn    2000h, ST       
     1445 00000027 506000fd         ldiu      253,r0                ; |168| 
     1446 00000028 21a0c000         and3      r0,*ar0,r0            ; |168| 
     1447 00000029 1540c000         sti       r0,*ar0               ; |168| 
     1448 0000002a 0e350000         pop             ST                      
     1449                           .line   18
     1450                   ;----------------------------------------------------------------------
     1451                   ; 170 | *PBCR  = (PBCR_SWW_RDYandCNT | PBCR_WTCNT_5);   /* ws=5 for 90ns flash
     1452                   ;     | */                                                                     
     1453                   ;----------------------------------------------------------------------
     1454 0000002b 08700000-        ldp       @CL5,DP
     1455 0000002c 502821f8-        ldiu      @CL5,ar0              ; |170| 
     1456 0000002d 506000b8         ldiu      184,r0                ; |170| 
     1457 0000002e 1540c000         sti       r0,*ar0               ; |170| 
     1458                           .line   19
TMS320C3x/4x COFF AssemblerVersion 5.12     Mon Oct 31 11:29:47 2011
Copyright (c) 1987-1999 Texas Instruments Incorporatedasm30.exe -@_528.AAB 

D:\CCS\EEA_SA_V611beta\BOOT\SOURCE\ASM\main.asm                      PAGE   28

     1459                   ;----------------------------------------------------------------------
     1460                   ; 171 | NOPS;                                                                  
     1461                   ;----------------------------------------------------------------------
     1462 0000002f 0c800000         NOP                     
     1463 00000030 0c800000         NOP                     
     1464 00000031 0c800000         NOP                     
     1465                           .line   21
     1466                   ;----------------------------------------------------------------------
     1467                   ; 173 | CLEAR_INT_MASK;                                                        
     1468                   ;----------------------------------------------------------------------
     1469 00000032 08760000         ldi             0h, IE
     1470                           .line   22
     1471                   ;----------------------------------------------------------------------
     1472                   ; 174 | CLEAR_INT_PEND;                                                        
     1473                   ;----------------------------------------------------------------------
     1474 00000033 08770000         ldi             0h, IF
     1475                           .line   24
     1476                   ;----------------------------------------------------------------------
     1477                   ; 176 | DISABLE_WDOG;                                                          
     1478                   ;----------------------------------------------------------------------
     1479 00000034 0f350000         push    ST                      
     1480 00000035 03752000         andn    2000h, ST       
     1481 00000036 08700000-        ldp       @CL6,DP
     1482 00000037 502821f9-        ldiu      @CL6,ar0              ; |176| 
     1483 00000038 506000f7         ldiu      247,r0                ; |176| 
     1484 00000039 21a0c000         and3      r0,*ar0,r0            ; |176| 
     1485 0000003a 1540c000         sti       r0,*ar0               ; |176| 
     1486 0000003b 0e350000         pop             ST                      
     1487                           .line   26
     1488                   ;----------------------------------------------------------------------
     1489                   ; 178 | LCD_INIT();                                                            
     1490                   ;----------------------------------------------------------------------
     1491 0000003c 08700000-        ldp       @CL7,DP
     1492 0000003d 502021fa-        ldiu      @CL7,r0               ; |178| 
     1493 0000003e 70000000         callu     r0                    ; far call to _LCD_INIT ; |178| 
     1494                                                           ; |178| Far Call Occurs
     1495                           .line   29
     1496                   ;----------------------------------------------------------------------
     1497                   ; 181 | URESET;                                                                
     1498                   ; 182 | {asm("  RPTS    100                     ");\                           
     1499                   ;----------------------------------------------------------------------
     1500 0000003f 0f350000         push    ST                      
     1501 00000040 03752000         andn    2000h, ST       
     1502 00000041 08700000-        ldp       @CL3,DP
     1503 00000042 502821f6-        ldiu      @CL3,ar0              ; |181| 
     1504 00000043 50600008         ldiu      8,r0                  ; |181| 
     1505 00000044 25a0c000         or3       r0,*ar0,r0            ; |181| 
     1506 00000045 1540c000         sti       r0,*ar0               ; |181| 
     1507 00000046 0e350000         pop             ST                      
     1508                           .line   31
     1509                   ;----------------------------------------------------------------------
     1510                   ; 183 | asm("  NOP                                     ");}                    
     1511                   ;----------------------------------------------------------------------
     1512 00000047 13fb0064         RPTS    100                     
TMS320C3x/4x COFF AssemblerVersion 5.12     Mon Oct 31 11:29:47 2011
Copyright (c) 1987-1999 Texas Instruments Incorporatedasm30.exe -@_528.AAB 

D:\CCS\EEA_SA_V611beta\BOOT\SOURCE\ASM\main.asm                      PAGE   29

     1513 00000048 0c800000         NOP                                     
     1514                           .line   32
     1515                   ;----------------------------------------------------------------------
     1516                   ; 184 | _URESET;                                                               
     1517                   ;----------------------------------------------------------------------
     1518 00000049 0f350000         push    ST                      
     1519 0000004a 03752000         andn    2000h, ST       
     1520 0000004b 506000f7         ldiu      247,r0                ; |184| 
     1521 0000004c 21a0c000         and3      r0,*ar0,r0            ; |184| 
     1522 0000004d 1540c000         sti       r0,*ar0               ; |184| 
     1523 0000004e 0e350000         pop             ST                      
     1524                           .line   34
     1525                   ;----------------------------------------------------------------------
     1526                   ; 186 | s = &BTCOPY;                                    /* BR TABLE MIRROR IN R
     1527                   ;     | AM */                                                                  
     1528                   ;----------------------------------------------------------------------
     1529 0000004f 08700000-        ldp       @CL29,DP
     1530 00000050 50202210-        ldiu      @CL29,r0              ; |186| 
     1531 00000051 15400303         sti       r0,*+fp(3)            ; |186| 
     1532                           .line   35
     1533                   ;----------------------------------------------------------------------
     1534                   ; 187 | d = (unsigned int*)0x00809FC1;  /* BRANCH TABLE DESTINATION ADDR */    
     1535                   ;----------------------------------------------------------------------
     1536 00000052 08700000-        ldp       @CL17,DP
     1537 00000053 50202204-        ldiu      @CL17,r0              ; |187| 
     1538 00000054 15400304         sti       r0,*+fp(4)            ; |187| 
     1539                           .line   36
     1540                   ;----------------------------------------------------------------------
     1541                   ; 188 | for (i=0;i<0x3F;i++)                                                   
     1542                   ;----------------------------------------------------------------------
     1543 00000055 50600000         ldiu      0,r0                  ; |188| 
     1544 00000056 15400301         sti       r0,*+fp(1)            ; |188| 
     1545 00000057 04e0003f         cmpi      63,r0                 ; |188| 
     1546 00000058 6a04000b         bhs       L50                   ; |188| 
     1547                   ;*      Branch Occurs to L50            ; |188| 
     1548 00000059          L49:        
     1549                           .line   38
     1550                   ;----------------------------------------------------------------------
     1551                   ; 190 | d[i] = s[i];                                                           
     1552                   ;----------------------------------------------------------------------
     1553 00000059 50480301         ldiu      *+fp(1),ar0           ; |190| 
     1554 0000005a 50510303         ldiu      *+fp(3),ir0           ; |190| 
     1555 0000005b 50520304         ldiu      *+fp(4),ir1           ; |190| 
     1556 0000005c 50090008         ldiu      ar0,ar1               ; |190| 
     1557 0000005d 50404000         ldiu      *+ar0(ir0),r0         ; |190| 
     1558 0000005e 15408100         sti       r0,*+ar1(ir1)         ; |190| 
     1559                           .line   36
     1560 0000005f 50600001         ldiu      1,r0                  ; |188| 
     1561 00000060 02400301         addi      *+fp(1),r0            ; |188| Unsigned
     1562 00000061 15400301         sti       r0,*+fp(1)            ; |188| 
     1563 00000062 04e0003f         cmpi      63,r0                 ; |188| 
     1564 00000063 6a01fff5         blo       L49                   ; |188| 
     1565                   ;*      Branch Occurs to L49            ; |188| 
     1566 00000064          L50:        
TMS320C3x/4x COFF AssemblerVersion 5.12     Mon Oct 31 11:29:47 2011
Copyright (c) 1987-1999 Texas Instruments Incorporatedasm30.exe -@_528.AAB 

D:\CCS\EEA_SA_V611beta\BOOT\SOURCE\ASM\main.asm                      PAGE   30

     1567                           .line   41
     1568                   ;----------------------------------------------------------------------
     1569                   ; 193 | FLASH_UNLOCK;                                                          
     1570                   ;----------------------------------------------------------------------
     1571 00000064 0f350000         push    ST                      
     1572 00000065 03752000         andn    2000h, ST       
     1573 00000066 08700000-        ldp       @CL3,DP
     1574 00000067 502821f6-        ldiu      @CL3,ar0              ; |193| 
     1575 00000068 50600004         ldiu      4,r0                  ; |193| 
     1576 00000069 25a0c000         or3       r0,*ar0,r0            ; |193| 
     1577 0000006a 1540c000         sti       r0,*ar0               ; |193| 
     1578 0000006b 0e350000         pop             ST                      
     1579                           .line   43
     1580                   ;----------------------------------------------------------------------
     1581                   ; 195 | INITIALIZING = TRUE;                                                   
     1582                   ;----------------------------------------------------------------------
     1583 0000006c 08700000-        ldp       @CL30,DP
     1584 0000006d 50282211-        ldiu      @CL30,ar0             ; |195| 
     1585 0000006e 50600001         ldiu      1,r0                  ; |195| 
     1586 0000006f 1540c000         sti       r0,*ar0               ; |195| 
     1587                           .line   45
     1588                   ;----------------------------------------------------------------------
     1589                   ; 197 | CLOCK = 0;                                                             
     1590                   ;----------------------------------------------------------------------
     1591 00000070 08700000-        ldp       @CL31,DP
     1592 00000071 50282212-        ldiu      @CL31,ar0             ; |197| 
     1593 00000072 50600000         ldiu      0,r0                  ; |197| 
     1594 00000073 1540c000         sti       r0,*ar0               ; |197| 
     1595                           .line   47
     1596                   ;----------------------------------------------------------------------
     1597                   ; 199 | HW_VER  = *XHW_VER & 0xFF;                                             
     1598                   ;----------------------------------------------------------------------
     1599 00000074 08700000-        ldp       @CL33,DP
     1600 00000075 50282214-        ldiu      @CL33,ar0             ; |199| 
     1601 00000076 08700000-        ldp       @CL32,DP
     1602 00000077 506000ff         ldiu      255,r0                ; |199| 
     1603 00000078 50292213-        ldiu      @CL32,ar1             ; |199| 
     1604 00000079 21a0c000         and3      r0,*ar0,r0            ; |199| 
     1605 0000007a 1540c100         sti       r0,*ar1               ; |199| 
     1606                           .line   49
     1607                   ;----------------------------------------------------------------------
     1608                   ; 201 | CLOCK = CLOCK_DEFAULT;                                                 
     1609                   ;----------------------------------------------------------------------
     1610 0000007b 08700000-        ldp       @CL31,DP
     1611 0000007c 50282212-        ldiu      @CL31,ar0             ; |201| 
     1612 0000007d 08700000-        ldp       @CL34,DP
     1613 0000007e 50202215-        ldiu      @CL34,r0              ; |201| 
     1614 0000007f 1540c000         sti       r0,*ar0               ; |201| 
     1615                           .line   51
     1616                   ;----------------------------------------------------------------------
     1617                   ; 203 | PORT.Slave_ID = 247;                                                   
     1618                   ;----------------------------------------------------------------------
     1619 00000080 08700000-        ldp       @CL35,DP
     1620 00000081 50282216-        ldiu      @CL35,ar0             ; |203| 
TMS320C3x/4x COFF AssemblerVersion 5.12     Mon Oct 31 11:29:47 2011
Copyright (c) 1987-1999 Texas Instruments Incorporatedasm30.exe -@_528.AAB 

D:\CCS\EEA_SA_V611beta\BOOT\SOURCE\ASM\main.asm                      PAGE   31

     1621 00000082 506000f7         ldiu      247,r0                ; |203| 
     1622 00000083 1540c000         sti       r0,*ar0               ; |203| 
     1623                           .line   52
     1624                   ;----------------------------------------------------------------------
     1625                   ; 204 | PORT.tvector = (int*)0;                                                
     1626                   ;----------------------------------------------------------------------
     1627 00000084 08700000-        ldp       @CL36,DP
     1628 00000085 50282217-        ldiu      @CL36,ar0             ; |204| 
     1629 00000086 50600000         ldiu      0,r0                  ; |204| 
     1630 00000087 1540c000         sti       r0,*ar0               ; |204| 
     1631                           .line   53
     1632                   ;----------------------------------------------------------------------
     1633                   ; 205 | PORT.pvector = (int*)0;                                                
     1634                   ;----------------------------------------------------------------------
     1635 00000088 08700000-        ldp       @CL37,DP
     1636 00000089 50282218-        ldiu      @CL37,ar0             ; |205| 
     1637 0000008a 1540c000         sti       r0,*ar0               ; |205| 
     1638                           .line   54
     1639                   ;----------------------------------------------------------------------
     1640                   ; 206 | vect_pt1 = (int*)0;                                                    
     1641                   ;----------------------------------------------------------------------
     1642 0000008b 08700000-        ldp       @CL38,DP
     1643 0000008c 50282219-        ldiu      @CL38,ar0             ; |206| 
     1644 0000008d 1540c000         sti       r0,*ar0               ; |206| 
     1645                           .line   55
     1646                   ;----------------------------------------------------------------------
     1647                   ; 207 | vect_p1 = (int*)0;                                                     
     1648                   ;----------------------------------------------------------------------
     1649 0000008e 08700000-        ldp       @CL39,DP
     1650 0000008f 5028221a-        ldiu      @CL39,ar0             ; |207| 
     1651 00000090 1540c000         sti       r0,*ar0               ; |207| 
     1652                           .line   57
     1653                   ;----------------------------------------------------------------------
     1654                   ; 209 | CLEAR_INT_MASK;                                                        
     1655                   ;----------------------------------------------------------------------
     1656 00000091 08760000         ldi             0h, IE
     1657                           .line   59
     1658                   ;----------------------------------------------------------------------
     1659                   ; 211 | TIME0 = (double)(7.5);                                                 
     1660                   ;----------------------------------------------------------------------
     1661 00000092 08700000-        ldp       @CL40,DP
     1662 00000093 5028221b-        ldiu      @CL40,ar0             ; |211| 
     1663 00000094 40602700         ldfu      7.5000000000e+00,f0   ; |211| 
     1664 00000095 1440c000         stf       f0,*ar0               ; |211| 
     1665                           .line   60
     1666                   ;----------------------------------------------------------------------
     1667                   ; 212 | Setup_Timer(0, TIME0);                                                 
     1668                   ;----------------------------------------------------------------------
     1669 00000096 5028221b-        ldiu      @CL40,ar0             ; |212| 
     1670 00000097 506a0000         ldiu      0,ar2                 ; |212| 
     1671 00000098 4042c000         ldfu      *ar0,f2               ; |212| 
     1672 00000099 62000000!        call      _Setup_Timer          ; |212| 
     1673                                                           ; |212| Call Occurs
     1674                           .line   62
TMS320C3x/4x COFF AssemblerVersion 5.12     Mon Oct 31 11:29:47 2011
Copyright (c) 1987-1999 Texas Instruments Incorporatedasm30.exe -@_528.AAB 

D:\CCS\EEA_SA_V611beta\BOOT\SOURCE\ASM\main.asm                      PAGE   32

     1675                   ;----------------------------------------------------------------------
     1676                   ; 214 | TIME1 = (double)(11.0/(2.0*115200.0));                                 
     1677                   ;----------------------------------------------------------------------
     1678 0000009a 08700000-        ldp       @CL41,DP
     1679 0000009b 5028221c-        ldiu      @CL41,ar0             ; |214| 
     1680 0000009c 08700000-        ldp       @CL42,DP
     1681 0000009d 4020221d-        ldfu      @CL42,f0              ; |214| 
     1682 0000009e 1440c000         stf       f0,*ar0               ; |214| 
     1683                           .line   63
     1684                   ;----------------------------------------------------------------------
     1685                   ; 215 | Setup_Timer(1, TIME1);                                                 
     1686                   ;----------------------------------------------------------------------
     1687 0000009f 08700000-        ldp       @CL41,DP
     1688 000000a0 5028221c-        ldiu      @CL41,ar0             ; |215| 
     1689 000000a1 506a0001         ldiu      1,ar2                 ; |215| 
     1690 000000a2 4042c000         ldfu      *ar0,f2               ; |215| 
     1691 000000a3 62000000!        call      _Setup_Timer          ; |215| 
     1692                                                           ; |215| Call Occurs
     1693                           .line   65
     1694                   ;----------------------------------------------------------------------
     1695                   ; 217 | XFINIT_OUTPUT;                                                         
     1696                   ;----------------------------------------------------------------------
     1697 000000a4 08780022         ldi             22h,IOF         
     1698                           .line   67
     1699                   ;----------------------------------------------------------------------
     1700                   ; 219 | CACHE_ENABLE;                                                          
     1701                   ;----------------------------------------------------------------------
     1702 000000a5 08751800         ldi             1800h, ST
     1703                           .line   69
     1704                   ;----------------------------------------------------------------------
     1705                   ; 221 | FLASH_READ_ESN_MFGR(&ESN[0]);                                          
     1706                   ;----------------------------------------------------------------------
     1707 000000a6 08700000-        ldp       @CL44,DP
     1708 000000a7 5020221f-        ldiu      @CL44,r0              ; |221| 
     1709 000000a8 08700000-        ldp       @CL43,DP
     1710 000000a9 502a221e-        ldiu      @CL43,ar2             ; |221| 
     1711 000000aa 70000000         callu     r0                    ; far call to _FLASH_READ_ESN_MFGR      ; |221| 
     1712                                                           ; |221| Far Call Occurs
     1713                           .line   70
     1714                   ;----------------------------------------------------------------------
     1715                   ; 222 | FLASH_READ_ESN_USER(&ESN[4]);                                          
     1716                   ;----------------------------------------------------------------------
     1717 000000ab 08700000-        ldp       @CL46,DP
     1718 000000ac 50202221-        ldiu      @CL46,r0              ; |222| 
     1719 000000ad 08700000-        ldp       @CL45,DP
     1720 000000ae 502a2220-        ldiu      @CL45,ar2             ; |222| 
     1721 000000af 70000000         callu     r0                    ; far call to _FLASH_READ_ESN_USER      ; |222| 
     1722                                                           ; |222| Far Call Occurs
     1723                           .line   72
     1724                   ;----------------------------------------------------------------------
     1725                   ; 224 | CLEAR_INT_PEND;                                                        
     1726                   ;----------------------------------------------------------------------
     1727 000000b0 08770000         ldi             0h, IF
     1728                           .line   74
TMS320C3x/4x COFF AssemblerVersion 5.12     Mon Oct 31 11:29:47 2011
Copyright (c) 1987-1999 Texas Instruments Incorporatedasm30.exe -@_528.AAB 

D:\CCS\EEA_SA_V611beta\BOOT\SOURCE\ASM\main.asm                      PAGE   33

     1729                   ;----------------------------------------------------------------------
     1730                   ; 226 | Modbus_Initialize();                                                   
     1731                   ;----------------------------------------------------------------------
     1732 000000b1 08700000-        ldp       @CL47,DP
     1733 000000b2 50202222-        ldiu      @CL47,r0              ; |226| 
     1734 000000b3 70000000         callu     r0                    ; far call to _Modbus_Initialize        ; |226| 
     1735                                                           ; |226| Far Call Occurs
     1736                           .line   76
     1737                   ;----------------------------------------------------------------------
     1738                   ; 228 | INITIALIZING = FALSE;                                                  
     1739                   ;----------------------------------------------------------------------
     1740 000000b4 08700000-        ldp       @CL30,DP
     1741 000000b5 50282211-        ldiu      @CL30,ar0             ; |228| 
     1742 000000b6 50600000         ldiu      0,r0                  ; |228| 
     1743 000000b7 1540c000         sti       r0,*ar0               ; |228| 
     1744                           .line   78
     1745                   ;----------------------------------------------------------------------
     1746                   ; 230 | ENABLE_WDOG;                                                           
     1747                   ;----------------------------------------------------------------------
     1748 000000b8 0f350000         push    ST                      
     1749 000000b9 03752000         andn    2000h, ST       
     1750 000000ba 08700000-        ldp       @CL6,DP
     1751 000000bb 502821f9-        ldiu      @CL6,ar0              ; |230| 
     1752 000000bc 50600008         ldiu      8,r0                  ; |230| 
     1753 000000bd 25a0c000         or3       r0,*ar0,r0            ; |230| 
     1754 000000be 1540c000         sti       r0,*ar0               ; |230| 
     1755 000000bf 50600080         ldiu      128,r0                ; |230| 
     1756 000000c0 25a0c000         or3       r0,*ar0,r0            ; |230| 
     1757 000000c1 1540c000         sti       r0,*ar0               ; |230| 
     1758 000000c2 0e350000         pop             ST                      
     1759                           .line   80
     1760                   ;----------------------------------------------------------------------
     1761                   ; 232 | GIE;                                                                   
     1762                   ;----------------------------------------------------------------------
     1763 000000c3 10752000         or              2000h, ST       
     1764                           .line   83
     1765                   ;----------------------------------------------------------------------
     1766                   ; 235 | j = 0;                                                                 
     1767                   ; 237 | while(TRUE)                                                            
     1768                   ;----------------------------------------------------------------------
     1769 000000c4 50600000         ldiu      0,r0                  ; |235| 
     1770 000000c5 15400302         sti       r0,*+fp(2)            ; |235| 
     1771 000000c6          L51:        
     1772                           .line   87
     1773                   ;----------------------------------------------------------------------
     1774                   ; 239 | TICKLE_WATCHDOG;                                                       
     1775                   ;----------------------------------------------------------------------
     1776 000000c6 0f350000         push    ST                      
     1777 000000c7 03752000         andn    2000h, ST       
     1778 000000c8 08700000-        ldp       @CL6,DP
     1779 000000c9 502821f9-        ldiu      @CL6,ar0              ; |239| 
     1780 000000ca 50600080         ldiu      128,r0                ; |239| 
     1781 000000cb 25a0c000         or3       r0,*ar0,r0            ; |239| 
     1782 000000cc 1540c000         sti       r0,*ar0               ; |239| 
TMS320C3x/4x COFF AssemblerVersion 5.12     Mon Oct 31 11:29:47 2011
Copyright (c) 1987-1999 Texas Instruments Incorporatedasm30.exe -@_528.AAB 

D:\CCS\EEA_SA_V611beta\BOOT\SOURCE\ASM\main.asm                      PAGE   34

     1783 000000cd 0e350000         pop             ST                      
     1784                           .line   89
     1785                   ;----------------------------------------------------------------------
     1786                   ; 241 | LCD_DISP3[j] = ' ';                                                    
     1787                   ;----------------------------------------------------------------------
     1788 000000ce 08700000-        ldp       @CL26,DP
     1789 000000cf 50510302         ldiu      *+fp(2),ir0           ; |241| 
     1790 000000d0 5028220d-        ldiu      @CL26,ar0             ; |241| 
     1791 000000d1 50600020         ldiu      32,r0                 ; |241| 
     1792 000000d2 15404000         sti       r0,*+ar0(ir0)         ; |241| 
     1793                           .line   90
     1794                   ;----------------------------------------------------------------------
     1795                   ; 242 | j++;                                                                   
     1796                   ;----------------------------------------------------------------------
     1797 000000d3 50600001         ldiu      1,r0                  ; |242| 
     1798 000000d4 02400302         addi      *+fp(2),r0            ; |242| Unsigned
     1799 000000d5 15400302         sti       r0,*+fp(2)            ; |242| 
     1800                           .line   91
     1801                   ;----------------------------------------------------------------------
     1802                   ; 243 | if (j>=20) j = 0;                                                      
     1803                   ;----------------------------------------------------------------------
     1804 000000d6 04e00014         cmpi      20,r0                 ; |243| 
     1805 000000d7 6a010002         blo       L53                   ; |243| 
     1806                   ;*      Branch Occurs to L53            ; |243| 
     1807 000000d8 50600000         ldiu      0,r0                  ; |243| 
     1808 000000d9 15400302         sti       r0,*+fp(2)            ; |243| 
     1809 000000da          L53:        
     1810                           .line   92
     1811                   ;----------------------------------------------------------------------
     1812                   ; 244 | LCD_DISP3[j] = '.';                                                    
     1813                   ;----------------------------------------------------------------------
     1814 000000da 08700000-        ldp       @CL26,DP
     1815 000000db 50510302         ldiu      *+fp(2),ir0           ; |244| 
     1816 000000dc 5028220d-        ldiu      @CL26,ar0             ; |244| 
     1817 000000dd 5060002e         ldiu      46,r0                 ; |244| 
     1818 000000de 15404000         sti       r0,*+ar0(ir0)         ; |244| 
     1819                           .line   93
     1820                   ;----------------------------------------------------------------------
     1821                   ; 245 | LCD_STR((char*)&LCD_DISP3,3);                                          
     1822                   ;----------------------------------------------------------------------
     1823 000000df 08700000-        ldp       @CL27,DP
     1824 000000e0 5020220e-        ldiu      @CL27,r0              ; |245| 
     1825 000000e1 08700000-        ldp       @CL26,DP
     1826 000000e2 50620003         ldiu      3,r2                  ; |245| 
     1827 000000e3 502a220d-        ldiu      @CL26,ar2             ; |245| 
     1828 000000e4 70000000         callu     r0                    ; far call to _LCD_STR  ; |245| 
     1829                                                           ; |245| Far Call Occurs
     1830                           .line   95
     1831                   ;----------------------------------------------------------------------
     1832                   ; 247 | TICKLE_WATCHDOG;                                                       
     1833                   ;----------------------------------------------------------------------
     1834 000000e5 0f350000         push    ST                      
     1835 000000e6 03752000         andn    2000h, ST       
     1836 000000e7 08700000-        ldp       @CL6,DP
TMS320C3x/4x COFF AssemblerVersion 5.12     Mon Oct 31 11:29:47 2011
Copyright (c) 1987-1999 Texas Instruments Incorporatedasm30.exe -@_528.AAB 

D:\CCS\EEA_SA_V611beta\BOOT\SOURCE\ASM\main.asm                      PAGE   35

     1837 000000e8 502821f9-        ldiu      @CL6,ar0              ; |247| 
     1838 000000e9 50600080         ldiu      128,r0                ; |247| 
     1839 000000ea 25a0c000         or3       r0,*ar0,r0            ; |247| 
     1840 000000eb 1540c000         sti       r0,*ar0               ; |247| 
     1841 000000ec 0e350000         pop             ST                      
     1842                           .line   96
     1843                   ;----------------------------------------------------------------------
     1844                   ; 248 | LEDG_OFF;                                                              
     1845                   ;----------------------------------------------------------------------
     1846 000000ed 0f350000         push    ST                      
     1847 000000ee 03752000         andn    2000h, ST       
     1848 000000ef 08700000-        ldp       @CL1,DP
     1849 000000f0 502821f4-        ldiu      @CL1,ar0              ; |248| 
     1850 000000f1 50600040         ldiu      64,r0                 ; |248| 
     1851 000000f2 25a0c000         or3       r0,*ar0,r0            ; |248| 
     1852 000000f3 1540c000         sti       r0,*ar0               ; |248| 
     1853 000000f4 0e350000         pop             ST                      
     1854                           .line   97
     1855                   ;----------------------------------------------------------------------
     1856                   ; 249 | LEDR_ON;                                                               
     1857                   ;----------------------------------------------------------------------
     1858 000000f5 0f350000         push    ST                      
     1859 000000f6 03752000         andn    2000h, ST       
     1860 000000f7 5060007f         ldiu      127,r0                ; |249| 
     1861 000000f8 21a0c000         and3      r0,*ar0,r0            ; |249| 
     1862 000000f9 1540c000         sti       r0,*ar0               ; |249| 
     1863 000000fa 0e350000         pop             ST                      
     1864                           .line   98
     1865                   ;----------------------------------------------------------------------
     1866                   ; 250 | for(i=0;i<131072;i++){}                                                
     1867                   ;----------------------------------------------------------------------
     1868 000000fb 50600000         ldiu      0,r0                  ; |250| 
     1869 000000fc 15400301         sti       r0,*+fp(1)            ; |250| 
     1870 000000fd 08700000-        ldp       @CL48,DP
     1871 000000fe 04a02223-        cmpi      @CL48,r0              ; |250| 
     1872 000000ff 6a040006         bhs       L55                   ; |250| 
     1873                   ;*      Branch Occurs to L55            ; |250| 
     1874 00000100          L54:        
     1875 00000100 50600001         ldiu      1,r0                  ; |250| 
     1876 00000101 02400301         addi      *+fp(1),r0            ; |250| Unsigned
     1877 00000102 15400301         sti       r0,*+fp(1)            ; |250| 
     1878 00000103 08700000-        ldp       @CL48,DP
     1879 00000104 04a02223-        cmpi      @CL48,r0              ; |250| 
     1880 00000105 6a01fffa         blo       L54                   ; |250| 
     1881                   ;*      Branch Occurs to L54            ; |250| 
     1882 00000106          L55:        
     1883                           .line   100
     1884                   ;----------------------------------------------------------------------
     1885                   ; 252 | TICKLE_WATCHDOG;                                                       
     1886                   ;----------------------------------------------------------------------
     1887 00000106 0f350000         push    ST                      
     1888 00000107 03752000         andn    2000h, ST       
     1889 00000108 08700000-        ldp       @CL6,DP
     1890 00000109 502821f9-        ldiu      @CL6,ar0              ; |252| 
TMS320C3x/4x COFF AssemblerVersion 5.12     Mon Oct 31 11:29:47 2011
Copyright (c) 1987-1999 Texas Instruments Incorporatedasm30.exe -@_528.AAB 

D:\CCS\EEA_SA_V611beta\BOOT\SOURCE\ASM\main.asm                      PAGE   36

     1891 0000010a 50600080         ldiu      128,r0                ; |252| 
     1892 0000010b 25a0c000         or3       r0,*ar0,r0            ; |252| 
     1893 0000010c 1540c000         sti       r0,*ar0               ; |252| 
     1894 0000010d 0e350000         pop             ST                      
     1895                           .line   101
     1896                   ;----------------------------------------------------------------------
     1897                   ; 253 | LEDR_OFF;                                                              
     1898                   ;----------------------------------------------------------------------
     1899 0000010e 0f350000         push    ST                      
     1900 0000010f 03752000         andn    2000h, ST       
     1901 00000110 08700000-        ldp       @CL1,DP
     1902 00000111 502821f4-        ldiu      @CL1,ar0              ; |253| 
     1903 00000112 50600080         ldiu      128,r0                ; |253| 
     1904 00000113 25a0c000         or3       r0,*ar0,r0            ; |253| 
     1905 00000114 1540c000         sti       r0,*ar0               ; |253| 
     1906 00000115 0e350000         pop             ST                      
     1907                           .line   102
     1908                   ;----------------------------------------------------------------------
     1909                   ; 254 | LEDG_ON;                                                               
     1910                   ;----------------------------------------------------------------------
     1911 00000116 0f350000         push    ST                      
     1912 00000117 03752000         andn    2000h, ST       
     1913 00000118 506000bf         ldiu      191,r0                ; |254| 
     1914 00000119 21a0c000         and3      r0,*ar0,r0            ; |254| 
     1915 0000011a 1540c000         sti       r0,*ar0               ; |254| 
     1916 0000011b 0e350000         pop             ST                      
     1917                           .line   103
     1918                   ;----------------------------------------------------------------------
     1919                   ; 255 | for(i=0;i<262144;i++){}                                                
     1920                   ;----------------------------------------------------------------------
     1921 0000011c 50600000         ldiu      0,r0                  ; |255| 
     1922 0000011d 15400301         sti       r0,*+fp(1)            ; |255| 
     1923 0000011e 08700000-        ldp       @CL49,DP
     1924 0000011f 04a02224-        cmpi      @CL49,r0              ; |255| 
     1925 00000120 6a040006         bhs       L57                   ; |255| 
     1926                   ;*      Branch Occurs to L57            ; |255| 
     1927 00000121          L56:        
     1928 00000121 50600001         ldiu      1,r0                  ; |255| 
     1929 00000122 02400301         addi      *+fp(1),r0            ; |255| Unsigned
     1930 00000123 15400301         sti       r0,*+fp(1)            ; |255| 
     1931 00000124 08700000-        ldp       @CL49,DP
     1932 00000125 04a02224-        cmpi      @CL49,r0              ; |255| 
     1933 00000126 6a01fffa         blo       L56                   ; |255| 
     1934                   ;*      Branch Occurs to L56            ; |255| 
     1935 00000127          L57:        
     1936                           .line   105
     1937                   ;----------------------------------------------------------------------
     1938                   ; 257 | if((!(HW_VER&0x80))&&((*MSVE_IN&0xFF)^0xFF)) Exit_to_App();     /* pres
     1939                   ;     | s buttons to go straight to application */                             
     1940                   ;----------------------------------------------------------------------
     1941 00000127 08700000-        ldp       @CL32,DP
     1942 00000128 50282213-        ldiu      @CL32,ar0             ; |257| 
     1943 00000129 50600080         ldiu      128,r0                ; |257| 
     1944 0000012a 27c000c0         tstb3     *ar0,r0               ; |257| 
TMS320C3x/4x COFF AssemblerVersion 5.12     Mon Oct 31 11:29:47 2011
Copyright (c) 1987-1999 Texas Instruments Incorporatedasm30.exe -@_528.AAB 

D:\CCS\EEA_SA_V611beta\BOOT\SOURCE\ASM\main.asm                      PAGE   37

     1945 0000012b 6a06ff9a         bne       L51                   ; |257| 
     1946                   ;*      Branch Occurs to L51            ; |257| 
     1947 0000012c 08700000-        ldp       @CL50,DP
     1948 0000012d 50282225-        ldiu      @CL50,ar0             ; |257| 
     1949 0000012e 506000ff         ldiu      255,r0                ; |257| 
     1950 0000012f 21a0c000         and3      r0,*ar0,r0            ; |257| 
     1951 00000130 1ae000ff         xor       255,r0                ; |257| 
     1952 00000131 04e00000         cmpi      0,r0                  ; |257| 
     1953 00000132 6a05ff93         beq       L51                   ; |257| 
     1954                   ;*      Branch Occurs to L51            ; |257| 
     1955 00000133 08700000-        ldp       @CL51,DP
     1956 00000134 50202226-        ldiu      @CL51,r0              ; |257| 
     1957 00000135 70000000         callu     r0                    ; far call to _Exit_to_App      ; |257| 
     1958                                                           ; |257| Far Call Occurs
     1959                           .line   106
     1960 00000136 6a00ff8f         bu        L51                   ; |258| 
     1961                   ;*      Branch Occurs to L51            ; |258| 
     1962                           .line   107
     1963                           .endfunc        259,000000000h,4
     1964                   
     1965                   
     1966 00000137                  .sect    ".text"
     1967                   
     1968                           .global _Exit_to_App
     1969                           .sym    _Exit_to_App,_Exit_to_App,32,2,0
     1970                           .func   261
     1971                   ;******************************************************************************
     1972                   ;* FUNCTION NAME: _Exit_to_App                                                *
     1973                   ;*                                                                            *
     1974                   ;*   Architecture       : TMS320C33                                           *
     1975                   ;*   Calling Convention : TI Standard Register Parameters                     *
     1976                   ;*   Function Uses Regs : r0,ar0,ar1,st                                       *
     1977                   ;*   Regs Saved         :                                                     *
     1978                   ;*   Stack Frame        : Full (w/ debug)                                     *
     1979                   ;*   Total Frame Size   : 2 Call + 0 Parm + 0 Auto + 0 SOE = 2 words          *
     1980                   ;******************************************************************************
     1981 00000137          _Exit_to_App:
     1982                           .line   1
     1983                   ;----------------------------------------------------------------------
     1984                   ; 261 | void Exit_to_App(void)                                                 
     1985                   ;----------------------------------------------------------------------
     1986 00000137 0f2b0000         push      fp
     1987 00000138 500b0014         ldiu      sp,fp
     1988                           .line   6
     1989                   ;----------------------------------------------------------------------
     1990                   ; 266 | vect_p1 = (int*)FLASH_LOC[FLASH_ENTRY_POINT_APP];                      
     1991                   ;----------------------------------------------------------------------
     1992 00000139 08700000-        ldp       @CL52,DP
     1993 0000013a 50282227-        ldiu      @CL52,ar0             ; |266| 
     1994 0000013b 08700000-        ldp       @CL39,DP
     1995 0000013c 5029221a-        ldiu      @CL39,ar1             ; |266| 
     1996 0000013d 5040c000         ldiu      *ar0,r0               ; |266| 
     1997 0000013e 1540c100         sti       r0,*ar1               ; |266| 
     1998                           .line   7
TMS320C3x/4x COFF AssemblerVersion 5.12     Mon Oct 31 11:29:47 2011
Copyright (c) 1987-1999 Texas Instruments Incorporatedasm30.exe -@_528.AAB 

D:\CCS\EEA_SA_V611beta\BOOT\SOURCE\ASM\main.asm                      PAGE   38

     1999                   ;----------------------------------------------------------------------
     2000                   ; 267 | if ((vect_p1 != (int*)0x00000000) && (vect_p1 != (int*)0xFFFFFFFF))    
     2001                   ;----------------------------------------------------------------------
     2002 0000013f 5028221a-        ldiu      @CL39,ar0             ; |267| 
     2003 00000140 5040c000         ldiu      *ar0,r0               ; |267| 
     2004 00000141 04e00000         cmpi      0,r0                  ; |267| 
     2005 00000142 6a050027         beq       L65                   ; |267| 
     2006                   ;*      Branch Occurs to L65            ; |267| 
     2007 00000143 08700000-        ldp       @CL39,DP
     2008 00000144 5028221a-        ldiu      @CL39,ar0             ; |267| 
     2009 00000145 5040c000         ldiu      *ar0,r0               ; |267| 
     2010 00000146 04e0ffff         cmpi      -1,r0                 ; |267| 
     2011 00000147 6a050022         beq       L65                   ; |267| 
     2012                   ;*      Branch Occurs to L65            ; |267| 
     2013                           .line   9
     2014                   ;----------------------------------------------------------------------
     2015                   ; 269 | _GIE;                                                                  
     2016                   ;----------------------------------------------------------------------
     2017 00000148 13fb0001         rpts    1                       
     2018 00000149 03752000         andn    2000h, ST       
     2019                           .line   10
     2020                   ;----------------------------------------------------------------------
     2021                   ; 270 | *PBCR  = (PBCR_SWW_RDYandCNT | PBCR_WTCNT_5);   /* ws=5 for 90ns flash
     2022                   ;     | */                                                                     
     2023                   ;----------------------------------------------------------------------
     2024 0000014a 08700000-        ldp       @CL5,DP
     2025 0000014b 502821f8-        ldiu      @CL5,ar0              ; |270| 
     2026 0000014c 506000b8         ldiu      184,r0                ; |270| 
     2027 0000014d 1540c000         sti       r0,*ar0               ; |270| 
     2028                           .line   11
     2029                   ;----------------------------------------------------------------------
     2030                   ; 271 | NOPS;                                                                  
     2031                   ;----------------------------------------------------------------------
     2032 0000014e 0c800000         NOP                     
     2033 0000014f 0c800000         NOP                     
     2034 00000150 0c800000         NOP                     
     2035                           .line   13
     2036                   ;----------------------------------------------------------------------
     2037                   ; 273 | FLASH_LOCK;                                                            
     2038                   ;----------------------------------------------------------------------
     2039 00000151 0f350000         push    ST                      
     2040 00000152 03752000         andn    2000h, ST       
     2041 00000153 08700000-        ldp       @CL3,DP
     2042 00000154 502821f6-        ldiu      @CL3,ar0              ; |273| 
     2043 00000155 506000fb         ldiu      251,r0                ; |273| 
     2044 00000156 21a0c000         and3      r0,*ar0,r0            ; |273| 
     2045 00000157 1540c000         sti       r0,*ar0               ; |273| 
     2046 00000158 0e350000         pop             ST                      
     2047                           .line   15
     2048                   ;----------------------------------------------------------------------
     2049                   ; 275 | LEDR_ON;                                                               
     2050                   ;----------------------------------------------------------------------
     2051 00000159 0f350000         push    ST                      
     2052 0000015a 03752000         andn    2000h, ST       
TMS320C3x/4x COFF AssemblerVersion 5.12     Mon Oct 31 11:29:47 2011
Copyright (c) 1987-1999 Texas Instruments Incorporatedasm30.exe -@_528.AAB 

D:\CCS\EEA_SA_V611beta\BOOT\SOURCE\ASM\main.asm                      PAGE   39

     2053 0000015b 08700000-        ldp       @CL1,DP
     2054 0000015c 502821f4-        ldiu      @CL1,ar0              ; |275| 
     2055 0000015d 5060007f         ldiu      127,r0                ; |275| 
     2056 0000015e 21a0c000         and3      r0,*ar0,r0            ; |275| 
     2057 0000015f 1540c000         sti       r0,*ar0               ; |275| 
     2058 00000160 0e350000         pop             ST                      
     2059                           .line   16
     2060                   ;----------------------------------------------------------------------
     2061                   ; 276 | LEDG_ON;                                                               
     2062                   ;----------------------------------------------------------------------
     2063 00000161 0f350000         push    ST                      
     2064 00000162 03752000         andn    2000h, ST       
     2065 00000163 506000bf         ldiu      191,r0                ; |276| 
     2066 00000164 21a0c000         and3      r0,*ar0,r0            ; |276| 
     2067 00000165 1540c000         sti       r0,*ar0               ; |276| 
     2068 00000166 0e350000         pop             ST                      
     2069                           .line   18
     2070                   ;----------------------------------------------------------------------
     2071                   ; 278 | asm("           .global _vect_p1  ");                                  
     2072                   ;----------------------------------------------------------------------
     2073                                   .global _vect_p1  
     2074                           .line   19
     2075                   ;----------------------------------------------------------------------
     2076                   ; 279 | asm("       ldp             _vect_p1      ");                          
     2077                   ;----------------------------------------------------------------------
     2078 00000167 08700000-        ldp             _vect_p1      
     2079                           .line   20
     2080                   ;----------------------------------------------------------------------
     2081                   ; 280 | asm("       ldi             @_vect_p1, R0 ");                          
     2082                   ;----------------------------------------------------------------------
     2083 00000168 0820201c-        ldi             @_vect_p1, R0 
     2084                           .line   21
     2085                   ;----------------------------------------------------------------------
     2086                   ; 281 | asm("       callnz  R0                    ");       /* call if vect !=
     2087                   ;     | NULL */                                                                
     2088                   ;----------------------------------------------------------------------
     2089 00000169 70060000         callnz  R0                    
     2090 0000016a          L65:        
     2091                           .line   23
     2092                                                           ; Begin Epilog Code
     2093 0000016a 50410b01         ldiu      *-fp(1),r1
     2094 0000016b 504bc300         ldiu      *fp,fp
     2095                                                           ; Unallocate the Frame
     2096 0000016c 18740002         subi      2,sp
     2097 0000016d 68000001         bu        r1
     2098                   ;*      Branch Occurs to r1 
     2099                           .endfunc        283,000000000h,0
     2100                   
     2101                   
     2102                   
     2103                           .global _LCD_CNT
     2104 00000000                  .bss    _LCD_CNT,1
     2105                           .sym    _LCD_CNT,_LCD_CNT,14,2,32
     2106                   
TMS320C3x/4x COFF AssemblerVersion 5.12     Mon Oct 31 11:29:47 2011
Copyright (c) 1987-1999 Texas Instruments Incorporatedasm30.exe -@_528.AAB 

D:\CCS\EEA_SA_V611beta\BOOT\SOURCE\ASM\main.asm                      PAGE   40

     2107                           .global _vect_pt1
     2108 00000001                  .bss    _vect_pt1,1
     2109                           .sym    _vect_pt1,_vect_pt1,20,2,32
     2110                   
     2111                           .global _CLOCK
     2112 00000002                  .bss    _CLOCK,1
     2113                           .sym    _CLOCK,_CLOCK,14,2,32
     2114                   
     2115                           .global _RTC
     2116 00000003                  .bss    _RTC,10
     2117                           .sym    _RTC,_RTC,60,2,320,,10
     2118                   
     2119                           .global _ESN
     2120 0000000d                  .bss    _ESN,9
     2121                           .sym    _ESN,_ESN,62,2,288,,9
     2122                   
     2123                           .global _boot_blk
     2124 00000016                  .bss    _boot_blk,8192
     2125                           .sym    _boot_blk,_boot_blk,62,2,262144,,8192
     2126                   
     2127                           .global _LCD
     2128 00002016                  .bss    _LCD,2
     2129                           .sym    _LCD,_LCD,60,2,64,,2
     2130                   
     2131                           .global _MEM
     2132 00002018                  .bss    _MEM,1
     2133                           .sym    _MEM,_MEM,14,2,32
     2134                   
     2135                           .global _RTC_PRESENT
     2136 00002019                  .bss    _RTC_PRESENT,1
     2137                           .sym    _RTC_PRESENT,_RTC_PRESENT,14,2,32
     2138                   
     2139                           .global _TIME0
     2140 0000201a                  .bss    _TIME0,1
     2141                           .sym    _TIME0,_TIME0,7,2,32
     2142                   
     2143                           .global _TIME1
     2144 0000201b                  .bss    _TIME1,1
     2145                           .sym    _TIME1,_TIME1,7,2,32
     2146                   
     2147                           .global _vect_p1
     2148 0000201c                  .bss    _vect_p1,1
     2149                           .sym    _vect_p1,_vect_p1,20,2,32
     2150                   
     2151                           .global _GATE_TIMEOUT
     2152 0000201d                  .bss    _GATE_TIMEOUT,1
     2153                           .sym    _GATE_TIMEOUT,_GATE_TIMEOUT,14,2,32
     2154                   
     2155                           .global _BOOTPORT
     2156 0000201e                  .bss    _BOOTPORT,1
     2157                           .sym    _BOOTPORT,_BOOTPORT,14,2,32
     2158                   
     2159                           .global _MB_LCD_DISPLAY
     2160 0000201f                  .bss    _MB_LCD_DISPLAY,40
TMS320C3x/4x COFF AssemblerVersion 5.12     Mon Oct 31 11:29:47 2011
Copyright (c) 1987-1999 Texas Instruments Incorporatedasm30.exe -@_528.AAB 

D:\CCS\EEA_SA_V611beta\BOOT\SOURCE\ASM\main.asm                      PAGE   41

     2161                           .sym    _MB_LCD_DISPLAY,_MB_LCD_DISPLAY,52,2,1280,,40
     2162                   
     2163                           .global _LCD_PRESENT
     2164 00002047                  .bss    _LCD_PRESENT,1
     2165                           .sym    _LCD_PRESENT,_LCD_PRESENT,14,2,32
     2166                   
     2167                           .global _TIMER1_COUNTER
     2168 00002048                  .bss    _TIMER1_COUNTER,1
     2169                           .sym    _TIMER1_COUNTER,_TIMER1_COUNTER,4,2,32
     2170                   
     2171                           .global _LCD_DISPLAY
     2172 00002049                  .bss    _LCD_DISPLAY,404
     2173                           .sym    _LCD_DISPLAY,_LCD_DISPLAY,242,2,12928,,4,101
     2174                   
     2175                           .global _HW_VER
     2176 000021dd                  .bss    _HW_VER,1
     2177                           .sym    _HW_VER,_HW_VER,4,2,32
     2178                   
     2179                           .global _LCD_DISP3
     2180 000021de                  .bss    _LCD_DISP3,21
     2181                           .sym    _LCD_DISP3,_LCD_DISP3,50,2,672,,21
     2182                   
     2183                           .global _LCD_DIPSW
     2184 000021f3                  .bss    _LCD_DIPSW,1
     2185                           .sym    _LCD_DIPSW,_LCD_DIPSW,12,2,32
     2186                   ;******************************************************************************
     2187                   ;* CONSTANT TABLE                                                             *
     2188                   ;******************************************************************************
     2189 0000005c                  .sect   ".const"
     2190 000021f4                  .bss    CL1,1
     2191 000021f5                  .bss    CL2,1
     2192 000021f6                  .bss    CL3,1
     2193 000021f7                  .bss    CL4,1
     2194 000021f8                  .bss    CL5,1
     2195 000021f9                  .bss    CL6,1
     2196 000021fa                  .bss    CL7,1
     2197 000021fb                  .bss    CL8,1
     2198 000021fc                  .bss    CL9,1
     2199 000021fd                  .bss    CL10,1
     2200 000021fe                  .bss    CL11,1
     2201 000021ff                  .bss    CL12,1
     2202 00002200                  .bss    CL13,1
     2203 00002201                  .bss    CL14,1
     2204 00002202                  .bss    CL15,1
     2205 00002203                  .bss    CL16,1
     2206 00002204                  .bss    CL17,1
     2207 00002205                  .bss    CL18,1
     2208 00002206                  .bss    CL19,1
     2209 00002207                  .bss    CL20,1
     2210 00002208                  .bss    CL21,1
     2211 00002209                  .bss    CL22,1
     2212 0000220a                  .bss    CL23,1
     2213 0000220b                  .bss    CL24,1
     2214 0000220c                  .bss    CL25,1
TMS320C3x/4x COFF AssemblerVersion 5.12     Mon Oct 31 11:29:47 2011
Copyright (c) 1987-1999 Texas Instruments Incorporatedasm30.exe -@_528.AAB 

D:\CCS\EEA_SA_V611beta\BOOT\SOURCE\ASM\main.asm                      PAGE   42

     2215 0000220d                  .bss    CL26,1
     2216 0000220e                  .bss    CL27,1
     2217 0000220f                  .bss    CL28,1
     2218 00002210                  .bss    CL29,1
     2219 00002211                  .bss    CL30,1
     2220 00002212                  .bss    CL31,1
     2221 00002213                  .bss    CL32,1
     2222 00002214                  .bss    CL33,1
     2223 00002215                  .bss    CL34,1
     2224 00002216                  .bss    CL35,1
     2225 00002217                  .bss    CL36,1
     2226 00002218                  .bss    CL37,1
     2227 00002219                  .bss    CL38,1
     2228 0000221a                  .bss    CL39,1
     2229 0000221b                  .bss    CL40,1
     2230 0000221c                  .bss    CL41,1
     2231 0000221d                  .bss    CL42,1
     2232 0000221e                  .bss    CL43,1
     2233 0000221f                  .bss    CL44,1
     2234 00002220                  .bss    CL45,1
     2235 00002221                  .bss    CL46,1
     2236 00002222                  .bss    CL47,1
     2237 00002223                  .bss    CL48,1
     2238 00002224                  .bss    CL49,1
     2239 00002225                  .bss    CL50,1
     2240 00002226                  .bss    CL51,1
     2241 00002227                  .bss    CL52,1
     2242                   
     2243 00000000                  .sect   ".cinit"
     2244 00000000 00000034         .field          52,32
     2245 00000001 000021f4-        .field          CL1+0,32
     2246 00000002 00900013         .field          9437203,32
     2247 00000003 00900006         .field          9437190,32
     2248 00000004 00900001         .field          9437185,32
     2249 00000005 00000000'        .field          _main1,32
     2250 00000006 00808064         .field          8421476,32
     2251 00000007 00900004         .field          9437188,32
     2252 00000008 00000000!        .field          _LCD_INIT,32
     2253 00000009 00000016-        .field          _boot_blk,32
     2254 0000000a ffffffff         .field          -1,32
     2255 0000000b 00000000!        .field          _call_to_main,32
     2256 0000000c 62000000         .field          1644167168,32
     2257 0000000d 00000017-        .field          _boot_blk+1,32
     2258 0000000e 00000018-        .field          _boot_blk+2,32
     2259 0000000f 00000000!        .field          _c_int00,32
     2260 00000010 00000019-        .field          _boot_blk+3,32
     2261 00000011 00809fc1         .field          8429505,32
     2262 00000012 00809fc1         .field          8429505,32
     2263 00000013 00800000         .field          8388608,32
     2264 00000014 00800000         .field          8388608,32
     2265 00000015 00400000         .field          4194304,32
     2266 00000016 00000000!        .field          _FLASH_ERASE_BLK,32
     2267 00000017 00000000!        .field          _FLASH_WRITE_BLK,32
     2268 00000018 00401000         .field          4198400,32
TMS320C3x/4x COFF AssemblerVersion 5.12     Mon Oct 31 11:29:47 2011
Copyright (c) 1987-1999 Texas Instruments Incorporatedasm30.exe -@_528.AAB 

D:\CCS\EEA_SA_V611beta\BOOT\SOURCE\ASM\main.asm                      PAGE   43

     2269 00000019 00001016-        .field          _boot_blk+4096,32
     2270 0000001a 00000000!        .field          _FLASH_LOCK_BLK,32
     2271 0000001b 000021de-        .field          _LCD_DISP3,32
     2272 0000001c 00000000!        .field          _LCD_STR,32
     2273 0000001d 0098967f         .field          9999999,32
     2274 0000001e 00000000!        .field          _BTCOPY,32
     2275 0000001f 00000000!        .field          _INITIALIZING,32
     2276 00000020 00000002-        .field          _CLOCK,32
     2277 00000021 000021dd-        .field          _HW_VER,32
     2278 00000022 00900000         .field          9437184,32
     2279 00000023 034bc000         .field          55296000,32
     2280 00000024 0000000b!        .field          _PORT+11,32
     2281 00000025 00000007!        .field          _PORT+7,32
     2282 00000026 00000008!        .field          _PORT+8,32
     2283 00000027 00000001-        .field          _vect_pt1,32
     2284 00000028 0000201c-        .field          _vect_p1,32
     2285 00000029 0000201a-        .field          _TIME0,32
     2286 0000002a 0000201b-        .field          _TIME1,32
     2287 0000002b f1483fb7         .word           0F1483FB7H ; double  4.774305555555556e-05
     2288 0000002c 0000000d-        .field          _ESN,32
     2289 0000002d 00000000!        .field          _FLASH_READ_ESN_MFGR,32
     2290 0000002e 00000011-        .field          _ESN+4,32
     2291 0000002f 00000000!        .field          _FLASH_READ_ESN_USER,32
     2292 00000030 00000000!        .field          _Modbus_Initialize,32
     2293 00000031 00020000         .field          131072,32
     2294 00000032 00040000         .field          262144,32
     2295 00000033 00900005         .field          9437189,32
     2296 00000034 00000137'        .field          _Exit_to_App,32
     2297 00000035 00401fff         .field          4202495,32
     2298                   
     2299 0000016e                  .sect   ".text"
     2300                   ;******************************************************************************
     2301                   ;* UNDEFINED EXTERNAL REFERENCES                                              *
     2302                   ;******************************************************************************
     2303                   
     2304                           .global _INITIALIZING
     2305                   
     2306                           .global _FLASH_LOCK_BLK
     2307                   
     2308                           .global _FLASH_ERASE_BLK
     2309                   
     2310                           .global _FLASH_WRITE_BLK
     2311                   
     2312                           .global _FLASH_READ_ESN_MFGR
     2313                   
     2314                           .global _FLASH_READ_ESN_USER
     2315                   
     2316                           .global _PORT
     2317                   
     2318                           .global _Modbus_Initialize
     2319                   
     2320                           .global _BTCOPY
     2321                   
     2322                           .global _call_to_main
TMS320C3x/4x COFF AssemblerVersion 5.12     Mon Oct 31 11:29:47 2011
Copyright (c) 1987-1999 Texas Instruments Incorporatedasm30.exe -@_528.AAB 

D:\CCS\EEA_SA_V611beta\BOOT\SOURCE\ASM\main.asm                      PAGE   44

     2323                   
     2324                           .global _LCD_STR
     2325                   
     2326                           .global _LCD_INIT
     2327                   
     2328                           .global _c_int00
     2329                           .global _Setup_Timer

 No Errors,  No Warnings
TMS320C3x/4x COFF AssemblerVersion 5.12     Mon Oct 31 11:29:47 2011
Copyright (c) 1987-1999 Texas Instruments Incorporatedasm30.exe -@_528.AAB 

D:\CCS\EEA_SA_V611beta\BOOT\SOURCE\ASM\main.asm                      PAGE   45

LABEL                            VALUE       DEFN    REF

.BIGMODEL                        00000001       0 
.C30                             00000000       0 
.C30INTERRUPT                    00000000       0 
.C31                             00000000       0 
.C32                             00000000       0 
.C33                             00000001       0 
.C3X                             00000001       0 
.C3x                             00000001       0 
.C40                             00000000       0 
.C44                             00000000       0 
.C4X                             00000000       0 
.C4x                             00000000       0 
.REGPARM                         00000001       0 
.TMS320C30                       00000001       0 
.TMS320C31                       00000000       0 
.TMS320C32                       00000000       0 
.TMS320C40                       00000000       0 
.TMS320C44                       00000000       0 
.TMS320xx                        00000021       0 
.tms320C30                       00000001       0 
.tms320C31                       00000000       0 
.tms320C32                       00000000       0 
.tms320C40                       00000000       0 
.tms320C44                       00000000       0 
.tms320xx                        00000021       0 
.tmx320C40                       00000000       0 
CL1                              000021f4-   2190    403    404    437    438 
                                                    1179   1180   1251   1252 
                                                    1397   1398   1421   1422 
                                                    1848   1849   1901   1902 
                                                    2053   2054   2245 
CL10                             000021fd-   2199    585    586 
CL11                             000021fe-   2200    587    588 
CL12                             000021ff-   2201    616    617    624 
CL13                             00002200-   2202    639    641    651    652 
                                                     706    707    750    751 
                                                     889    890    901    902 
CL14                             00002201-   2203    637    638    649    650 
                                                     669    670    678    680 
                                                     691    692 
CL15                             00002202-   2204    667    668    676    677 
CL16                             00002203-   2205    793    795    804    806 
CL17                             00002204-   2206    817    818   1536   1537 
CL18                             00002205-   2207    930    932    941    943 
CL19                             00002206-   2208    953    954 
CL2                              000021f5-   2191    425    426   1149   1150 
                                                    1409   1410 
CL20                             00002207-   2209   1033   1034   1047   1048 
                                                    1089   1090 
CL21                             00002208-   2210   1035   1036   1062   1063 
CL22                             00002209-   2211   1045   1046   1075   1076 
TMS320C3x/4x COFF AssemblerVersion 5.12     Mon Oct 31 11:29:47 2011
Copyright (c) 1987-1999 Texas Instruments Incorporatedasm30.exe -@_528.AAB 

D:\CCS\EEA_SA_V611beta\BOOT\SOURCE\ASM\main.asm                      PAGE   46

LABEL                            VALUE       DEFN    REF

CL23                             0000220a-   2212   1060   1061   1077   1078 
                                                    1101   1102 
CL24                             0000220b-   2213   1073   1074 
CL25                             0000220c-   2214   1091   1092   1103   1105 
CL26                             0000220d-   2215   1230   1233   1301   1304 
                                                    1320   1322   1788   1790 
                                                    1814   1816   1825   1827 
CL27                             0000220e-   2216   1318   1319   1823   1824 
CL28                             0000220f-   2217   1331   1332   1339   1340 
CL29                             00002210-   2218   1529   1530 
CL3                              000021f6-   2192    449    450    573    574 
                                                    1114   1115   1201   1202 
                                                    1273   1274   1433   1434 
                                                    1502   1503   1573   1574 
                                                    2041   2042 
CL30                             00002211-   2219   1583   1584   1740   1741 
CL31                             00002212-   2220   1591   1592   1610   1611 
CL32                             00002213-   2221   1601   1603   1941   1942 
CL33                             00002214-   2222   1599   1600 
CL34                             00002215-   2223   1612   1613 
CL35                             00002216-   2224   1619   1620 
CL36                             00002217-   2225   1627   1628 
CL37                             00002218-   2226   1635   1636 
CL38                             00002219-   2227   1642   1643 
CL39                             0000221a-   2228   1649   1650   1994   1995 
                                                    2002   2007   2008 
CL4                              000021f7-   2193    583    584 
CL40                             0000221b-   2229   1661   1662   1669 
CL41                             0000221c-   2230   1678   1679   1687   1688 
CL42                             0000221d-   2231   1680   1681 
CL43                             0000221e-   2232   1709   1710 
CL44                             0000221f-   2233   1707   1708 
CL45                             00002220-   2234   1719   1720 
CL46                             00002221-   2235   1717   1718 
CL47                             00002222-   2236   1732   1733 
CL48                             00002223-   2237   1870   1871   1878   1879 
CL49                             00002224-   2238   1923   1924   1931   1932 
CL5                              000021f8-   2194    485    486   1454   1455 
                                                    2024   2025 
CL50                             00002225-   2239   1947   1948 
CL51                             00002226-   2240   1955   1956 
CL52                             00002227-   2241   1992   1993 
CL6                              000021f9-   2195    502    503   1137   1138 
                                                    1481   1482   1750   1751 
                                                    1778   1779   1836   1837 
                                                    1889   1890 
CL7                              000021fa-   2196    512    513   1491   1492 
TMS320C3x/4x COFF AssemblerVersion 5.12     Mon Oct 31 11:29:47 2011
Copyright (c) 1987-1999 Texas Instruments Incorporatedasm30.exe -@_528.AAB 

D:\CCS\EEA_SA_V611beta\BOOT\SOURCE\ASM\main.asm                      PAGE   47

LABEL                            VALUE       DEFN    REF

CL8                              000021fb-   2197    536    537    546    547 
                                                     595    596    603    716 
                                                     720    727    761    763 
                                                     770    791    792    801 
                                                     802    841    845    852 
                                                     892    894    903    904 
                                                     928    929    938    939 
                                                     969    971    980    984 
                                                     991   1014   1016   1049 
                                                    1051 
CL9                              000021fc-   2198    538    540    549    551 
FP                               0000000b       7 
L11                              00000127+    631    627 
L13                              00000139+    661    657 
L15                              00000146+    685    681 
L16                              00000151+    711    753 
L18                              00000161+    738    732 
L19                              0000016b+    755    709    736 
L21                              00000177+    778    774 
L23                              00000189+    811    807 
L24                              00000193+    836    876 
L26                              000001a3+    863    857 
L27                              000001ab+    878    834    861 
L29                              000001c0+    916    912 
L3                               000000d7+    479    469 
L31                              000001d2+    948    944 
L32                              000001df+    975   1018 
L34                              000001ef+   1002    996 
L35                              000001fa+   1020    973   1000 
L38                              00000237+   1130   1027   1126 
L4                               000000ef+    531    564 
L40                              0000026c+   1227   1240 
L42                              0000027a+   1244   1171 
L43                              0000029a+   1298   1311 
L44                              000002a7+   1313   1225   1242   1296 
L45                              000002b2+   1335   1341 
L46                              000002b8+   1343   1333 
L49                              00000059'   1548   1564 
L50                              00000064'   1566   1546 
L51                              000000c6'   1771   1945   1953   1960 
L53                              000000da'   1809   1805 
L54                              00000100'   1874   1880 
L55                              00000106'   1882   1872 
L56                              00000121'   1927   1933 
L57                              00000127'   1935   1925 
L6                               000000ff+    558    552 
L65                              0000016a'   2090   2005   2011 
L7                               00000104+    566    529    556 
L9                               0000011d+    610    606 
_BOOTPORT                        0000201e-   2156   2155   2157   2157 
_BTCOPY                          REF                2274   2320 
TMS320C3x/4x COFF AssemblerVersion 5.12     Mon Oct 31 11:29:47 2011
Copyright (c) 1987-1999 Texas Instruments Incorporatedasm30.exe -@_528.AAB 

D:\CCS\EEA_SA_V611beta\BOOT\SOURCE\ASM\main.asm                      PAGE   48

LABEL                            VALUE       DEFN    REF

_CLOCK                           00000002-   2112   2111   2113   2113   2276 
_ESN                             0000000d-   2120   2119   2121   2121   2288 
                                                    2290 
_Exit_to_App                     00000137'   1981   1968   1969   1969   2296 
_FLASH_ERASE_BLK                 REF                2266   2308 
_FLASH_LOCK_BLK                  REF                2270   2306 
_FLASH_READ_ESN_MFGR             REF                2289   2312 
_FLASH_READ_ESN_USER             REF                2291   2314 
_FLASH_WRITE_BLK                 REF                2267   2310 
_GATE_TIMEOUT                    0000201d-   2152   2151   2153   2153 
_HW_VER                          000021dd-   2176   2175   2177   2177   2277 
_INITIALIZING                    REF                2275   2304 
_LCD                             00002016-   2128   2127   2129   2129 
_LCD_CNT                         00000000-   2104   2103   2105   2105 
_LCD_DIPSW                       000021f3-   2184   2183   2185   2185 
_LCD_DISP0                       0000001d+     97    122    123    123 
_LCD_DISP1                       00000032+    126    151    152    152 
_LCD_DISP2                       00000047+    155    180    181    181 
_LCD_DISP3                       000021de-   2180   2179   2181   2181   2271 
_LCD_DISPLAY                     00002049-   2172   2171   2173   2173 
_LCD_INIT                        REF                2252   2326 
_LCD_PRESENT                     00002047-   2164   2163   2165   2165 
_LCD_STR                         REF                2272   2324 
_MB_LCD_DISPLAY                  0000201f-   2160   2159   2161   2161 
_MEM                             00002018-   2132   2131   2133   2133 
_Modbus_Initialize               REF                2292   2318 
_PORT                            REF                2280   2281   2282   2316 
_RTC                             00000003-   2116   2115   2117   2117 
_RTC_PRESENT                     00002019-   2136   2135   2137   2137 
_Setup_Timer                     REF                1672   1691   2329 
_TIME0                           0000201a-   2140   2139   2141   2141   2285 
_TIME1                           0000201b-   2144   2143   2145   2145   2286 
_TIMER1_COUNTER                  00002048-   2168   2167   2169   2169 
_boot_blk                        00000016-   2124   2123   2125   2125   2253 
                                                    2257   2258   2260   2269 
_c_int00                         REF                2259   2328 
_call_to_main                    REF                2255   2322 
_copyright                       00000000+     60     93     94     94 
_main                            00000000+    198    185    186    186 
_main1                           00000000'   1370   1357   1358   1358   2249 
_vect_p1                         0000201c-   2148   2073   2078   2083   2147 
                                                    2149   2149   2284 
_vect_pt1                        00000001-   2108   2107   2109   2109   2283 
TMS320C3x/4x COFF AssemblerVersion 5.12     Mon Oct 31 11:29:47 2011
Copyright (c) 1987-1999 Texas Instruments Incorporatedasm30.exe -@_528.AAB 

D:\CCS\EEA_SA_V611beta\BOOT\SOURCE\ASM\main.asm                      PAGE   49

LABEL                            VALUE       DEFN    REF

fp                               0000000b       6    539    548    555    561 
                                                     562    609    630    660 
                                                     684    693    699    705 
                                                     717    718    719    728 
                                                     729    730    735    744 
                                                     745    748    749    762 
                                                     771    777    784    785 
                                                     794    803    810    819 
                                                     825    826    832    842 
                                                     843    844    853    854 
                                                     855    860    869    870 
                                                     873    874    883    884 
                                                     891    905    915    922 
                                                     923    931    940    947 
                                                     955    961    962    968 
                                                     970    981    982    983 
                                                     992    993    994    999 
                                                    1008   1009   1012   1013 
                                                    1015   1025   1039   1054 
                                                    1055   1066   1067   1082 
                                                    1083   1124   1129   1169 
                                                    1223   1228   1229   1237 
                                                    1238   1294   1299   1300 
                                                    1308   1309   1330   1337 
                                                    1338   1346   1347   1347 
                                                    1382   1383   1531   1538 
                                                    1544   1553   1554   1555 
                                                    1561   1562   1770   1789 
                                                    1798   1799   1808   1815 
                                                    1869   1876   1877   1922 
                                                    1929   1930   1986   1987 
                                                    2093   2094   2094 
