;******************************************************************************
;* TMS320C3x/4x ANSI C Code Generator                            Version 5.11 *
;* Date/Time created: Fri Feb  3 11:10:30 2017                                *
;******************************************************************************
	.regalias	; enable floating point register aliases
fp	.set	ar3
FP	.set	ar3
;******************************************************************************
;* GLOBAL FILE PARAMETERS                                                     *
;*                                                                            *
;*   Optimization       : Always Choose Smaller Code Size                     *
;*   Memory             : Big Memory Model                                    *
;*   Float-to-Int       : Normal Conversions (round toward zero)              *
;*   Multiply           : in Software (32 bits)                               *
;*   Memory Info        : Unmapped Memory Exists                              *
;*   Repeat Loops       : Use RPTS and/or RPTB                                *
;*   Calls              : Normal Library ASM calls                            *
;*   Debug Info         : Standard TI Debug Information                       *
;******************************************************************************
;	C:\tic3x4x\c3x4x\cgtools\bin\ac30.exe -@_64K.AAA 
	.file	"lcd.c"
	.file	"F:\WKDIR\CodeComposer\EEA_SA_V613b\INCLUDE\ETC.H"
	.sym	_BOOL,0,14,13,32
	.file	"F:\WKDIR\CodeComposer\EEA_SA_V613b\BOOT\SOURCE\INCLUDE\BUFFER.H"
	.stag	.fake0,131744
	.member	_head,0,4,8,32
	.member	_tail,32,4,8,32
	.member	_n,64,4,8,32
	.member	_CRC16,96,14,8,32
	.member	_buff,128,62,8,131584,,4112
	.member	_locked,131712,14,8,32
	.eos
	.sym	_BFR,0,8,13,131744,.fake0
	.file	"F:\WKDIR\CodeComposer\EEA_SA_V613b\INCLUDE\FLASH.H"
	.file	"F:\WKDIR\CodeComposer\EEA_SA_V613b\BOOT\SOURCE\INCLUDE\SERIAL.H"
	.stag	.fake1,263936
	.member	_STAT,0,12,8,32
	.member	_TMR_Network_WDOG,32,14,8,32
	.member	_TMR_EOT_Delay,64,14,8,32
	.member	_TMR_Preamble_Delay,96,14,8,32
	.member	_TMR_Suffix_Delay,128,14,8,32
	.member	_TMR_Char,160,14,8,32
	.member	_TMR_enabled,192,14,8,32
	.member	_tvector,224,20,8,32
	.member	_pvector,256,20,8,32
	.member	_i,288,14,8,32
	.member	_func,320,14,8,32
	.member	_Slave_ID,352,14,8,32
	.member	_TXbuf,384,8,8,131744,.fake0
	.member	_TX_complete,132128,14,8,32
	.member	_RXbuf,132160,8,8,131744,.fake0
	.member	_RX_pending,263904,14,8,32
	.eos
	.sym	_PORTV,0,8,13,263936,.fake1
	.file	"F:\WKDIR\CodeComposer\EEA_SA_V613b\BOOT\SOURCE\INCLUDE\MODBUSRTU.H"
	.file	"F:\WKDIR\CodeComposer\EEA_SA_V613b\INCLUDE\I2C.H"
	.file	"F:\WKDIR\CodeComposer\EEA_SA_V613b\BOOT\SOURCE\INCLUDE\GLBLS.H"
	.file	"lcd.c"
	.sect	 "internal_RAM"

	.global	_I2C_TX_BYTE_5
	.sym	_I2C_TX_BYTE_5,_I2C_TX_BYTE_5,46,2,0
	.func	57
;******************************************************************************
;* FUNCTION NAME: _I2C_TX_BYTE_5                                              *
;*                                                                            *
;*   Architecture       : TMS320C33                                           *
;*   Calling Convention : TI Standard Register Parameters                     *
;*   Function Uses Regs : r0,ar0,ar2,st                                       *
;*   Regs Saved         :                                                     *
;*   Stack Frame        : Full (w/ debug)                                     *
;*   Total Frame Size   : 2 Call + 0 Parm + 4 Auto + 0 SOE = 6 words          *
;******************************************************************************
_I2C_TX_BYTE_5:
;* ar2   assigned to _b
	.sym	_b,10,12,17,32
	.sym	_b,1,12,1,32
	.sym	_i,2,4,1,32
	.sym	_dat,3,12,1,32
	.sym	_ack,4,14,1,32
	.line	1
;----------------------------------------------------------------------
;  57 | BOOL I2C_TX_BYTE_5(unsigned char b)                                    
;----------------------------------------------------------------------
        push      fp
        ldiu      sp,fp
        addi      4,sp
	.line	2
;----------------------------------------------------------------------
;  59 | int i;                                                                 
;  60 | unsigned char dat;                                                     
;  61 | BOOL ack;                                                              
;----------------------------------------------------------------------
        sti       ar2,*+fp(1)           ; |58| 
	.line	7
;----------------------------------------------------------------------
;  63 | dat = b;                                                               
;----------------------------------------------------------------------
        ldiu      ar2,r0
        sti       r0,*+fp(3)            ; |63| 
	.line	9
;----------------------------------------------------------------------
;  65 | for (i=0;i<8;i++)                                                      
;----------------------------------------------------------------------
        ldiu      0,r0                  ; |65| 
        sti       r0,*+fp(2)            ; |65| 
        cmpi      8,r0                  ; |65| 
        bge       L6                    ; |65| 
;*      Branch Occurs to L6             ; |65| 
L2:        
	.line	11
;----------------------------------------------------------------------
;  67 | if (dat&0x80)                                                          
;----------------------------------------------------------------------
        ldiu      128,r0                ; |67| 
        tstb      *+fp(3),r0            ; |67| 
        beq       L4                    ; |67| 
;*      Branch Occurs to L4             ; |67| 
	.line	13
;----------------------------------------------------------------------
;  69 | SDA_TX_HI_5;                                                           
;  71 | else                                                                   
;----------------------------------------------------------------------
        ldp       @CL1,DP
        ldiu      @CL1,ar0              ; |69| 
        ldiu      1,r0                  ; |69| 
        or3       r0,*ar0,r0            ; |69| 
        sti       r0,*ar0               ; |69| 
        bu        L5                    ; |56| 
;*      Branch Occurs to L5             ; |56| 
L4:        
	.line	17
;----------------------------------------------------------------------
;  73 | SDA_TX_LO_5;                                                           
;----------------------------------------------------------------------
        ldp       @CL1,DP
        ldiu      @CL1,ar0              ; |73| 
        ldiu      254,r0                ; |73| 
        and3      r0,*ar0,r0            ; |73| 
        sti       r0,*ar0               ; |73| 
L5:        
	.line	20
;----------------------------------------------------------------------
;  76 | I2C_PULSE_5;                                                           
;----------------------------------------------------------------------
        ldp       @CL1,DP
        ldiu      @CL1,ar0              ; |76| 
        ldiu      4,r0                  ; |76| 
        or3       r0,*ar0,r0            ; |76| 
        sti       r0,*ar0               ; |76| 
		PUSH    AR1			
		LDI		4,AR1		
		.word	6E46FFFFh	
		POP		AR1			
        ldiu      251,r0                ; |76| 
        and3      r0,*ar0,r0            ; |76| 
        sti       r0,*ar0               ; |76| 
		PUSH    AR1			
		LDI		4,AR1		
		.word	6E46FFFFh	
		POP		AR1			
	.line	22
;----------------------------------------------------------------------
;  78 | dat = dat<<1;                                                          
;----------------------------------------------------------------------
        ldiu      *+fp(3),r0            ; |78| 
        ash       1,r0                  ; |78| 
        sti       r0,*+fp(3)            ; |78| 
	.line	9
        ldiu      1,r0                  ; |65| 
        addi      *+fp(2),r0            ; |65| 
        sti       r0,*+fp(2)            ; |65| 
        cmpi      8,r0                  ; |65| 
        blt       L2                    ; |65| 
;*      Branch Occurs to L2             ; |65| 
L6:        
	.line	25
;----------------------------------------------------------------------
;  81 | DISABLE_SDA_TX_5;                                                      
;----------------------------------------------------------------------
        ldp       @CL1,DP
        ldiu      @CL1,ar0              ; |81| 
        ldiu      253,r0                ; |81| 
        and3      r0,*ar0,r0            ; |81| 
        sti       r0,*ar0               ; |81| 
	.line	26
;----------------------------------------------------------------------
;  82 | SDA_TX_HI_5;                                                           
;----------------------------------------------------------------------
        ldiu      1,r0                  ; |82| 
        or3       r0,*ar0,r0            ; |82| 
        sti       r0,*ar0               ; |82| 
	.line	27
;----------------------------------------------------------------------
;  83 | I2C_WAIT_HI;                                                           
;----------------------------------------------------------------------
		PUSH    AR1			
		LDI		4,AR1		
		.word	6E46FFFFh	
		POP		AR1			
	.line	28
;----------------------------------------------------------------------
;  84 | SCL_HI_5;                                                              
;----------------------------------------------------------------------
        ldiu      4,r0                  ; |84| 
        or3       r0,*ar0,r0            ; |84| 
        sti       r0,*ar0               ; |84| 
	.line	29
;----------------------------------------------------------------------
;  85 | I2C_WAIT_HI;                                                           
;----------------------------------------------------------------------
		PUSH    AR1			
		LDI		4,AR1		
		.word	6E46FFFFh	
		POP		AR1			
	.line	30
;----------------------------------------------------------------------
;  86 | if (SDA_RX_5) ack = FALSE;                                             
;----------------------------------------------------------------------
        ldiu      16,r0                 ; |86| 
        tstb3     *ar0,r0               ; |86| 
        beq       L8                    ; |86| 
;*      Branch Occurs to L8             ; |86| 
        ldiu      0,r0                  ; |86| 
        sti       r0,*+fp(4)            ; |86| 
        bu        L9                    ; |56| 
;*      Branch Occurs to L9             ; |56| 
L8:        
	.line	31
;----------------------------------------------------------------------
;  87 | else ack = TRUE;                                                       
;----------------------------------------------------------------------
        ldiu      1,r0                  ; |87| 
        sti       r0,*+fp(4)            ; |87| 
L9:        
	.line	32
;----------------------------------------------------------------------
;  88 | SCL_LO_5;                                                              
;----------------------------------------------------------------------
        ldp       @CL1,DP
        ldiu      @CL1,ar0              ; |88| 
        ldiu      251,r0                ; |88| 
        and3      r0,*ar0,r0            ; |88| 
        sti       r0,*ar0               ; |88| 
	.line	33
;----------------------------------------------------------------------
;  89 | I2C_WAIT_LO;                                                           
;----------------------------------------------------------------------
		PUSH    AR1			
		LDI		4,AR1		
		.word	6E46FFFFh	
		POP		AR1			
	.line	34
;----------------------------------------------------------------------
;  90 | ENABLE_SDA_TX_5;                                                       
;----------------------------------------------------------------------
        ldiu      2,r0                  ; |90| 
        or3       r0,*ar0,r0            ; |90| 
        sti       r0,*ar0               ; |90| 
	.line	36
;----------------------------------------------------------------------
;  92 | return ack;                                                            
;----------------------------------------------------------------------
        ldiu      *+fp(4),r0            ; |92| 
	.line	37
                                        ; Begin Epilog Code
        ldiu      *-fp(1),r1            ; |93| 
        ldiu      *fp,fp                ; |93| 
                                        ; Unallocate the Frame
        subi      6,sp                  ; |93| 
        bu        r1
;*      Branch Occurs to r1 
	.endfunc	93,000000000h,4


	.sect	 "internal_RAM"

	.global	_I2C_RX_BYTE_5
	.sym	_I2C_RX_BYTE_5,_I2C_RX_BYTE_5,32,2,0
	.func	95
;******************************************************************************
;* FUNCTION NAME: _I2C_RX_BYTE_5                                              *
;*                                                                            *
;*   Architecture       : TMS320C33                                           *
;*   Calling Convention : TI Standard Register Parameters                     *
;*   Function Uses Regs : r0,r2,ar0,ar2,st                                    *
;*   Regs Saved         :                                                     *
;*   Stack Frame        : Full (w/ debug)                                     *
;*   Total Frame Size   : 2 Call + 0 Parm + 4 Auto + 0 SOE = 6 words          *
;******************************************************************************
_I2C_RX_BYTE_5:
;* ar2   assigned to _b
	.sym	_b,10,28,17,32
;* r2    assigned to _ack
	.sym	_ack,2,14,17,32
	.sym	_b,1,28,1,32
	.sym	_ack,2,14,1,32
	.sym	_i,3,4,1,32
	.sym	_dat,4,12,1,32
	.line	1
;----------------------------------------------------------------------
;  95 | void I2C_RX_BYTE_5(unsigned char* b, BOOL ack)                         
;----------------------------------------------------------------------
        push      fp
        ldiu      sp,fp
        addi      4,sp
	.line	2
;----------------------------------------------------------------------
;  97 | int i;                                                                 
;  98 | unsigned char dat;                                                     
;----------------------------------------------------------------------
        sti       r2,*+fp(2)            ; |96| 
        sti       ar2,*+fp(1)           ; |96| 
	.line	6
;----------------------------------------------------------------------
; 100 | dat = 0;                                                               
;----------------------------------------------------------------------
        ldiu      0,r0                  ; |100| 
        sti       r0,*+fp(4)            ; |100| 
	.line	8
;----------------------------------------------------------------------
; 102 | DISABLE_SDA_TX_5;                                                      
;----------------------------------------------------------------------
        ldp       @CL1,DP
        ldiu      @CL1,ar0              ; |102| 
        ldiu      253,r0                ; |102| 
        and3      r0,*ar0,r0            ; |102| 
        sti       r0,*ar0               ; |102| 
	.line	9
;----------------------------------------------------------------------
; 103 | for (i=0;i<8;i++)                                                      
;----------------------------------------------------------------------
        ldiu      0,r0                  ; |103| 
        sti       r0,*+fp(3)            ; |103| 
        cmpi      8,r0                  ; |103| 
        bge       L16                   ; |103| 
;*      Branch Occurs to L16            ; |103| 
L13:        
	.line	11
;----------------------------------------------------------------------
; 105 | SCL_HI_5;                                                              
;----------------------------------------------------------------------
        ldp       @CL1,DP
        ldiu      @CL1,ar0              ; |105| 
        ldiu      4,r0                  ; |105| 
        or3       r0,*ar0,r0            ; |105| 
        sti       r0,*ar0               ; |105| 
	.line	12
;----------------------------------------------------------------------
; 106 | I2C_WAIT_HI;                                                           
;----------------------------------------------------------------------
		PUSH    AR1			
		LDI		4,AR1		
		.word	6E46FFFFh	
		POP		AR1			
	.line	13
;----------------------------------------------------------------------
; 107 | if (SDA_RX_5)   dat |= 0x01;                                           
;----------------------------------------------------------------------
        ldiu      16,r0                 ; |107| 
        tstb3     *ar0,r0               ; |107| 
        beq       L15                   ; |107| 
;*      Branch Occurs to L15            ; |107| 
        ldiu      1,r0                  ; |107| 
        or        *+fp(4),r0            ; |107| 
        sti       r0,*+fp(4)            ; |107| 
L15:        
	.line	14
;----------------------------------------------------------------------
; 108 | SCL_LO_5;                                                              
;----------------------------------------------------------------------
        ldp       @CL1,DP
        ldiu      @CL1,ar0              ; |108| 
        ldiu      251,r0                ; |108| 
        and3      r0,*ar0,r0            ; |108| 
        sti       r0,*ar0               ; |108| 
	.line	15
;----------------------------------------------------------------------
; 109 | I2C_WAIT_LO;                                                           
;----------------------------------------------------------------------
		PUSH    AR1			
		LDI		4,AR1		
		.word	6E46FFFFh	
		POP		AR1			
	.line	16
;----------------------------------------------------------------------
; 110 | dat = dat<<1;                                                          
;----------------------------------------------------------------------
        ldiu      *+fp(4),r0            ; |110| 
        ash       1,r0                  ; |110| 
        sti       r0,*+fp(4)            ; |110| 
	.line	9
        ldiu      1,r0                  ; |103| 
        addi      *+fp(3),r0            ; |103| 
        sti       r0,*+fp(3)            ; |103| 
        cmpi      8,r0                  ; |103| 
        blt       L13                   ; |103| 
;*      Branch Occurs to L13            ; |103| 
L16:        
	.line	19
;----------------------------------------------------------------------
; 113 | dat = dat>>1;                                                          
;----------------------------------------------------------------------
        ldiu      *+fp(4),r0            ; |113| 
        lsh       -1,r0                 ; |113| 
        sti       r0,*+fp(4)            ; |113| 
	.line	21
;----------------------------------------------------------------------
; 115 | ENABLE_SDA_TX_5;                                                       
;----------------------------------------------------------------------
        ldp       @CL1,DP
        ldiu      @CL1,ar0              ; |115| 
        ldiu      2,r0                  ; |115| 
        or3       r0,*ar0,r0            ; |115| 
        sti       r0,*ar0               ; |115| 
	.line	22
;----------------------------------------------------------------------
; 116 | if (ack)                                                               
;----------------------------------------------------------------------
        ldiu      *+fp(2),r0            ; |116| 
        cmpi      0,r0                  ; |116| 
        beq       L18                   ; |116| 
;*      Branch Occurs to L18            ; |116| 
	.line	24
;----------------------------------------------------------------------
; 118 | SDA_TX_LO_5;                                                           
; 120 | else                                                                   
;----------------------------------------------------------------------
        ldp       @CL1,DP
        ldiu      @CL1,ar0              ; |118| 
        ldiu      254,r0                ; |118| 
        and3      r0,*ar0,r0            ; |118| 
        sti       r0,*ar0               ; |118| 
        bu        L19                   ; |94| 
;*      Branch Occurs to L19            ; |94| 
L18:        
	.line	28
;----------------------------------------------------------------------
; 122 | SDA_TX_HI_5;                                                           
;----------------------------------------------------------------------
        ldp       @CL1,DP
        ldiu      @CL1,ar0              ; |122| 
        ldiu      1,r0                  ; |122| 
        or3       r0,*ar0,r0            ; |122| 
        sti       r0,*ar0               ; |122| 
L19:        
	.line	30
;----------------------------------------------------------------------
; 124 | I2C_PULSE_5;                                                           
;----------------------------------------------------------------------
        ldp       @CL1,DP
        ldiu      @CL1,ar0              ; |124| 
        ldiu      4,r0                  ; |124| 
        or3       r0,*ar0,r0            ; |124| 
        sti       r0,*ar0               ; |124| 
		PUSH    AR1			
		LDI		4,AR1		
		.word	6E46FFFFh	
		POP		AR1			
        ldiu      251,r0                ; |124| 
        and3      r0,*ar0,r0            ; |124| 
        sti       r0,*ar0               ; |124| 
		PUSH    AR1			
		LDI		4,AR1		
		.word	6E46FFFFh	
		POP		AR1			
	.line	32
;----------------------------------------------------------------------
; 126 | b[0] = dat;                                                            
;----------------------------------------------------------------------
        ldiu      *+fp(1),ar0           ; |126| 
        ldiu      *+fp(4),r0            ; |126| 
        sti       r0,*ar0               ; |126| 
	.line	33
                                        ; Begin Epilog Code
        ldiu      *-fp(1),r1
        ldiu      *fp,fp
                                        ; Unallocate the Frame
        subi      6,sp
        bu        r1
;*      Branch Occurs to r1 
	.endfunc	127,000000000h,4


	.sect	 "internal_RAM"

	.global	_Write_I2C_5
	.sym	_Write_I2C_5,_Write_I2C_5,46,2,0
	.func	129
;******************************************************************************
;* FUNCTION NAME: _Write_I2C_5                                                *
;*                                                                            *
;*   Architecture       : TMS320C33                                           *
;*   Calling Convention : TI Standard Register Parameters                     *
;*   Function Uses Regs : r0,r2,r3,ar0,ar2,ir0,st                             *
;*   Regs Saved         :                                                     *
;*   Stack Frame        : Full (w/ debug)                                     *
;*   Total Frame Size   : 2 Call + 0 Parm + 7 Auto + 0 SOE = 9 words          *
;******************************************************************************
_Write_I2C_5:
;* ar2   assigned to _addr
	.sym	_addr,10,4,17,32
;* r2    assigned to _n
	.sym	_n,2,4,17,32
;* r3    assigned to _p
	.sym	_p,3,28,17,32
	.sym	_addr,1,4,1,32
	.sym	_n,2,4,1,32
	.sym	_p,3,28,1,32
	.sym	_i,4,4,1,32
	.sym	_dat,5,12,1,32
	.sym	_ack,6,14,1,32
	.sym	_r,7,14,1,32
	.line	1
;----------------------------------------------------------------------
; 129 | BOOL Write_I2C_5(int addr, int n, unsigned char* p)                    
;----------------------------------------------------------------------
        push      fp
        ldiu      sp,fp
        addi      7,sp
	.line	2
;----------------------------------------------------------------------
; 131 | int i;                                                                 
; 132 | unsigned char dat;                                                     
; 133 | BOOL ack;                                                              
; 134 | BOOL r;                                                                
;----------------------------------------------------------------------
        sti       r3,*+fp(3)            ; |130| 
        sti       r2,*+fp(2)            ; |130| 
        sti       ar2,*+fp(1)           ; |130| 
	.line	8
;----------------------------------------------------------------------
; 136 | r = TRUE;                                                              
;----------------------------------------------------------------------
        ldiu      1,r0                  ; |136| 
        sti       r0,*+fp(7)            ; |136| 
	.line	10
;----------------------------------------------------------------------
; 138 | I2C_START_5;                                                           
; 140 | while(TRUE)                                                            
;----------------------------------------------------------------------
        ldp       @CL1,DP
        ldiu      @CL1,ar0              ; |138| 
        ldiu      4,r0                  ; |138| 
        or3       r0,*ar0,r0            ; |138| 
        sti       r0,*ar0               ; |138| 
        ldiu      1,r0                  ; |138| 
        or3       r0,*ar0,r0            ; |138| 
        sti       r0,*ar0               ; |138| 
        ldiu      8,r0                  ; |138| 
        or3       r0,*ar0,r0            ; |138| 
        sti       r0,*ar0               ; |138| 
        ldiu      2,r0                  ; |138| 
        or3       r0,*ar0,r0            ; |138| 
        sti       r0,*ar0               ; |138| 
		PUSH    AR1			
		LDI		15,AR1		
		.word	6E46FFFFh	
		POP		AR1			
        ldiu      254,r0                ; |138| 
        and3      r0,*ar0,r0            ; |138| 
        sti       r0,*ar0               ; |138| 
		PUSH    AR1			
		LDI		15,AR1		
		.word	6E46FFFFh	
		POP		AR1			
        ldiu      251,r0                ; |138| 
        and3      r0,*ar0,r0            ; |138| 
        sti       r0,*ar0               ; |138| 
		PUSH    AR1			
		LDI		15,AR1		
		.word	6E46FFFFh	
		POP		AR1			
	.line	14
;----------------------------------------------------------------------
; 142 | dat = addr;                                             /* address with
;     | out read bit set */                                                    
;----------------------------------------------------------------------
        ldiu      *+fp(1),r0            ; |142| 
        sti       r0,*+fp(5)            ; |142| 
	.line	15
;----------------------------------------------------------------------
; 143 | ack = I2C_TX_BYTE_5(dat);                                              
;----------------------------------------------------------------------
        ldp       @CL2,DP
        ldiu      r0,ar2
        ldiu      @CL2,r0               ; |143| 
        callu     r0                    ; far call to _I2C_TX_BYTE_5	; |143| 
                                        ; |143| Far Call Occurs
        sti       r0,*+fp(6)            ; |143| 
	.line	16
;----------------------------------------------------------------------
; 144 | if (!ack)                                                              
;----------------------------------------------------------------------
        cmpi      0,r0                  ; |144| 
        bne       L24                   ; |144| 
;*      Branch Occurs to L24            ; |144| 
	.line	18
;----------------------------------------------------------------------
; 146 | r = FALSE;                                                             
;----------------------------------------------------------------------
        ldiu      0,r0                  ; |146| 
        sti       r0,*+fp(7)            ; |146| 
	.line	19
;----------------------------------------------------------------------
; 147 | break;                                                                 
; 150 | //              ack = I2C_TX_BYTE_5(n);                 /* the number o
;     | f bytes to write */                                                    
; 151 | //              if (!ack)                                              
; 152 | //              {                                                      
; 153 | //                      r = FALSE;                                     
; 154 | //                      break;                                         
; 155 | //              }                                                      
;----------------------------------------------------------------------
        bu        L30                   ; |147| 
;*      Branch Occurs to L30            ; |147| 
L24:        
	.line	29
;----------------------------------------------------------------------
; 157 | for (i=0;i<n;i++)                                                      
;----------------------------------------------------------------------
        ldiu      0,r0                  ; |157| 
        sti       r0,*+fp(4)            ; |157| 
        cmpi      *+fp(2),r0            ; |157| 
        bge       L30                   ; |157| 
;*      Branch Occurs to L30            ; |157| 
L25:        
	.line	31
;----------------------------------------------------------------------
; 159 | ack = I2C_TX_BYTE_5(p[i]);      /* write the bytes */                  
;----------------------------------------------------------------------
        ldp       @CL2,DP
        ldiu      *+fp(3),ir0           ; |159| 
        ldiu      *+fp(4),ar0           ; |159| 
        ldiu      @CL2,r0               ; |159| 
        ldiu      *+ar0(ir0),ar2        ; |159| 
        callu     r0                    ; far call to _I2C_TX_BYTE_5	; |159| 
                                        ; |159| Far Call Occurs
        sti       r0,*+fp(6)            ; |159| 
	.line	32
;----------------------------------------------------------------------
; 160 | if (!ack)                                                              
;----------------------------------------------------------------------
        cmpi      0,r0                  ; |160| 
        bne       L27                   ; |160| 
;*      Branch Occurs to L27            ; |160| 
	.line	34
;----------------------------------------------------------------------
; 162 | r = FALSE;                                                             
;----------------------------------------------------------------------
        ldiu      0,r0                  ; |162| 
        sti       r0,*+fp(7)            ; |162| 
	.line	35
;----------------------------------------------------------------------
; 163 | break;                                                                 
;----------------------------------------------------------------------
        bu        L30                   ; |163| 
;*      Branch Occurs to L30            ; |163| 
L27:        
	.line	29
        ldiu      1,r0                  ; |157| 
        addi      *+fp(4),r0            ; |157| 
        sti       r0,*+fp(4)            ; |157| 
        cmpi      *+fp(2),r0            ; |157| 
        blt       L25                   ; |157| 
;*      Branch Occurs to L25            ; |157| 
	.line	39
;----------------------------------------------------------------------
; 167 | break;                                                                 
;----------------------------------------------------------------------
        bu        L30                   ; |167| 
;*      Branch Occurs to L30            ; |167| 
	.line	40
L30:        
	.line	42
;----------------------------------------------------------------------
; 170 | I2C_STOP_5;                                                            
;----------------------------------------------------------------------
        ldp       @CL1,DP
        ldiu      @CL1,ar0              ; |170| 
        ldiu      2,r0                  ; |170| 
        or3       r0,*ar0,r0            ; |170| 
        sti       r0,*ar0               ; |170| 
        ldiu      254,r0                ; |170| 
        and3      r0,*ar0,r0            ; |170| 
        sti       r0,*ar0               ; |170| 
		PUSH    AR1			
		LDI		15,AR1		
		.word	6E46FFFFh	
		POP		AR1			
        ldiu      4,r0                  ; |170| 
        or3       r0,*ar0,r0            ; |170| 
        sti       r0,*ar0               ; |170| 
        ldiu      247,r0                ; |170| 
        and3      r0,*ar0,r0            ; |170| 
        sti       r0,*ar0               ; |170| 
		PUSH    AR1			
		LDI		15,AR1		
		.word	6E46FFFFh	
		POP		AR1			
        ldiu      1,r0                  ; |170| 
        or3       r0,*ar0,r0            ; |170| 
        sti       r0,*ar0               ; |170| 
        ldiu      253,r0                ; |170| 
        and3      r0,*ar0,r0            ; |170| 
        sti       r0,*ar0               ; |170| 
		PUSH    AR1			
		LDI		15,AR1		
		.word	6E46FFFFh	
		POP		AR1			
	.line	44
;----------------------------------------------------------------------
; 172 | return r;                                                              
;----------------------------------------------------------------------
        ldiu      *+fp(7),r0            ; |172| 
	.line	45
                                        ; Begin Epilog Code
        ldiu      *-fp(1),r1            ; |173| 
        ldiu      *fp,fp                ; |173| 
                                        ; Unallocate the Frame
        subi      9,sp                  ; |173| 
        bu        r1
;*      Branch Occurs to r1 
	.endfunc	173,000000000h,7


	.sect	 "internal_RAM"

	.global	_Read_I2C_5
	.sym	_Read_I2C_5,_Read_I2C_5,46,2,0
	.func	175
;******************************************************************************
;* FUNCTION NAME: _Read_I2C_5                                                 *
;*                                                                            *
;*   Architecture       : TMS320C33                                           *
;*   Calling Convention : TI Standard Register Parameters                     *
;*   Function Uses Regs : r0,r1,r2,r3,ar0,ar2,st                              *
;*   Regs Saved         :                                                     *
;*   Stack Frame        : Full (w/ debug)                                     *
;*   Total Frame Size   : 2 Call + 0 Parm + 8 Auto + 0 SOE = 10 words         *
;******************************************************************************
_Read_I2C_5:
;* ar2   assigned to _addr
	.sym	_addr,10,4,17,32
;* r2    assigned to _n
	.sym	_n,2,4,17,32
;* r3    assigned to _p
	.sym	_p,3,28,17,32
	.sym	_addr,1,4,1,32
	.sym	_n,2,4,1,32
	.sym	_p,3,28,1,32
	.sym	_i,4,4,1,32
	.sym	_j,5,4,1,32
	.sym	_dat,6,12,1,32
	.sym	_ack,7,14,1,32
	.sym	_r,8,14,1,32
	.line	1
;----------------------------------------------------------------------
; 175 | BOOL Read_I2C_5(int addr, int n, unsigned char* p)                     
;----------------------------------------------------------------------
        push      fp
        ldiu      sp,fp
        addi      8,sp
	.line	2
;----------------------------------------------------------------------
; 177 | int i,j;                                                               
; 178 | unsigned char dat;                                                     
; 179 | BOOL ack;                                                              
; 180 | BOOL r;                                                                
;----------------------------------------------------------------------
        sti       r3,*+fp(3)            ; |176| 
        sti       r2,*+fp(2)            ; |176| 
        sti       ar2,*+fp(1)           ; |176| 
	.line	8
;----------------------------------------------------------------------
; 182 | r = TRUE;                                                              
;----------------------------------------------------------------------
        ldiu      1,r0                  ; |182| 
        sti       r0,*+fp(8)            ; |182| 
	.line	10
;----------------------------------------------------------------------
; 184 | I2C_START_5;                                                           
; 186 | while(TRUE)                                                            
;----------------------------------------------------------------------
        ldp       @CL1,DP
        ldiu      @CL1,ar0              ; |184| 
        ldiu      4,r0                  ; |184| 
        or3       r0,*ar0,r0            ; |184| 
        sti       r0,*ar0               ; |184| 
        ldiu      1,r0                  ; |184| 
        or3       r0,*ar0,r0            ; |184| 
        sti       r0,*ar0               ; |184| 
        ldiu      8,r0                  ; |184| 
        or3       r0,*ar0,r0            ; |184| 
        sti       r0,*ar0               ; |184| 
        ldiu      2,r0                  ; |184| 
        or3       r0,*ar0,r0            ; |184| 
        sti       r0,*ar0               ; |184| 
		PUSH    AR1			
		LDI		15,AR1		
		.word	6E46FFFFh	
		POP		AR1			
        ldiu      254,r0                ; |184| 
        and3      r0,*ar0,r0            ; |184| 
        sti       r0,*ar0               ; |184| 
		PUSH    AR1			
		LDI		15,AR1		
		.word	6E46FFFFh	
		POP		AR1			
        ldiu      251,r0                ; |184| 
        and3      r0,*ar0,r0            ; |184| 
        sti       r0,*ar0               ; |184| 
		PUSH    AR1			
		LDI		15,AR1		
		.word	6E46FFFFh	
		POP		AR1			
	.line	14
;----------------------------------------------------------------------
; 188 | dat = addr | 0x01;                              /* address with read bi
;     | t set */                                                               
;----------------------------------------------------------------------
        ldiu      1,r0                  ; |188| 
        or        *+fp(1),r0            ; |188| 
        sti       r0,*+fp(6)            ; |188| 
	.line	15
;----------------------------------------------------------------------
; 189 | ack = I2C_TX_BYTE_5(dat);                                              
;----------------------------------------------------------------------
        ldp       @CL2,DP
        ldiu      r0,ar2
        ldiu      @CL2,r0               ; |189| 
        callu     r0                    ; far call to _I2C_TX_BYTE_5	; |189| 
                                        ; |189| Far Call Occurs
        sti       r0,*+fp(7)            ; |189| 
	.line	16
;----------------------------------------------------------------------
; 190 | if (!ack)                                                              
;----------------------------------------------------------------------
        cmpi      0,r0                  ; |190| 
        bne       L35                   ; |190| 
;*      Branch Occurs to L35            ; |190| 
	.line	18
;----------------------------------------------------------------------
; 192 | r = FALSE;                                                             
;----------------------------------------------------------------------
        ldiu      0,r0                  ; |192| 
        sti       r0,*+fp(8)            ; |192| 
	.line	19
;----------------------------------------------------------------------
; 193 | break;                                                                 
; 196 | //              ack = I2C_TX_BYTE_5(n);                 /* the number o
;     | f bytes to read */                                                     
; 197 | //              if (!ack)                                              
; 198 | //              {                                                      
; 199 | //                      r = FALSE;                                     
; 200 | //                      break;                                         
; 201 | //              }                                                      
;----------------------------------------------------------------------
        bu        L39                   ; |193| 
;*      Branch Occurs to L39            ; |193| 
L35:        
	.line	29
;----------------------------------------------------------------------
; 203 | for (i=0;i<(n-1);i++)                                                  
;----------------------------------------------------------------------
        ldiu      0,r0                  ; |203| 
        sti       r0,*+fp(4)            ; |203| 
        ldiu      1,r0                  ; |203| 
        ldiu      *+fp(4),r1            ; |203| 
        subri     *+fp(2),r0            ; |203| 
        cmpi3     r0,r1                 ; |203| 
        bge       L37                   ; |203| 
;*      Branch Occurs to L37            ; |203| 
L36:        
	.line	31
;----------------------------------------------------------------------
; 205 | I2C_RX_BYTE_5(&p[i],1);         /* read the bytes */                   
;----------------------------------------------------------------------
        ldiu      *+fp(4),ar2           ; |205| 
        ldp       @CL3,DP
        addi      *+fp(3),ar2           ; |205| Unsigned
        ldiu      @CL3,r0               ; |205| 
        ldiu      1,r2                  ; |205| 
        callu     r0                    ; far call to _I2C_RX_BYTE_5	; |205| 
                                        ; |205| Far Call Occurs
	.line	29
        ldiu      1,r0                  ; |203| 
        addi      *+fp(4),r0            ; |203| 
        sti       r0,*+fp(4)            ; |203| 
        ldiu      1,r0                  ; |203| 
        ldiu      *+fp(4),r1            ; |203| 
        subri     *+fp(2),r0            ; |203| 
        cmpi3     r0,r1                 ; |203| 
        blt       L36                   ; |203| 
;*      Branch Occurs to L36            ; |203| 
L37:        
	.line	34
;----------------------------------------------------------------------
; 208 | I2C_RX_BYTE_5(&p[n-1],0);               /* the final byte to read */   
;----------------------------------------------------------------------
        ldiu      *+fp(2),ar2           ; |208| 
        ldp       @CL3,DP
        addi      *+fp(3),ar2           ; |208| Unsigned
        ldiu      @CL3,r0               ; |208| 
        subi      1,ar2                 ; |208| Unsigned
        ldiu      0,r2                  ; |208| 
        callu     r0                    ; far call to _I2C_RX_BYTE_5	; |208| 
                                        ; |208| Far Call Occurs
	.line	36
;----------------------------------------------------------------------
; 210 | break;                                                                 
;----------------------------------------------------------------------
        bu        L39                   ; |210| 
;*      Branch Occurs to L39            ; |210| 
	.line	37
L39:        
	.line	39
;----------------------------------------------------------------------
; 213 | I2C_STOP_5;                                                            
;----------------------------------------------------------------------
        ldp       @CL1,DP
        ldiu      @CL1,ar0              ; |213| 
        ldiu      2,r0                  ; |213| 
        or3       r0,*ar0,r0            ; |213| 
        sti       r0,*ar0               ; |213| 
        ldiu      254,r0                ; |213| 
        and3      r0,*ar0,r0            ; |213| 
        sti       r0,*ar0               ; |213| 
		PUSH    AR1			
		LDI		15,AR1		
		.word	6E46FFFFh	
		POP		AR1			
        ldiu      4,r0                  ; |213| 
        or3       r0,*ar0,r0            ; |213| 
        sti       r0,*ar0               ; |213| 
        ldiu      247,r0                ; |213| 
        and3      r0,*ar0,r0            ; |213| 
        sti       r0,*ar0               ; |213| 
		PUSH    AR1			
		LDI		15,AR1		
		.word	6E46FFFFh	
		POP		AR1			
        ldiu      1,r0                  ; |213| 
        or3       r0,*ar0,r0            ; |213| 
        sti       r0,*ar0               ; |213| 
        ldiu      253,r0                ; |213| 
        and3      r0,*ar0,r0            ; |213| 
        sti       r0,*ar0               ; |213| 
		PUSH    AR1			
		LDI		15,AR1		
		.word	6E46FFFFh	
		POP		AR1			
	.line	41
;----------------------------------------------------------------------
; 215 | return r;                                                              
;----------------------------------------------------------------------
        ldiu      *+fp(8),r0            ; |215| 
	.line	42
                                        ; Begin Epilog Code
        ldiu      *-fp(1),r1            ; |216| 
        ldiu      *fp,fp                ; |216| 
                                        ; Unallocate the Frame
        subi      10,sp                 ; |216| 
        bu        r1
;*      Branch Occurs to r1 
	.endfunc	216,000000000h,8


	.sect	 "internal_RAM"

	.global	_LCD_CMD
	.sym	_LCD_CMD,_LCD_CMD,32,2,0
	.func	218
;******************************************************************************
;* FUNCTION NAME: _LCD_CMD                                                    *
;*                                                                            *
;*   Architecture       : TMS320C33                                           *
;*   Calling Convention : TI Standard Register Parameters                     *
;*   Function Uses Regs : r0,r2,r3,ar0,ar1,ar2,fp,st                          *
;*   Regs Saved         :                                                     *
;*   Stack Frame        : Full (w/ debug)                                     *
;*   Total Frame Size   : 2 Call + 0 Parm + 3 Auto + 0 SOE = 5 words          *
;******************************************************************************
_LCD_CMD:
;* ar2   assigned to _d
	.sym	_d,10,4,17,32
	.sym	_d,1,4,1,32
	.sym	_t,2,60,1,64,,2
	.line	1
;----------------------------------------------------------------------
; 218 | void LCD_CMD(int d)                                                    
;----------------------------------------------------------------------
        push      fp
        ldiu      sp,fp
        addi      3,sp
	.line	2
;----------------------------------------------------------------------
; 220 | unsigned char t[2];                                                    
;----------------------------------------------------------------------
        sti       ar2,*+fp(1)           ; |219| 
	.line	5
;----------------------------------------------------------------------
; 222 | LCD[0] = 0xFF;                                                         
;----------------------------------------------------------------------
        ldp       @CL4,DP
        ldiu      @CL4,ar0              ; |222| 
        ldiu      255,r0                ; |222| 
        sti       r0,*ar0               ; |222| 
	.line	6
;----------------------------------------------------------------------
; 223 | LCD[1] &= (0xFF^LCDE^LCDRS);    /* clear enable, addr */               
;----------------------------------------------------------------------
        ldiu      @CL4,ar0              ; |223| 
        ldiu      250,r0                ; |223| 
        and       *+ar0(1),r0           ; |223| 
        sti       r0,*+ar0(1)           ; |223| 
	.line	7
;----------------------------------------------------------------------
; 224 | LCD[1] |= LCDRW;                                /* set R/W */          
;----------------------------------------------------------------------
        ldiu      @CL4,ar0              ; |224| 
        ldiu      2,r0                  ; |224| 
        or        *+ar0(1),r0           ; |224| 
        sti       r0,*+ar0(1)           ; |224| 
	.line	8
;----------------------------------------------------------------------
; 225 | LCD[1] |= LCD_READ_MASK;                                               
;----------------------------------------------------------------------
        ldiu      @CL4,ar0              ; |225| 
        ldiu      248,r0                ; |225| 
        or        *+ar0(1),r0           ; |225| 
        sti       r0,*+ar0(1)           ; |225| 
	.line	9
;----------------------------------------------------------------------
; 226 | Write_I2C_5(LCD_ADDR, 2, LCD);                                         
;----------------------------------------------------------------------
        ldp       @CL5,DP
        ldiu      2,r2                  ; |226| 
        ldiu      @CL5,r0               ; |226| 
        ldp       @CL4,DP
        ldiu      64,ar2                ; |226| 
        ldiu      @CL4,r3               ; |226| 
        callu     r0                    ; far call to _Write_I2C_5	; |226| 
                                        ; |226| Far Call Occurs
	.line	10
;----------------------------------------------------------------------
; 227 | Read_I2C_5(LCD_ADDR, 2, LCD);   /* UPDATE inputs */                    
;----------------------------------------------------------------------
        ldp       @CL6,DP
        ldiu      @CL6,r0               ; |227| 
        ldp       @CL4,DP
        ldiu      @CL4,r3               ; |227| 
        ldiu      64,ar2                ; |227| 
        ldiu      2,r2                  ; |227| 
        callu     r0                    ; far call to _Read_I2C_5	; |227| 
                                        ; |227| Far Call Occurs
	.line	11
;----------------------------------------------------------------------
; 228 | LCD_DIPSW = LCD[1]&LCD_READ_MASK;                                      
; 230 | while (TRUE)                                                           
;----------------------------------------------------------------------
        ldp       @CL8,DP
        ldiu      @CL8,ar0              ; |228| 
        ldp       @CL7,DP
        ldiu      248,r0                ; |228| 
        ldiu      @CL7,ar1              ; |228| 
        and3      r0,*ar0,r0            ; |228| 
        sti       r0,*ar1               ; |228| 
L43:        
	.line	15
;----------------------------------------------------------------------
; 232 | LCD[1] |= LCDE;                                 /* set enable */       
;----------------------------------------------------------------------
        ldp       @CL4,DP
        ldiu      @CL4,ar0              ; |232| 
        ldiu      4,r0                  ; |232| 
        or        *+ar0(1),r0           ; |232| 
        sti       r0,*+ar0(1)           ; |232| 
	.line	16
;----------------------------------------------------------------------
; 233 | Write_I2C_5(LCD_ADDR, 2, LCD);                                         
;----------------------------------------------------------------------
        ldp       @CL5,DP
        ldiu      64,ar2                ; |233| 
        ldiu      @CL5,r0               ; |233| 
        ldp       @CL4,DP
        ldiu      2,r2                  ; |233| 
        ldiu      @CL4,r3               ; |233| 
        callu     r0                    ; far call to _Write_I2C_5	; |233| 
                                        ; |233| Far Call Occurs
	.line	18
;----------------------------------------------------------------------
; 235 | Read_I2C_5(LCD_ADDR, 2, t);                                            
;----------------------------------------------------------------------
        ldp       @CL6,DP
        ldiu      64,ar2                ; |235| 
        ldiu      fp,r3                 ; |235| 
        ldiu      @CL6,r0               ; |235| 
        ldiu      2,r2                  ; |235| 
        addi      2,r3                  ; |235| 
        callu     r0                    ; far call to _Read_I2C_5	; |235| 
                                        ; |235| Far Call Occurs
	.line	20
;----------------------------------------------------------------------
; 237 | LCD[1] &= (0xFF^LCDE);                  /* clear enable */             
;----------------------------------------------------------------------
        ldp       @CL4,DP
        ldiu      @CL4,ar0              ; |237| 
        ldiu      251,r0                ; |237| 
        and       *+ar0(1),r0           ; |237| 
        sti       r0,*+ar0(1)           ; |237| 
	.line	21
;----------------------------------------------------------------------
; 238 | Write_I2C_5(LCD_ADDR, 2, LCD);                                         
;----------------------------------------------------------------------
        ldp       @CL5,DP
        ldiu      @CL5,r0               ; |238| 
        ldp       @CL4,DP
        ldiu      2,r2                  ; |238| 
        ldiu      @CL4,r3               ; |238| 
        ldiu      64,ar2                ; |238| 
        callu     r0                    ; far call to _Write_I2C_5	; |238| 
                                        ; |238| Far Call Occurs
	.line	23
;----------------------------------------------------------------------
; 240 | if ((t[0] & 0x80)==0) break;            /* BUSY */                     
;----------------------------------------------------------------------
        ldiu      fp,ar0                ; |240| 
        addi      2,ar0                 ; |240| 
        ldiu      128,r0                ; |240| 
        tstb3     *ar0,r0               ; |240| 
        bne       L43                   ; |240| 
;*      Branch Occurs to L43            ; |240| 
	.line	24
	.line	26
;----------------------------------------------------------------------
; 243 | LCD[0] = d;                                             /* COMMAND */  
;----------------------------------------------------------------------
        ldp       @CL4,DP
        ldiu      @CL4,ar0              ; |243| 
        ldiu      *+fp(1),r0            ; |243| 
        sti       r0,*ar0               ; |243| 
	.line	27
;----------------------------------------------------------------------
; 244 | LCD[1] &= (0xFF^LCDRW^LCDRS);   /* clear R/W, addr */                  
;----------------------------------------------------------------------
        ldiu      @CL4,ar0              ; |244| 
        ldiu      252,r0                ; |244| 
        and       *+ar0(1),r0           ; |244| 
        sti       r0,*+ar0(1)           ; |244| 
	.line	28
;----------------------------------------------------------------------
; 245 | Write_I2C_5(LCD_ADDR, 2, LCD);                                         
;----------------------------------------------------------------------
        ldp       @CL5,DP
        ldiu      64,ar2                ; |245| 
        ldiu      @CL5,r0               ; |245| 
        ldp       @CL4,DP
        ldiu      2,r2                  ; |245| 
        ldiu      @CL4,r3               ; |245| 
        callu     r0                    ; far call to _Write_I2C_5	; |245| 
                                        ; |245| Far Call Occurs
	.line	30
;----------------------------------------------------------------------
; 247 | LCD[1] |= LCDE;                                 /* set enable */       
;----------------------------------------------------------------------
        ldp       @CL4,DP
        ldiu      @CL4,ar0              ; |247| 
        ldiu      4,r0                  ; |247| 
        or        *+ar0(1),r0           ; |247| 
        sti       r0,*+ar0(1)           ; |247| 
	.line	31
;----------------------------------------------------------------------
; 248 | Write_I2C_5(LCD_ADDR, 2, LCD);                                         
;----------------------------------------------------------------------
        ldp       @CL5,DP
        ldiu      @CL5,r0               ; |248| 
        ldp       @CL4,DP
        ldiu      64,ar2                ; |248| 
        ldiu      @CL4,r3               ; |248| 
        ldiu      2,r2                  ; |248| 
        callu     r0                    ; far call to _Write_I2C_5	; |248| 
                                        ; |248| Far Call Occurs
	.line	33
;----------------------------------------------------------------------
; 250 | LCD[1] &= (0xFF^LCDE);                  /* clear enable */             
;----------------------------------------------------------------------
        ldp       @CL4,DP
        ldiu      @CL4,ar0              ; |250| 
        ldiu      251,r0                ; |250| 
        and       *+ar0(1),r0           ; |250| 
        sti       r0,*+ar0(1)           ; |250| 
	.line	34
;----------------------------------------------------------------------
; 251 | Write_I2C_5(LCD_ADDR, 2, LCD);                                         
;----------------------------------------------------------------------
        ldp       @CL5,DP
        ldiu      @CL5,r0               ; |251| 
        ldp       @CL4,DP
        ldiu      64,ar2                ; |251| 
        ldiu      @CL4,r3               ; |251| 
        ldiu      2,r2                  ; |251| 
        callu     r0                    ; far call to _Write_I2C_5	; |251| 
                                        ; |251| Far Call Occurs
	.line	35
                                        ; Begin Epilog Code
        ldiu      *-fp(1),r1
        ldiu      *fp,fp
                                        ; Unallocate the Frame
        subi      5,sp
        bu        r1
;*      Branch Occurs to r1 
	.endfunc	252,000000000h,3


	.sect	 "internal_RAM"

	.global	_LCD_CHAR
	.sym	_LCD_CHAR,_LCD_CHAR,32,2,0
	.func	254
;******************************************************************************
;* FUNCTION NAME: _LCD_CHAR                                                   *
;*                                                                            *
;*   Architecture       : TMS320C33                                           *
;*   Calling Convention : TI Standard Register Parameters                     *
;*   Function Uses Regs : r0,r2,r3,ar0,ar2,fp,st                              *
;*   Regs Saved         :                                                     *
;*   Stack Frame        : Full (w/ debug)                                     *
;*   Total Frame Size   : 2 Call + 0 Parm + 3 Auto + 0 SOE = 5 words          *
;******************************************************************************
_LCD_CHAR:
;* ar2   assigned to _d
	.sym	_d,10,4,17,32
	.sym	_d,1,4,1,32
	.sym	_t,2,60,1,64,,2
	.line	1
;----------------------------------------------------------------------
; 254 | void LCD_CHAR(int d)                                                   
;----------------------------------------------------------------------
        push      fp
        ldiu      sp,fp
        addi      3,sp
	.line	2
;----------------------------------------------------------------------
; 256 | unsigned char t[2];                                                    
;----------------------------------------------------------------------
        sti       ar2,*+fp(1)           ; |255| 
	.line	5
;----------------------------------------------------------------------
; 258 | if (!LCD_PRESENT) return;                                              
;----------------------------------------------------------------------
        ldp       @CL9,DP
        ldiu      @CL9,ar0              ; |258| 
        ldiu      *ar0,r0               ; |258| 
        cmpi      0,r0                  ; |258| 
        beq       L51                   ; |258| 
;*      Branch Occurs to L51            ; |258| 
	.line	7
;----------------------------------------------------------------------
; 260 | LCD[0] = 0xFF;                                                         
;----------------------------------------------------------------------
        ldp       @CL4,DP
        ldiu      @CL4,ar0              ; |260| 
        ldiu      255,r0                ; |260| 
        sti       r0,*ar0               ; |260| 
	.line	8
;----------------------------------------------------------------------
; 261 | LCD[1] &= (0xFF^LCDE^LCDRS);    /* clear enable, addr */               
;----------------------------------------------------------------------
        ldiu      @CL4,ar0              ; |261| 
        ldiu      250,r0                ; |261| 
        and       *+ar0(1),r0           ; |261| 
        sti       r0,*+ar0(1)           ; |261| 
	.line	9
;----------------------------------------------------------------------
; 262 | LCD[1] |= LCDRW;                                /* set R/W */          
;----------------------------------------------------------------------
        ldiu      @CL4,ar0              ; |262| 
        ldiu      2,r0                  ; |262| 
        or        *+ar0(1),r0           ; |262| 
        sti       r0,*+ar0(1)           ; |262| 
	.line	10
;----------------------------------------------------------------------
; 263 | Write_I2C_5(LCD_ADDR, 2, LCD);                                         
; 265 | while (TRUE)                                                           
;----------------------------------------------------------------------
        ldp       @CL5,DP
        ldiu      64,ar2                ; |263| 
        ldiu      @CL5,r0               ; |263| 
        ldp       @CL4,DP
        ldiu      2,r2                  ; |263| 
        ldiu      @CL4,r3               ; |263| 
        callu     r0                    ; far call to _Write_I2C_5	; |263| 
                                        ; |263| Far Call Occurs
L49:        
	.line	14
;----------------------------------------------------------------------
; 267 | LCD[1] |= LCDE;                                 /* set enable */       
;----------------------------------------------------------------------
        ldp       @CL4,DP
        ldiu      @CL4,ar0              ; |267| 
        ldiu      4,r0                  ; |267| 
        or        *+ar0(1),r0           ; |267| 
        sti       r0,*+ar0(1)           ; |267| 
	.line	15
;----------------------------------------------------------------------
; 268 | Write_I2C_5(LCD_ADDR, 2, LCD);                                         
;----------------------------------------------------------------------
        ldp       @CL5,DP
        ldiu      64,ar2                ; |268| 
        ldiu      @CL5,r0               ; |268| 
        ldp       @CL4,DP
        ldiu      2,r2                  ; |268| 
        ldiu      @CL4,r3               ; |268| 
        callu     r0                    ; far call to _Write_I2C_5	; |268| 
                                        ; |268| Far Call Occurs
	.line	17
;----------------------------------------------------------------------
; 270 | Read_I2C_5(LCD_ADDR, 2, t);                                            
;----------------------------------------------------------------------
        ldp       @CL6,DP
        ldiu      64,ar2                ; |270| 
        ldiu      fp,r3                 ; |270| 
        ldiu      @CL6,r0               ; |270| 
        ldiu      2,r2                  ; |270| 
        addi      2,r3                  ; |270| 
        callu     r0                    ; far call to _Read_I2C_5	; |270| 
                                        ; |270| Far Call Occurs
	.line	19
;----------------------------------------------------------------------
; 272 | LCD[1] &= (0xFF^LCDE);                  /* clear enable */             
;----------------------------------------------------------------------
        ldp       @CL4,DP
        ldiu      @CL4,ar0              ; |272| 
        ldiu      251,r0                ; |272| 
        and       *+ar0(1),r0           ; |272| 
        sti       r0,*+ar0(1)           ; |272| 
	.line	20
;----------------------------------------------------------------------
; 273 | Write_I2C_5(LCD_ADDR, 2, LCD);                                         
;----------------------------------------------------------------------
        ldp       @CL5,DP
        ldiu      @CL5,r0               ; |273| 
        ldp       @CL4,DP
        ldiu      2,r2                  ; |273| 
        ldiu      @CL4,r3               ; |273| 
        ldiu      64,ar2                ; |273| 
        callu     r0                    ; far call to _Write_I2C_5	; |273| 
                                        ; |273| Far Call Occurs
	.line	22
;----------------------------------------------------------------------
; 275 | if ((t[0] & 0x80)==0) break;            /* BUSY */                     
;----------------------------------------------------------------------
        ldiu      fp,ar0                ; |275| 
        addi      2,ar0                 ; |275| 
        ldiu      128,r0                ; |275| 
        tstb3     *ar0,r0               ; |275| 
        bne       L49                   ; |275| 
;*      Branch Occurs to L49            ; |275| 
	.line	23
	.line	25
;----------------------------------------------------------------------
; 278 | LCD[0] = d;                                             /* CHAR */     
;----------------------------------------------------------------------
        ldp       @CL4,DP
        ldiu      @CL4,ar0              ; |278| 
        ldiu      *+fp(1),r0            ; |278| 
        sti       r0,*ar0               ; |278| 
	.line	26
;----------------------------------------------------------------------
; 279 | LCD[1] &= (0xFF^LCDRW);                 /* clear R/W */                
;----------------------------------------------------------------------
        ldiu      @CL4,ar0              ; |279| 
        ldiu      253,r0                ; |279| 
        and       *+ar0(1),r0           ; |279| 
        sti       r0,*+ar0(1)           ; |279| 
	.line	27
;----------------------------------------------------------------------
; 280 | LCD[1] |= LCDRS;                                /* set addr */         
;----------------------------------------------------------------------
        ldiu      @CL4,ar0              ; |280| 
        ldiu      1,r0                  ; |280| 
        or        *+ar0(1),r0           ; |280| 
        sti       r0,*+ar0(1)           ; |280| 
	.line	28
;----------------------------------------------------------------------
; 281 | Write_I2C_5(LCD_ADDR, 2, LCD);                                         
;----------------------------------------------------------------------
        ldp       @CL5,DP
        ldiu      64,ar2                ; |281| 
        ldiu      @CL5,r0               ; |281| 
        ldp       @CL4,DP
        ldiu      2,r2                  ; |281| 
        ldiu      @CL4,r3               ; |281| 
        callu     r0                    ; far call to _Write_I2C_5	; |281| 
                                        ; |281| Far Call Occurs
	.line	30
;----------------------------------------------------------------------
; 283 | LCD[1] |= LCDE;                                 /* set enable */       
;----------------------------------------------------------------------
        ldp       @CL4,DP
        ldiu      @CL4,ar0              ; |283| 
        ldiu      4,r0                  ; |283| 
        or        *+ar0(1),r0           ; |283| 
        sti       r0,*+ar0(1)           ; |283| 
	.line	31
;----------------------------------------------------------------------
; 284 | Write_I2C_5(LCD_ADDR, 2, LCD);                                         
;----------------------------------------------------------------------
        ldp       @CL5,DP
        ldiu      @CL5,r0               ; |284| 
        ldiu      64,ar2                ; |284| 
        ldp       @CL4,DP
        ldiu      2,r2                  ; |284| 
        ldiu      @CL4,r3               ; |284| 
        callu     r0                    ; far call to _Write_I2C_5	; |284| 
                                        ; |284| Far Call Occurs
	.line	33
;----------------------------------------------------------------------
; 286 | LCD[1] &= (0xFF^LCDE);                  /* clear enable */             
;----------------------------------------------------------------------
        ldp       @CL4,DP
        ldiu      @CL4,ar0              ; |286| 
        ldiu      251,r0                ; |286| 
        and       *+ar0(1),r0           ; |286| 
        sti       r0,*+ar0(1)           ; |286| 
	.line	34
;----------------------------------------------------------------------
; 287 | Write_I2C_5(LCD_ADDR, 2, LCD);                                         
;----------------------------------------------------------------------
        ldp       @CL5,DP
        ldiu      @CL5,r0               ; |287| 
        ldp       @CL4,DP
        ldiu      64,ar2                ; |287| 
        ldiu      @CL4,r3               ; |287| 
        ldiu      2,r2                  ; |287| 
        callu     r0                    ; far call to _Write_I2C_5	; |287| 
                                        ; |287| Far Call Occurs
	.line	36
;----------------------------------------------------------------------
; 289 | LCD[1] &= (0xFF^LCDRS);                 /* clear addr */               
;----------------------------------------------------------------------
        ldp       @CL4,DP
        ldiu      @CL4,ar0              ; |289| 
        ldiu      254,r0                ; |289| 
        and       *+ar0(1),r0           ; |289| 
        sti       r0,*+ar0(1)           ; |289| 
	.line	37
;----------------------------------------------------------------------
; 290 | Write_I2C_5(LCD_ADDR, 2, LCD);                                         
;----------------------------------------------------------------------
        ldp       @CL5,DP
        ldiu      64,ar2                ; |290| 
        ldiu      @CL5,r0               ; |290| 
        ldp       @CL4,DP
        ldiu      2,r2                  ; |290| 
        ldiu      @CL4,r3               ; |290| 
        callu     r0                    ; far call to _Write_I2C_5	; |290| 
                                        ; |290| Far Call Occurs
L51:        
	.line	38
                                        ; Begin Epilog Code
        ldiu      *-fp(1),r1
        ldiu      *fp,fp
                                        ; Unallocate the Frame
        subi      5,sp
        bu        r1
;*      Branch Occurs to r1 
	.endfunc	291,000000000h,3


	.sect	 "internal_RAM"

	.global	_LCD_STR
	.sym	_LCD_STR,_LCD_STR,32,2,0
	.func	293
;******************************************************************************
;* FUNCTION NAME: _LCD_STR                                                    *
;*                                                                            *
;*   Architecture       : TMS320C33                                           *
;*   Calling Convention : TI Standard Register Parameters                     *
;*   Function Uses Regs : r0,r2,ar0,ar2,ir0,st                                *
;*   Regs Saved         :                                                     *
;*   Stack Frame        : Full (w/ debug)                                     *
;*   Total Frame Size   : 2 Call + 0 Parm + 4 Auto + 0 SOE = 6 words          *
;******************************************************************************
_LCD_STR:
;* ar2   assigned to _s
	.sym	_s,10,18,17,32
;* r2    assigned to _line
	.sym	_line,2,4,17,32
	.sym	_s,1,18,1,32
	.sym	_line,2,4,1,32
	.sym	_addr,3,4,1,32
	.sym	_i,4,4,1,32
	.line	1
;----------------------------------------------------------------------
; 293 | void LCD_STR(char* s, int line)                                        
;----------------------------------------------------------------------
        push      fp
        ldiu      sp,fp
        addi      4,sp
	.line	2
;----------------------------------------------------------------------
; 295 | int addr;                                                              
; 296 | int i;                                                                 
;----------------------------------------------------------------------
        sti       r2,*+fp(2)            ; |294| 
        sti       ar2,*+fp(1)           ; |294| 
	.line	6
;----------------------------------------------------------------------
; 298 | if (!LCD_PRESENT) return;                                              
; 300 | switch(line)                                                           
; 302 |         case 0:                                                        
;----------------------------------------------------------------------
        ldp       @CL9,DP
        ldiu      @CL9,ar0              ; |298| 
        ldiu      *ar0,r0               ; |298| 
        cmpi      0,r0                  ; |298| 
        beq       L67                   ; |298| 
;*      Branch Occurs to L67            ; |298| 
        bu        L60                   ; |292| 
;*      Branch Occurs to L60            ; |292| 
L55:        
	.line	12
;----------------------------------------------------------------------
; 304 | addr = 0x80;                                                           
;----------------------------------------------------------------------
        ldiu      128,r0                ; |304| 
        sti       r0,*+fp(3)            ; |304| 
	.line	13
;----------------------------------------------------------------------
; 305 | break;                                                                 
; 308 | case 1:                                                                
;----------------------------------------------------------------------
        bu        L65                   ; |305| 
;*      Branch Occurs to L65            ; |305| 
L56:        
	.line	18
;----------------------------------------------------------------------
; 310 | addr = 0xC0;                                                           
;----------------------------------------------------------------------
        ldiu      192,r0                ; |310| 
        sti       r0,*+fp(3)            ; |310| 
	.line	19
;----------------------------------------------------------------------
; 311 | break;                                                                 
; 314 | case 2:                                                                
;----------------------------------------------------------------------
        bu        L65                   ; |311| 
;*      Branch Occurs to L65            ; |311| 
L57:        
	.line	24
;----------------------------------------------------------------------
; 316 | addr = 0x94;                                                           
;----------------------------------------------------------------------
        ldiu      148,r0                ; |316| 
        sti       r0,*+fp(3)            ; |316| 
	.line	25
;----------------------------------------------------------------------
; 317 | break;                                                                 
; 320 | case 3:                                                                
;----------------------------------------------------------------------
        bu        L65                   ; |317| 
;*      Branch Occurs to L65            ; |317| 
L58:        
	.line	30
;----------------------------------------------------------------------
; 322 | addr = 0xD4;                                                           
;----------------------------------------------------------------------
        ldiu      212,r0                ; |322| 
        sti       r0,*+fp(3)            ; |322| 
	.line	31
;----------------------------------------------------------------------
; 323 | break;                                                                 
; 326 | default:                                                               
;----------------------------------------------------------------------
        bu        L65                   ; |323| 
;*      Branch Occurs to L65            ; |323| 
	.line	36
;----------------------------------------------------------------------
; 328 | return;                                                                
;----------------------------------------------------------------------
L60:        
	.line	8
        ldiu      *+fp(2),r0            ; |300| 
        cmpi      0,r0                  ; |300| 
        beq       L55                   ; |300| 
;*      Branch Occurs to L55            ; |300| 
        cmpi      1,r0                  ; |300| 
        beq       L56                   ; |300| 
;*      Branch Occurs to L56            ; |300| 
        cmpi      2,r0                  ; |300| 
        beq       L57                   ; |300| 
;*      Branch Occurs to L57            ; |300| 
        cmpi      3,r0                  ; |300| 
        beq       L58                   ; |300| 
;*      Branch Occurs to L58            ; |300| 
        bu        L67                   ; |300| 
;*      Branch Occurs to L67            ; |300| 
L65:        
	.line	40
;----------------------------------------------------------------------
; 332 | LCD_CMD(addr);                                                         
;----------------------------------------------------------------------
        ldp       @CL10,DP
        ldiu      *+fp(3),ar2           ; |332| 
        ldiu      @CL10,r0              ; |332| 
        callu     r0                    ; far call to _LCD_CMD	; |332| 
                                        ; |332| Far Call Occurs
	.line	41
;----------------------------------------------------------------------
; 333 | for (i=0;i<20;i++)                                                     
;----------------------------------------------------------------------
        ldiu      0,r0                  ; |333| 
        sti       r0,*+fp(4)            ; |333| 
        cmpi      20,r0                 ; |333| 
        bge       L67                   ; |333| 
;*      Branch Occurs to L67            ; |333| 
L66:        
	.line	43
;----------------------------------------------------------------------
; 335 | LCD_CHAR(s[i]);                                                        
;----------------------------------------------------------------------
        ldp       @CL11,DP
        ldiu      *+fp(1),ir0           ; |335| 
        ldiu      *+fp(4),ar0           ; |335| 
        ldiu      @CL11,r0              ; |335| 
        ldiu      *+ar0(ir0),ar2        ; |335| 
        callu     r0                    ; far call to _LCD_CHAR	; |335| 
                                        ; |335| Far Call Occurs
	.line	41
        ldiu      1,r0                  ; |333| 
        addi      *+fp(4),r0            ; |333| 
        sti       r0,*+fp(4)            ; |333| 
        cmpi      20,r0                 ; |333| 
        blt       L66                   ; |333| 
;*      Branch Occurs to L66            ; |333| 
L67:        
	.line	45
                                        ; Begin Epilog Code
        ldiu      *-fp(1),r1
        ldiu      *fp,fp
                                        ; Unallocate the Frame
        subi      6,sp
        bu        r1
;*      Branch Occurs to r1 
	.endfunc	337,000000000h,4


	.sect	 ".text"

	.global	_LCD_INIT
	.sym	_LCD_INIT,_LCD_INIT,46,2,0
	.func	339
;******************************************************************************
;* FUNCTION NAME: _LCD_INIT                                                   *
;*                                                                            *
;*   Architecture       : TMS320C33                                           *
;*   Calling Convention : TI Standard Register Parameters                     *
;*   Function Uses Regs : r0,r1,r2,r3,ar0,ar1,ar2,ir0,st                      *
;*   Regs Saved         :                                                     *
;*   Stack Frame        : Full (w/ debug)                                     *
;*   Total Frame Size   : 2 Call + 0 Parm + 3 Auto + 0 SOE = 5 words          *
;******************************************************************************
_LCD_INIT:
	.sym	_r,1,14,1,32
	.sym	_i,2,4,1,32
	.sym	_j,3,4,1,32
	.line	1
;----------------------------------------------------------------------
; 339 | BOOL LCD_INIT(void)                                                    
; 341 | BOOL r;                                                                
; 342 | int i;                                                                 
; 343 | int j;                                                                 
;----------------------------------------------------------------------
        push      fp
        ldiu      sp,fp
        addi      3,sp
	.line	7
;----------------------------------------------------------------------
; 345 | _GIEP;                                                                 
;----------------------------------------------------------------------
	push	ST			
	andn	2000h, ST	
	.line	9
;----------------------------------------------------------------------
; 347 | LCD_DIPSW = 0xFF;                                                      
;----------------------------------------------------------------------
        ldp       @CL7,DP
        ldiu      @CL7,ar0              ; |347| 
        ldiu      255,r0                ; |347| 
        sti       r0,*ar0               ; |347| 
	.line	10
;----------------------------------------------------------------------
; 348 | LCD[0] = 0xFF;                                                         
;----------------------------------------------------------------------
        ldp       @CL4,DP
        ldiu      @CL4,ar0              ; |348| 
        sti       r0,*ar0               ; |348| 
	.line	11
;----------------------------------------------------------------------
; 349 | LCD[1] = 0xFF;                                                         
;----------------------------------------------------------------------
        ldp       @CL8,DP
        ldiu      @CL8,ar0              ; |349| 
        sti       r0,*ar0               ; |349| 
	.line	12
;----------------------------------------------------------------------
; 350 | LCD[1] |= LCD_READ_MASK;                                               
;----------------------------------------------------------------------
        ldp       @CL4,DP
        ldiu      @CL4,ar0              ; |350| 
        ldiu      248,r0                ; |350| 
        or        *+ar0(1),r0           ; |350| 
        sti       r0,*+ar0(1)           ; |350| 
	.line	13
;----------------------------------------------------------------------
; 351 | r =     Write_I2C_5(LCD_ADDR, 2, LCD);                                 
;----------------------------------------------------------------------
        ldp       @CL5,DP
        ldiu      64,ar2                ; |351| 
        ldiu      @CL5,r0               ; |351| 
        ldp       @CL4,DP
        ldiu      2,r2                  ; |351| 
        ldiu      @CL4,r3               ; |351| 
        callu     r0                    ; far call to _Write_I2C_5	; |351| 
                                        ; |351| Far Call Occurs
        sti       r0,*+fp(1)            ; |351| 
	.line	14
;----------------------------------------------------------------------
; 352 | r =     Read_I2C_5(LCD_ADDR, 2, LCD);                                  
;----------------------------------------------------------------------
        ldp       @CL6,DP
        ldiu      @CL6,r0               ; |352| 
        ldp       @CL4,DP
        ldiu      @CL4,r3               ; |352| 
        ldiu      2,r2                  ; |352| 
        ldiu      64,ar2                ; |352| 
        callu     r0                    ; far call to _Read_I2C_5	; |352| 
                                        ; |352| Far Call Occurs
        sti       r0,*+fp(1)            ; |352| 
	.line	15
;----------------------------------------------------------------------
; 353 | LCD_DIPSW = LCD[1]&LCD_READ_MASK;                                      
;----------------------------------------------------------------------
        ldp       @CL8,DP
        ldiu      @CL8,ar1              ; |353| 
        ldp       @CL7,DP
        ldiu      248,r0                ; |353| 
        ldiu      @CL7,ar0              ; |353| 
        and3      r0,*ar1,r0            ; |353| 
        sti       r0,*ar0               ; |353| 
	.line	17
;----------------------------------------------------------------------
; 355 | if (!r)                                                                
;----------------------------------------------------------------------
        ldiu      *+fp(1),r0            ; |355| 
        cmpi      0,r0                  ; |355| 
        bne       L71                   ; |355| 
;*      Branch Occurs to L71            ; |355| 
	.line	19
;----------------------------------------------------------------------
; 357 | LCD_PRESENT = FALSE;                                                   
; 359 | else                                                                   
;----------------------------------------------------------------------
        ldp       @CL9,DP
        ldiu      @CL9,ar0              ; |357| 
        ldiu      0,r0                  ; |357| 
        sti       r0,*ar0               ; |357| 
        bu        L72                   ; |338| 
;*      Branch Occurs to L72            ; |338| 
L71:        
	.line	23
;----------------------------------------------------------------------
; 361 | LCD_PRESENT = TRUE;                                                    
;----------------------------------------------------------------------
        ldp       @CL9,DP
        ldiu      @CL9,ar0              ; |361| 
        ldiu      1,r0                  ; |361| 
        sti       r0,*ar0               ; |361| 
	.line	24
;----------------------------------------------------------------------
; 362 | LCD_CMD(0x38);          /* set 8 bit, 2 line     */                    
;----------------------------------------------------------------------
        ldp       @CL10,DP
        ldiu      56,ar2                ; |362| 
        ldiu      @CL10,r0              ; |362| 
        callu     r0                    ; far call to _LCD_CMD	; |362| 
                                        ; |362| Far Call Occurs
	.line	25
;----------------------------------------------------------------------
; 363 | LCD_CMD(0x30);          /* set 8 bit             */                    
;----------------------------------------------------------------------
        ldp       @CL10,DP
        ldiu      @CL10,r0              ; |363| 
        ldiu      48,ar2                ; |363| 
        callu     r0                    ; far call to _LCD_CMD	; |363| 
                                        ; |363| Far Call Occurs
	.line	26
;----------------------------------------------------------------------
; 364 | LCD_CMD(0x38);          /* set 8 bit, 2 line     */                    
;----------------------------------------------------------------------
        ldp       @CL10,DP
        ldiu      @CL10,r0              ; |364| 
        ldiu      56,ar2                ; |364| 
        callu     r0                    ; far call to _LCD_CMD	; |364| 
                                        ; |364| Far Call Occurs
	.line	27
;----------------------------------------------------------------------
; 365 | LCD_CMD(0x0C);          /* display ON, no cursor */                    
;----------------------------------------------------------------------
        ldp       @CL10,DP
        ldiu      @CL10,r0              ; |365| 
        ldiu      12,ar2                ; |365| 
        callu     r0                    ; far call to _LCD_CMD	; |365| 
                                        ; |365| Far Call Occurs
	.line	28
;----------------------------------------------------------------------
; 366 | LCD_CMD(0x01);          /* clear display         */                    
;----------------------------------------------------------------------
        ldp       @CL10,DP
        ldiu      @CL10,r0              ; |366| 
        ldiu      1,ar2                 ; |366| 
        callu     r0                    ; far call to _LCD_CMD	; |366| 
                                        ; |366| Far Call Occurs
	.line	29
;----------------------------------------------------------------------
; 367 | LCD_CMD(0x06);          /* clear addr inc        */                    
;----------------------------------------------------------------------
        ldp       @CL10,DP
        ldiu      6,ar2                 ; |367| 
        ldiu      @CL10,r0              ; |367| 
        callu     r0                    ; far call to _LCD_CMD	; |367| 
                                        ; |367| Far Call Occurs
	.line	30
;----------------------------------------------------------------------
; 368 | LCD_CMD(0x80);          /* set addr to zero      */                    
;----------------------------------------------------------------------
        ldp       @CL10,DP
        ldiu      @CL10,r0              ; |368| 
        ldiu      128,ar2               ; |368| 
        callu     r0                    ; far call to _LCD_CMD	; |368| 
                                        ; |368| Far Call Occurs
L72:        
	.line	33
;----------------------------------------------------------------------
; 371 | for (i=0;i<21;i++)                                                     
;----------------------------------------------------------------------
        ldiu      0,r0                  ; |371| 
        sti       r0,*+fp(2)            ; |371| 
        cmpi      21,r0                 ; |371| 
        ldiu      32,r1                 ; |373| 
        bge       L74                   ; |371| 
;*      Branch Occurs to L74            ; |371| 
L73:        
	.line	35
;----------------------------------------------------------------------
; 373 | LCD_DISP3[i] = 0x20;                                                   
;----------------------------------------------------------------------
        ldp       @CL12,DP
        ldiu      *+fp(2),ir0           ; |373| 
        ldiu      @CL12,ar0             ; |373| 
        sti       r1,*+ar0(ir0)         ; |373| 
	.line	33
        ldiu      1,r0                  ; |371| 
        addi      *+fp(2),r0            ; |371| 
        sti       r0,*+fp(2)            ; |371| 
        cmpi      21,r0                 ; |371| 
        blt       L73                   ; |371| 
;*      Branch Occurs to L73            ; |371| 
L74:        
	.line	38
;----------------------------------------------------------------------
; 376 | LCD_STR((char*)&LCD_DISP0,0);                                          
;----------------------------------------------------------------------
        ldp       @CL14,DP
        ldiu      @CL14,r0              ; |376| 
        ldp       @CL13,DP
        ldiu      0,r2                  ; |376| 
        ldiu      @CL13,ar2             ; |376| 
        callu     r0                    ; far call to _LCD_STR	; |376| 
                                        ; |376| Far Call Occurs
	.line	39
;----------------------------------------------------------------------
; 377 | LCD_STR((char*)&LCD_DISP1,1);                                          
;----------------------------------------------------------------------
        ldp       @CL14,DP
        ldiu      @CL14,r0              ; |377| 
        ldp       @CL15,DP
        ldiu      1,r2                  ; |377| 
        ldiu      @CL15,ar2             ; |377| 
        callu     r0                    ; far call to _LCD_STR	; |377| 
                                        ; |377| Far Call Occurs
	.line	40
;----------------------------------------------------------------------
; 378 | LCD_STR((char*)&LCD_DISP2,2);                                          
;----------------------------------------------------------------------
        ldp       @CL14,DP
        ldiu      @CL14,r0              ; |378| 
        ldp       @CL16,DP
        ldiu      2,r2                  ; |378| 
        ldiu      @CL16,ar2             ; |378| 
        callu     r0                    ; far call to _LCD_STR	; |378| 
                                        ; |378| Far Call Occurs
	.line	41
;----------------------------------------------------------------------
; 379 | LCD_STR((char*)&LCD_DISP3,3);                                          
;----------------------------------------------------------------------
        ldp       @CL14,DP
        ldiu      @CL14,r0              ; |379| 
        ldp       @CL12,DP
        ldiu      @CL12,ar2             ; |379| 
        ldiu      3,r2                  ; |379| 
        callu     r0                    ; far call to _LCD_STR	; |379| 
                                        ; |379| Far Call Occurs
	.line	43
;----------------------------------------------------------------------
; 381 | GIEP;                                                                  
;----------------------------------------------------------------------
	pop		ST			
	.line	44
;----------------------------------------------------------------------
; 382 | return LCD_PRESENT;                                                    
;----------------------------------------------------------------------
        ldp       @CL9,DP
        ldiu      @CL9,ar0              ; |382| 
        ldiu      *ar0,r0               ; |382| 
	.line	45
                                        ; Begin Epilog Code
        ldiu      *-fp(1),r1            ; |383| 
        ldiu      *fp,fp                ; |383| 
                                        ; Unallocate the Frame
        subi      5,sp                  ; |383| 
        bu        r1
;*      Branch Occurs to r1 
	.endfunc	383,000000000h,3


;******************************************************************************
;* CONSTANT TABLE                                                             *
;******************************************************************************
	.sect	".const"
	.bss	CL1,1
	.bss	CL2,1
	.bss	CL3,1
	.bss	CL4,1
	.bss	CL5,1
	.bss	CL6,1
	.bss	CL7,1
	.bss	CL8,1
	.bss	CL9,1
	.bss	CL10,1
	.bss	CL11,1
	.bss	CL12,1
	.bss	CL13,1
	.bss	CL14,1
	.bss	CL15,1
	.bss	CL16,1

	.sect	".cinit"
	.field  	16,32
	.field  	CL1+0,32
	.field  	9437187,32
	.field  	_I2C_TX_BYTE_5,32
	.field  	_I2C_RX_BYTE_5,32
	.field  	_LCD,32
	.field  	_Write_I2C_5,32
	.field  	_Read_I2C_5,32
	.field  	_LCD_DIPSW,32
	.field  	_LCD+1,32
	.field  	_LCD_PRESENT,32
	.field  	_LCD_CMD,32
	.field  	_LCD_CHAR,32
	.field  	_LCD_DISP3,32
	.field  	_LCD_DISP0,32
	.field  	_LCD_STR,32
	.field  	_LCD_DISP1,32
	.field  	_LCD_DISP2,32

	.sect	".text"
;******************************************************************************
;* UNDEFINED EXTERNAL REFERENCES                                              *
;******************************************************************************

	.global	_LCD_DIPSW

	.global	_LCD

	.global	_LCD_PRESENT

	.global	_LCD_DISP0

	.global	_LCD_DISP1

	.global	_LCD_DISP2

	.global	_LCD_DISP3
