TMS320C3x/4x COFF AssemblerVersion 5.12     Mon Nov 19 13:45:24 2018
Copyright (c) 1987-1999 Texas Instruments Incorporatedasm30.exe -@_6L4.AAB 

F:\WKDIR\CodeComposer\EEA_SA_V613b\BOOT\SOURCE\ASM\main.asm          PAGE    1

        1                   ;******************************************************************************
        2                   ;* TMS320C3x/4x ANSI C Code Generator                            Version 5.11 *
        3                   ;* Date/Time created: Mon Nov 19 13:45:24 2018                                *
        4                   ;******************************************************************************
        5                           .regalias       ; enable floating point register aliases
        6          0000000b fp      .set    ar3
        7          0000000b FP      .set    ar3
        8                   ;******************************************************************************
        9                   ;* GLOBAL FILE PARAMETERS                                                     *
       10                   ;*                                                                            *
       11                   ;*   Optimization       : Always Choose Smaller Code Size                     *
       12                   ;*   Memory             : Big Memory Model                                    *
       13                   ;*   Float-to-Int       : Normal Conversions (round toward zero)              *
       14                   ;*   Multiply           : in Software (32 bits)                               *
       15                   ;*   Memory Info        : Unmapped Memory Exists                              *
       16                   ;*   Repeat Loops       : Use RPTS and/or RPTB                                *
       17                   ;*   Calls              : Normal Library ASM calls                            *
       18                   ;*   Debug Info         : Standard TI Debug Information                       *
       19                   ;******************************************************************************
       20                   ;       C:\tic3x4x\c3x4x\cgtools\bin\ac30.exe -@_6L4.AAA 
       21                           .file   "main.c"
       22                           .file   "GLBLS.H"
       23                           .file   ".\stdarg.h"
       24                           .sym    _va_list,0,18,13,32
       25                           .file   ".\format.h"
       26                           .stag   .fake0,128
       27                           .member _flags,0,14,8,32
       28                           .member _fwidth,32,4,8,32
       29                           .member _precision,64,4,8,32
       30                           .member _conv,96,2,8,32
       31                           .eos
       32                           .sym    __PFIELD,0,8,13,128,.fake0
       33                           .stag   .fake1,3200
       34                           .member _flags,0,14,8,32
       35                           .member _fwidth,32,4,8,32
       36                           .member _precision,64,4,8,32
       37                           .member _scanset,96,50,8,3072,,96
       38                           .member _conv,3168,2,8,32
       39                           .eos
       40                           .sym    __SFIELD,0,8,13,3200,.fake1
       41                           .file   ".\string.h"
       42                           .sym    _size_t,0,14,13,32
       43                           .file   ".\stdio.h"
       44                           .stag   .fake2,224
       45                           .member _fd,0,4,8,32
       46                           .member _buf,32,28,8,32
       47                           .member _pos,64,28,8,32
       48                           .member _bufend,96,28,8,32
       49                           .member _buff_stop,128,28,8,32
       50                           .member _flags,160,14,8,32
       51                           .member _index,192,4,8,32
       52                           .eos
       53                           .sym    _FILE,0,8,13,224,.fake2
       54                           .sym    _fpos_t,0,5,13,32
TMS320C3x/4x COFF AssemblerVersion 5.12     Mon Nov 19 13:45:24 2018
Copyright (c) 1987-1999 Texas Instruments Incorporatedasm30.exe -@_6L4.AAB 

F:\WKDIR\CodeComposer\EEA_SA_V613b\BOOT\SOURCE\ASM\main.asm          PAGE    2

       55                           .stag   .fake3,544
       56                           .member _name,0,50,8,288,,9
       57                           .member _flags,288,13,8,32
       58                           .member _OPEN,320,148,8,32
       59                           .member _CLOSE,352,148,8,32
       60                           .member _READ,384,148,8,32
       61                           .member _WRITE,416,148,8,32
       62                           .member _LSEEK,448,149,8,32
       63                           .member _UNLINK,480,148,8,32
       64                           .member _RENAME,512,148,8,32
       65                           .eos
       66                           .sym    __DEVICE,0,8,13,544,.fake3
       67                           .file   ".\stdlib.h"
       68                           .sym    _wchar_t,0,2,13,32
       69                           .stag   __div_t,64
       70                           .member _quot,0,4,8,32
       71                           .member _rem,32,4,8,32
       72                           .eos
       73                           .sym    _div_t,0,8,13,64,__div_t
       74                           .sym    _ldiv_t,0,8,13,64,__div_t
       75                           .file   ".\math.h"
       76                           .file   ".\time.h"
       77                           .sym    _clock_t,0,15,13,32
       78                           .sym    _time_t,0,15,13,32
       79                           .stag   _tm,288
       80                           .member _tm_sec,0,4,8,32
       81                           .member _tm_min,32,4,8,32
       82                           .member _tm_hour,64,4,8,32
       83                           .member _tm_mday,96,4,8,32
       84                           .member _tm_mon,128,4,8,32
       85                           .member _tm_year,160,4,8,32
       86                           .member _tm_wday,192,4,8,32
       87                           .member _tm_yday,224,4,8,32
       88                           .member _tm_isdst,256,4,8,32
       89                           .eos
       90                           .stag   _tmzone,320
       91                           .member _daylight,0,3,8,32
       92                           .member _timezone,32,5,8,32
       93                           .member _tzname,64,50,8,128,,4
       94                           .member _dstname,192,50,8,128,,4
       95                           .eos
       96                           .file   "ETC.H"
       97                           .sym    _BOOL,0,14,13,32
       98                           .file   "LIST.H"
       99                           .stag   .fake4,96
      100                           .member _head,0,20,8,32
      101                           .member _tail,32,20,8,32
      102                           .member _n,64,4,8,32
      103                           .eos
      104                           .sym    _LIST,0,8,13,96,.fake4
      105                           .stag   .fake5,64
      106                           .member _prev,0,20,8,32
      107                           .member _next,32,20,8,32
      108                           .eos
TMS320C3x/4x COFF AssemblerVersion 5.12     Mon Nov 19 13:45:24 2018
Copyright (c) 1987-1999 Texas Instruments Incorporatedasm30.exe -@_6L4.AAB 

F:\WKDIR\CodeComposer\EEA_SA_V613b\BOOT\SOURCE\ASM\main.asm          PAGE    3

      109                           .sym    _GENERIC,0,8,13,64,.fake5
      110                           .file   "VARIABLE.H"
      111                           .stag   .fake6,1408
      112                           .member _val,0,6,8,32
      113                           .member _vect1,32,20,8,32
      114                           .member _vect2,64,20,8,32
      115                           .member _STAT,96,4,8,32
      116                           .member _dampening,128,6,8,32
      117                           .member _damp_count,160,4,8,32
      118                           .member _aux,192,4,8,32
      119                           .member _val1,224,6,8,32
      120                           .member _val2,256,6,8,32
      121                           .member _calc_val,288,11,8,64
      122                           .member _base_val,352,11,8,64
      123                           .member _unit,416,4,8,32
      124                           .member _calc_unit,448,4,8,32
      125                           .member _class,480,4,8,32
      126                           .member _scale,512,6,8,32
      127                           .member _scale_long,544,6,8,32
      128                           .member _bound_hi_set,576,6,8,32
      129                           .member _bound_lo_set,608,6,8,32
      130                           .member _alarm_hi_set,640,6,8,32
      131                           .member _alarm_lo_set,672,6,8,32
      132                           .member _name,704,50,8,672,,21
      133                           .member _name_r,1376,4,8,32
      134                           .eos
      135                           .sym    _VAR,0,8,13,1408,.fake6
      136                           .stag   .fake7,96
      137                           .member _val,0,14,8,32
      138                           .member _vect,32,20,8,32
      139                           .member _vect2,64,20,8,32
      140                           .eos
      141                           .sym    _COIL,0,8,13,96,.fake7
      142                           .stag   .fake8,64
      143                           .member _val,0,4,8,32
      144                           .member _vect,32,20,8,32
      145                           .eos
      146                           .sym    _REGVECT,0,8,13,64,.fake8
      147                           .stag   .fake9,96
      148                           .member _prev,0,20,8,32
      149                           .member _next,32,20,8,32
      150                           .member _v,64,24,8,32,.fake6
      151                           .eos
      152                           .sym    _DPKT,0,8,13,96,.fake9
      153                           .file   "BUFFER.H"
      154                           .stag   .fake10,9824
      155                           .member _head,0,4,8,32
      156                           .member _tail,32,4,8,32
      157                           .member _n,64,4,8,32
      158                           .member _GSEED,96,14,8,32
      159                           .member _CRC16,128,14,8,32
      160                           .member _buff,160,62,8,9600,,300
      161                           .member _sum,9760,4,8,32
      162                           .member _locked,9792,14,8,32
TMS320C3x/4x COFF AssemblerVersion 5.12     Mon Nov 19 13:45:24 2018
Copyright (c) 1987-1999 Texas Instruments Incorporatedasm30.exe -@_6L4.AAB 

F:\WKDIR\CodeComposer\EEA_SA_V613b\BOOT\SOURCE\ASM\main.asm          PAGE    4

      163                           .eos
      164                           .sym    _BFR,0,8,13,9824,.fake10
      165                           .file   "UNITS.H"
      166                           .file   "TIMER.H"
      167                           .stag   .fake11,320
      168                           .member _prev,0,20,8,32
      169                           .member _next,32,20,8,32
      170                           .member _vect,64,20,8,32
      171                           .member _priority,96,4,8,32
      172                           .member _parent,128,20,8,32
      173                           .member _n,160,4,8,32
      174                           .member _prev_n,192,4,8,32
      175                           .member _countdown,224,4,8,32
      176                           .member _preset_time,256,4,8,32
      177                           .member _t,288,6,8,32
      178                           .eos
      179                           .sym    _TPKT,0,8,13,320,.fake11
      180                           .file   "I2C.H"
      181                           .file   "ERRORS.H"
      182                           .file   "SERIAL.H"
      183                           .stag   .fake12,2272
      184                           .member _Slave,0,4,8,32
      185                           .member _SNUM,32,4,8,32
      186                           .member _PRESENT,64,14,8,32
      187                           .member _TX_complete,96,14,8,32
      188                           .member _RX_pending,128,14,8,32
      189                           .member _BUSY,160,14,8,32
      190                           .member _IGNORE_RX,192,14,8,32
      191                           .member _STAT,224,12,8,32
      192                           .member _DAT,256,12,8,32
      193                           .member _broadcast,288,14,8,32
      194                           .member _TMR_Network_WDOG,320,4,8,32
      195                           .member _TMR_EOT_Delay,352,4,8,32
      196                           .member _TMR_Prefix_Delay,384,4,8,32
      197                           .member _TMR_Suffix_Delay,416,4,8,32
      198                           .member _TMR_Char,448,4,8,32
      199                           .member _TMR_Poll,480,8,8,320,.fake11
      200                           .member _TMR_Retry,800,8,8,320,.fake11
      201                           .member _nr,1120,4,8,32
      202                           .member _Received_PKT,1152,14,8,32
      203                           .member _TMR_enabled,1184,14,8,32
      204                           .member _tvector,1216,20,8,32
      205                           .member _pvector,1248,20,8,32
      206                           .member _pvector_main,1280,20,8,32
      207                           .member _tvector_main,1312,20,8,32
      208                           .member _fvector,1344,20,8,32
      209                           .member _actual_baud_rate,1376,6,8,32
      210                           .member _c,1408,14,8,32
      211                           .member _r,1440,14,8,32
      212                           .member _n,1472,4,8,32
      213                           .member _n_exp,1504,4,8,32
      214                           .member _ai,1536,4,8,32
      215                           .member _start,1568,4,8,32
      216                           .member _i,1600,4,8,32
TMS320C3x/4x COFF AssemblerVersion 5.12     Mon Nov 19 13:45:24 2018
Copyright (c) 1987-1999 Texas Instruments Incorporatedasm30.exe -@_6L4.AAB 

F:\WKDIR\CodeComposer\EEA_SA_V613b\BOOT\SOURCE\ASM\main.asm          PAGE    5

      217                           .member _i_main,1632,4,8,32
      218                           .member _func,1664,14,8,32
      219                           .member _ERROR_COUNT,1696,14,8,32
      220                           .member _WDOG_COUNT,1728,14,8,32
      221                           .member _INV_CMD_COUNT,1760,14,8,32
      222                           .member _INV_PKT_COUNT,1792,14,8,32
      223                           .member _SUCCESS,1824,14,8,32
      224                           .member _NUM_RETRIES,1856,14,8,32
      225                           .member _FLAG1,1888,14,8,32
      226                           .member _FLAG2,1920,14,8,32
      227                           .member _FLAG3,1952,14,8,32
      228                           .member _LONG_ADDRESS,1984,14,8,32
      229                           .member _MASTER,2016,8,8,96,.fake4
      230                           .member _p,2112,20,8,32
      231                           .member _data,2144,14,8,32
      232                           .member _f,2176,22,8,32
      233                           .member _l,2208,30,8,32
      234                           .member _failed,2240,14,8,32
      235                           .eos
      236                           .sym    _PORTV,0,8,13,2272,.fake12
      237                           .stag   .fake13,11488
      238                           .member _PREFIX,0,8,8,1408,.fake6
      239                           .member _SUFFIX,1408,8,8,1408,.fake6
      240                           .member _NETWDOG,2816,8,8,1408,.fake6
      241                           .member _Slave_ID,4224,8,8,1408,.fake6
      242                           .member _Baud_Rate,5632,8,8,1408,.fake6
      243                           .member _Parity,7040,4,8,32
      244                           .member _n_bits,7072,4,8,32
      245                           .member _STP,7104,4,8,32
      246                           .member _N,7136,4,8,32
      247                           .member _N_retry,7168,4,8,32
      248                           .member _EOT_Delay,7200,8,8,1408,.fake6
      249                           .member _Retry_Time,8608,8,8,1408,.fake6
      250                           .member _Num_Retry,10016,8,8,1408,.fake6
      251                           .member _poll_time,11424,4,8,32
      252                           .member _timeout,11456,4,8,32
      253                           .eos
      254                           .sym    _PORTC,0,8,13,11488,.fake13
      255                           .stag   .fake14,672
      256                           .member _prev,0,20,8,32
      257                           .member _next,32,20,8,32
      258                           .member _rxvect,64,20,8,32
      259                           .member _txvect,96,20,8,32
      260                           .member _n,128,4,8,32
      261                           .member _slave,160,4,8,32
      262                           .member _func,192,4,8,32
      263                           .member _addr,224,4,8,32
      264                           .member _num,256,4,8,32
      265                           .member _v,288,54,8,320,,10
      266                           .member _flt_ptr,608,22,8,32
      267                           .member _int_ptr,640,20,8,32
      268                           .eos
      269                           .sym    _MPKT,0,8,13,672,.fake14
      270                           .file   "ADC.H"
TMS320C3x/4x COFF AssemblerVersion 5.12     Mon Nov 19 13:45:24 2018
Copyright (c) 1987-1999 Texas Instruments Incorporatedasm30.exe -@_6L4.AAB 

F:\WKDIR\CodeComposer\EEA_SA_V613b\BOOT\SOURCE\ASM\main.asm          PAGE    6

      271                           .stag   .fake15,10176
      272                           .member _CURRENT,0,8,8,1408,.fake6
      273                           .member _CURRENT_PERCENT_OF_RANGE,1408,8,8,1408,.fake6
      274                           .member _LRV,2816,8,8,1408,.fake6
      275                           .member _URV,4224,8,8,1408,.fake6
      276                           .member _TRIM_MIN,5632,8,8,1408,.fake6
      277                           .member _TRIM_MAX,7040,8,8,1408,.fake6
      278                           .member _VALUE,8448,8,8,1408,.fake6
      279                           .member _TRIM_MIN_C,9856,6,8,32
      280                           .member _TRIM_MAX_C,9888,6,8,32
      281                           .member _v,9920,8,8,64,.fake8
      282                           .member _class,9984,8,8,64,.fake8
      283                           .member _unit,10048,8,8,64,.fake8
      284                           .member _present,10112,14,8,32
      285                           .member _val,10144,6,8,32
      286                           .eos
      287                           .sym    _LOOPDATA_I,0,8,13,10176,.fake15
      288                           .file   "DAC.H"
      289                           .stag   .fake16,13408
      290                           .member _CURRENT,0,8,8,1408,.fake6
      291                           .member _CURRENT_PERCENT_OF_RANGE,1408,8,8,1408,.fake6
      292                           .member _LRV,2816,8,8,1408,.fake6
      293                           .member _URV,4224,8,8,1408,.fake6
      294                           .member _TRIM_MIN,5632,8,8,1408,.fake6
      295                           .member _TRIM_MAX,7040,8,8,1408,.fake6
      296                           .member _TRIM_MIN_C,8448,6,8,32
      297                           .member _TRIM_MAX_C,8480,6,8,32
      298                           .member _ALARM_SELECT,8512,4,8,32
      299                           .member _MINSPAN,8544,6,8,32
      300                           .member _v,8576,8,8,64,.fake8
      301                           .member _class,8640,8,8,64,.fake8
      302                           .member _unit,8704,8,8,64,.fake8
      303                           .member _MANUAL,8768,4,8,32
      304                           .member _MANUAL_PERCENT,8800,6,8,32
      305                           .member _REVERSE,8832,4,8,32
      306                           .member _PID_input,8864,6,8,32
      307                           .member _PID_setpoint,8896,6,8,32
      308                           .member _P,8928,8,8,1408,.fake6
      309                           .member _I,10336,8,8,1408,.fake6
      310                           .member _D,11744,8,8,1408,.fake6
      311                           .member _pid_lastcycle,13152,4,8,32
      312                           .member _pid_output,13184,6,8,32
      313                           .member _pid_propband,13216,6,8,32
      314                           .member _pid_error,13248,6,8,32
      315                           .member _pid_bias,13280,6,8,32
      316                           .member _present,13312,14,8,32
      317                           .member _PID_fail,13344,14,8,32
      318                           .member _PID_enable_failsafe,13376,14,8,32
      319                           .eos
      320                           .sym    _LOOPDATA_O,0,8,13,13408,.fake16
      321                           .file   "EXECUTE.H"
      322                           .stag   .fake17,128
      323                           .member _prev,0,20,8,32
      324                           .member _next,32,20,8,32
TMS320C3x/4x COFF AssemblerVersion 5.12     Mon Nov 19 13:45:24 2018
Copyright (c) 1987-1999 Texas Instruments Incorporatedasm30.exe -@_6L4.AAB 

F:\WKDIR\CodeComposer\EEA_SA_V613b\BOOT\SOURCE\ASM\main.asm          PAGE    7

      325                           .member _vect,64,20,8,32
      326                           .member _priority,96,4,8,32
      327                           .eos
      328                           .sym    _EPKT,0,8,13,128,.fake17
      329                           .file   "FLASH.H"
      330                           .file   "LOG.H"
      331                           .stag   .fake18,384
      332                           .member _log_len,0,14,8,32
      333                           .member _log_n_sectors,32,14,8,32
      334                           .member _log_n_max_per_sector,64,14,8,32
      335                           .member _log_n,96,14,8,32
      336                           .member _log_current_sector,128,14,8,32
      337                           .member _log_absolute_index,160,14,8,32
      338                           .member _log_start,192,30,8,32
      339                           .member _log_sector_size,224,14,8,32
      340                           .member _log_record_size,256,14,8,32
      341                           .member _log_end,288,14,8,32
      342                           .member _LOG_ERASE,320,14,8,32
      343                           .member _erased_sector,352,14,8,32
      344                           .eos
      345                           .sym    _LOG,0,8,13,384,.fake18
      346                           .file   "DEMO.H"
      347                           .file   "SELFTEST.H"
      348                           .file   "MENU.H"
      349                           .stag   .fake19,16288
      350                           .member _INIT,0,14,8,32
      351                           .member _FRESH,32,14,8,32
      352                           .member _MENU,64,14,8,32
      353                           .member _SELECT,96,14,8,32
      354                           .member _VALUE,128,14,8,32
      355                           .member _ENTER,160,14,8,32
      356                           .member _DIR,192,4,8,32
      357                           .member _DIR_CHANGE,224,14,8,32
      358                           .member _M,256,14,8,32
      359                           .member _S,288,14,8,32
      360                           .member _V,320,14,8,32
      361                           .member _E,352,14,8,32
      362                           .member _CURSOR_ENABLED,384,14,8,32
      363                           .member _CURSOR_ROW,416,4,8,32
      364                           .member _CURSOR_COL,448,4,8,32
      365                           .member _CNT,480,14,8,32
      366                           .member _MENU_CNT,512,14,8,32
      367                           .member _SELECT_CNT,544,14,8,32
      368                           .member _VALUE_CNT,576,14,8,32
      369                           .member _k,608,14,8,32
      370                           .member _MODE_LOCKDOWN,640,14,8,32
      371                           .member _MODE_WPROT,672,14,8,32
      372                           .member _MODE_DEFINE,704,14,8,32
      373                           .member _MODE_USER,736,14,8,32
      374                           .member _MODE_TECH,768,14,8,32
      375                           .member _MODE_NORMAL,800,14,8,32
      376                           .member _menu_list_top,832,14,8,32
      377                           .member _menu_list_operations,864,14,8,32
      378                           .member _menu_list_configurations,896,14,8,32
TMS320C3x/4x COFF AssemblerVersion 5.12     Mon Nov 19 13:45:24 2018
Copyright (c) 1987-1999 Texas Instruments Incorporatedasm30.exe -@_6L4.AAB 

F:\WKDIR\CodeComposer\EEA_SA_V613b\BOOT\SOURCE\ASM\main.asm          PAGE    8

      379                           .member _menu_list_security_info,928,14,8,32
      380                           .member _menu_list_measurements,960,14,8,32
      381                           .member _menu_list_changed,992,14,8,32
      382                           .member _PAGE,1024,14,8,32
      383                           .member _SUBPAGE,1056,14,8,32
      384                           .member _MENU_TRAP,1088,14,8,32
      385                           .member _DIP,1120,62,8,128,,4
      386                           .member _tmpf,1248,54,8,320,,10
      387                           .member _tmpi,1568,52,8,320,,10
      388                           .member _str,1888,242,8,12928,,4,101
      389                           .member _tmpv,14816,8,8,1408,.fake6
      390                           .member _ptmpv,16224,24,8,32,.fake6
      391                           .member _tbl,16256,20,8,32
      392                           .eos
      393                           .sym    _MENU_STRUCT,0,8,13,16288,.fake19
      394                           .file   "FLOAT1.H"
      395                           .file   "GLBLS.H"
      396                           .stag   .fake20,480
      397                           .member _i,0,4,8,32
      398                           .member _Watercut,32,6,8,32
      399                           .member _Temperature,64,6,8,32
      400                           .member _Salinity,96,6,8,32
      401                           .member _Frequency_Oil,128,6,8,32
      402                           .member _Frequency_Water,160,6,8,32
      403                           .member _RefPower_Oil,192,6,8,32
      404                           .member _RefPower_Water,224,6,8,32
      405                           .member _Dadj,256,6,8,32
      406                           .member _Time_HH,288,4,8,32
      407                           .member _Time_MM,320,4,8,32
      408                           .member _Time_MONTH,352,4,8,32
      409                           .member _Time_DAY,384,4,8,32
      410                           .member _Time_DAY_OF_WEEK,416,4,8,32
      411                           .member _Time_YEAR,448,4,8,32
      412                           .eos
      413                           .sym    _CAPDATA,0,8,13,480,.fake20
      414                           .stag   .fake21,640
      415                           .member _Watercut,0,54,8,64,,2
      416                           .member _Temperature,64,54,8,64,,2
      417                           .member _Salinity,128,54,8,64,,2
      418                           .member _Frequency_Oil,192,54,8,64,,2
      419                           .member _Frequency_Water,256,54,8,64,,2
      420                           .member _RefPower_Oil,320,54,8,64,,2
      421                           .member _RefPower_Water,384,54,8,64,,2
      422                           .member _Dadj,448,54,8,64,,2
      423                           .member _Time_MONTH_DAY_HH_MM,512,52,8,64,,2
      424                           .member _CLRSTAT_Time_YEAR,576,52,8,64,,2
      425                           .eos
      426                           .sym    _CAPRECORD,0,8,13,640,.fake21
      427                           .stag   .fake22,800
      428                           .member _Start_HH,0,4,8,32
      429                           .member _Start_MM,32,4,8,32
      430                           .member _Start_SS,64,4,8,32
      431                           .member _Start_MONTH,96,4,8,32
      432                           .member _Start_DAY,128,4,8,32
TMS320C3x/4x COFF AssemblerVersion 5.12     Mon Nov 19 13:45:24 2018
Copyright (c) 1987-1999 Texas Instruments Incorporatedasm30.exe -@_6L4.AAB 

F:\WKDIR\CodeComposer\EEA_SA_V613b\BOOT\SOURCE\ASM\main.asm          PAGE    9

      433                           .member _Start_YEAR,160,4,8,32
      434                           .member _Stop_HH,192,4,8,32
      435                           .member _Stop_MM,224,4,8,32
      436                           .member _Stop_SS,256,4,8,32
      437                           .member _Stop_MONTH,288,4,8,32
      438                           .member _Stop_DAY,320,4,8,32
      439                           .member _Stop_YEAR,352,4,8,32
      440                           .member _stream,384,6,8,32
      441                           .member _elapsed_s,416,6,8,32
      442                           .member _duration,448,6,8,32
      443                           .member _purge,480,6,8,32
      444                           .member _gross_gas,512,6,8,32
      445                           .member _gross_oil,544,6,8,32
      446                           .member _gross_water,576,6,8,32
      447                           .member _gross_total,608,6,8,32
      448                           .member _gas24,640,6,8,32
      449                           .member _oil24,672,6,8,32
      450                           .member _water24,704,6,8,32
      451                           .member _total24,736,6,8,32
      452                           .member _watercut,768,6,8,32
      453                           .eos
      454                           .sym    _CCMRECORD,0,8,13,800,.fake22
      455                           .stag   .fake23,224
      456                           .member _SNUM,0,4,8,32
      457                           .member _ADDR,32,4,8,32
      458                           .member _BNUM,64,4,8,32
      459                           .member _REV,96,4,8,32
      460                           .member _MONTH,128,4,8,32
      461                           .member _DAY,160,4,8,32
      462                           .member _YEAR,192,4,8,32
      463                           .eos
      464                           .sym    _BOARD,0,8,13,224,.fake23
      465                           .etag   _Pulse_Input_Type,32
      466                           .member _PULSE_GAS_TEMP,1,4,16,32
      467                           .member _PULSE_SALINITY,2,4,16,32
      468                           .member _PULSE_STREAM_SELECT,3,4,16,32
      469                           .member _PULSE_USER_TEMP,4,4,16,32
      470                           .member _PULSE_FC_WC,5,4,16,32
      471                           .member _PULSE_FC_TEMP,6,4,16,32
      472                           .member _PULSE_FC_TOTAL_FLOW,7,4,16,32
      473                           .member _PULSE_FC_PRESSURE,8,4,16,32
      474                           .member _PULSE_FC_DENSITY,9,4,16,32
      475                           .member _PULSE_FC_SALINITY,10,4,16,32
      476                           .member _PULSE_FC_OIL_DENSITY,11,4,16,32
      477                           .member _PULSE_FC_OIL_DENSITY_ST,12,4,16,32
      478                           .member _PULSE_FC_WATER_DENSITY,13,4,16,32
      479                           .member _PULSE_FC_WATER_DENSITY_ST,14,4,16,32
      480                           .member _PULSE_NONE,15,4,16,32
      481                           .eos
      482                           .stag   .fake24,64
      483                           .member _freq,0,6,8,32
      484                           .member _counter,32,4,8,32
      485                           .eos
      486                           .sym    _Boxcar_Var,0,8,13,64,.fake24
TMS320C3x/4x COFF AssemblerVersion 5.12     Mon Nov 19 13:45:24 2018
Copyright (c) 1987-1999 Texas Instruments Incorporatedasm30.exe -@_6L4.AAB 

F:\WKDIR\CodeComposer\EEA_SA_V613b\BOOT\SOURCE\ASM\main.asm          PAGE   10

      487                           .stag   .fake25,1088
      488                           .member _data,0,54,8,960,,30
      489                           .member _head,960,4,8,32
      490                           .member _tail,992,4,8,32
      491                           .member _length,1024,4,8,32
      492                           .member _average,1056,6,8,32
      493                           .eos
      494                           .sym    _bubble_struct,0,8,13,1088,.fake25
      495                           .stag   .fake26,3008
      496                           .member _data,0,54,8,2880,,90
      497                           .member _head,2880,4,8,32
      498                           .member _tail,2912,4,8,32
      499                           .member _length,2944,4,8,32
      500                           .member _average,2976,6,8,32
      501                           .eos
      502                           .sym    _pattern_struct,0,8,13,3008,.fake26
      503                           .stag   .fake27,320
      504                           .member _MODE,0,4,8,32
      505                           .member _STATUS_MASK,32,4,8,32
      506                           .member _v,64,8,8,64,.fake8
      507                           .member _setpoint,128,6,8,32
      508                           .member _ON,160,8,8,96,.fake7
      509                           .member _class,256,4,8,32
      510                           .member _unit,288,4,8,32
      511                           .eos
      512                           .sym    _RELAYDATA,0,8,13,320,.fake27
      513                           .stag   .fake28,12224
      514                           .member _diag,0,6,8,32
      515                           .member _mfr,32,6,8,32
      516                           .member _u_mfr,64,4,8,32
      517                           .member _density,96,6,8,32
      518                           .member _u_density,128,4,8,32
      519                           .member _density_PDI_corrected,160,6,8,32
      520                           .member _density_corrected,192,6,8,32
      521                           .member _u_density_corrected,224,4,8,32
      522                           .member _T,256,6,8,32
      523                           .member _u_T,288,4,8,32
      524                           .member _vfr,320,6,8,32
      525                           .member _u_vfr,352,4,8,32
      526                           .member _visc,384,6,8,32
      527                           .member _u_visc,416,4,8,32
      528                           .member _press,448,6,8,32
      529                           .member _mass_total,480,6,8,32
      530                           .member _u_m,512,4,8,32
      531                           .member _volume_total,544,6,8,32
      532                           .member _u_v,576,4,8,32
      533                           .member _u_P,608,4,8,32
      534                           .member _P,640,6,8,32
      535                           .member _mass_inv,672,6,8,32
      536                           .member _volume_inv,704,6,8,32
      537                           .member _raw_tube_freq,736,6,8,32
      538                           .member _left_pickup_value,768,6,8,32
      539                           .member _right_pickup_value,800,6,8,32
      540                           .member _drive_gain,832,6,8,32
TMS320C3x/4x COFF AssemblerVersion 5.12     Mon Nov 19 13:45:24 2018
Copyright (c) 1987-1999 Texas Instruments Incorporatedasm30.exe -@_6L4.AAB 

F:\WKDIR\CodeComposer\EEA_SA_V613b\BOOT\SOURCE\ASM\main.asm          PAGE   11

      541                           .member _damp_flow_rate,864,8,8,1408,.fake6
      542                           .member _damp_density,2272,8,8,1408,.fake6
      543                           .member _mfr_cutoff,3680,8,8,1408,.fake6
      544                           .member _vfr_cutoff,5088,8,8,1408,.fake6
      545                           .member _mcf,6496,8,8,1408,.fake6
      546                           .member _address,7904,8,8,1408,.fake6
      547                           .member _mass_unit,9312,8,8,1408,.fake6
      548                           .member _density_cutoff,10720,8,8,1408,.fake6
      549                           .member _Z,12128,8,8,96,.fake7
      550                           .eos
      551                           .sym    _CORIOLIS,0,8,13,12224,.fake28
      552                           .stag   .fake29,288
      553                           .member _p_delta,0,6,8,32
      554                           .member _p_static,32,6,8,32
      555                           .member _T,64,6,8,32
      556                           .member _diag0,96,6,8,32
      557                           .member _diag1,128,6,8,32
      558                           .member _diag2,160,6,8,32
      559                           .member _u_DP,192,4,8,32
      560                           .member _u_SP,224,4,8,32
      561                           .member _u_PT,256,4,8,32
      562                           .eos
      563                           .sym    _PRESSURE,0,8,13,288,.fake29
      564                           .stag   .fake30,192
      565                           .member _T,0,6,8,32
      566                           .member _etc0,32,6,8,32
      567                           .member _etc1,64,6,8,32
      568                           .member _etc2,96,6,8,32
      569                           .member _etc3,128,6,8,32
      570                           .member _etc4,160,6,8,32
      571                           .eos
      572                           .sym    _TMPT,0,8,13,192,.fake30
      573                           .stag   .fake31,42752
      574                           .member _watercut,0,8,8,1408,.fake6
      575                           .member _T,1408,8,8,1408,.fake6
      576                           .member _pressure,2816,8,8,1408,.fake6
      577                           .member _density,4224,8,8,1408,.fake6
      578                           .member _density_PDI_corrected,5632,6,8,32
      579                           .member _density_adj,5664,6,8,32
      580                           .member _density_oilST,5696,8,8,1408,.fake6
      581                           .member _density_oil,7104,8,8,1408,.fake6
      582                           .member _density_waterST,8512,8,8,1408,.fake6
      583                           .member _density_water,9920,8,8,1408,.fake6
      584                           .member _salinity,11328,8,8,1408,.fake6
      585                           .member _API_TABLE,12736,4,8,32
      586                           .member _a,12768,6,8,32
      587                           .member _Meter_Factor,12800,8,8,1408,.fake6
      588                           .member _Shrinkage,14208,8,8,1408,.fake6
      589                           .member _VCFo,15616,6,8,32
      590                           .member _VCFw,15648,6,8,32
      591                           .member _net_watercut,15680,6,8,32
      592                           .member _net_watercut_mass,15712,6,8,32
      593                           .member _Dadj,15744,6,8,32
      594                           .member _NET_FLOW_OIL,15776,8,8,1408,.fake6
TMS320C3x/4x COFF AssemblerVersion 5.12     Mon Nov 19 13:45:24 2018
Copyright (c) 1987-1999 Texas Instruments Incorporatedasm30.exe -@_6L4.AAB 

F:\WKDIR\CodeComposer\EEA_SA_V613b\BOOT\SOURCE\ASM\main.asm          PAGE   12

      595                           .member _NET_FLOW_WATER,17184,8,8,1408,.fake6
      596                           .member _NET_FLOW_TOTAL,18592,8,8,1408,.fake6
      597                           .member _NET_OIL,20000,8,8,1408,.fake6
      598                           .member _NET_WATER,21408,8,8,1408,.fake6
      599                           .member _NET_TOTAL,22816,8,8,1408,.fake6
      600                           .member _AVG_NET_TOTAL,24224,8,8,1408,.fake6
      601                           .member _GROSS_OIL,25632,8,8,1408,.fake6
      602                           .member _gross_oil_whole_part,27040,11,8,64
      603                           .member _gross_oil_fract_part,27104,11,8,64
      604                           .member _GROSS_WATER,27168,8,8,1408,.fake6
      605                           .member _gross_water_whole_part,28576,11,8,64
      606                           .member _gross_water_fract_part,28640,11,8,64
      607                           .member _GROSS_TOTAL,28704,8,8,1408,.fake6
      608                           .member _AVG_GROSS_TOTAL,30112,8,8,1408,.fake6
      609                           .member _FLOW_OIL,31520,8,8,1408,.fake6
      610                           .member _FLOW_WATER,32928,8,8,1408,.fake6
      611                           .member _FLOW_TOTAL,34336,8,8,1408,.fake6
      612                           .member _PULSES_PER_ACCUM_UNIT,35744,14,8,32
      613                           .member _PULSE_TOTAL,35776,8,8,1408,.fake6
      614                           .member _PULSE_FLOW,37184,8,8,1408,.fake6
      615                           .member _PULSE_FREQ,38592,8,8,1408,.fake6
      616                           .member _PULSE_COUNTER,40000,14,8,32
      617                           .member _PULSE,40032,4,8,32
      618                           .member _CNT,40064,4,8,32
      619                           .member _PULSE_DELTA,40096,4,8,32
      620                           .member _PULSE_FACTOR,40128,6,8,32
      621                           .member _PULSE_STAT,40160,4,8,32
      622                           .member _enable_NET,40192,14,8,32
      623                           .member _enable_GROSS,40224,14,8,32
      624                           .member _enable_FLOW,40256,14,8,32
      625                           .member _enable_DENSITY,40288,14,8,32
      626                           .member _enable_PULSE,40320,14,8,32
      627                           .member _flow_class,40352,8,8,64,.fake8
      628                           .member _flow_unit,40416,8,8,64,.fake8
      629                           .member _accum_unit,40480,8,8,64,.fake8
      630                           .member _Z,40544,8,8,96,.fake7
      631                           .member _use_totalizer,40640,8,8,96,.fake7
      632                           .member _pulse_v,40736,8,8,64,.fake8
      633                           .member _pulse_class,40800,8,8,64,.fake8
      634                           .member _pulse_unit,40864,8,8,64,.fake8
      635                           .member _pulse_VALUE,40928,8,8,1408,.fake6
      636                           .member _USE_PDI_TEMP,42336,14,8,32
      637                           .member _USE_PDI_SALINITY,42368,14,8,32
      638                           .member _CALC_WC_DENSITY,42400,14,8,32
      639                           .member _MAN_TEMP,42432,14,8,32
      640                           .member _MAN_SALINITY,42464,14,8,32
      641                           .member _MAN_WATERCUT,42496,14,8,32
      642                           .member _MAN_DENSITY,42528,14,8,32
      643                           .member _MAN_PRESSURE,42560,14,8,32
      644                           .member _MAN_FLOW,42592,14,8,32
      645                           .member _AUTHORIZATION_CODE1,42624,14,8,32
      646                           .member _AUTHORIZATION_CODE2,42656,14,8,32
      647                           .member _AUTHORIZATION_CODE3,42688,14,8,32
      648                           .member _AUTHORIZATION_CODE4,42720,14,8,32
TMS320C3x/4x COFF AssemblerVersion 5.12     Mon Nov 19 13:45:24 2018
Copyright (c) 1987-1999 Texas Instruments Incorporatedasm30.exe -@_6L4.AAB 

F:\WKDIR\CodeComposer\EEA_SA_V613b\BOOT\SOURCE\ASM\main.asm          PAGE   13

      649                           .eos
      650                           .sym    _FLOW_COMP,0,8,13,42752,.fake31
      651                           .stag   .fake32,2176
      652                           .member _WATERCUT,0,6,8,32
      653                           .member _FLOW_RATE,32,6,8,32
      654                           .member _TEMPERATURE,64,6,8,32
      655                           .member _DENSITY,96,6,8,32
      656                           .member _VISCOSITY,128,6,8,32
      657                           .member _iWATERCUTz,160,4,8,32
      658                           .member _iWATERCUT,192,4,8,32
      659                           .member _iFLOW_RATE,224,4,8,32
      660                           .member _iTEMPERATURE,256,4,8,32
      661                           .member _iDENSITY,288,4,8,32
      662                           .member _iVISCOSITY,320,4,8,32
      663                           .member _maxWATERCUTz,352,6,8,32
      664                           .member _maxWATERCUT,384,6,8,32
      665                           .member _maxFLOW_RATE,416,6,8,32
      666                           .member _maxTEMPERATURE,448,6,8,32
      667                           .member _maxDENSITY,480,6,8,32
      668                           .member _maxVISCOSITY,512,6,8,32
      669                           .member _minWATERCUTz,544,6,8,32
      670                           .member _minWATERCUT,576,6,8,32
      671                           .member _minFLOW_RATE,608,6,8,32
      672                           .member _minTEMPERATURE,640,6,8,32
      673                           .member _minDENSITY,672,6,8,32
      674                           .member _minVISCOSITY,704,6,8,32
      675                           .member _ENABLED,736,14,8,32
      676                           .member _DESTINATION_ADDRESS,768,8,8,1408,.fake6
      677                           .eos
      678                           .sym    _ALYESKA_STRUCT,0,8,13,2176,.fake32
      679                           .stag   .fake33,2464
      680                           .member _ENABLED,0,8,8,96,.fake7
      681                           .member _flow_threshold,96,8,8,1408,.fake6
      682                           .member _S3,1504,6,8,32
      683                           .member _S2,1536,6,8,32
      684                           .member _S1,1568,6,8,32
      685                           .member _S0,1600,6,8,32
      686                           .member _Fmin,1632,6,8,32
      687                           .member _Dmin,1664,6,8,32
      688                           .member _Dmax,1696,6,8,32
      689                           .member _CHANGED,1728,14,8,32
      690                           .member _PURGING,1760,14,8,32
      691                           .member _TEST_IN_PROGRESS,1792,14,8,32
      692                           .member _SP3A,1824,6,8,32
      693                           .member _SP2A,1856,6,8,32
      694                           .member _SP1A,1888,6,8,32
      695                           .member _SP0A,1920,6,8,32
      696                           .member _SPLOA,1952,6,8,32
      697                           .member _SPHIA,1984,6,8,32
      698                           .member _SP3B,2016,6,8,32
      699                           .member _SP2B,2048,6,8,32
      700                           .member _SP1B,2080,6,8,32
      701                           .member _SP0B,2112,6,8,32
      702                           .member _SPLOB,2144,6,8,32
TMS320C3x/4x COFF AssemblerVersion 5.12     Mon Nov 19 13:45:24 2018
Copyright (c) 1987-1999 Texas Instruments Incorporatedasm30.exe -@_6L4.AAB 

F:\WKDIR\CodeComposer\EEA_SA_V613b\BOOT\SOURCE\ASM\main.asm          PAGE   14

      703                           .member _SPHIB,2176,6,8,32
      704                           .member _FBHI3,2208,6,8,32
      705                           .member _FBHI2,2240,6,8,32
      706                           .member _FBHI1,2272,6,8,32
      707                           .member _FBHI0,2304,6,8,32
      708                           .member _FBLO3,2336,6,8,32
      709                           .member _FBLO2,2368,6,8,32
      710                           .member _FBLO1,2400,6,8,32
      711                           .member _FBLO0,2432,6,8,32
      712                           .eos
      713                           .sym    _HS_STRUCT,0,8,13,2464,.fake33
      714                           .file   "HART.H"
      715                           .file   "MODBUSRTU.H"
      716                           .file   "MISC.H"
      717                           .file   "API.H"
      718                           .file   "main.c"
      719 00000000                  .sect    ".text"
      720                   
      721                           .global _Debug
      722                           .sym    _Debug,_Debug,32,2,0
      723                           .func   41
      724                   ;******************************************************************************
      725                   ;* FUNCTION NAME: _Debug                                                      *
      726                   ;*                                                                            *
      727                   ;*   Architecture       : TMS320C33                                           *
      728                   ;*   Calling Convention : TI Standard Register Parameters                     *
      729                   ;*   Function Uses Regs :                                                     *
      730                   ;*   Regs Saved         :                                                     *
      731                   ;*   Stack Frame        : Full (w/ debug)                                     *
      732                   ;*   Total Frame Size   : 2 Call + 0 Parm + 0 Auto + 0 SOE = 2 words          *
      733                   ;******************************************************************************
      734 00000000          _Debug:
      735                           .line   1
      736                   ;----------------------------------------------------------------------
      737                   ;  41 | void Debug(void)                                                       
      738                   ;----------------------------------------------------------------------
      739 00000000 0f2b0000         push      fp
      740 00000001 500b0014         ldiu      sp,fp
      741                           .line   2
      742                                                           ; Begin Epilog Code
      743 00000002 50410b01         ldiu      *-fp(1),r1
      744 00000003 504bc300         ldiu      *fp,fp
      745                                                           ; Unallocate the Frame
      746 00000004 18740002         subi      2,sp
      747 00000005 68000001         bu        r1
      748                   ;*      Branch Occurs to r1 
      749                           .endfunc        42,000000000h,0
      750                   
      751                   
      752 00000000                  .sect    "initialization"
      753                   
      754                           .global _Initialize_Variables
      755                           .sym    _Initialize_Variables,_Initialize_Variables,32,2,0
      756                           .func   57
TMS320C3x/4x COFF AssemblerVersion 5.12     Mon Nov 19 13:45:24 2018
Copyright (c) 1987-1999 Texas Instruments Incorporatedasm30.exe -@_6L4.AAB 

F:\WKDIR\CodeComposer\EEA_SA_V613b\BOOT\SOURCE\ASM\main.asm          PAGE   15

      757                   ;******************************************************************************
      758                   ;* FUNCTION NAME: _Initialize_Variables                                       *
      759                   ;*                                                                            *
      760                   ;*   Architecture       : TMS320C33                                           *
      761                   ;*   Calling Convention : TI Standard Register Parameters                     *
      762                   ;*   Function Uses Regs : f0,r0,f1,r1,f2,r2,f3,r3,ar0,ar1,ar2,fp,ir0,sp,st,rs,*
      763                   ;*                        re,rc                                               *
      764                   ;*   Regs Saved         :                                                     *
      765                   ;*   Stack Frame        : Full (w/ debug)                                     *
      766                   ;*   Total Frame Size   : 2 Call + 0 Parm + 3 Auto + 0 SOE = 5 words          *
      767                   ;******************************************************************************
      768 00000000          _Initialize_Variables:
      769                           .sym    _i,1,4,1,32
      770                           .sym    _r,2,4,1,32
      771                           .sym    _port,3,4,1,32
      772                           .line   1
      773                   ;----------------------------------------------------------------------
      774                   ;  57 | void Initialize_Variables(void)                                        
      775                   ;  59 | int i,r;        /* counter; restore config successful   */             
      776                   ;  60 | int port;       /* not used
      777                   ;     |          */                                                            
      778                   ;----------------------------------------------------------------------
      779 00000000 0f2b0000         push      fp
      780 00000001 500b0014         ldiu      sp,fp
      781 00000002 02740003         addi      3,sp
      782                           .line   6
      783                   ;----------------------------------------------------------------------
      784                   ;  62 | r = 0;                                                                 
      785                   ;----------------------------------------------------------------------
      786 00000003 50600000         ldiu      0,r0                  ; |62| 
      787 00000004 15400302         sti       r0,*+fp(2)            ; |62| 
      788                           .line   8
      789                   ;----------------------------------------------------------------------
      790                   ;  64 | InitLog();                                                             
      791                   ;----------------------------------------------------------------------
      792 00000005 08700000-        ldp       @CL1,DP
      793 00000006 50200000-        ldiu      @CL1,r0               ; |64| 
      794 00000007 70000000         callu     r0                    ; far call to _InitLog  ; |64| 
      795                                                           ; |64| Far Call Occurs
      796                           .line   10
      797                   ;----------------------------------------------------------------------
      798                   ;  66 | if (MEM)                                                               
      799                   ;----------------------------------------------------------------------
      800 00000008 08700000-        ldp       @CL2,DP
      801 00000009 50280001-        ldiu      @CL2,ar0              ; |66| 
      802 0000000a 5040c000         ldiu      *ar0,r0               ; |66| 
      803 0000000b 04e00000         cmpi      0,r0                  ; |66| 
      804 0000000c 6a050004         beq       L6                    ; |66| 
      805                   ;*      Branch Occurs to L6             ; |66| 
      806                           .line   11
      807                   ;----------------------------------------------------------------------
      808                   ;  67 | Setup_Basics();                                                        
      809                   ;  68 | else                                                                   
      810                   ;----------------------------------------------------------------------
TMS320C3x/4x COFF AssemblerVersion 5.12     Mon Nov 19 13:45:24 2018
Copyright (c) 1987-1999 Texas Instruments Incorporatedasm30.exe -@_6L4.AAB 

F:\WKDIR\CodeComposer\EEA_SA_V613b\BOOT\SOURCE\ASM\main.asm          PAGE   16

      811 0000000d 08700000-        ldp       @CL3,DP
      812 0000000e 50200002-        ldiu      @CL3,r0               ; |67| 
      813 0000000f 70000000         callu     r0                    ; far call to _Setup_Basics     ; |67| 
      814                                                           ; |67| Far Call Occurs
      815 00000010 6a000004         bu        L7                    ; |56| 
      816                   ;*      Branch Occurs to L7             ; |56| 
      817 00000011          L6:        
      818                           .line   13
      819                   ;----------------------------------------------------------------------
      820                   ;  69 | r = Restore_CFG();                                                     
      821                   ;----------------------------------------------------------------------
      822 00000011 08700000-        ldp       @CL4,DP
      823 00000012 50200003-        ldiu      @CL4,r0               ; |69| 
      824 00000013 70000000         callu     r0                    ; far call to _Restore_CFG      ; |69| 
      825                                                           ; |69| Far Call Occurs
      826 00000014 15400302         sti       r0,*+fp(2)            ; |69| 
      827 00000015          L7:        
      828                           .line   15
      829                   ;----------------------------------------------------------------------
      830                   ;  71 | DISABLE_WDOG;   /* restore & basics re-enables WDOG */                 
      831                   ;----------------------------------------------------------------------
      832 00000015 0f350000         push    ST                      
      833 00000016 03752000         andn    2000h, ST       
      834 00000017 08700000-        ldp       @CL5,DP
      835 00000018 50280004-        ldiu      @CL5,ar0              ; |71| 
      836 00000019 506000f7         ldiu      247,r0                ; |71| 
      837 0000001a 21a0c000         and3      r0,*ar0,r0            ; |71| 
      838 0000001b 1540c000         sti       r0,*ar0               ; |71| 
      839 0000001c 0e350000         pop             ST                      
      840                           .line   17
      841                   ;----------------------------------------------------------------------
      842                   ;  73 | if (r)                                                                 
      843                   ;----------------------------------------------------------------------
      844 0000001d 50400302         ldiu      *+fp(2),r0            ; |73| 
      845 0000001e 04e00000         cmpi      0,r0                  ; |73| 
      846 0000001f 6a05001d         beq       L9                    ; |73| 
      847                   ;*      Branch Occurs to L9             ; |73| 
      848                           .line   19
      849                   ;----------------------------------------------------------------------
      850                   ;  75 | DIAG_TEMP[0]                    = ERROR_NONE;                          
      851                   ;----------------------------------------------------------------------
      852 00000020 08700000-        ldp       @CL6,DP
      853 00000021 50280005-        ldiu      @CL6,ar0              ; |75| 
      854 00000022 50600000         ldiu      0,r0                  ; |75| 
      855 00000023 1540c000         sti       r0,*ar0               ; |75| 
      856                           .line   20
      857                   ;----------------------------------------------------------------------
      858                   ;  76 | DIAG_TEMP[1]                    = ERROR_NONE;                          
      859                   ;----------------------------------------------------------------------
      860 00000024 08700000-        ldp       @CL7,DP
      861 00000025 50280006-        ldiu      @CL7,ar0              ; |76| 
      862 00000026 1540c000         sti       r0,*ar0               ; |76| 
      863                           .line   21
      864                   ;----------------------------------------------------------------------
TMS320C3x/4x COFF AssemblerVersion 5.12     Mon Nov 19 13:45:24 2018
Copyright (c) 1987-1999 Texas Instruments Incorporatedasm30.exe -@_6L4.AAB 

F:\WKDIR\CodeComposer\EEA_SA_V613b\BOOT\SOURCE\ASM\main.asm          PAGE   17

      865                   ;  77 | DIAGNOSTICS[0]                  = ERROR_RESET;                         
      866                   ;----------------------------------------------------------------------
      867 00000027 08700000-        ldp       @CL8,DP
      868 00000028 50280007-        ldiu      @CL8,ar0              ; |77| 
      869 00000029 50604000         ldiu      16384,r0              ; |77| 
      870 0000002a 1540c000         sti       r0,*ar0               ; |77| 
      871                           .line   22
      872                   ;----------------------------------------------------------------------
      873                   ;  78 | DIAGNOSTICS[1]                  = ERROR_NONE;                          
      874                   ;----------------------------------------------------------------------
      875 0000002b 08700000-        ldp       @CL9,DP
      876 0000002c 50280008-        ldiu      @CL9,ar0              ; |78| 
      877 0000002d 50600000         ldiu      0,r0                  ; |78| 
      878 0000002e 1540c000         sti       r0,*ar0               ; |78| 
      879                           .line   23
      880                   ;----------------------------------------------------------------------
      881                   ;  79 | DIAGNOSTICS_MSG_CODE    = M_ERROR_RESET;                               
      882                   ;----------------------------------------------------------------------
      883 0000002f 08700000-        ldp       @CL10,DP
      884 00000030 50280009-        ldiu      @CL10,ar0             ; |79| 
      885 00000031 5060000f         ldiu      15,r0                 ; |79| 
      886 00000032 1540c000         sti       r0,*ar0               ; |79| 
      887                           .line   24
      888                   ;----------------------------------------------------------------------
      889                   ;  80 | DIAGNOSTICS_ERROR_CODE  = E_ERROR_NONE;                                
      890                   ;----------------------------------------------------------------------
      891 00000033 08700000-        ldp       @CL11,DP
      892 00000034 5028000a-        ldiu      @CL11,ar0             ; |80| 
      893 00000035 50600000         ldiu      0,r0                  ; |80| 
      894 00000036 1540c000         sti       r0,*ar0               ; |80| 
      895                           .line   25
      896                   ;----------------------------------------------------------------------
      897                   ;  81 | CHANGE                                  = FALSE;                       
      898                   ;----------------------------------------------------------------------
      899 00000037 08700000-        ldp       @CL12,DP
      900 00000038 5028000b-        ldiu      @CL12,ar0             ; |81| 
      901 00000039 1540c000         sti       r0,*ar0               ; |81| 
      902                           .line   26
      903                   ;----------------------------------------------------------------------
      904                   ;  82 | DATA_CHANGE.val                 = FALSE;                               
      905                   ;----------------------------------------------------------------------
      906 0000003a 08700000-        ldp       @CL13,DP
      907 0000003b 5028000c-        ldiu      @CL13,ar0             ; |82| 
      908 0000003c 1540c000         sti       r0,*ar0               ; |82| 
      909 0000003d          L9:        
      910                           .line   29
      911                   ;----------------------------------------------------------------------
      912                   ;  85 | sprintf(E_STRING,"");                                                  
      913                   ;----------------------------------------------------------------------
      914 0000003d 08700000-        ldp       @CL14,DP
      915 0000003e 5021000d-        ldiu      @CL14,r1              ; |85| 
      916 0000003f 08700000-        ldp       @CL16,DP
      917 00000040 5020000f-        ldiu      @CL16,r0              ; |85| 
      918 00000041 08700000-        ldp       @CL15,DP
TMS320C3x/4x COFF AssemblerVersion 5.12     Mon Nov 19 13:45:24 2018
Copyright (c) 1987-1999 Texas Instruments Incorporatedasm30.exe -@_6L4.AAB 

F:\WKDIR\CodeComposer\EEA_SA_V613b\BOOT\SOURCE\ASM\main.asm          PAGE   18

      919 00000042 0f210000         push      r1                    ; |85| 
      920 00000043 502a000e-        ldiu      @CL15,ar2             ; |85| 
      921 00000044 70000000         callu     r0                    ; far call to _sprintf  ; |85| 
      922                                                           ; |85| Far Call Occurs
      923 00000045 18740001         subi      1,sp                  ; |85| 
      924                           .line   30
      925                   ;----------------------------------------------------------------------
      926                   ;  86 | Execute_Init();                                                        
      927                   ;----------------------------------------------------------------------
      928 00000046 08700000-        ldp       @CL17,DP
      929 00000047 50200010-        ldiu      @CL17,r0              ; |86| 
      930 00000048 70000000         callu     r0                    ; far call to _Execute_Init     ; |86| 
      931                                                           ; |86| Far Call Occurs
      932                           .line   33
      933                   ;----------------------------------------------------------------------
      934                   ;  89 | IDEC_PORT = 6;                                                         
      935                   ;----------------------------------------------------------------------
      936 00000049 08700000-        ldp       @CL18,DP
      937 0000004a 50280011-        ldiu      @CL18,ar0             ; |89| 
      938 0000004b 50600006         ldiu      6,r0                  ; |89| 
      939 0000004c 1540c000         sti       r0,*ar0               ; |89| 
      940                           .line   35
      941                   ;----------------------------------------------------------------------
      942                   ;  91 | for (i=0;i<13;i++)                                                     
      943                   ;----------------------------------------------------------------------
      944 0000004d 50600000         ldiu      0,r0                  ; |91| 
      945 0000004e 15400301         sti       r0,*+fp(1)            ; |91| 
      946 0000004f 50610000         ldiu      0,r1                  ; |93| 
      947 00000050 50020000         ldiu      r0,r2
      948 00000051 04e2000d         cmpi      13,r2                 ; |91| 
      949 00000052 6a0a000f         bge       L11                   ; |91| 
      950                   ;*      Branch Occurs to L11            ; |91| 
      951 00000053          L10:        
      952                           .line   37
      953                   ;----------------------------------------------------------------------
      954                   ;  93 | IDEC_SA[i].val  = 0;                                                   
      955                   ;----------------------------------------------------------------------
      956 00000053 50510301         ldiu      *+fp(1),ir0           ; |93| 
      957 00000054 08700000-        ldp       @CL19,DP
      958 00000055 03f10001         ash       1,ir0                 ; |93| 
      959 00000056 50280012-        ldiu      @CL19,ar0             ; |93| 
      960 00000057 15414000         sti       r1,*+ar0(ir0)         ; |93| 
      961                           .line   38
      962                   ;----------------------------------------------------------------------
      963                   ;  94 | IDEC_SA[i].vect = NULL_PTR;                                            
      964                   ;----------------------------------------------------------------------
      965 00000058 08700000-        ldp       @CL20,DP
      966 00000059 50510301         ldiu      *+fp(1),ir0           ; |94| 
      967 0000005a 50280013-        ldiu      @CL20,ar0             ; |94| 
      968 0000005b 03f10001         ash       1,ir0                 ; |94| 
      969 0000005c 15404000         sti       r0,*+ar0(ir0)         ; |94| 
      970                           .line   35
      971 0000005d 50620001         ldiu      1,r2                  ; |91| 
      972 0000005e 02420301         addi      *+fp(1),r2            ; |91| 
TMS320C3x/4x COFF AssemblerVersion 5.12     Mon Nov 19 13:45:24 2018
Copyright (c) 1987-1999 Texas Instruments Incorporatedasm30.exe -@_6L4.AAB 

F:\WKDIR\CodeComposer\EEA_SA_V613b\BOOT\SOURCE\ASM\main.asm          PAGE   19

      973 0000005f 15420301         sti       r2,*+fp(1)            ; |91| 
      974 00000060 04e2000d         cmpi      13,r2                 ; |91| 
      975 00000061 6a07fff1         blt       L10                   ; |91| 
      976                   ;*      Branch Occurs to L10            ; |91| 
      977 00000062          L11:        
      978                           .line   41
      979                   ;----------------------------------------------------------------------
      980                   ;  97 | IDEC_SA[1].val          = 0x0081;                               /* turn
      981                   ;     |  on backlight and screen display */                                    
      982                   ;----------------------------------------------------------------------
      983 00000062 08700000-        ldp       @CL21,DP
      984 00000063 50280014-        ldiu      @CL21,ar0             ; |97| 
      985 00000064 50600081         ldiu      129,r0                ; |97| 
      986 00000065 1540c000         sti       r0,*ar0               ; |97| 
      987                           .line   42
      988                   ;----------------------------------------------------------------------
      989                   ;  98 | IDEC_SA[0].val          = SCREEN_LOGO;                  /* set screen *
      990                   ;     | /                                                                      
      991                   ;----------------------------------------------------------------------
      992 00000066 08700000-        ldp       @CL19,DP
      993 00000067 50280012-        ldiu      @CL19,ar0             ; |98| 
      994 00000068 50600001         ldiu      1,r0                  ; |98| 
      995 00000069 1540c000         sti       r0,*ar0               ; |98| 
      996                           .line   43
      997                   ;----------------------------------------------------------------------
      998                   ;  99 | IDEC_SA[7].vect         = (int*)Set_Time;                              
      999                   ;----------------------------------------------------------------------
     1000 0000006a 08700000-        ldp       @CL22,DP
     1001 0000006b 50280015-        ldiu      @CL22,ar0             ; |99| 
     1002 0000006c 08700000-        ldp       @CL23,DP
     1003 0000006d 50200016-        ldiu      @CL23,r0              ; |99| 
     1004 0000006e 1540c000         sti       r0,*ar0               ; |99| 
     1005                           .line   44
     1006                   ;----------------------------------------------------------------------
     1007                   ; 100 | IDEC_SA[12].vect        = (int*)Set_IDEC_Port;                         
     1008                   ;----------------------------------------------------------------------
     1009 0000006f 08700000-        ldp       @CL24,DP
     1010 00000070 50280017-        ldiu      @CL24,ar0             ; |100| 
     1011 00000071 08700000-        ldp       @CL25,DP
     1012 00000072 50200018-        ldiu      @CL25,r0              ; |100| 
     1013 00000073 1540c000         sti       r0,*ar0               ; |100| 
     1014                           .line   47
     1015                   ;----------------------------------------------------------------------
     1016                   ; 103 | FLASH_READ_ESN_MFGR(ESN_MFGR);                                         
     1017                   ;----------------------------------------------------------------------
     1018 00000074 08700000-        ldp       @CL27,DP
     1019 00000075 5020001a-        ldiu      @CL27,r0              ; |103| 
     1020 00000076 08700000-        ldp       @CL26,DP
     1021 00000077 502a0019-        ldiu      @CL26,ar2             ; |103| 
     1022 00000078 70000000         callu     r0                    ; far call to _FLASH_READ_ESN_MFGR      ; |103| 
     1023                                                           ; |103| Far Call Occurs
     1024                           .line   48
     1025                   ;----------------------------------------------------------------------
     1026                   ; 104 | FLASH_READ_ESN_USER(ESN_USER);                                         
TMS320C3x/4x COFF AssemblerVersion 5.12     Mon Nov 19 13:45:24 2018
Copyright (c) 1987-1999 Texas Instruments Incorporatedasm30.exe -@_6L4.AAB 

F:\WKDIR\CodeComposer\EEA_SA_V613b\BOOT\SOURCE\ASM\main.asm          PAGE   20

     1027                   ;----------------------------------------------------------------------
     1028 00000079 08700000-        ldp       @CL29,DP
     1029 0000007a 5020001c-        ldiu      @CL29,r0              ; |104| 
     1030 0000007b 08700000-        ldp       @CL28,DP
     1031 0000007c 502a001b-        ldiu      @CL28,ar2             ; |104| 
     1032 0000007d 70000000         callu     r0                    ; far call to _FLASH_READ_ESN_USER      ; |104| 
     1033                                                           ; |104| Far Call Occurs
     1034                           .line   50
     1035                   ;----------------------------------------------------------------------
     1036                   ; 106 | LOCKOUT                                 = FALSE;        /* Setup Locks
     1037                   ;     | */                                                                     
     1038                   ;----------------------------------------------------------------------
     1039 0000007e 08700000-        ldp       @CL30,DP
     1040 0000007f 5028001d-        ldiu      @CL30,ar0             ; |106| 
     1041 00000080 50600000         ldiu      0,r0                  ; |106| 
     1042 00000081 1540c000         sti       r0,*ar0               ; |106| 
     1043                           .line   51
     1044                   ;----------------------------------------------------------------------
     1045                   ; 107 | DIO_LOCK[1].val                 = TRUE;                                
     1046                   ;----------------------------------------------------------------------
     1047 00000082 08700000-        ldp       @CL31,DP
     1048 00000083 5028001e-        ldiu      @CL31,ar0             ; |107| 
     1049 00000084 50600001         ldiu      1,r0                  ; |107| 
     1050 00000085 1540c000         sti       r0,*ar0               ; |107| 
     1051                           .line   52
     1052                   ;----------------------------------------------------------------------
     1053                   ; 108 | DIO_LOCK[2].val                 = TRUE;                                
     1054                   ;----------------------------------------------------------------------
     1055 00000086 08700000-        ldp       @CL32,DP
     1056 00000087 5028001f-        ldiu      @CL32,ar0             ; |108| 
     1057 00000088 1540c000         sti       r0,*ar0               ; |108| 
     1058                           .line   53
     1059                   ;----------------------------------------------------------------------
     1060                   ; 109 | DIO_LOCK[3].val                 = TRUE;                                
     1061                   ;----------------------------------------------------------------------
     1062 00000089 08700000-        ldp       @CL33,DP
     1063 0000008a 50280020-        ldiu      @CL33,ar0             ; |109| 
     1064 0000008b 1540c000         sti       r0,*ar0               ; |109| 
     1065                           .line   54
     1066                   ;----------------------------------------------------------------------
     1067                   ; 110 | RESEARCH_FORCE_MODE         = FALSE;    /* Disable Research Mode */    
     1068                   ;----------------------------------------------------------------------
     1069 0000008c 08700000-        ldp       @CL34,DP
     1070 0000008d 50280021-        ldiu      @CL34,ar0             ; |110| 
     1071 0000008e 50600000         ldiu      0,r0                  ; |110| 
     1072 0000008f 1540c000         sti       r0,*ar0               ; |110| 
     1073                           .line   55
     1074                   ;----------------------------------------------------------------------
     1075                   ; 111 | SAMPLE_PENDING                  = FALSE;    /* No Pulse Sample Pending
     1076                   ;     | for Poll */                                                            
     1077                   ;----------------------------------------------------------------------
     1078 00000090 08700000-        ldp       @CL35,DP
     1079 00000091 50280022-        ldiu      @CL35,ar0             ; |111| 
     1080 00000092 1540c000         sti       r0,*ar0               ; |111| 
TMS320C3x/4x COFF AssemblerVersion 5.12     Mon Nov 19 13:45:24 2018
Copyright (c) 1987-1999 Texas Instruments Incorporatedasm30.exe -@_6L4.AAB 

F:\WKDIR\CodeComposer\EEA_SA_V613b\BOOT\SOURCE\ASM\main.asm          PAGE   21

     1081                           .line   56
     1082                   ;----------------------------------------------------------------------
     1083                   ; 112 | SN_PIPE                            &= 0xFFFFFF;                        
     1084                   ;----------------------------------------------------------------------
     1085 00000093 08700000-        ldp       @CL36,DP
     1086 00000094 50280023-        ldiu      @CL36,ar0             ; |112| 
     1087 00000095 08700000-        ldp       @CL37,DP
     1088 00000096 50200024-        ldiu      @CL37,r0              ; |112| 
     1089 00000097 21a0c000         and3      r0,*ar0,r0            ; |112| 
     1090 00000098 1540c000         sti       r0,*ar0               ; |112| 
     1091                           .line   57
     1092                   ;----------------------------------------------------------------------
     1093                   ; 113 | DUMMY                                   = 0;                           
     1094                   ;----------------------------------------------------------------------
     1095 00000099 08700000-        ldp       @CL38,DP
     1096 0000009a 50280025-        ldiu      @CL38,ar0             ; |113| 
     1097 0000009b 50600000         ldiu      0,r0                  ; |113| 
     1098 0000009c 1540c000         sti       r0,*ar0               ; |113| 
     1099                           .line   58
     1100                   ;----------------------------------------------------------------------
     1101                   ; 114 | PORT2_LIQ_TEMP                      = 0;            /***disconnetion de
     1102                   ;     | tect RS***/                                                            
     1103                   ;----------------------------------------------------------------------
     1104 0000009d 08700000-        ldp       @CL39,DP
     1105 0000009e 50280026-        ldiu      @CL39,ar0             ; |114| 
     1106 0000009f 1540c000         sti       r0,*ar0               ; |114| 
     1107                           .line   59
     1108                   ;----------------------------------------------------------------------
     1109                   ; 115 | PORT2_GAS_TEMP                      = 0;                               
     1110                   ;----------------------------------------------------------------------
     1111 000000a0 08700000-        ldp       @CL40,DP
     1112 000000a1 50280027-        ldiu      @CL40,ar0             ; |115| 
     1113 000000a2 1540c000         sti       r0,*ar0               ; |115| 
     1114                           .line   60
     1115                   ;----------------------------------------------------------------------
     1116                   ; 116 | PORT3_TEMP                          = 0;                               
     1117                   ;----------------------------------------------------------------------
     1118 000000a3 08700000-        ldp       @CL41,DP
     1119 000000a4 50280028-        ldiu      @CL41,ar0             ; |116| 
     1120 000000a5 1540c000         sti       r0,*ar0               ; |116| 
     1121                           .line   61
     1122                   ;----------------------------------------------------------------------
     1123                   ; 117 | MM_LIQ_fail.val             = TRUE;                                    
     1124                   ;----------------------------------------------------------------------
     1125 000000a6 08700000-        ldp       @CL42,DP
     1126 000000a7 50280029-        ldiu      @CL42,ar0             ; |117| 
     1127 000000a8 50600001         ldiu      1,r0                  ; |117| 
     1128 000000a9 1540c000         sti       r0,*ar0               ; |117| 
     1129                           .line   62
     1130                   ;----------------------------------------------------------------------
     1131                   ; 118 | MM_GAS_fail.val             = TRUE;                                    
     1132                   ;----------------------------------------------------------------------
     1133 000000aa 08700000-        ldp       @CL43,DP
     1134 000000ab 5028002a-        ldiu      @CL43,ar0             ; |118| 
TMS320C3x/4x COFF AssemblerVersion 5.12     Mon Nov 19 13:45:24 2018
Copyright (c) 1987-1999 Texas Instruments Incorporatedasm30.exe -@_6L4.AAB 

F:\WKDIR\CodeComposer\EEA_SA_V613b\BOOT\SOURCE\ASM\main.asm          PAGE   22

     1135 000000ac 1540c000         sti       r0,*ar0               ; |118| 
     1136                           .line   63
     1137                   ;----------------------------------------------------------------------
     1138                   ; 119 | Rosemount_fail.val          = TRUE;                                    
     1139                   ;----------------------------------------------------------------------
     1140 000000ad 08700000-        ldp       @CL44,DP
     1141 000000ae 5028002b-        ldiu      @CL44,ar0             ; |119| 
     1142 000000af 1540c000         sti       r0,*ar0               ; |119| 
     1143                           .line   64
     1144                   ;----------------------------------------------------------------------
     1145                   ; 120 | DIO_ERROR.val                       = FALSE;                           
     1146                   ;----------------------------------------------------------------------
     1147 000000b0 08700000-        ldp       @CL45,DP
     1148 000000b1 5028002c-        ldiu      @CL45,ar0             ; |120| 
     1149 000000b2 50600000         ldiu      0,r0                  ; |120| 
     1150 000000b3 1540c000         sti       r0,*ar0               ; |120| 
     1151                           .line   65
     1152                   ;----------------------------------------------------------------------
     1153                   ; 121 | DIO_ALARM.val                   = FALSE;                               
     1154                   ;----------------------------------------------------------------------
     1155 000000b4 08700000-        ldp       @CL46,DP
     1156 000000b5 5028002d-        ldiu      @CL46,ar0             ; |121| 
     1157 000000b6 1540c000         sti       r0,*ar0               ; |121| 
     1158                           .line   66
     1159                   ;----------------------------------------------------------------------
     1160                   ; 122 | DIO_SYSTEM_RESET.val    = FALSE;                                       
     1161                   ;----------------------------------------------------------------------
     1162 000000b7 08700000-        ldp       @CL47,DP
     1163 000000b8 5028002e-        ldiu      @CL47,ar0             ; |122| 
     1164 000000b9 1540c000         sti       r0,*ar0               ; |122| 
     1165                           .line   67
     1166                   ;----------------------------------------------------------------------
     1167                   ; 123 | DIO_BUILT_IN_TEST.val   = FALSE;                                       
     1168                   ;----------------------------------------------------------------------
     1169 000000ba 08700000-        ldp       @CL48,DP
     1170 000000bb 5028002f-        ldiu      @CL48,ar0             ; |123| 
     1171 000000bc 1540c000         sti       r0,*ar0               ; |123| 
     1172                           .line   68
     1173                   ;----------------------------------------------------------------------
     1174                   ; 124 | DIO_BEEP.val                    = FALSE;                               
     1175                   ;----------------------------------------------------------------------
     1176 000000bd 08700000-        ldp       @CL49,DP
     1177 000000be 50280030-        ldiu      @CL49,ar0             ; |124| 
     1178 000000bf 1540c000         sti       r0,*ar0               ; |124| 
     1179                           .line   69
     1180                   ;----------------------------------------------------------------------
     1181                   ; 125 | DIO_uP_GET.val                      = FALSE;                           
     1182                   ;----------------------------------------------------------------------
     1183 000000c0 08700000-        ldp       @CL50,DP
     1184 000000c1 50280031-        ldiu      @CL50,ar0             ; |125| 
     1185 000000c2 1540c000         sti       r0,*ar0               ; |125| 
     1186                           .line   70
     1187                   ;----------------------------------------------------------------------
     1188                   ; 126 | DIO_uP_SET.val                  = FALSE;                               
TMS320C3x/4x COFF AssemblerVersion 5.12     Mon Nov 19 13:45:24 2018
Copyright (c) 1987-1999 Texas Instruments Incorporatedasm30.exe -@_6L4.AAB 

F:\WKDIR\CodeComposer\EEA_SA_V613b\BOOT\SOURCE\ASM\main.asm          PAGE   23

     1189                   ;----------------------------------------------------------------------
     1190 000000c3 08700000-        ldp       @CL51,DP
     1191 000000c4 50280032-        ldiu      @CL51,ar0             ; |126| 
     1192 000000c5 1540c000         sti       r0,*ar0               ; |126| 
     1193                           .line   71
     1194                   ;----------------------------------------------------------------------
     1195                   ; 127 | DIO_COMM_GET.val                = FALSE;                               
     1196                   ;----------------------------------------------------------------------
     1197 000000c6 08700000-        ldp       @CL52,DP
     1198 000000c7 50280033-        ldiu      @CL52,ar0             ; |127| 
     1199 000000c8 1540c000         sti       r0,*ar0               ; |127| 
     1200                           .line   72
     1201                   ;----------------------------------------------------------------------
     1202                   ; 128 | DIO_COMM_SET.val                = FALSE;                               
     1203                   ;----------------------------------------------------------------------
     1204 000000c9 08700000-        ldp       @CL53,DP
     1205 000000ca 50280034-        ldiu      @CL53,ar0             ; |128| 
     1206 000000cb 1540c000         sti       r0,*ar0               ; |128| 
     1207                           .line   73
     1208                   ;----------------------------------------------------------------------
     1209                   ; 129 | DIO_POWER_GET.val               = FALSE;                               
     1210                   ;----------------------------------------------------------------------
     1211 000000cc 08700000-        ldp       @CL54,DP
     1212 000000cd 50280035-        ldiu      @CL54,ar0             ; |129| 
     1213 000000ce 1540c000         sti       r0,*ar0               ; |129| 
     1214                           .line   74
     1215                   ;----------------------------------------------------------------------
     1216                   ; 130 | DIO_POWER_SET.val               = FALSE;                               
     1217                   ;----------------------------------------------------------------------
     1218 000000cf 08700000-        ldp       @CL55,DP
     1219 000000d0 50280036-        ldiu      @CL55,ar0             ; |130| 
     1220 000000d1 1540c000         sti       r0,*ar0               ; |130| 
     1221                           .line   75
     1222                   ;----------------------------------------------------------------------
     1223                   ; 131 | DIO_DISPLAY_GET.val     = FALSE;                                       
     1224                   ;----------------------------------------------------------------------
     1225 000000d2 08700000-        ldp       @CL56,DP
     1226 000000d3 50280037-        ldiu      @CL56,ar0             ; |131| 
     1227 000000d4 1540c000         sti       r0,*ar0               ; |131| 
     1228                           .line   76
     1229                   ;----------------------------------------------------------------------
     1230                   ; 132 | DIO_DISPLAY_SET.val     = FALSE;                                       
     1231                   ;----------------------------------------------------------------------
     1232 000000d5 08700000-        ldp       @CL57,DP
     1233 000000d6 50280038-        ldiu      @CL57,ar0             ; |132| 
     1234 000000d7 1540c000         sti       r0,*ar0               ; |132| 
     1235                           .line   77
     1236                   ;----------------------------------------------------------------------
     1237                   ; 133 | DIO_MOTHERBOARD_GET.val = FALSE;                                       
     1238                   ;----------------------------------------------------------------------
     1239 000000d8 08700000-        ldp       @CL58,DP
     1240 000000d9 50280039-        ldiu      @CL58,ar0             ; |133| 
     1241 000000da 1540c000         sti       r0,*ar0               ; |133| 
     1242                           .line   78
TMS320C3x/4x COFF AssemblerVersion 5.12     Mon Nov 19 13:45:24 2018
Copyright (c) 1987-1999 Texas Instruments Incorporatedasm30.exe -@_6L4.AAB 

F:\WKDIR\CodeComposer\EEA_SA_V613b\BOOT\SOURCE\ASM\main.asm          PAGE   24

     1243                   ;----------------------------------------------------------------------
     1244                   ; 134 | DIO_MOTHERBOARD_SET.val = FALSE;                                       
     1245                   ;----------------------------------------------------------------------
     1246 000000db 08700000-        ldp       @CL59,DP
     1247 000000dc 5028003a-        ldiu      @CL59,ar0             ; |134| 
     1248 000000dd 1540c000         sti       r0,*ar0               ; |134| 
     1249                           .line   79
     1250                   ;----------------------------------------------------------------------
     1251                   ; 135 | DIO_ANALYZER_GET.val    = FALSE;                                       
     1252                   ;----------------------------------------------------------------------
     1253 000000de 08700000-        ldp       @CL60,DP
     1254 000000df 5028003b-        ldiu      @CL60,ar0             ; |135| 
     1255 000000e0 1540c000         sti       r0,*ar0               ; |135| 
     1256                           .line   80
     1257                   ;----------------------------------------------------------------------
     1258                   ; 136 | DIO_ANALYZER_SET.val    = FALSE;                                       
     1259                   ;----------------------------------------------------------------------
     1260 000000e1 08700000-        ldp       @CL61,DP
     1261 000000e2 5028003c-        ldiu      @CL61,ar0             ; |136| 
     1262 000000e3 1540c000         sti       r0,*ar0               ; |136| 
     1263                           .line   81
     1264                   ;----------------------------------------------------------------------
     1265                   ; 137 | DIO_ANALOGIO_GET.val    = FALSE;                                       
     1266                   ;----------------------------------------------------------------------
     1267 000000e4 08700000-        ldp       @CL62,DP
     1268 000000e5 5028003d-        ldiu      @CL62,ar0             ; |137| 
     1269 000000e6 1540c000         sti       r0,*ar0               ; |137| 
     1270                           .line   82
     1271                   ;----------------------------------------------------------------------
     1272                   ; 138 | DIO_ANALOGIO_SET.val    = FALSE;                                       
     1273                   ;----------------------------------------------------------------------
     1274 000000e7 08700000-        ldp       @CL63,DP
     1275 000000e8 5028003e-        ldiu      @CL63,ar0             ; |138| 
     1276 000000e9 1540c000         sti       r0,*ar0               ; |138| 
     1277                           .line   83
     1278                   ;----------------------------------------------------------------------
     1279                   ; 139 | DIO_PV_PERCMASS                 = FALSE;                               
     1280                   ;----------------------------------------------------------------------
     1281 000000ea 08700000-        ldp       @CL64,DP
     1282 000000eb 5028003f-        ldiu      @CL64,ar0             ; |139| 
     1283 000000ec 1540c000         sti       r0,*ar0               ; |139| 
     1284                           .line   84
     1285                   ;----------------------------------------------------------------------
     1286                   ; 140 | LED_GREEN                               = FALSE;                       
     1287                   ;----------------------------------------------------------------------
     1288 000000ed 08700000-        ldp       @CL65,DP
     1289 000000ee 50280040-        ldiu      @CL65,ar0             ; |140| 
     1290 000000ef 1540c000         sti       r0,*ar0               ; |140| 
     1291                           .line   87
     1292                   ;----------------------------------------------------------------------
     1293                   ; 143 | VAR_Update(&REG_FREQ_OIL_LO,            REG_FREQ_OIL_LO.val,
     1294                   ;     |  0, 0);                                                                
     1295                   ;----------------------------------------------------------------------
     1296 000000f0 08700000-        ldp       @CL66,DP
TMS320C3x/4x COFF AssemblerVersion 5.12     Mon Nov 19 13:45:24 2018
Copyright (c) 1987-1999 Texas Instruments Incorporatedasm30.exe -@_6L4.AAB 

F:\WKDIR\CodeComposer\EEA_SA_V613b\BOOT\SOURCE\ASM\main.asm          PAGE   25

     1297 000000f1 50280041-        ldiu      @CL66,ar0             ; |143| 
     1298 000000f2 506300ff         ldiu      255,r3                ; |143| 
     1299 000000f3 4040c000         ldfu      *ar0,f0               ; |143| 
     1300 000000f4 40020000         ldfu      f0,f2                 ; |143| Move F32 into F40 for CONV
     1301 000000f5 03020003         andn      r3,f2                 ; |143| Bit mask for F32/F40 conversion
     1302 000000f6 08700000-        ldp       @CL67,DP
     1303 000000f7 50630000         ldiu      0,r3                  ; |143| 
     1304 000000f8 50210042-        ldiu      @CL67,r1              ; |143| 
     1305 000000f9 08700000-        ldp       @CL66,DP
     1306 000000fa 507b0000         ldiu      0,rc                  ; |143| 
     1307 000000fb 502a0041-        ldiu      @CL66,ar2             ; |143| 
     1308 000000fc 70000001         callu     r1                    ; far call to _VAR_Update       ; |143| 
     1309                                                           ; |143| Far Call Occurs
     1310                           .line   88
     1311                   ;----------------------------------------------------------------------
     1312                   ; 144 | VAR_Update(&REG_FREQ_OIL_HI,            REG_FREQ_OIL_HI.val,
     1313                   ;     |  0, 0);                                                                
     1314                   ;----------------------------------------------------------------------
     1315 000000fd 08700000-        ldp       @CL68,DP
     1316 000000fe 50280043-        ldiu      @CL68,ar0             ; |144| 
     1317 000000ff 4040c000         ldfu      *ar0,f0               ; |144| 
     1318 00000100 40020000         ldfu      f0,f2                 ; |144| Move F32 into F40 for CONV
     1319 00000101 08700000-        ldp       @CL67,DP
     1320 00000102 506300ff         ldiu      255,r3                ; |144| 
     1321 00000103 03020003         andn      r3,f2                 ; |144| Bit mask for F32/F40 conversion
     1322 00000104 50210042-        ldiu      @CL67,r1              ; |144| 
     1323 00000105 08700000-        ldp       @CL68,DP
     1324 00000106 50630000         ldiu      0,r3                  ; |144| 
     1325 00000107 502a0043-        ldiu      @CL68,ar2             ; |144| 
     1326 00000108 507b0000         ldiu      0,rc                  ; |144| 
     1327 00000109 70000001         callu     r1                    ; far call to _VAR_Update       ; |144| 
     1328                                                           ; |144| Far Call Occurs
     1329                           .line   89
     1330                   ;----------------------------------------------------------------------
     1331                   ; 145 | VAR_Update(&REG_FREQ_WATER_LO,          REG_FREQ_WATER_LO.val,
     1332                   ;     |  0, 0);                                                                
     1333                   ;----------------------------------------------------------------------
     1334 0000010a 08700000-        ldp       @CL69,DP
     1335 0000010b 50280044-        ldiu      @CL69,ar0             ; |145| 
     1336 0000010c 4040c000         ldfu      *ar0,f0               ; |145| 
     1337 0000010d 40020000         ldfu      f0,f2                 ; |145| Move F32 into F40 for CONV
     1338 0000010e 506300ff         ldiu      255,r3                ; |145| 
     1339 0000010f 08700000-        ldp       @CL67,DP
     1340 00000110 03020003         andn      r3,f2                 ; |145| Bit mask for F32/F40 conversion
     1341 00000111 50210042-        ldiu      @CL67,r1              ; |145| 
     1342 00000112 08700000-        ldp       @CL69,DP
     1343 00000113 50630000         ldiu      0,r3                  ; |145| 
     1344 00000114 502a0044-        ldiu      @CL69,ar2             ; |145| 
     1345 00000115 507b0000         ldiu      0,rc                  ; |145| 
     1346 00000116 70000001         callu     r1                    ; far call to _VAR_Update       ; |145| 
     1347                                                           ; |145| Far Call Occurs
     1348                           .line   90
     1349                   ;----------------------------------------------------------------------
     1350                   ; 146 | VAR_Update(&REG_FREQ_WATER_HI,          REG_FREQ_WATER_HI.val,
TMS320C3x/4x COFF AssemblerVersion 5.12     Mon Nov 19 13:45:24 2018
Copyright (c) 1987-1999 Texas Instruments Incorporatedasm30.exe -@_6L4.AAB 

F:\WKDIR\CodeComposer\EEA_SA_V613b\BOOT\SOURCE\ASM\main.asm          PAGE   26

     1351                   ;     |  0, 0);                                                                
     1352                   ;----------------------------------------------------------------------
     1353 00000117 08700000-        ldp       @CL70,DP
     1354 00000118 50280045-        ldiu      @CL70,ar0             ; |146| 
     1355 00000119 4040c000         ldfu      *ar0,f0               ; |146| 
     1356 0000011a 40020000         ldfu      f0,f2                 ; |146| Move F32 into F40 for CONV
     1357 0000011b 08700000-        ldp       @CL67,DP
     1358 0000011c 506300ff         ldiu      255,r3                ; |146| 
     1359 0000011d 03020003         andn      r3,f2                 ; |146| Bit mask for F32/F40 conversion
     1360 0000011e 50210042-        ldiu      @CL67,r1              ; |146| 
     1361 0000011f 08700000-        ldp       @CL70,DP
     1362 00000120 50630000         ldiu      0,r3                  ; |146| 
     1363 00000121 502a0045-        ldiu      @CL70,ar2             ; |146| 
     1364 00000122 507b0000         ldiu      0,rc                  ; |146| 
     1365 00000123 70000001         callu     r1                    ; far call to _VAR_Update       ; |146| 
     1366                                                           ; |146| Far Call Occurs
     1367                           .line   91
     1368                   ;----------------------------------------------------------------------
     1369                   ; 147 | VAR_Update(&REG_LOWSALT_THRESHOLD,      REG_LOWSALT_THRESHOLD.val,
     1370                   ;     |  0, 0);               /*RS*/                                           
     1371                   ;----------------------------------------------------------------------
     1372 00000124 08700000-        ldp       @CL71,DP
     1373 00000125 50280046-        ldiu      @CL71,ar0             ; |147| 
     1374 00000126 08700000-        ldp       @CL67,DP
     1375 00000127 4040c000         ldfu      *ar0,f0               ; |147| 
     1376 00000128 50210042-        ldiu      @CL67,r1              ; |147| 
     1377 00000129 40020000         ldfu      f0,f2                 ; |147| Move F32 into F40 for CONV
     1378 0000012a 506300ff         ldiu      255,r3                ; |147| 
     1379 0000012b 08700000-        ldp       @CL71,DP
     1380 0000012c 03020003         andn      r3,f2                 ; |147| Bit mask for F32/F40 conversion
     1381 0000012d 507b0000         ldiu      0,rc                  ; |147| 
     1382 0000012e 50630000         ldiu      0,r3                  ; |147| 
     1383 0000012f 502a0046-        ldiu      @CL71,ar2             ; |147| 
     1384 00000130 70000001         callu     r1                    ; far call to _VAR_Update       ; |147| 
     1385                                                           ; |147| Far Call Occurs
     1386                           .line   94
     1387                   ;----------------------------------------------------------------------
     1388                   ; 150 | EXTENDED_FW_VERSION_ENABLE.val = 123.0; //prevents IDEC screen freezing
     1389                   ;     | , the idea being that lowsalt threshold will never be 123              
     1390                   ;----------------------------------------------------------------------
     1391 00000131 08700000-        ldp       @CL72,DP
     1392 00000132 50280047-        ldiu      @CL72,ar0             ; |150| 
     1393 00000133 40606760         ldfu      1.2300000000e+02,f0   ; |150| 
     1394 00000134 1440c000         stf       f0,*ar0               ; |150| 
     1395                           .line   96
     1396                   ;----------------------------------------------------------------------
     1397                   ; 152 | if (DIPSW1)                                                            
     1398                   ;----------------------------------------------------------------------
     1399 00000135 08700000-        ldp       @CL73,DP
     1400 00000136 50280048-        ldiu      @CL73,ar0             ; |152| 
     1401 00000137 50600010         ldiu      16,r0                 ; |152| 
     1402 00000138 27c000c0         tstb3     *ar0,r0               ; |152| 
     1403 00000139 6a050005         beq       L13                   ; |152| 
     1404                   ;*      Branch Occurs to L13            ; |152| 
TMS320C3x/4x COFF AssemblerVersion 5.12     Mon Nov 19 13:45:24 2018
Copyright (c) 1987-1999 Texas Instruments Incorporatedasm30.exe -@_6L4.AAB 

F:\WKDIR\CodeComposer\EEA_SA_V613b\BOOT\SOURCE\ASM\main.asm          PAGE   27

     1405                           .line   97
     1406                   ;----------------------------------------------------------------------
     1407                   ; 153 | DIPSWITCH[0] = FALSE;                                                  
     1408                   ; 154 | else                                                                   
     1409                   ;----------------------------------------------------------------------
     1410 0000013a 08700000-        ldp       @CL74,DP
     1411 0000013b 50280049-        ldiu      @CL74,ar0             ; |153| 
     1412 0000013c 50600000         ldiu      0,r0                  ; |153| 
     1413 0000013d 1540c000         sti       r0,*ar0               ; |153| 
     1414 0000013e 6a000004         bu        L14                   ; |56| 
     1415                   ;*      Branch Occurs to L14            ; |56| 
     1416 0000013f          L13:        
     1417                           .line   99
     1418                   ;----------------------------------------------------------------------
     1419                   ; 155 | DIPSWITCH[0] = TRUE;                                                   
     1420                   ;----------------------------------------------------------------------
     1421 0000013f 08700000-        ldp       @CL74,DP
     1422 00000140 50280049-        ldiu      @CL74,ar0             ; |155| 
     1423 00000141 50600001         ldiu      1,r0                  ; |155| 
     1424 00000142 1540c000         sti       r0,*ar0               ; |155| 
     1425 00000143          L14:        
     1426                           .line   101
     1427                   ;----------------------------------------------------------------------
     1428                   ; 157 | if (DIPSW2)                                                            
     1429                   ;----------------------------------------------------------------------
     1430 00000143 08700000-        ldp       @CL73,DP
     1431 00000144 50280048-        ldiu      @CL73,ar0             ; |157| 
     1432 00000145 50600020         ldiu      32,r0                 ; |157| 
     1433 00000146 27c000c0         tstb3     *ar0,r0               ; |157| 
     1434 00000147 6a050005         beq       L16                   ; |157| 
     1435                   ;*      Branch Occurs to L16            ; |157| 
     1436                           .line   102
     1437                   ;----------------------------------------------------------------------
     1438                   ; 158 | DIPSWITCH[1] = FALSE;                                                  
     1439                   ; 159 | else                                                                   
     1440                   ;----------------------------------------------------------------------
     1441 00000148 08700000-        ldp       @CL75,DP
     1442 00000149 5028004a-        ldiu      @CL75,ar0             ; |158| 
     1443 0000014a 50600000         ldiu      0,r0                  ; |158| 
     1444 0000014b 1540c000         sti       r0,*ar0               ; |158| 
     1445 0000014c 6a000004         bu        L17                   ; |56| 
     1446                   ;*      Branch Occurs to L17            ; |56| 
     1447 0000014d          L16:        
     1448                           .line   104
     1449                   ;----------------------------------------------------------------------
     1450                   ; 160 | DIPSWITCH[1] = TRUE;                                                   
     1451                   ;----------------------------------------------------------------------
     1452 0000014d 08700000-        ldp       @CL75,DP
     1453 0000014e 5028004a-        ldiu      @CL75,ar0             ; |160| 
     1454 0000014f 50600001         ldiu      1,r0                  ; |160| 
     1455 00000150 1540c000         sti       r0,*ar0               ; |160| 
     1456 00000151          L17:        
     1457                           .line   106
     1458                   ;----------------------------------------------------------------------
TMS320C3x/4x COFF AssemblerVersion 5.12     Mon Nov 19 13:45:24 2018
Copyright (c) 1987-1999 Texas Instruments Incorporatedasm30.exe -@_6L4.AAB 

F:\WKDIR\CodeComposer\EEA_SA_V613b\BOOT\SOURCE\ASM\main.asm          PAGE   28

     1459                   ; 162 | REG_TIME                         = 0;                                  
     1460                   ;----------------------------------------------------------------------
     1461 00000151 08700000-        ldp       @CL76,DP
     1462 00000152 5028004b-        ldiu      @CL76,ar0             ; |162| 
     1463 00000153 50600000         ldiu      0,r0                  ; |162| 
     1464 00000154 1540c000         sti       r0,*ar0               ; |162| 
     1465                           .line   109
     1466                   ;----------------------------------------------------------------------
     1467                   ; 165 | N_TEMP                           = 0;                                  
     1468                   ;----------------------------------------------------------------------
     1469 00000155 08700000-        ldp       @CL77,DP
     1470 00000156 5028004c-        ldiu      @CL77,ar0             ; |165| 
     1471 00000157 1540c000         sti       r0,*ar0               ; |165| 
     1472                           .line   110
     1473                   ;----------------------------------------------------------------------
     1474                   ; 166 | SUM_TEMP                         = 0;                                  
     1475                   ;----------------------------------------------------------------------
     1476 00000158 08700000-        ldp       @CL78,DP
     1477 00000159 5028004d-        ldiu      @CL78,ar0             ; |166| 
     1478 0000015a 08700000-        ldp       @CL79+0,DP
     1479 0000015b 4020004e-        ldfu      @CL79+0,f0            ; |166| 40b float hi half
     1480 0000015c 08700000-        ldp       @CL79+1,DP
     1481 0000015d 5020004f-        ldiu      @CL79+1,r0            ; |166| 40b float lo half
     1482 0000015e 1440c000         stf       f0,*ar0               ; |166| Store high half
     1483 0000015f 15400001         sti       r0,*+ar0              ; |166| Store low half
     1484                           .line   111
     1485                   ;----------------------------------------------------------------------
     1486                   ; 167 | AVG_TEMP                         = 0;                                  
     1487                   ;----------------------------------------------------------------------
     1488 00000160 08700000-        ldp       @CL80,DP
     1489 00000161 50280050-        ldiu      @CL80,ar0             ; |167| 
     1490 00000162 08700000-        ldp       @CL79+0,DP
     1491 00000163 4020004e-        ldfu      @CL79+0,f0            ; |167| 40b float hi half
     1492 00000164 08700000-        ldp       @CL79+1,DP
     1493 00000165 5020004f-        ldiu      @CL79+1,r0            ; |167| 40b float lo half
     1494 00000166 1440c000         stf       f0,*ar0               ; |167| Store high half
     1495 00000167 15400001         sti       r0,*+ar0              ; |167| Store low half
     1496                           .line   115
     1497                   ;----------------------------------------------------------------------
     1498                   ; 171 | cycles                           = 0;                                  
     1499                   ;----------------------------------------------------------------------
     1500 00000168 08700000-        ldp       @CL81,DP
     1501 00000169 50280051-        ldiu      @CL81,ar0             ; |171| 
     1502 0000016a 50600000         ldiu      0,r0                  ; |171| 
     1503 0000016b 1540c000         sti       r0,*ar0               ; |171| 
     1504                           .line   116
     1505                   ;----------------------------------------------------------------------
     1506                   ; 172 | previous_phase           = 0;                                          
     1507                   ;----------------------------------------------------------------------
     1508 0000016c 08700000-        ldp       @CL82,DP
     1509 0000016d 50280052-        ldiu      @CL82,ar0             ; |172| 
     1510 0000016e 1540c000         sti       r0,*ar0               ; |172| 
     1511                           .line   117
     1512                   ;----------------------------------------------------------------------
TMS320C3x/4x COFF AssemblerVersion 5.12     Mon Nov 19 13:45:24 2018
Copyright (c) 1987-1999 Texas Instruments Incorporatedasm30.exe -@_6L4.AAB 

F:\WKDIR\CodeComposer\EEA_SA_V613b\BOOT\SOURCE\ASM\main.asm          PAGE   29

     1513                   ; 173 | phase                            = 0;                                  
     1514                   ;----------------------------------------------------------------------
     1515 0000016f 08700000-        ldp       @CL83,DP
     1516 00000170 50280053-        ldiu      @CL83,ar0             ; |173| 
     1517 00000171 1540c000         sti       r0,*ar0               ; |173| 
     1518                           .line   118
     1519                   ;----------------------------------------------------------------------
     1520                   ; 174 | phase_rollover_count = 0;                                              
     1521                   ;----------------------------------------------------------------------
     1522 00000172 08700000-        ldp       @CL84,DP
     1523 00000173 50280054-        ldiu      @CL84,ar0             ; |174| 
     1524 00000174 1540c000         sti       r0,*ar0               ; |174| 
     1525                           .line   122
     1526                   ;----------------------------------------------------------------------
     1527                   ; 178 | N_WC                             = 1;                                  
     1528                   ;----------------------------------------------------------------------
     1529 00000175 08700000-        ldp       @CL85,DP
     1530 00000176 50280055-        ldiu      @CL85,ar0             ; |178| 
     1531 00000177 50600001         ldiu      1,r0                  ; |178| 
     1532 00000178 1540c000         sti       r0,*ar0               ; |178| 
     1533                           .line   123
     1534                   ;----------------------------------------------------------------------
     1535                   ; 179 | WC_SUM                           = 0;                                  
     1536                   ;----------------------------------------------------------------------
     1537 00000179 08700000-        ldp       @CL86,DP
     1538 0000017a 50280056-        ldiu      @CL86,ar0             ; |179| 
     1539 0000017b 40608000         ldfu      0.0000000000e+00,f0   ; |179| 
     1540 0000017c 1440c000         stf       f0,*ar0               ; |179| 
     1541                           .line   126
     1542                   ;----------------------------------------------------------------------
     1543                   ; 182 | for (i=0;i<31;i++)                                                     
     1544                   ;----------------------------------------------------------------------
     1545 0000017d 50600000         ldiu      0,r0                  ; |182| 
     1546 0000017e 15400301         sti       r0,*+fp(1)            ; |182| 
     1547 0000017f 40618000         ldfu      0.0000000000e+00,f1   ; |183| 
     1548 00000180 04e0001f         cmpi      31,r0                 ; |182| 
     1549 00000181 6a0a0009         bge       L19                   ; |182| 
     1550                   ;*      Branch Occurs to L19            ; |182| 
     1551 00000182          L18:        
     1552                           .line   127
     1553                   ;----------------------------------------------------------------------
     1554                   ; 183 | WC_SAMPLE[i] = 0;    /*average filter RS*/                             
     1555                   ;----------------------------------------------------------------------
     1556 00000182 08700000-        ldp       @CL87,DP
     1557 00000183 50510301         ldiu      *+fp(1),ir0           ; |183| 
     1558 00000184 50280057-        ldiu      @CL87,ar0             ; |183| 
     1559 00000185 14414000         stf       f1,*+ar0(ir0)         ; |183| 
     1560                           .line   126
     1561 00000186 50600001         ldiu      1,r0                  ; |182| 
     1562 00000187 02400301         addi      *+fp(1),r0            ; |182| 
     1563 00000188 15400301         sti       r0,*+fp(1)            ; |182| 
     1564 00000189 04e0001f         cmpi      31,r0                 ; |182| 
     1565 0000018a 6a07fff7         blt       L18                   ; |182| 
     1566                   ;*      Branch Occurs to L18            ; |182| 
TMS320C3x/4x COFF AssemblerVersion 5.12     Mon Nov 19 13:45:24 2018
Copyright (c) 1987-1999 Texas Instruments Incorporatedasm30.exe -@_6L4.AAB 

F:\WKDIR\CodeComposer\EEA_SA_V613b\BOOT\SOURCE\ASM\main.asm          PAGE   30

     1567 0000018b          L19:        
     1568                           .line   130
     1569                   ;----------------------------------------------------------------------
     1570                   ; 186 | N_FREQ                                  = 1;    /* Frequency */        
     1571                   ;----------------------------------------------------------------------
     1572 0000018b 08700000-        ldp       @CL88,DP
     1573 0000018c 50280058-        ldiu      @CL88,ar0             ; |186| 
     1574 0000018d 50600001         ldiu      1,r0                  ; |186| 
     1575 0000018e 1540c000         sti       r0,*ar0               ; |186| 
     1576                           .line   131
     1577                   ;----------------------------------------------------------------------
     1578                   ; 187 | HSALT_FREQ_TRIGGER.val  = TRUE;                                        
     1579                   ; 189 | //VAR_Update(&REG_FREQ_WINDOW,          30.0, 0, 0);                   
     1580                   ;----------------------------------------------------------------------
     1581 0000018f 08700000-        ldp       @CL89,DP
     1582 00000190 50280059-        ldiu      @CL89,ar0             ; |187| 
     1583 00000191 1540c000         sti       r0,*ar0               ; |187| 
     1584                           .line   134
     1585                   ;----------------------------------------------------------------------
     1586                   ; 190 | VAR_Update(&REG_FREQ_VARIANCE_RATIO, 1.5, 0, 0);                       
     1587                   ;----------------------------------------------------------------------
     1588 00000192 08700000-        ldp       @CL67,DP
     1589 00000193 50200042-        ldiu      @CL67,r0              ; |190| 
     1590 00000194 08700000-        ldp       @CL91+0,DP
     1591 00000195 4022005b-        ldfu      @CL91+0,f2            ; |190| 40b float hi half
     1592 00000196 08700000-        ldp       @CL91+1,DP
     1593 00000197 507b0000         ldiu      0,rc                  ; |190| 
     1594 00000198 5022005c-        ldiu      @CL91+1,r2            ; |190| 40b float lo half
     1595 00000199 08700000-        ldp       @CL90,DP
     1596 0000019a 50630000         ldiu      0,r3                  ; |190| 
     1597 0000019b 502a005a-        ldiu      @CL90,ar2             ; |190| 
     1598 0000019c 70000000         callu     r0                    ; far call to _VAR_Update       ; |190| 
     1599                                                           ; |190| Far Call Occurs
     1600                           .line   136
     1601                   ;----------------------------------------------------------------------
     1602                   ; 192 | TEMP_SAMPLE                     = 0;    /* Temperature */              
     1603                   ;----------------------------------------------------------------------
     1604 0000019d 08700000-        ldp       @CL92,DP
     1605 0000019e 5028005d-        ldiu      @CL92,ar0             ; |192| 
     1606 0000019f 40608000         ldfu      0.0000000000e+00,f0   ; |192| 
     1607 000001a0 1440c000         stf       f0,*ar0               ; |192| 
     1608                           .line   137
     1609                   ;----------------------------------------------------------------------
     1610                   ; 193 | LAST_TEMP_RESET                 = TEMP_SAMPLE;                         
     1611                   ;----------------------------------------------------------------------
     1612 000001a1 5028005d-        ldiu      @CL92,ar0             ; |193| 
     1613 000001a2 08700000-        ldp       @CL93,DP
     1614 000001a3 5029005e-        ldiu      @CL93,ar1             ; |193| 
     1615 000001a4 4040c000         ldfu      *ar0,f0               ; |193| 
     1616 000001a5 1440c100         stf       f0,*ar1               ; |193| 
     1617                           .line   138
     1618                   ;----------------------------------------------------------------------
     1619                   ; 194 | HSALT_TEMP_TRIGGER.val  = FALSE;                                       
     1620                   ; 196 | //VAR_Update(&REG_DELTA_TEMP,           3.0,  0, 0);                   
TMS320C3x/4x COFF AssemblerVersion 5.12     Mon Nov 19 13:45:24 2018
Copyright (c) 1987-1999 Texas Instruments Incorporatedasm30.exe -@_6L4.AAB 

F:\WKDIR\CodeComposer\EEA_SA_V613b\BOOT\SOURCE\ASM\main.asm          PAGE   31

     1621                   ;----------------------------------------------------------------------
     1622 000001a6 08700000-        ldp       @CL94,DP
     1623 000001a7 5028005f-        ldiu      @CL94,ar0             ; |194| 
     1624 000001a8 50600000         ldiu      0,r0                  ; |194| 
     1625 000001a9 1540c000         sti       r0,*ar0               ; |194| 
     1626                           .line   144
     1627                   ;----------------------------------------------------------------------
     1628                   ; 200 | GAS_ENTRAINED_DENS_DETECT.val = FALSE;                                 
     1629                   ;----------------------------------------------------------------------
     1630 000001aa 08700000-        ldp       @CL95,DP
     1631 000001ab 50280060-        ldiu      @CL95,ar0             ; |200| 
     1632 000001ac 1540c000         sti       r0,*ar0               ; |200| 
     1633                           .line   146
     1634                   ;----------------------------------------------------------------------
     1635                   ; 202 | gas_routine_reset_needed = TRUE;                                       
     1636                   ;----------------------------------------------------------------------
     1637 000001ad 08700000-        ldp       @CL96,DP
     1638 000001ae 50280061-        ldiu      @CL96,ar0             ; |202| 
     1639 000001af 50600001         ldiu      1,r0                  ; |202| 
     1640 000001b0 1540c000         sti       r0,*ar0               ; |202| 
     1641                           .line   147
     1642                   ;----------------------------------------------------------------------
     1643                   ; 203 | boxcar_reset_needed = TRUE;                                            
     1644                   ;----------------------------------------------------------------------
     1645 000001b1 08700000-        ldp       @CL97,DP
     1646 000001b2 50280062-        ldiu      @CL97,ar0             ; |203| 
     1647 000001b3 1540c000         sti       r0,*ar0               ; |203| 
     1648                           .line   148
     1649                   ;----------------------------------------------------------------------
     1650                   ; 204 | if ( (ANALYZER_MODE.val & 0xFF) != SUB_CCM )                           
     1651                   ;----------------------------------------------------------------------
     1652 000001b4 08700000-        ldp       @CL98,DP
     1653 000001b5 50280063-        ldiu      @CL98,ar0             ; |204| 
     1654 000001b6 506000ff         ldiu      255,r0                ; |204| 
     1655 000001b7 21a0c000         and3      r0,*ar0,r0            ; |204| 
     1656 000001b8 04e00006         cmpi      6,r0                  ; |204| 
     1657 000001b9 6a050005         beq       L21                   ; |204| 
     1658                   ;*      Branch Occurs to L21            ; |204| 
     1659                           .line   150
     1660                   ;----------------------------------------------------------------------
     1661                   ; 206 | REG_WATERCUT_DENSITY.STAT |= var_no_alarm;                             
     1662                   ;----------------------------------------------------------------------
     1663 000001ba 08700000-        ldp       @CL99,DP
     1664 000001bb 50280064-        ldiu      @CL99,ar0             ; |206| 
     1665 000001bc 50600004         ldiu      4,r0                  ; |206| 
     1666 000001bd 25a0c000         or3       r0,*ar0,r0            ; |206| 
     1667 000001be 1540c000         sti       r0,*ar0               ; |206| 
     1668 000001bf          L21:        
     1669                           .line   156
     1670                   ;----------------------------------------------------------------------
     1671                   ; 212 | TRIM_RTD_LO = FALSE;                                                   
     1672                   ;----------------------------------------------------------------------
     1673 000001bf 08700000-        ldp       @CL100,DP
     1674 000001c0 50280065-        ldiu      @CL100,ar0            ; |212| 
TMS320C3x/4x COFF AssemblerVersion 5.12     Mon Nov 19 13:45:24 2018
Copyright (c) 1987-1999 Texas Instruments Incorporatedasm30.exe -@_6L4.AAB 

F:\WKDIR\CodeComposer\EEA_SA_V613b\BOOT\SOURCE\ASM\main.asm          PAGE   32

     1675 000001c1 50600000         ldiu      0,r0                  ; |212| 
     1676 000001c2 1540c000         sti       r0,*ar0               ; |212| 
     1677                           .line   157
     1678                   ;----------------------------------------------------------------------
     1679                   ; 213 | TRIM_RTD_HI = FALSE;                                                   
     1680                   ;----------------------------------------------------------------------
     1681 000001c3 08700000-        ldp       @CL101,DP
     1682 000001c4 50280066-        ldiu      @CL101,ar0            ; |213| 
     1683 000001c5 1540c000         sti       r0,*ar0               ; |213| 
     1684                           .line   160
     1685                   ;----------------------------------------------------------------------
     1686                   ; 216 | CAP_WATER_STOP.val      = FALSE;                                       
     1687                   ;----------------------------------------------------------------------
     1688 000001c6 08700000-        ldp       @CL102,DP
     1689 000001c7 50280067-        ldiu      @CL102,ar0            ; |216| 
     1690 000001c8 1540c000         sti       r0,*ar0               ; |216| 
     1691                           .line   161
     1692                   ;----------------------------------------------------------------------
     1693                   ; 217 | CAP_OIL_STOP.val        = FALSE;                                       
     1694                   ;----------------------------------------------------------------------
     1695 000001c9 08700000-        ldp       @CL103,DP
     1696 000001ca 50280068-        ldiu      @CL103,ar0            ; |217| 
     1697 000001cb 1540c000         sti       r0,*ar0               ; |217| 
     1698                           .line   164
     1699                   ;----------------------------------------------------------------------
     1700                   ; 220 | Clear(&PV_SAMPLES);                                                    
     1701                   ;----------------------------------------------------------------------
     1702 000001cc 08700000-        ldp       @CL105,DP
     1703 000001cd 5020006a-        ldiu      @CL105,r0             ; |220| 
     1704 000001ce 08700000-        ldp       @CL104,DP
     1705 000001cf 502a0069-        ldiu      @CL104,ar2            ; |220| 
     1706 000001d0 70000000         callu     r0                    ; far call to _Clear    ; |220| 
     1707                                                           ; |220| Far Call Occurs
     1708                           .line   165
     1709                   ;----------------------------------------------------------------------
     1710                   ; 221 | Clear(&PV_SAMPLES_24hr);                                               
     1711                   ;----------------------------------------------------------------------
     1712 000001d1 08700000-        ldp       @CL105,DP
     1713 000001d2 5020006a-        ldiu      @CL105,r0             ; |221| 
     1714 000001d3 08700000-        ldp       @CL106,DP
     1715 000001d4 502a006b-        ldiu      @CL106,ar2            ; |221| 
     1716 000001d5 70000000         callu     r0                    ; far call to _Clear    ; |221| 
     1717                                                           ; |221| Far Call Occurs
     1718                           .line   166
     1719                   ;----------------------------------------------------------------------
     1720                   ; 222 | Clear(&PV_SAMPLES_5min);                                               
     1721                   ;----------------------------------------------------------------------
     1722 000001d6 08700000-        ldp       @CL105,DP
     1723 000001d7 5020006a-        ldiu      @CL105,r0             ; |222| 
     1724 000001d8 08700000-        ldp       @CL107,DP
     1725 000001d9 502a006c-        ldiu      @CL107,ar2            ; |222| 
     1726 000001da 70000000         callu     r0                    ; far call to _Clear    ; |222| 
     1727                                                           ; |222| Far Call Occurs
     1728                           .line   168
TMS320C3x/4x COFF AssemblerVersion 5.12     Mon Nov 19 13:45:24 2018
Copyright (c) 1987-1999 Texas Instruments Incorporatedasm30.exe -@_6L4.AAB 

F:\WKDIR\CodeComposer\EEA_SA_V613b\BOOT\SOURCE\ASM\main.asm          PAGE   33

     1729                   ;----------------------------------------------------------------------
     1730                   ; 224 | PV_SAMPLES.sum          = 0x80000000;           /* force to float 0.0 *
     1731                   ;     | /                                                                      
     1732                   ;----------------------------------------------------------------------
     1733 000001db 08700000-        ldp       @CL108,DP
     1734 000001dc 5028006d-        ldiu      @CL108,ar0            ; |224| 
     1735 000001dd 08700000-        ldp       @CL109,DP
     1736 000001de 5020006e-        ldiu      @CL109,r0             ; |224| 
     1737 000001df 1540c000         sti       r0,*ar0               ; |224| 
     1738                           .line   169
     1739                   ;----------------------------------------------------------------------
     1740                   ; 225 | PV_SAMPLES_24hr.sum = 0x80000000;       /* force to float 0.0 */       
     1741                   ;----------------------------------------------------------------------
     1742 000001e0 08700000-        ldp       @CL110,DP
     1743 000001e1 5028006f-        ldiu      @CL110,ar0            ; |225| 
     1744 000001e2 08700000-        ldp       @CL109,DP
     1745 000001e3 5020006e-        ldiu      @CL109,r0             ; |225| 
     1746 000001e4 1540c000         sti       r0,*ar0               ; |225| 
     1747                           .line   170
     1748                   ;----------------------------------------------------------------------
     1749                   ; 226 | REG_PV_AVG_24hr         = 0.0;                                         
     1750                   ;----------------------------------------------------------------------
     1751 000001e5 08700000-        ldp       @CL111,DP
     1752 000001e6 50280070-        ldiu      @CL111,ar0            ; |226| 
     1753 000001e7 40608000         ldfu      0.0000000000e+00,f0   ; |226| 
     1754 000001e8 1440c000         stf       f0,*ar0               ; |226| 
     1755                           .line   171
     1756                   ;----------------------------------------------------------------------
     1757                   ; 227 | PV_SAMPLES_5min.sum = 0x80000000;       /* force to float 0.0 */       
     1758                   ;----------------------------------------------------------------------
     1759 000001e9 08700000-        ldp       @CL112,DP
     1760 000001ea 50280071-        ldiu      @CL112,ar0            ; |227| 
     1761 000001eb 08700000-        ldp       @CL109,DP
     1762 000001ec 5020006e-        ldiu      @CL109,r0             ; |227| 
     1763 000001ed 1540c000         sti       r0,*ar0               ; |227| 
     1764                           .line   172
     1765                   ;----------------------------------------------------------------------
     1766                   ; 228 | REG_PV_AVG_5min         = 0.0;                                         
     1767                   ;----------------------------------------------------------------------
     1768 000001ee 08700000-        ldp       @CL113,DP
     1769 000001ef 50280072-        ldiu      @CL113,ar0            ; |228| 
     1770 000001f0 40608000         ldfu      0.0000000000e+00,f0   ; |228| 
     1771 000001f1 1440c000         stf       f0,*ar0               ; |228| 
     1772                           .line   173
     1773                   ;----------------------------------------------------------------------
     1774                   ; 229 | REG_PV_AVG_1sec         = 0.0;                                         
     1775                   ;----------------------------------------------------------------------
     1776 000001f2 08700000-        ldp       @CL114,DP
     1777 000001f3 50280073-        ldiu      @CL114,ar0            ; |229| 
     1778 000001f4 40608000         ldfu      0.0000000000e+00,f0   ; |229| 
     1779 000001f5 1440c000         stf       f0,*ar0               ; |229| 
     1780                           .line   174
     1781                   ;----------------------------------------------------------------------
     1782                   ; 230 | REG_PV_AVG_CNT          = 0;                                           
TMS320C3x/4x COFF AssemblerVersion 5.12     Mon Nov 19 13:45:24 2018
Copyright (c) 1987-1999 Texas Instruments Incorporatedasm30.exe -@_6L4.AAB 

F:\WKDIR\CodeComposer\EEA_SA_V613b\BOOT\SOURCE\ASM\main.asm          PAGE   34

     1783                   ;----------------------------------------------------------------------
     1784 000001f6 08700000-        ldp       @CL115,DP
     1785 000001f7 50280074-        ldiu      @CL115,ar0            ; |230| 
     1786 000001f8 50600000         ldiu      0,r0                  ; |230| 
     1787 000001f9 1540c000         sti       r0,*ar0               ; |230| 
     1788                           .line   177
     1789                   ;----------------------------------------------------------------------
     1790                   ; 233 | Mirror_From_Stream_Table(NULL_VAR);                                    
     1791                   ;----------------------------------------------------------------------
     1792 000001fa 08700000-        ldp       @CL116,DP
     1793 000001fb 50200075-        ldiu      @CL116,r0             ; |233| 
     1794 000001fc 506a0000         ldiu      0,ar2                 ; |233| 
     1795 000001fd 70000000         callu     r0                    ; far call to _Mirror_From_Stream_Table ; |233| 
     1796                                                           ; |233| Far Call Occurs
     1797                           .line   179
     1798                   ;----------------------------------------------------------------------
     1799                   ; 235 | WC                                              = 0.0;     /*make WC gl
     1800                   ;     | obal: float WC; for store last value when phase error RS*/             
     1801                   ;----------------------------------------------------------------------
     1802 000001fe 08700000-        ldp       @CL117,DP
     1803 000001ff 50280076-        ldiu      @CL117,ar0            ; |235| 
     1804 00000200 40608000         ldfu      0.0000000000e+00,f0   ; |235| 
     1805 00000201 1440c000         stf       f0,*ar0               ; |235| 
     1806                           .line   180
     1807                   ;----------------------------------------------------------------------
     1808                   ; 236 | REG_WATERCUT_RAW                = 0.0;                                 
     1809                   ;----------------------------------------------------------------------
     1810 00000202 08700000-        ldp       @CL118,DP
     1811 00000203 50280077-        ldiu      @CL118,ar0            ; |236| 
     1812 00000204 40608000         ldfu      0.0000000000e+00,f0   ; |236| 
     1813 00000205 1440c000         stf       f0,*ar0               ; |236| 
     1814                           .line   181
     1815                   ;----------------------------------------------------------------------
     1816                   ; 237 | REG_CAL_OIL.calc_val    = 0.0;                                         
     1817                   ;----------------------------------------------------------------------
     1818 00000206 08700000-        ldp       @CL119,DP
     1819 00000207 50280078-        ldiu      @CL119,ar0            ; |237| 
     1820 00000208 08700000-        ldp       @CL79+0,DP
     1821 00000209 4020004e-        ldfu      @CL79+0,f0            ; |237| 40b float hi half
     1822 0000020a 08700000-        ldp       @CL79+1,DP
     1823 0000020b 5020004f-        ldiu      @CL79+1,r0            ; |237| 40b float lo half
     1824 0000020c 1440c000         stf       f0,*ar0               ; |237| Store high half
     1825 0000020d 15400001         sti       r0,*+ar0              ; |237| Store low half
     1826                           .line   182
     1827                   ;----------------------------------------------------------------------
     1828                   ; 238 | REG_CAL_OIL.val                 = 0.0;                                 
     1829                   ;----------------------------------------------------------------------
     1830 0000020e 08700000-        ldp       @CL120,DP
     1831 0000020f 50280079-        ldiu      @CL120,ar0            ; |238| 
     1832 00000210 40608000         ldfu      0.0000000000e+00,f0   ; |238| 
     1833 00000211 1440c000         stf       f0,*ar0               ; |238| 
     1834                           .line   183
     1835                   ;----------------------------------------------------------------------
     1836                   ; 239 | REG_CAL_WATER.calc_val  = 0.0;                                         
TMS320C3x/4x COFF AssemblerVersion 5.12     Mon Nov 19 13:45:24 2018
Copyright (c) 1987-1999 Texas Instruments Incorporatedasm30.exe -@_6L4.AAB 

F:\WKDIR\CodeComposer\EEA_SA_V613b\BOOT\SOURCE\ASM\main.asm          PAGE   35

     1837                   ;----------------------------------------------------------------------
     1838 00000212 08700000-        ldp       @CL121,DP
     1839 00000213 5028007a-        ldiu      @CL121,ar0            ; |239| 
     1840 00000214 08700000-        ldp       @CL79+0,DP
     1841 00000215 4020004e-        ldfu      @CL79+0,f0            ; |239| 40b float hi half
     1842 00000216 08700000-        ldp       @CL79+1,DP
     1843 00000217 5020004f-        ldiu      @CL79+1,r0            ; |239| 40b float lo half
     1844 00000218 1440c000         stf       f0,*ar0               ; |239| Store high half
     1845 00000219 15400001         sti       r0,*+ar0              ; |239| Store low half
     1846                           .line   184
     1847                   ;----------------------------------------------------------------------
     1848                   ; 240 | REG_CAL_WATER.val               = 0.0;                                 
     1849                   ;----------------------------------------------------------------------
     1850 0000021a 08700000-        ldp       @CL122,DP
     1851 0000021b 5028007b-        ldiu      @CL122,ar0            ; |240| 
     1852 0000021c 40608000         ldfu      0.0000000000e+00,f0   ; |240| 
     1853 0000021d 1440c000         stf       f0,*ar0               ; |240| 
     1854                           .line   186
     1855                   ;----------------------------------------------------------------------
     1856                   ; 242 | VAR_Update(&REG_EMULSION_PHASE, 2.0, 0, 0);                            
     1857                   ;----------------------------------------------------------------------
     1858 0000021e 08700000-        ldp       @CL67,DP
     1859 0000021f 50200042-        ldiu      @CL67,r0              ; |242| 
     1860 00000220 08700000-        ldp       @CL124+0,DP
     1861 00000221 4022007d-        ldfu      @CL124+0,f2           ; |242| 40b float hi half
     1862 00000222 08700000-        ldp       @CL124+1,DP
     1863 00000223 5022007e-        ldiu      @CL124+1,r2           ; |242| 40b float lo half
     1864 00000224 08700000-        ldp       @CL123,DP
     1865 00000225 507b0000         ldiu      0,rc                  ; |242| 
     1866 00000226 50630000         ldiu      0,r3                  ; |242| 
     1867 00000227 502a007c-        ldiu      @CL123,ar2            ; |242| 
     1868 00000228 70000000         callu     r0                    ; far call to _VAR_Update       ; |242| 
     1869                                                           ; |242| Far Call Occurs
     1870                           .line   187
     1871                   ;----------------------------------------------------------------------
     1872                   ; 243 | VAR_NaN(&REG_WATERCUT);                                                
     1873                   ;----------------------------------------------------------------------
     1874 00000229 08700000-        ldp       @CL126,DP
     1875 0000022a 50200080-        ldiu      @CL126,r0             ; |243| 
     1876 0000022b 08700000-        ldp       @CL125,DP
     1877 0000022c 502a007f-        ldiu      @CL125,ar2            ; |243| 
     1878 0000022d 70000000         callu     r0                    ; far call to _VAR_NaN  ; |243| 
     1879                                                           ; |243| Far Call Occurs
     1880                           .line   188
     1881                   ;----------------------------------------------------------------------
     1882                   ; 244 | VAR_NaN(&REG_TEMPERATURE_USER);                                        
     1883                   ;----------------------------------------------------------------------
     1884 0000022e 08700000-        ldp       @CL126,DP
     1885 0000022f 50200080-        ldiu      @CL126,r0             ; |244| 
     1886 00000230 08700000-        ldp       @CL127,DP
     1887 00000231 502a0081-        ldiu      @CL127,ar2            ; |244| 
     1888 00000232 70000000         callu     r0                    ; far call to _VAR_NaN  ; |244| 
     1889                                                           ; |244| Far Call Occurs
     1890                           .line   189
TMS320C3x/4x COFF AssemblerVersion 5.12     Mon Nov 19 13:45:24 2018
Copyright (c) 1987-1999 Texas Instruments Incorporatedasm30.exe -@_6L4.AAB 

F:\WKDIR\CodeComposer\EEA_SA_V613b\BOOT\SOURCE\ASM\main.asm          PAGE   36

     1891                   ;----------------------------------------------------------------------
     1892                   ; 245 | VAR_NaN(&REG_TEMPERATURE_AVG);/*RS*/                                   
     1893                   ;----------------------------------------------------------------------
     1894 00000233 08700000-        ldp       @CL126,DP
     1895 00000234 50200080-        ldiu      @CL126,r0             ; |245| 
     1896 00000235 08700000-        ldp       @CL128,DP
     1897 00000236 502a0082-        ldiu      @CL128,ar2            ; |245| 
     1898 00000237 70000000         callu     r0                    ; far call to _VAR_NaN  ; |245| 
     1899                                                           ; |245| Far Call Occurs
     1900                           .line   190
     1901                   ;----------------------------------------------------------------------
     1902                   ; 246 | VAR_NaN(&REG_TEMPERATURE_EXTERNAL);                                    
     1903                   ;----------------------------------------------------------------------
     1904 00000238 08700000-        ldp       @CL126,DP
     1905 00000239 50200080-        ldiu      @CL126,r0             ; |246| 
     1906 0000023a 08700000-        ldp       @CL129,DP
     1907 0000023b 502a0083-        ldiu      @CL129,ar2            ; |246| 
     1908 0000023c 70000000         callu     r0                    ; far call to _VAR_NaN  ; |246| 
     1909                                                           ; |246| Far Call Occurs
     1910                           .line   191
     1911                   ;----------------------------------------------------------------------
     1912                   ; 247 | VAR_NaN(&REG_DUMMY);                                                   
     1913                   ;----------------------------------------------------------------------
     1914 0000023d 08700000-        ldp       @CL126,DP
     1915 0000023e 50200080-        ldiu      @CL126,r0             ; |247| 
     1916 0000023f 08700000-        ldp       @CL130,DP
     1917 00000240 502a0084-        ldiu      @CL130,ar2            ; |247| 
     1918 00000241 70000000         callu     r0                    ; far call to _VAR_NaN  ; |247| 
     1919                                                           ; |247| Far Call Occurs
     1920                           .line   194
     1921                   ;----------------------------------------------------------------------
     1922                   ; 250 | VAR_SELECT_DVIN.val     = 0;                                           
     1923                   ;----------------------------------------------------------------------
     1924 00000242 08700000-        ldp       @CL131,DP
     1925 00000243 50280085-        ldiu      @CL131,ar0            ; |250| 
     1926 00000244 50600000         ldiu      0,r0                  ; |250| 
     1927 00000245 1540c000         sti       r0,*ar0               ; |250| 
     1928                           .line   195
     1929                   ;----------------------------------------------------------------------
     1930                   ; 251 | VAR_SELECT_DVIN.vect    = (int*)VAR_SET_STR_DVIN;                      
     1931                   ;----------------------------------------------------------------------
     1932 00000246 08700000-        ldp       @CL132,DP
     1933 00000247 50280086-        ldiu      @CL132,ar0            ; |251| 
     1934 00000248 08700000-        ldp       @CL133,DP
     1935 00000249 50200087-        ldiu      @CL133,r0             ; |251| 
     1936 0000024a 1540c000         sti       r0,*ar0               ; |251| 
     1937                           .line   196
     1938                   ;----------------------------------------------------------------------
     1939                   ; 252 | VAR_SELECT_DV.val               = 0;                                   
     1940                   ;----------------------------------------------------------------------
     1941 0000024b 08700000-        ldp       @CL134,DP
     1942 0000024c 50280088-        ldiu      @CL134,ar0            ; |252| 
     1943 0000024d 50600000         ldiu      0,r0                  ; |252| 
     1944 0000024e 1540c000         sti       r0,*ar0               ; |252| 
TMS320C3x/4x COFF AssemblerVersion 5.12     Mon Nov 19 13:45:24 2018
Copyright (c) 1987-1999 Texas Instruments Incorporatedasm30.exe -@_6L4.AAB 

F:\WKDIR\CodeComposer\EEA_SA_V613b\BOOT\SOURCE\ASM\main.asm          PAGE   37

     1945                           .line   197
     1946                   ;----------------------------------------------------------------------
     1947                   ; 253 | VAR_SELECT_DV.vect              = (int*)VAR_SET_STR_DV;                
     1948                   ;----------------------------------------------------------------------
     1949 0000024f 08700000-        ldp       @CL135,DP
     1950 00000250 50280089-        ldiu      @CL135,ar0            ; |253| 
     1951 00000251 08700000-        ldp       @CL136,DP
     1952 00000252 5020008a-        ldiu      @CL136,r0             ; |253| 
     1953 00000253 1540c000         sti       r0,*ar0               ; |253| 
     1954                           .line   199
     1955                   ;----------------------------------------------------------------------
     1956                   ; 255 | VAR_SET_STR_DV(0);                                                     
     1957                   ;----------------------------------------------------------------------
     1958 00000254 506a0000         ldiu      0,ar2                 ; |255| 
     1959 00000255 5020008a-        ldiu      @CL136,r0             ; |255| 
     1960 00000256 70000000         callu     r0                    ; far call to _VAR_SET_STR_DV   ; |255| 
     1961                                                           ; |255| Far Call Occurs
     1962                           .line   202
     1963                   ;----------------------------------------------------------------------
     1964                   ; 258 | for (i=0;i<AO_NLOOPS;i++)                                              
     1965                   ;----------------------------------------------------------------------
     1966 00000257 50600000         ldiu      0,r0                  ; |258| 
     1967 00000258 15400301         sti       r0,*+fp(1)            ; |258| 
     1968 00000259 04e00009         cmpi      9,r0                  ; |258| 
     1969 0000025a 6a0a0010         bge       L24                   ; |258| 
     1970                   ;*      Branch Occurs to L24            ; |258| 
     1971 0000025b          L23:        
     1972                           .line   204
     1973                   ;----------------------------------------------------------------------
     1974                   ; 260 | VAR_NaN(&AO[i].CURRENT_PERCENT_OF_RANGE);                              
     1975                   ;----------------------------------------------------------------------
     1976 0000025b 504a0301         ldiu      *+fp(1),ar2           ; |260| 
     1977 0000025c 08700000-        ldp       @CL137,DP
     1978 0000025d 0aea01a3         mpyi      419,ar2               ; |260| 
     1979 0000025e 022a008b-        addi      @CL137,ar2            ; |260| Unsigned
     1980 0000025f 08700000-        ldp       @CL126,DP
     1981 00000260 50200080-        ldiu      @CL126,r0             ; |260| 
     1982 00000261 70000000         callu     r0                    ; far call to _VAR_NaN  ; |260| 
     1983                                                           ; |260| Far Call Occurs
     1984                           .line   205
     1985                   ;----------------------------------------------------------------------
     1986                   ; 261 | PID_Init(i);                                                           
     1987                   ;----------------------------------------------------------------------
     1988 00000262 08700000-        ldp       @CL138,DP
     1989 00000263 5020008c-        ldiu      @CL138,r0             ; |261| 
     1990 00000264 504a0301         ldiu      *+fp(1),ar2           ; |261| 
     1991 00000265 70000000         callu     r0                    ; far call to _PID_Init ; |261| 
     1992                                                           ; |261| Far Call Occurs
     1993                           .line   202
     1994 00000266 50600001         ldiu      1,r0                  ; |258| 
     1995 00000267 02400301         addi      *+fp(1),r0            ; |258| 
     1996 00000268 15400301         sti       r0,*+fp(1)            ; |258| 
     1997 00000269 04e00009         cmpi      9,r0                  ; |258| 
     1998 0000026a 6a07fff0         blt       L23                   ; |258| 
TMS320C3x/4x COFF AssemblerVersion 5.12     Mon Nov 19 13:45:24 2018
Copyright (c) 1987-1999 Texas Instruments Incorporatedasm30.exe -@_6L4.AAB 

F:\WKDIR\CodeComposer\EEA_SA_V613b\BOOT\SOURCE\ASM\main.asm          PAGE   38

     1999                   ;*      Branch Occurs to L23            ; |258| 
     2000 0000026b          L24:        
     2001                           .line   208
     2002                   ;----------------------------------------------------------------------
     2003                   ; 264 | for (i=0;i<AI_NLOOPS;i++)                                              
     2004                   ;----------------------------------------------------------------------
     2005 0000026b 50600000         ldiu      0,r0                  ; |264| 
     2006 0000026c 15400301         sti       r0,*+fp(1)            ; |264| 
     2007 0000026d 04e00005         cmpi      5,r0                  ; |264| 
     2008 0000026e 6a0a0022         bge       L26                   ; |264| 
     2009                   ;*      Branch Occurs to L26            ; |264| 
     2010 0000026f          L25:        
     2011                           .line   210
     2012                   ;----------------------------------------------------------------------
     2013                   ; 266 | VAR_NaN(&AI[i].VALUE);                                                 
     2014                   ;----------------------------------------------------------------------
     2015 0000026f 504a0301         ldiu      *+fp(1),ar2           ; |266| 
     2016 00000270 08700000-        ldp       @CL139,DP
     2017 00000271 0aea013e         mpyi      318,ar2               ; |266| 
     2018 00000272 022a008d-        addi      @CL139,ar2            ; |266| Unsigned
     2019 00000273 08700000-        ldp       @CL126,DP
     2020 00000274 50200080-        ldiu      @CL126,r0             ; |266| 
     2021 00000275 70000000         callu     r0                    ; far call to _VAR_NaN  ; |266| 
     2022                                                           ; |266| Far Call Occurs
     2023                           .line   211
     2024                   ;----------------------------------------------------------------------
     2025                   ; 267 | VAR_NaN(&AI[i].CURRENT);                                               
     2026                   ;----------------------------------------------------------------------
     2027 00000276 08700000-        ldp       @CL140,DP
     2028 00000277 504a0301         ldiu      *+fp(1),ar2           ; |267| 
     2029 00000278 0aea013e         mpyi      318,ar2               ; |267| 
     2030 00000279 022a008e-        addi      @CL140,ar2            ; |267| Unsigned
     2031 0000027a 08700000-        ldp       @CL126,DP
     2032 0000027b 50200080-        ldiu      @CL126,r0             ; |267| 
     2033 0000027c 70000000         callu     r0                    ; far call to _VAR_NaN  ; |267| 
     2034                                                           ; |267| Far Call Occurs
     2035                           .line   212
     2036                   ;----------------------------------------------------------------------
     2037                   ; 268 | VAR_NaN(&AI[i].CURRENT_PERCENT_OF_RANGE);                              
     2038                   ;----------------------------------------------------------------------
     2039 0000027d 08700000-        ldp       @CL141,DP
     2040 0000027e 504a0301         ldiu      *+fp(1),ar2           ; |268| 
     2041 0000027f 0aea013e         mpyi      318,ar2               ; |268| 
     2042 00000280 022a008f-        addi      @CL141,ar2            ; |268| Unsigned
     2043 00000281 08700000-        ldp       @CL126,DP
     2044 00000282 50200080-        ldiu      @CL126,r0             ; |268| 
     2045 00000283 70000000         callu     r0                    ; far call to _VAR_NaN  ; |268| 
     2046                                                           ; |268| Far Call Occurs
     2047                           .line   214
     2048                   ;----------------------------------------------------------------------
     2049                   ; 270 | AI[i].val = NaN_val_flt;                                               
     2050                   ;----------------------------------------------------------------------
     2051 00000284 08700000-        ldp       @CL143,DP
     2052 00000285 50510301         ldiu      *+fp(1),ir0           ; |270| 
TMS320C3x/4x COFF AssemblerVersion 5.12     Mon Nov 19 13:45:24 2018
Copyright (c) 1987-1999 Texas Instruments Incorporatedasm30.exe -@_6L4.AAB 

F:\WKDIR\CodeComposer\EEA_SA_V613b\BOOT\SOURCE\ASM\main.asm          PAGE   39

     2053 00000286 50280091-        ldiu      @CL143,ar0            ; |270| 
     2054 00000287 08700000-        ldp       @CL142,DP
     2055 00000288 0af1013e         mpyi      318,ir0               ; |270| 
     2056 00000289 50290090-        ldiu      @CL142,ar1            ; |270| 
     2057 0000028a 05c0c000         float     *ar0,f0               ; |270| 
     2058 0000028b 14404100         stf       f0,*+ar1(ir0)         ; |270| 
     2059                           .line   208
     2060 0000028c 50600001         ldiu      1,r0                  ; |264| 
     2061 0000028d 02400301         addi      *+fp(1),r0            ; |264| 
     2062 0000028e 15400301         sti       r0,*+fp(1)            ; |264| 
     2063 0000028f 04e00005         cmpi      5,r0                  ; |264| 
     2064 00000290 6a07ffde         blt       L25                   ; |264| 
     2065                   ;*      Branch Occurs to L25            ; |264| 
     2066 00000291          L26:        
     2067                           .line   217
     2068                   ;----------------------------------------------------------------------
     2069                   ; 273 | i_CCM_Level_Setpoint    = 0;                                           
     2070                   ;----------------------------------------------------------------------
     2071 00000291 08700000-        ldp       @CL144,DP
     2072 00000292 50280092-        ldiu      @CL144,ar0            ; |273| 
     2073 00000293 50600000         ldiu      0,r0                  ; |273| 
     2074 00000294 1540c000         sti       r0,*ar0               ; |273| 
     2075                           .line   218
     2076                   ;----------------------------------------------------------------------
     2077                   ; 274 | i_CCM_Level                     = 0;                                   
     2078                   ;----------------------------------------------------------------------
     2079 00000295 08700000-        ldp       @CL145,DP
     2080 00000296 50280093-        ldiu      @CL145,ar0            ; |274| 
     2081 00000297 1540c000         sti       r0,*ar0               ; |274| 
     2082                           .line   219
     2083                   ;----------------------------------------------------------------------
     2084                   ; 275 | i_CCM_Pressure_Setpoint = 0;                                           
     2085                   ;----------------------------------------------------------------------
     2086 00000298 08700000-        ldp       @CL146,DP
     2087 00000299 50280094-        ldiu      @CL146,ar0            ; |275| 
     2088 0000029a 1540c000         sti       r0,*ar0               ; |275| 
     2089                           .line   220
     2090                   ;----------------------------------------------------------------------
     2091                   ; 276 | i_CCM_Pressure                  = 0;                                   
     2092                   ;----------------------------------------------------------------------
     2093 0000029b 08700000-        ldp       @CL147,DP
     2094 0000029c 50280095-        ldiu      @CL147,ar0            ; |276| 
     2095 0000029d 1540c000         sti       r0,*ar0               ; |276| 
     2096                           .line   221
     2097                   ;----------------------------------------------------------------------
     2098                   ; 277 | i_CCM_Gas_Valve                 = 0;                                   
     2099                   ;----------------------------------------------------------------------
     2100 0000029e 08700000-        ldp       @CL148,DP
     2101 0000029f 50280096-        ldiu      @CL148,ar0            ; |277| 
     2102 000002a0 1540c000         sti       r0,*ar0               ; |277| 
     2103                           .line   222
     2104                   ;----------------------------------------------------------------------
     2105                   ; 278 | i_CCM_Liquid_Valve              = 0;                                   
     2106                   ;----------------------------------------------------------------------
TMS320C3x/4x COFF AssemblerVersion 5.12     Mon Nov 19 13:45:24 2018
Copyright (c) 1987-1999 Texas Instruments Incorporatedasm30.exe -@_6L4.AAB 

F:\WKDIR\CodeComposer\EEA_SA_V613b\BOOT\SOURCE\ASM\main.asm          PAGE   40

     2107 000002a1 08700000-        ldp       @CL149,DP
     2108 000002a2 50280097-        ldiu      @CL149,ar0            ; |278| 
     2109 000002a3 1540c000         sti       r0,*ar0               ; |278| 
     2110                           .line   223
     2111                   ;----------------------------------------------------------------------
     2112                   ; 279 | i_CCM_Flow                              = 0;                           
     2113                   ;----------------------------------------------------------------------
     2114 000002a4 08700000-        ldp       @CL150,DP
     2115 000002a5 50280098-        ldiu      @CL150,ar0            ; |279| 
     2116 000002a6 1540c000         sti       r0,*ar0               ; |279| 
     2117                           .line   224
     2118                   ;----------------------------------------------------------------------
     2119                   ; 280 | i_CCM_Flow_Oil                  = 0;                                   
     2120                   ;----------------------------------------------------------------------
     2121 000002a7 08700000-        ldp       @CL151,DP
     2122 000002a8 50280099-        ldiu      @CL151,ar0            ; |280| 
     2123 000002a9 1540c000         sti       r0,*ar0               ; |280| 
     2124                           .line   225
     2125                   ;----------------------------------------------------------------------
     2126                   ; 281 | i_CCM_Flow_Water                = 0;                                   
     2127                   ;----------------------------------------------------------------------
     2128 000002aa 08700000-        ldp       @CL152,DP
     2129 000002ab 5028009a-        ldiu      @CL152,ar0            ; |281| 
     2130 000002ac 1540c000         sti       r0,*ar0               ; |281| 
     2131                           .line   226
     2132                   ;----------------------------------------------------------------------
     2133                   ; 282 | i_CCM_Flow_Gas                  = 0;                                   
     2134                   ;----------------------------------------------------------------------
     2135 000002ad 08700000-        ldp       @CL153,DP
     2136 000002ae 5028009b-        ldiu      @CL153,ar0            ; |282| 
     2137 000002af 1540c000         sti       r0,*ar0               ; |282| 
     2138                           .line   227
     2139                   ;----------------------------------------------------------------------
     2140                   ; 283 | CCM_24_GAS                              = 0.0;                         
     2141                   ;----------------------------------------------------------------------
     2142 000002b0 08700000-        ldp       @CL154,DP
     2143 000002b1 5028009c-        ldiu      @CL154,ar0            ; |283| 
     2144 000002b2 40608000         ldfu      0.0000000000e+00,f0   ; |283| 
     2145 000002b3 1440c000         stf       f0,*ar0               ; |283| 
     2146                           .line   228
     2147                   ;----------------------------------------------------------------------
     2148                   ; 284 | CCM_24_TOTAL                    = 0.0;                                 
     2149                   ;----------------------------------------------------------------------
     2150 000002b4 08700000-        ldp       @CL155,DP
     2151 000002b5 5028009d-        ldiu      @CL155,ar0            ; |284| 
     2152 000002b6 40608000         ldfu      0.0000000000e+00,f0   ; |284| 
     2153 000002b7 1440c000         stf       f0,*ar0               ; |284| 
     2154                           .line   229
     2155                   ;----------------------------------------------------------------------
     2156                   ; 285 | CCM_24_OIL                              = 0.0;                         
     2157                   ;----------------------------------------------------------------------
     2158 000002b8 08700000-        ldp       @CL156,DP
     2159 000002b9 5028009e-        ldiu      @CL156,ar0            ; |285| 
     2160 000002ba 40608000         ldfu      0.0000000000e+00,f0   ; |285| 
TMS320C3x/4x COFF AssemblerVersion 5.12     Mon Nov 19 13:45:24 2018
Copyright (c) 1987-1999 Texas Instruments Incorporatedasm30.exe -@_6L4.AAB 

F:\WKDIR\CodeComposer\EEA_SA_V613b\BOOT\SOURCE\ASM\main.asm          PAGE   41

     2161 000002bb 1440c000         stf       f0,*ar0               ; |285| 
     2162                           .line   230
     2163                   ;----------------------------------------------------------------------
     2164                   ; 286 | CCM_24_WATER                    = 0.0;                                 
     2165                   ;----------------------------------------------------------------------
     2166 000002bc 08700000-        ldp       @CL157,DP
     2167 000002bd 5028009f-        ldiu      @CL157,ar0            ; |286| 
     2168 000002be 40608000         ldfu      0.0000000000e+00,f0   ; |286| 
     2169 000002bf 1440c000         stf       f0,*ar0               ; |286| 
     2170                           .line   231
     2171                   ;----------------------------------------------------------------------
     2172                   ; 287 | CCM_REMAINING                   = 0.0;                                 
     2173                   ;----------------------------------------------------------------------
     2174 000002c0 08700000-        ldp       @CL158,DP
     2175 000002c1 502800a0-        ldiu      @CL158,ar0            ; |287| 
     2176 000002c2 40608000         ldfu      0.0000000000e+00,f0   ; |287| 
     2177 000002c3 1440c000         stf       f0,*ar0               ; |287| 
     2178                           .line   232
     2179                   ;----------------------------------------------------------------------
     2180                   ; 288 | CCM_REMAINING_S                 = 0.0;                                 
     2181                   ;----------------------------------------------------------------------
     2182 000002c4 08700000-        ldp       @CL159,DP
     2183 000002c5 502800a1-        ldiu      @CL159,ar0            ; |288| 
     2184 000002c6 40608000         ldfu      0.0000000000e+00,f0   ; |288| 
     2185 000002c7 1440c000         stf       f0,*ar0               ; |288| 
     2186                           .line   233
     2187                   ;----------------------------------------------------------------------
     2188                   ; 289 | CCM_ELAPSED_S                   = 0.0;                                 
     2189                   ;----------------------------------------------------------------------
     2190 000002c8 08700000-        ldp       @CL160,DP
     2191 000002c9 502800a2-        ldiu      @CL160,ar0            ; |289| 
     2192 000002ca 40608000         ldfu      0.0000000000e+00,f0   ; |289| 
     2193 000002cb 1440c000         stf       f0,*ar0               ; |289| 
     2194                           .line   234
     2195                   ;----------------------------------------------------------------------
     2196                   ; 290 | DIO_CCM_START.val               = FALSE;                               
     2197                   ;----------------------------------------------------------------------
     2198 000002cc 08700000-        ldp       @CL161,DP
     2199 000002cd 502800a3-        ldiu      @CL161,ar0            ; |290| 
     2200 000002ce 50600000         ldiu      0,r0                  ; |290| 
     2201 000002cf 1540c000         sti       r0,*ar0               ; |290| 
     2202                           .line   235
     2203                   ;----------------------------------------------------------------------
     2204                   ; 291 | DIO_CCM_PURGE_STAT.val  = FALSE;                                       
     2205                   ;----------------------------------------------------------------------
     2206 000002d0 08700000-        ldp       @CL162,DP
     2207 000002d1 502800a4-        ldiu      @CL162,ar0            ; |291| 
     2208 000002d2 1540c000         sti       r0,*ar0               ; |291| 
     2209                           .line   236
     2210                   ;----------------------------------------------------------------------
     2211                   ; 292 | REG_CCM_TEST_STAT.val   = 0;  /*logging test status RS*/               
     2212                   ;----------------------------------------------------------------------
     2213 000002d3 08700000-        ldp       @CL163,DP
     2214 000002d4 502800a5-        ldiu      @CL163,ar0            ; |292| 
TMS320C3x/4x COFF AssemblerVersion 5.12     Mon Nov 19 13:45:24 2018
Copyright (c) 1987-1999 Texas Instruments Incorporatedasm30.exe -@_6L4.AAB 

F:\WKDIR\CodeComposer\EEA_SA_V613b\BOOT\SOURCE\ASM\main.asm          PAGE   42

     2215 000002d5 40608000         ldfu      0.0000000000e+00,f0   ; |292| 
     2216 000002d6 1440c000         stf       f0,*ar0               ; |292| 
     2217                           .line   237
     2218                   ;----------------------------------------------------------------------
     2219                   ; 293 | REG_CCM_PURGE_STAT.val  = 0; /*logging purge status RS*/               
     2220                   ;----------------------------------------------------------------------
     2221 000002d7 08700000-        ldp       @CL164,DP
     2222 000002d8 502800a6-        ldiu      @CL164,ar0            ; |293| 
     2223 000002d9 40608000         ldfu      0.0000000000e+00,f0   ; |293| 
     2224 000002da 1440c000         stf       f0,*ar0               ; |293| 
     2225                           .line   239
     2226                   ;----------------------------------------------------------------------
     2227                   ; 295 | VAR_NaN(&CCM_GAS_FLOW);                                                
     2228                   ;----------------------------------------------------------------------
     2229 000002db 08700000-        ldp       @CL126,DP
     2230 000002dc 50200080-        ldiu      @CL126,r0             ; |295| 
     2231 000002dd 08700000-        ldp       @CL165,DP
     2232 000002de 502a00a7-        ldiu      @CL165,ar2            ; |295| 
     2233 000002df 70000000         callu     r0                    ; far call to _VAR_NaN  ; |295| 
     2234                                                           ; |295| Far Call Occurs
     2235                           .line   240
     2236                   ;----------------------------------------------------------------------
     2237                   ; 296 | VAR_NaN(&CCM_GAS_TOTAL);                                               
     2238                   ;----------------------------------------------------------------------
     2239 000002e0 08700000-        ldp       @CL126,DP
     2240 000002e1 50200080-        ldiu      @CL126,r0             ; |296| 
     2241 000002e2 08700000-        ldp       @CL166,DP
     2242 000002e3 502a00a8-        ldiu      @CL166,ar2            ; |296| 
     2243 000002e4 70000000         callu     r0                    ; far call to _VAR_NaN  ; |296| 
     2244                                                           ; |296| Far Call Occurs
     2245                           .line   241
     2246                   ;----------------------------------------------------------------------
     2247                   ; 297 | VAR_NaN(&CCM_VESSEL_LEVEL[0]);                                         
     2248                   ;----------------------------------------------------------------------
     2249 000002e5 08700000-        ldp       @CL126,DP
     2250 000002e6 50200080-        ldiu      @CL126,r0             ; |297| 
     2251 000002e7 08700000-        ldp       @CL167,DP
     2252 000002e8 502a00a9-        ldiu      @CL167,ar2            ; |297| 
     2253 000002e9 70000000         callu     r0                    ; far call to _VAR_NaN  ; |297| 
     2254                                                           ; |297| Far Call Occurs
     2255                           .line   242
     2256                   ;----------------------------------------------------------------------
     2257                   ; 298 | VAR_NaN(&CCM_VESSEL_LEVEL[1]);                                         
     2258                   ;----------------------------------------------------------------------
     2259 000002ea 08700000-        ldp       @CL126,DP
     2260 000002eb 50200080-        ldiu      @CL126,r0             ; |298| 
     2261 000002ec 08700000-        ldp       @CL168,DP
     2262 000002ed 502a00aa-        ldiu      @CL168,ar2            ; |298| 
     2263 000002ee 70000000         callu     r0                    ; far call to _VAR_NaN  ; |298| 
     2264                                                           ; |298| Far Call Occurs
     2265                           .line   243
     2266                   ;----------------------------------------------------------------------
     2267                   ; 299 | VAR_NaN(&CCM_VESSEL_PRESSURE[0]);                                      
     2268                   ;----------------------------------------------------------------------
TMS320C3x/4x COFF AssemblerVersion 5.12     Mon Nov 19 13:45:24 2018
Copyright (c) 1987-1999 Texas Instruments Incorporatedasm30.exe -@_6L4.AAB 

F:\WKDIR\CodeComposer\EEA_SA_V613b\BOOT\SOURCE\ASM\main.asm          PAGE   43

     2269 000002ef 08700000-        ldp       @CL126,DP
     2270 000002f0 50200080-        ldiu      @CL126,r0             ; |299| 
     2271 000002f1 08700000-        ldp       @CL169,DP
     2272 000002f2 502a00ab-        ldiu      @CL169,ar2            ; |299| 
     2273 000002f3 70000000         callu     r0                    ; far call to _VAR_NaN  ; |299| 
     2274                                                           ; |299| Far Call Occurs
     2275                           .line   244
     2276                   ;----------------------------------------------------------------------
     2277                   ; 300 | VAR_NaN(&CCM_VESSEL_PRESSURE[1]);                                      
     2278                   ;----------------------------------------------------------------------
     2279 000002f4 08700000-        ldp       @CL126,DP
     2280 000002f5 50200080-        ldiu      @CL126,r0             ; |300| 
     2281 000002f6 08700000-        ldp       @CL170,DP
     2282 000002f7 502a00ac-        ldiu      @CL170,ar2            ; |300| 
     2283 000002f8 70000000         callu     r0                    ; far call to _VAR_NaN  ; |300| 
     2284                                                           ; |300| Far Call Occurs
     2285                           .line   245
     2286                   ;----------------------------------------------------------------------
     2287                   ; 301 | CLEAR_TIME(&CCM_TIME_START);                                           
     2288                   ;----------------------------------------------------------------------
     2289 000002f9 08700000-        ldp       @CL172,DP
     2290 000002fa 502000ae-        ldiu      @CL172,r0             ; |301| 
     2291 000002fb 08700000-        ldp       @CL171,DP
     2292 000002fc 502a00ad-        ldiu      @CL171,ar2            ; |301| 
     2293 000002fd 70000000         callu     r0                    ; far call to _CLEAR_TIME       ; |301| 
     2294                                                           ; |301| Far Call Occurs
     2295                           .line   246
     2296                   ;----------------------------------------------------------------------
     2297                   ; 302 | CLEAR_TIME(&CCM_TIME_STOP);                                            
     2298                   ;----------------------------------------------------------------------
     2299 000002fe 08700000-        ldp       @CL172,DP
     2300 000002ff 502000ae-        ldiu      @CL172,r0             ; |302| 
     2301 00000300 08700000-        ldp       @CL173,DP
     2302 00000301 502a00af-        ldiu      @CL173,ar2            ; |302| 
     2303 00000302 70000000         callu     r0                    ; far call to _CLEAR_TIME       ; |302| 
     2304                                                           ; |302| Far Call Occurs
     2305                           .line   247
     2306                   ;----------------------------------------------------------------------
     2307                   ; 303 | CLEAR_TIME(&CCM_TIME_REMAINING);                                       
     2308                   ;----------------------------------------------------------------------
     2309 00000303 08700000-        ldp       @CL172,DP
     2310 00000304 502000ae-        ldiu      @CL172,r0             ; |303| 
     2311 00000305 08700000-        ldp       @CL174,DP
     2312 00000306 502a00b0-        ldiu      @CL174,ar2            ; |303| 
     2313 00000307 70000000         callu     r0                    ; far call to _CLEAR_TIME       ; |303| 
     2314                                                           ; |303| Far Call Occurs
     2315                           .line   248
     2316                   ;----------------------------------------------------------------------
     2317                   ; 304 | CLEAR_TIME(&CCM_TIME_ELAPSED);                                         
     2318                   ;----------------------------------------------------------------------
     2319 00000308 08700000-        ldp       @CL172,DP
     2320 00000309 502000ae-        ldiu      @CL172,r0             ; |304| 
     2321 0000030a 08700000-        ldp       @CL175,DP
     2322 0000030b 502a00b1-        ldiu      @CL175,ar2            ; |304| 
TMS320C3x/4x COFF AssemblerVersion 5.12     Mon Nov 19 13:45:24 2018
Copyright (c) 1987-1999 Texas Instruments Incorporatedasm30.exe -@_6L4.AAB 

F:\WKDIR\CodeComposer\EEA_SA_V613b\BOOT\SOURCE\ASM\main.asm          PAGE   44

     2323 0000030c 70000000         callu     r0                    ; far call to _CLEAR_TIME       ; |304| 
     2324                                                           ; |304| Far Call Occurs
     2325                           .line   250
     2326                   ;----------------------------------------------------------------------
     2327                   ; 306 | for (i=0;i<VTMAX;i++)                                                  
     2328                   ;----------------------------------------------------------------------
     2329 0000030d 50600000         ldiu      0,r0                  ; |306| 
     2330 0000030e 15400301         sti       r0,*+fp(1)            ; |306| 
     2331 0000030f 04e00004         cmpi      4,r0                  ; |306| 
     2332 00000310 6a0a0049         bge       L28                   ; |306| 
     2333                   ;*      Branch Occurs to L28            ; |306| 
     2334 00000311          L27:        
     2335                           .line   252
     2336                   ;----------------------------------------------------------------------
     2337                   ; 308 | VAR_NaN(&REG_VINC[i]);                                                 
     2338                   ;----------------------------------------------------------------------
     2339 00000311 504a0301         ldiu      *+fp(1),ar2           ; |308| 
     2340 00000312 08700000-        ldp       @CL176,DP
     2341 00000313 0aea002c         mpyi      44,ar2                ; |308| 
     2342 00000314 022a00b2-        addi      @CL176,ar2            ; |308| Unsigned
     2343 00000315 08700000-        ldp       @CL126,DP
     2344 00000316 50200080-        ldiu      @CL126,r0             ; |308| 
     2345 00000317 70000000         callu     r0                    ; far call to _VAR_NaN  ; |308| 
     2346                                                           ; |308| Far Call Occurs
     2347                           .line   253
     2348                   ;----------------------------------------------------------------------
     2349                   ; 309 | VAR_NaN(&REG_VREF[i]);                                                 
     2350                   ;----------------------------------------------------------------------
     2351 00000318 08700000-        ldp       @CL177,DP
     2352 00000319 504a0301         ldiu      *+fp(1),ar2           ; |309| 
     2353 0000031a 0aea002c         mpyi      44,ar2                ; |309| 
     2354 0000031b 022a00b3-        addi      @CL177,ar2            ; |309| Unsigned
     2355 0000031c 08700000-        ldp       @CL126,DP
     2356 0000031d 50200080-        ldiu      @CL126,r0             ; |309| 
     2357 0000031e 70000000         callu     r0                    ; far call to _VAR_NaN  ; |309| 
     2358                                                           ; |309| Far Call Occurs
     2359                           .line   254
     2360                   ;----------------------------------------------------------------------
     2361                   ; 310 | VAR_NaN(&REG_FREQ[i]);                                                 
     2362                   ;----------------------------------------------------------------------
     2363 0000031f 08700000-        ldp       @CL178,DP
     2364 00000320 504a0301         ldiu      *+fp(1),ar2           ; |310| 
     2365 00000321 0aea002c         mpyi      44,ar2                ; |310| 
     2366 00000322 022a00b4-        addi      @CL178,ar2            ; |310| Unsigned
     2367 00000323 08700000-        ldp       @CL126,DP
     2368 00000324 50200080-        ldiu      @CL126,r0             ; |310| 
     2369 00000325 70000000         callu     r0                    ; far call to _VAR_NaN  ; |310| 
     2370                                                           ; |310| Far Call Occurs
     2371                           .line   255
     2372                   ;----------------------------------------------------------------------
     2373                   ; 311 | VAR_NaN(&REG_VTUNE[i]);                                                
     2374                   ;----------------------------------------------------------------------
     2375 00000326 504a0301         ldiu      *+fp(1),ar2           ; |311| 
     2376 00000327 08700000-        ldp       @CL179,DP
TMS320C3x/4x COFF AssemblerVersion 5.12     Mon Nov 19 13:45:24 2018
Copyright (c) 1987-1999 Texas Instruments Incorporatedasm30.exe -@_6L4.AAB 

F:\WKDIR\CodeComposer\EEA_SA_V613b\BOOT\SOURCE\ASM\main.asm          PAGE   45

     2377 00000328 0aea002c         mpyi      44,ar2                ; |311| 
     2378 00000329 022a00b5-        addi      @CL179,ar2            ; |311| Unsigned
     2379 0000032a 08700000-        ldp       @CL126,DP
     2380 0000032b 50200080-        ldiu      @CL126,r0             ; |311| 
     2381 0000032c 70000000         callu     r0                    ; far call to _VAR_NaN  ; |311| 
     2382                                                           ; |311| Far Call Occurs
     2383                           .line   257
     2384                   ;----------------------------------------------------------------------
     2385                   ; 313 | TMP_VINC[i]  = -1;                                                     
     2386                   ;----------------------------------------------------------------------
     2387 0000032d 08700000-        ldp       @CL180,DP
     2388 0000032e 50480301         ldiu      *+fp(1),ar0           ; |313| 
     2389 0000032f 03e80001         ash       1,ar0                 ; |313| 
     2390 00000330 022800b6-        addi      @CL180,ar0            ; |313| Unsigned
     2391 00000331 08700000-        ldp       @CL181+0,DP
     2392 00000332 402000b7-        ldfu      @CL181+0,f0           ; |313| 40b float hi half
     2393 00000333 08700000-        ldp       @CL181+1,DP
     2394 00000334 502000b8-        ldiu      @CL181+1,r0           ; |313| 40b float lo half
     2395 00000335 1440c000         stf       f0,*ar0               ; |313| Store high half
     2396 00000336 15400001         sti       r0,*+ar0              ; |313| Store low half
     2397                           .line   258
     2398                   ;----------------------------------------------------------------------
     2399                   ; 314 | TMP_VREF[i]  = -1;                                                     
     2400                   ;----------------------------------------------------------------------
     2401 00000337 50480301         ldiu      *+fp(1),ar0           ; |314| 
     2402 00000338 08700000-        ldp       @CL182,DP
     2403 00000339 03e80001         ash       1,ar0                 ; |314| 
     2404 0000033a 022800b9-        addi      @CL182,ar0            ; |314| Unsigned
     2405 0000033b 08700000-        ldp       @CL181+0,DP
     2406 0000033c 402000b7-        ldfu      @CL181+0,f0           ; |314| 40b float hi half
     2407 0000033d 08700000-        ldp       @CL181+1,DP
     2408 0000033e 502000b8-        ldiu      @CL181+1,r0           ; |314| 40b float lo half
     2409 0000033f 1440c000         stf       f0,*ar0               ; |314| Store high half
     2410 00000340 15400001         sti       r0,*+ar0              ; |314| Store low half
     2411                           .line   259
     2412                   ;----------------------------------------------------------------------
     2413                   ; 315 | TMP_FREQ[i]  = -1;                                                     
     2414                   ;----------------------------------------------------------------------
     2415 00000341 50480301         ldiu      *+fp(1),ar0           ; |315| 
     2416 00000342 08700000-        ldp       @CL183,DP
     2417 00000343 03e80001         ash       1,ar0                 ; |315| 
     2418 00000344 022800ba-        addi      @CL183,ar0            ; |315| Unsigned
     2419 00000345 08700000-        ldp       @CL181+0,DP
     2420 00000346 402000b7-        ldfu      @CL181+0,f0           ; |315| 40b float hi half
     2421 00000347 08700000-        ldp       @CL181+1,DP
     2422 00000348 502000b8-        ldiu      @CL181+1,r0           ; |315| 40b float lo half
     2423 00000349 1440c000         stf       f0,*ar0               ; |315| Store high half
     2424 0000034a 15400001         sti       r0,*+ar0              ; |315| Store low half
     2425                           .line   260
     2426                   ;----------------------------------------------------------------------
     2427                   ; 316 | TMP_VTUNE[i] = -1;                                                     
     2428                   ;----------------------------------------------------------------------
     2429 0000034b 50480301         ldiu      *+fp(1),ar0           ; |316| 
     2430 0000034c 08700000-        ldp       @CL184,DP
TMS320C3x/4x COFF AssemblerVersion 5.12     Mon Nov 19 13:45:24 2018
Copyright (c) 1987-1999 Texas Instruments Incorporatedasm30.exe -@_6L4.AAB 

F:\WKDIR\CodeComposer\EEA_SA_V613b\BOOT\SOURCE\ASM\main.asm          PAGE   46

     2431 0000034d 03e80001         ash       1,ar0                 ; |316| 
     2432 0000034e 022800bb-        addi      @CL184,ar0            ; |316| Unsigned
     2433 0000034f 08700000-        ldp       @CL181+0,DP
     2434 00000350 402000b7-        ldfu      @CL181+0,f0           ; |316| 40b float hi half
     2435 00000351 08700000-        ldp       @CL181+1,DP
     2436 00000352 502000b8-        ldiu      @CL181+1,r0           ; |316| 40b float lo half
     2437 00000353 1440c000         stf       f0,*ar0               ; |316| Store high half
     2438 00000354 15400001         sti       r0,*+ar0              ; |316| Store low half
     2439                           .line   250
     2440 00000355 50600001         ldiu      1,r0                  ; |306| 
     2441 00000356 02400301         addi      *+fp(1),r0            ; |306| 
     2442 00000357 15400301         sti       r0,*+fp(1)            ; |306| 
     2443 00000358 04e00004         cmpi      4,r0                  ; |306| 
     2444 00000359 6a07ffb7         blt       L27                   ; |306| 
     2445                   ;*      Branch Occurs to L27            ; |306| 
     2446 0000035a          L28:        
     2447                           .line   263
     2448                   ;----------------------------------------------------------------------
     2449                   ; 319 | VAR_NaN(&REG_VINC_O);                                                  
     2450                   ;----------------------------------------------------------------------
     2451 0000035a 08700000-        ldp       @CL126,DP
     2452 0000035b 50200080-        ldiu      @CL126,r0             ; |319| 
     2453 0000035c 08700000-        ldp       @CL185,DP
     2454 0000035d 502a00bc-        ldiu      @CL185,ar2            ; |319| 
     2455 0000035e 70000000         callu     r0                    ; far call to _VAR_NaN  ; |319| 
     2456                                                           ; |319| Far Call Occurs
     2457                           .line   264
     2458                   ;----------------------------------------------------------------------
     2459                   ; 320 | VAR_NaN(&REG_VREF_O);                                                  
     2460                   ;----------------------------------------------------------------------
     2461 0000035f 08700000-        ldp       @CL126,DP
     2462 00000360 50200080-        ldiu      @CL126,r0             ; |320| 
     2463 00000361 08700000-        ldp       @CL186,DP
     2464 00000362 502a00bd-        ldiu      @CL186,ar2            ; |320| 
     2465 00000363 70000000         callu     r0                    ; far call to _VAR_NaN  ; |320| 
     2466                                                           ; |320| Far Call Occurs
     2467                           .line   265
     2468                   ;----------------------------------------------------------------------
     2469                   ; 321 | VAR_NaN(&REG_FREQ_O);                                                  
     2470                   ;----------------------------------------------------------------------
     2471 00000364 08700000-        ldp       @CL126,DP
     2472 00000365 50200080-        ldiu      @CL126,r0             ; |321| 
     2473 00000366 08700000-        ldp       @CL187,DP
     2474 00000367 502a00be-        ldiu      @CL187,ar2            ; |321| 
     2475 00000368 70000000         callu     r0                    ; far call to _VAR_NaN  ; |321| 
     2476                                                           ; |321| Far Call Occurs
     2477                           .line   266
     2478                   ;----------------------------------------------------------------------
     2479                   ; 322 | VAR_NaN(&REG_VINC_W);                                                  
     2480                   ;----------------------------------------------------------------------
     2481 00000369 08700000-        ldp       @CL126,DP
     2482 0000036a 50200080-        ldiu      @CL126,r0             ; |322| 
     2483 0000036b 08700000-        ldp       @CL188,DP
     2484 0000036c 502a00bf-        ldiu      @CL188,ar2            ; |322| 
TMS320C3x/4x COFF AssemblerVersion 5.12     Mon Nov 19 13:45:24 2018
Copyright (c) 1987-1999 Texas Instruments Incorporatedasm30.exe -@_6L4.AAB 

F:\WKDIR\CodeComposer\EEA_SA_V613b\BOOT\SOURCE\ASM\main.asm          PAGE   47

     2485 0000036d 70000000         callu     r0                    ; far call to _VAR_NaN  ; |322| 
     2486                                                           ; |322| Far Call Occurs
     2487                           .line   267
     2488                   ;----------------------------------------------------------------------
     2489                   ; 323 | VAR_NaN(&REG_VREF_W);                                                  
     2490                   ;----------------------------------------------------------------------
     2491 0000036e 08700000-        ldp       @CL126,DP
     2492 0000036f 50200080-        ldiu      @CL126,r0             ; |323| 
     2493 00000370 08700000-        ldp       @CL189,DP
     2494 00000371 502a00c0-        ldiu      @CL189,ar2            ; |323| 
     2495 00000372 70000000         callu     r0                    ; far call to _VAR_NaN  ; |323| 
     2496                                                           ; |323| Far Call Occurs
     2497                           .line   268
     2498                   ;----------------------------------------------------------------------
     2499                   ; 324 | VAR_NaN(&REG_FREQ_W);                                                  
     2500                   ;----------------------------------------------------------------------
     2501 00000373 08700000-        ldp       @CL126,DP
     2502 00000374 50200080-        ldiu      @CL126,r0             ; |324| 
     2503 00000375 08700000-        ldp       @CL190,DP
     2504 00000376 502a00c1-        ldiu      @CL190,ar2            ; |324| 
     2505 00000377 70000000         callu     r0                    ; far call to _VAR_NaN  ; |324| 
     2506                                                           ; |324| Far Call Occurs
     2507                           .line   270
     2508                   ;----------------------------------------------------------------------
     2509                   ; 326 | FREQ_O          = 0.0;  /* Oil oscillator frequency */                 
     2510                   ;----------------------------------------------------------------------
     2511 00000378 08700000-        ldp       @CL191,DP
     2512 00000379 502800c2-        ldiu      @CL191,ar0            ; |326| 
     2513 0000037a 40608000         ldfu      0.0000000000e+00,f0   ; |326| 
     2514 0000037b 1440c000         stf       f0,*ar0               ; |326| 
     2515                           .line   271
     2516                   ;----------------------------------------------------------------------
     2517                   ; 327 | IP_O            = 0.0;                                                 
     2518                   ;----------------------------------------------------------------------
     2519 0000037c 08700000-        ldp       @CL192,DP
     2520 0000037d 502800c3-        ldiu      @CL192,ar0            ; |327| 
     2521 0000037e 40608000         ldfu      0.0000000000e+00,f0   ; |327| 
     2522 0000037f 1440c000         stf       f0,*ar0               ; |327| 
     2523                           .line   272
     2524                   ;----------------------------------------------------------------------
     2525                   ; 328 | RP_O            = 0.0;                                                 
     2526                   ;----------------------------------------------------------------------
     2527 00000380 08700000-        ldp       @CL193,DP
     2528 00000381 502800c4-        ldiu      @CL193,ar0            ; |328| 
     2529 00000382 40608000         ldfu      0.0000000000e+00,f0   ; |328| 
     2530 00000383 1440c000         stf       f0,*ar0               ; |328| 
     2531                           .line   273
     2532                   ;----------------------------------------------------------------------
     2533                   ; 329 | IP_RP_O         = 0.0;                                                 
     2534                   ;----------------------------------------------------------------------
     2535 00000384 08700000-        ldp       @CL194,DP
     2536 00000385 502800c5-        ldiu      @CL194,ar0            ; |329| 
     2537 00000386 40608000         ldfu      0.0000000000e+00,f0   ; |329| 
     2538 00000387 1440c000         stf       f0,*ar0               ; |329| 
TMS320C3x/4x COFF AssemblerVersion 5.12     Mon Nov 19 13:45:24 2018
Copyright (c) 1987-1999 Texas Instruments Incorporatedasm30.exe -@_6L4.AAB 

F:\WKDIR\CodeComposer\EEA_SA_V613b\BOOT\SOURCE\ASM\main.asm          PAGE   48

     2539                           .line   274
     2540                   ;----------------------------------------------------------------------
     2541                   ; 330 | DB_IP_RP_O      = 0.0;                                                 
     2542                   ;----------------------------------------------------------------------
     2543 00000388 08700000-        ldp       @CL195,DP
     2544 00000389 502800c6-        ldiu      @CL195,ar0            ; |330| 
     2545 0000038a 40608000         ldfu      0.0000000000e+00,f0   ; |330| 
     2546 0000038b 1440c000         stf       f0,*ar0               ; |330| 
     2547                           .line   275
     2548                   ;----------------------------------------------------------------------
     2549                   ; 331 | FREQ_W          = 0.0;  /* Water oscillator frequency */               
     2550                   ;----------------------------------------------------------------------
     2551 0000038c 08700000-        ldp       @CL196,DP
     2552 0000038d 502800c7-        ldiu      @CL196,ar0            ; |331| 
     2553 0000038e 40608000         ldfu      0.0000000000e+00,f0   ; |331| 
     2554 0000038f 1440c000         stf       f0,*ar0               ; |331| 
     2555                           .line   276
     2556                   ;----------------------------------------------------------------------
     2557                   ; 332 | IP_W            = 0.0;                                                 
     2558                   ;----------------------------------------------------------------------
     2559 00000390 08700000-        ldp       @CL197,DP
     2560 00000391 502800c8-        ldiu      @CL197,ar0            ; |332| 
     2561 00000392 40608000         ldfu      0.0000000000e+00,f0   ; |332| 
     2562 00000393 1440c000         stf       f0,*ar0               ; |332| 
     2563                           .line   277
     2564                   ;----------------------------------------------------------------------
     2565                   ; 333 | RP_W            = 0.0;                                                 
     2566                   ;----------------------------------------------------------------------
     2567 00000394 08700000-        ldp       @CL198,DP
     2568 00000395 502800c9-        ldiu      @CL198,ar0            ; |333| 
     2569 00000396 40608000         ldfu      0.0000000000e+00,f0   ; |333| 
     2570 00000397 1440c000         stf       f0,*ar0               ; |333| 
     2571                           .line   278
     2572                   ;----------------------------------------------------------------------
     2573                   ; 334 | IP_RP_W         = 0.0;                                                 
     2574                   ;----------------------------------------------------------------------
     2575 00000398 08700000-        ldp       @CL199,DP
     2576 00000399 502800ca-        ldiu      @CL199,ar0            ; |334| 
     2577 0000039a 40608000         ldfu      0.0000000000e+00,f0   ; |334| 
     2578 0000039b 1440c000         stf       f0,*ar0               ; |334| 
     2579                           .line   279
     2580                   ;----------------------------------------------------------------------
     2581                   ; 335 | DB_IP_RP_W      = 0.0;                                                 
     2582                   ;----------------------------------------------------------------------
     2583 0000039c 08700000-        ldp       @CL200,DP
     2584 0000039d 502800cb-        ldiu      @CL200,ar0            ; |335| 
     2585 0000039e 40608000         ldfu      0.0000000000e+00,f0   ; |335| 
     2586 0000039f 1440c000         stf       f0,*ar0               ; |335| 
     2587                           .line   280
     2588                   ;----------------------------------------------------------------------
     2589                   ; 336 | i_FREQ_O        = 0.0;                                                 
     2590                   ;----------------------------------------------------------------------
     2591 000003a0 08700000-        ldp       @CL201,DP
     2592 000003a1 502800cc-        ldiu      @CL201,ar0            ; |336| 
TMS320C3x/4x COFF AssemblerVersion 5.12     Mon Nov 19 13:45:24 2018
Copyright (c) 1987-1999 Texas Instruments Incorporatedasm30.exe -@_6L4.AAB 

F:\WKDIR\CodeComposer\EEA_SA_V613b\BOOT\SOURCE\ASM\main.asm          PAGE   49

     2593 000003a2 50600000         ldiu      0,r0                  ; |336| 
     2594 000003a3 1540c000         sti       r0,*ar0               ; |336| 
     2595                           .line   281
     2596                   ;----------------------------------------------------------------------
     2597                   ; 337 | i_IP_O          = 0.0;                                                 
     2598                   ;----------------------------------------------------------------------
     2599 000003a4 08700000-        ldp       @CL202,DP
     2600 000003a5 502800cd-        ldiu      @CL202,ar0            ; |337| 
     2601 000003a6 1540c000         sti       r0,*ar0               ; |337| 
     2602                           .line   282
     2603                   ;----------------------------------------------------------------------
     2604                   ; 338 | i_RP_O          = 0.0;                                                 
     2605                   ;----------------------------------------------------------------------
     2606 000003a7 08700000-        ldp       @CL203,DP
     2607 000003a8 502800ce-        ldiu      @CL203,ar0            ; |338| 
     2608 000003a9 1540c000         sti       r0,*ar0               ; |338| 
     2609                           .line   283
     2610                   ;----------------------------------------------------------------------
     2611                   ; 339 | i_FREQ_W        = 0.0;                                                 
     2612                   ;----------------------------------------------------------------------
     2613 000003aa 08700000-        ldp       @CL204,DP
     2614 000003ab 502800cf-        ldiu      @CL204,ar0            ; |339| 
     2615 000003ac 1540c000         sti       r0,*ar0               ; |339| 
     2616                           .line   284
     2617                   ;----------------------------------------------------------------------
     2618                   ; 340 | i_IP_W          = 0.0;                                                 
     2619                   ;----------------------------------------------------------------------
     2620 000003ad 08700000-        ldp       @CL205,DP
     2621 000003ae 502800d0-        ldiu      @CL205,ar0            ; |340| 
     2622 000003af 1540c000         sti       r0,*ar0               ; |340| 
     2623                           .line   285
     2624                   ;----------------------------------------------------------------------
     2625                   ; 341 | i_RP_W          = 0.0;                                                 
     2626                   ;----------------------------------------------------------------------
     2627 000003b0 08700000-        ldp       @CL206,DP
     2628 000003b1 502800d1-        ldiu      @CL206,ar0            ; |341| 
     2629 000003b2 1540c000         sti       r0,*ar0               ; |341| 
     2630                           .line   286
     2631                   ;----------------------------------------------------------------------
     2632                   ; 342 | i_TEMP          = 0.0;                                                 
     2633                   ;----------------------------------------------------------------------
     2634 000003b3 08700000-        ldp       @CL207,DP
     2635 000003b4 502800d2-        ldiu      @CL207,ar0            ; |342| 
     2636 000003b5 1540c000         sti       r0,*ar0               ; |342| 
     2637                           .line   287
     2638                   ;----------------------------------------------------------------------
     2639                   ; 343 | i_WC            = 0.0;                                                 
     2640                   ;----------------------------------------------------------------------
     2641 000003b6 08700000-        ldp       @CL208,DP
     2642 000003b7 502800d3-        ldiu      @CL208,ar0            ; |343| 
     2643 000003b8 1540c000         sti       r0,*ar0               ; |343| 
     2644                           .line   289
     2645                   ;----------------------------------------------------------------------
     2646                   ; 345 | compatibility_dummy = 0.0;                                             
TMS320C3x/4x COFF AssemblerVersion 5.12     Mon Nov 19 13:45:24 2018
Copyright (c) 1987-1999 Texas Instruments Incorporatedasm30.exe -@_6L4.AAB 

F:\WKDIR\CodeComposer\EEA_SA_V613b\BOOT\SOURCE\ASM\main.asm          PAGE   50

     2647                   ; 347 | //RUSS_TBL_LEN = Find_Russ_Tbl_Len();                                  
     2648                   ;----------------------------------------------------------------------
     2649 000003b9 08700000-        ldp       @CL209,DP
     2650 000003ba 502800d4-        ldiu      @CL209,ar0            ; |345| 
     2651 000003bb 40608000         ldfu      0.0000000000e+00,f0   ; |345| 
     2652 000003bc 1440c000         stf       f0,*ar0               ; |345| 
     2653                           .line   293
     2654                   ;----------------------------------------------------------------------
     2655                   ; 349 | for (i=0;i<30;i++)                                                     
     2656                   ;----------------------------------------------------------------------
     2657 000003bd 50600000         ldiu      0,r0                  ; |349| 
     2658 000003be 15400301         sti       r0,*+fp(1)            ; |349| 
     2659 000003bf 40618000         ldfu      0.0000000000e+00,f1   ; |353| 
     2660 000003c0 50630000         ldiu      0,r3                  ; |352| 
     2661 000003c1 50620000         ldiu      0,r2                  ; |351| 
     2662 000003c2 04e0001e         cmpi      30,r0                 ; |349| 
     2663 000003c3 6a0a0011         bge       L30                   ; |349| 
     2664                   ;*      Branch Occurs to L30            ; |349| 
     2665 000003c4          L29:        
     2666                           .line   295
     2667                   ;----------------------------------------------------------------------
     2668                   ; 351 | i_LV[i]         = 0;                                                   
     2669                   ;----------------------------------------------------------------------
     2670 000003c4 08700000-        ldp       @CL210,DP
     2671 000003c5 50510301         ldiu      *+fp(1),ir0           ; |351| 
     2672 000003c6 502800d5-        ldiu      @CL210,ar0            ; |351| 
     2673 000003c7 15424000         sti       r2,*+ar0(ir0)         ; |351| 
     2674                           .line   296
     2675                   ;----------------------------------------------------------------------
     2676                   ; 352 | il_LV[i]        = 0;                                                   
     2677                   ;----------------------------------------------------------------------
     2678 000003c8 08700000-        ldp       @CL211,DP
     2679 000003c9 502800d6-        ldiu      @CL211,ar0            ; |352| 
     2680 000003ca 50510301         ldiu      *+fp(1),ir0           ; |352| 
     2681 000003cb 15434000         sti       r3,*+ar0(ir0)         ; |352| 
     2682                           .line   297
     2683                   ;----------------------------------------------------------------------
     2684                   ; 353 | f_LV[i]         = 0;                                                   
     2685                   ;----------------------------------------------------------------------
     2686 000003cc 08700000-        ldp       @CL212,DP
     2687 000003cd 502800d7-        ldiu      @CL212,ar0            ; |353| 
     2688 000003ce 50510301         ldiu      *+fp(1),ir0           ; |353| 
     2689 000003cf 14414000         stf       f1,*+ar0(ir0)         ; |353| 
     2690                           .line   293
     2691 000003d0 50600001         ldiu      1,r0                  ; |349| 
     2692 000003d1 02400301         addi      *+fp(1),r0            ; |349| 
     2693 000003d2 15400301         sti       r0,*+fp(1)            ; |349| 
     2694 000003d3 04e0001e         cmpi      30,r0                 ; |349| 
     2695 000003d4 6a07ffef         blt       L29                   ; |349| 
     2696                   ;*      Branch Occurs to L29            ; |349| 
     2697 000003d5          L30:        
     2698                           .line   300
     2699                   ;----------------------------------------------------------------------
     2700                   ; 356 | for (i=0;i<CORMAX;i++)                                                 
TMS320C3x/4x COFF AssemblerVersion 5.12     Mon Nov 19 13:45:24 2018
Copyright (c) 1987-1999 Texas Instruments Incorporatedasm30.exe -@_6L4.AAB 

F:\WKDIR\CodeComposer\EEA_SA_V613b\BOOT\SOURCE\ASM\main.asm          PAGE   51

     2701                   ;----------------------------------------------------------------------
     2702 000003d5 50600000         ldiu      0,r0                  ; |356| 
     2703 000003d6 15400301         sti       r0,*+fp(1)            ; |356| 
     2704 000003d7 04e00005         cmpi      5,r0                  ; |356| 
     2705 000003d8 6a0a0251         bge       L34                   ; |356| 
     2706                   ;*      Branch Occurs to L34            ; |356| 
     2707 000003d9          L31:        
     2708                           .line   302
     2709                   ;----------------------------------------------------------------------
     2710                   ; 358 | COR[i].diag = 0;                                                       
     2711                   ;----------------------------------------------------------------------
     2712 000003d9 50510301         ldiu      *+fp(1),ir0           ; |358| 
     2713 000003da 08700000-        ldp       @CL213,DP
     2714 000003db 0af1017e         mpyi      382,ir0               ; |358| 
     2715 000003dc 502800d8-        ldiu      @CL213,ar0            ; |358| 
     2716 000003dd 40608000         ldfu      0.0000000000e+00,f0   ; |358| 
     2717 000003de 14404000         stf       f0,*+ar0(ir0)         ; |358| 
     2718                           .line   303
     2719                   ;----------------------------------------------------------------------
     2720                   ; 359 | COR[i].mfr = 0;                                                        
     2721                   ;----------------------------------------------------------------------
     2722 000003df 08700000-        ldp       @CL214,DP
     2723 000003e0 50510301         ldiu      *+fp(1),ir0           ; |359| 
     2724 000003e1 502800d9-        ldiu      @CL214,ar0            ; |359| 
     2725 000003e2 0af1017e         mpyi      382,ir0               ; |359| 
     2726 000003e3 40608000         ldfu      0.0000000000e+00,f0   ; |359| 
     2727 000003e4 14404000         stf       f0,*+ar0(ir0)         ; |359| 
     2728                           .line   304
     2729                   ;----------------------------------------------------------------------
     2730                   ; 360 | COR[i].density = 0;                                                    
     2731                   ;----------------------------------------------------------------------
     2732 000003e5 08700000-        ldp       @CL215,DP
     2733 000003e6 50510301         ldiu      *+fp(1),ir0           ; |360| 
     2734 000003e7 502800da-        ldiu      @CL215,ar0            ; |360| 
     2735 000003e8 0af1017e         mpyi      382,ir0               ; |360| 
     2736 000003e9 40608000         ldfu      0.0000000000e+00,f0   ; |360| 
     2737 000003ea 14404000         stf       f0,*+ar0(ir0)         ; |360| 
     2738                           .line   307
     2739                   ;----------------------------------------------------------------------
     2740                   ; 363 | VAR_Initialize(&COR[i].damp_flow_rate, c_time, u_time_sec, 100.0, 100.0
     2741                   ;     | , var_no_alarm|var_no_bound);                                          
     2742                   ;----------------------------------------------------------------------
     2743 000003eb 50790033         ldiu      51,rs                 ; |363| 
     2744 000003ec 507a0006         ldiu      6,re                  ; |363| 
     2745 000003ed 08700000-        ldp       @CL216,DP
     2746 000003ee 504a0301         ldiu      *+fp(1),ar2           ; |363| 
     2747 000003ef 0aea017e         mpyi      382,ar2               ; |363| 
     2748 000003f0 022a00db-        addi      @CL216,ar2            ; |363| Unsigned
     2749 000003f1 08700000-        ldp       @CL217,DP
     2750 000003f2 507b0046         ldiu      70,rc                 ; |363| 
     2751 000003f3 502000dc-        ldiu      @CL217,r0             ; |363| 
     2752 000003f4 40636480         ldfu      1.0000000000e+02,f3   ; |363| 
     2753 000003f5 40626480         ldfu      1.0000000000e+02,f2   ; |363| 
     2754 000003f6 70000000         callu     r0                    ; far call to _VAR_Initialize   ; |363| 
TMS320C3x/4x COFF AssemblerVersion 5.12     Mon Nov 19 13:45:24 2018
Copyright (c) 1987-1999 Texas Instruments Incorporatedasm30.exe -@_6L4.AAB 

F:\WKDIR\CodeComposer\EEA_SA_V613b\BOOT\SOURCE\ASM\main.asm          PAGE   52

     2755                                                           ; |363| Far Call Occurs
     2756                           .line   308
     2757                   ;----------------------------------------------------------------------
     2758                   ; 364 | sprintf(COR[i].damp_flow_rate.name, "COR%i Dampen Flow", i+1);         
     2759                   ;----------------------------------------------------------------------
     2760 000003f7 50600001         ldiu      1,r0                  ; |364| 
     2761 000003f8 02400301         addi      *+fp(1),r0            ; |364| 
     2762 000003f9 08700000-        ldp       @CL219,DP
     2763 000003fa 0f200000         push      r0                    ; |364| 
     2764 000003fb 502100de-        ldiu      @CL219,r1             ; |364| 
     2765 000003fc 0f210000         push      r1                    ; |364| 
     2766 000003fd 504a0301         ldiu      *+fp(1),ar2           ; |364| 
     2767 000003fe 08700000-        ldp       @CL218,DP
     2768 000003ff 0aea017e         mpyi      382,ar2               ; |364| 
     2769 00000400 022a00dd-        addi      @CL218,ar2            ; |364| Unsigned
     2770 00000401 08700000-        ldp       @CL16,DP
     2771 00000402 5020000f-        ldiu      @CL16,r0              ; |364| 
     2772 00000403 70000000         callu     r0                    ; far call to _sprintf  ; |364| 
     2773                                                           ; |364| Far Call Occurs
     2774 00000404 18740002         subi      2,sp                  ; |364| 
     2775                           .line   309
     2776                   ;----------------------------------------------------------------------
     2777                   ; 365 | COR[i].damp_flow_rate.aux = (i<<16)|(189);                             
     2778                   ;----------------------------------------------------------------------
     2779 00000405 50400301         ldiu      *+fp(1),r0            ; |365| 
     2780 00000406 50110000         ldiu      r0,ir0                ; |365| 
     2781 00000407 08700000-        ldp       @CL220,DP
     2782 00000408 0af1017e         mpyi      382,ir0               ; |365| 
     2783 00000409 03e00010         ash       16,r0                 ; |365| 
     2784 0000040a 502800df-        ldiu      @CL220,ar0            ; |365| 
     2785 0000040b 106000bd         or        189,r0                ; |365| 
     2786 0000040c 15404000         sti       r0,*+ar0(ir0)         ; |365| 
     2787                           .line   310
     2788                   ;----------------------------------------------------------------------
     2789                   ; 366 | VAR_Update(&COR[i].damp_flow_rate, 0.0, 0, 0);                         
     2790                   ;----------------------------------------------------------------------
     2791 0000040d 08700000-        ldp       @CL67,DP
     2792 0000040e 50200042-        ldiu      @CL67,r0              ; |366| 
     2793 0000040f 504a0301         ldiu      *+fp(1),ar2           ; |366| 
     2794 00000410 08700000-        ldp       @CL216,DP
     2795 00000411 0aea017e         mpyi      382,ar2               ; |366| 
     2796 00000412 022a00db-        addi      @CL216,ar2            ; |366| Unsigned
     2797 00000413 08700000-        ldp       @CL79+0,DP
     2798 00000414 4022004e-        ldfu      @CL79+0,f2            ; |366| 40b float hi half
     2799 00000415 08700000-        ldp       @CL79+1,DP
     2800 00000416 507b0000         ldiu      0,rc                  ; |366| 
     2801 00000417 5022004f-        ldiu      @CL79+1,r2            ; |366| 40b float lo half
     2802 00000418 50630000         ldiu      0,r3                  ; |366| 
     2803 00000419 70000000         callu     r0                    ; far call to _VAR_Update       ; |366| 
     2804                                                           ; |366| Far Call Occurs
     2805                           .line   311
     2806                   ;----------------------------------------------------------------------
     2807                   ; 367 | COR[i].damp_flow_rate.vect2 = (int*)CORIOLIS_CFG;                      
     2808                   ;----------------------------------------------------------------------
TMS320C3x/4x COFF AssemblerVersion 5.12     Mon Nov 19 13:45:24 2018
Copyright (c) 1987-1999 Texas Instruments Incorporatedasm30.exe -@_6L4.AAB 

F:\WKDIR\CodeComposer\EEA_SA_V613b\BOOT\SOURCE\ASM\main.asm          PAGE   53

     2809 0000041a 08700000-        ldp       @CL221,DP
     2810 0000041b 502800e0-        ldiu      @CL221,ar0            ; |367| 
     2811 0000041c 50510301         ldiu      *+fp(1),ir0           ; |367| 
     2812 0000041d 08700000-        ldp       @CL222,DP
     2813 0000041e 0af1017e         mpyi      382,ir0               ; |367| 
     2814 0000041f 502000e1-        ldiu      @CL222,r0             ; |367| 
     2815 00000420 15404000         sti       r0,*+ar0(ir0)         ; |367| 
     2816                           .line   314
     2817                   ;----------------------------------------------------------------------
     2818                   ; 370 | VAR_Initialize(&COR[i].damp_density, c_time, u_time_sec, 100.0, 100.0,
     2819                   ;     | var_no_alarm|var_no_bound);                                            
     2820                   ;----------------------------------------------------------------------
     2821 00000421 504a0301         ldiu      *+fp(1),ar2           ; |370| 
     2822 00000422 0aea017e         mpyi      382,ar2               ; |370| 
     2823 00000423 08700000-        ldp       @CL223,DP
     2824 00000424 507b0046         ldiu      70,rc                 ; |370| 
     2825 00000425 022a00e2-        addi      @CL223,ar2            ; |370| Unsigned
     2826 00000426 08700000-        ldp       @CL217,DP
     2827 00000427 50790033         ldiu      51,rs                 ; |370| 
     2828 00000428 507a0006         ldiu      6,re                  ; |370| 
     2829 00000429 502000dc-        ldiu      @CL217,r0             ; |370| 
     2830 0000042a 40636480         ldfu      1.0000000000e+02,f3   ; |370| 
     2831 0000042b 40626480         ldfu      1.0000000000e+02,f2   ; |370| 
     2832 0000042c 70000000         callu     r0                    ; far call to _VAR_Initialize   ; |370| 
     2833                                                           ; |370| Far Call Occurs
     2834                           .line   315
     2835                   ;----------------------------------------------------------------------
     2836                   ; 371 | sprintf(COR[i].damp_density.name, "COR%i Dampen Density", i+1);        
     2837                   ;----------------------------------------------------------------------
     2838 0000042d 08700000-        ldp       @CL225,DP
     2839 0000042e 502100e4-        ldiu      @CL225,r1             ; |371| 
     2840 0000042f 50600001         ldiu      1,r0                  ; |371| 
     2841 00000430 02400301         addi      *+fp(1),r0            ; |371| 
     2842 00000431 0f200000         push      r0                    ; |371| 
     2843 00000432 0f210000         push      r1                    ; |371| 
     2844 00000433 504a0301         ldiu      *+fp(1),ar2           ; |371| 
     2845 00000434 08700000-        ldp       @CL224,DP
     2846 00000435 0aea017e         mpyi      382,ar2               ; |371| 
     2847 00000436 022a00e3-        addi      @CL224,ar2            ; |371| Unsigned
     2848 00000437 08700000-        ldp       @CL16,DP
     2849 00000438 5020000f-        ldiu      @CL16,r0              ; |371| 
     2850 00000439 70000000         callu     r0                    ; far call to _sprintf  ; |371| 
     2851                                                           ; |371| Far Call Occurs
     2852 0000043a 18740002         subi      2,sp                  ; |371| 
     2853                           .line   316
     2854                   ;----------------------------------------------------------------------
     2855                   ; 372 | COR[i].damp_density.aux = (i<<16)|(193);                               
     2856                   ;----------------------------------------------------------------------
     2857 0000043b 50510301         ldiu      *+fp(1),ir0           ; |372| 
     2858 0000043c 50000011         ldiu      ir0,r0                ; |372| 
     2859 0000043d 03e00010         ash       16,r0                 ; |372| 
     2860 0000043e 08700000-        ldp       @CL226,DP
     2861 0000043f 0af1017e         mpyi      382,ir0               ; |372| 
     2862 00000440 502800e5-        ldiu      @CL226,ar0            ; |372| 
TMS320C3x/4x COFF AssemblerVersion 5.12     Mon Nov 19 13:45:24 2018
Copyright (c) 1987-1999 Texas Instruments Incorporatedasm30.exe -@_6L4.AAB 

F:\WKDIR\CodeComposer\EEA_SA_V613b\BOOT\SOURCE\ASM\main.asm          PAGE   54

     2863 00000441 106000c1         or        193,r0                ; |372| 
     2864 00000442 15404000         sti       r0,*+ar0(ir0)         ; |372| 
     2865                           .line   317
     2866                   ;----------------------------------------------------------------------
     2867                   ; 373 | VAR_Update(&COR[i].damp_density, 0.0, 0, 0);                           
     2868                   ;----------------------------------------------------------------------
     2869 00000443 08700000-        ldp       @CL67,DP
     2870 00000444 50200042-        ldiu      @CL67,r0              ; |373| 
     2871 00000445 08700000-        ldp       @CL223,DP
     2872 00000446 504a0301         ldiu      *+fp(1),ar2           ; |373| 
     2873 00000447 0aea017e         mpyi      382,ar2               ; |373| 
     2874 00000448 022a00e2-        addi      @CL223,ar2            ; |373| Unsigned
     2875 00000449 08700000-        ldp       @CL79+0,DP
     2876 0000044a 4022004e-        ldfu      @CL79+0,f2            ; |373| 40b float hi half
     2877 0000044b 08700000-        ldp       @CL79+1,DP
     2878 0000044c 507b0000         ldiu      0,rc                  ; |373| 
     2879 0000044d 5022004f-        ldiu      @CL79+1,r2            ; |373| 40b float lo half
     2880 0000044e 50630000         ldiu      0,r3                  ; |373| 
     2881 0000044f 70000000         callu     r0                    ; far call to _VAR_Update       ; |373| 
     2882                                                           ; |373| Far Call Occurs
     2883                           .line   318
     2884                   ;----------------------------------------------------------------------
     2885                   ; 374 | COR[i].damp_density.vect2 = (int*)CORIOLIS_CFG;                        
     2886                   ;----------------------------------------------------------------------
     2887 00000450 08700000-        ldp       @CL227,DP
     2888 00000451 50510301         ldiu      *+fp(1),ir0           ; |374| 
     2889 00000452 502800e6-        ldiu      @CL227,ar0            ; |374| 
     2890 00000453 08700000-        ldp       @CL222,DP
     2891 00000454 0af1017e         mpyi      382,ir0               ; |374| 
     2892 00000455 502000e1-        ldiu      @CL222,r0             ; |374| 
     2893 00000456 15404000         sti       r0,*+ar0(ir0)         ; |374| 
     2894                           .line   321
     2895                   ;----------------------------------------------------------------------
     2896                   ; 377 | VAR_Initialize(&COR[i].mfr_cutoff, c_mass_flow, u_generic_none, 100.0,
     2897                   ;     | 1000.0, var_no_alarm|var_no_bound);                                    
     2898                   ;----------------------------------------------------------------------
     2899 00000457 504a0301         ldiu      *+fp(1),ar2           ; |377| 
     2900 00000458 08700000-        ldp       @CL228,DP
     2901 00000459 0aea017e         mpyi      382,ar2               ; |377| 
     2902 0000045a 022a00e7-        addi      @CL228,ar2            ; |377| Unsigned
     2903 0000045b 08700000-        ldp       @CL217,DP
     2904 0000045c 502000dc-        ldiu      @CL217,r0             ; |377| 
     2905 0000045d 08700000-        ldp       @CL229,DP
     2906 0000045e 507b0048         ldiu      72,rc                 ; |377| 
     2907 0000045f 402300e8-        ldfu      @CL229,f3             ; |377| 
     2908 00000460 507900fb         ldiu      251,rs                ; |377| 
     2909 00000461 507a0006         ldiu      6,re                  ; |377| 
     2910 00000462 40626480         ldfu      1.0000000000e+02,f2   ; |377| 
     2911 00000463 70000000         callu     r0                    ; far call to _VAR_Initialize   ; |377| 
     2912                                                           ; |377| Far Call Occurs
     2913                           .line   322
     2914                   ;----------------------------------------------------------------------
     2915                   ; 378 | sprintf(COR[i].mfr_cutoff.name, "COR%i MFR Cutoff", i+1);              
     2916                   ;----------------------------------------------------------------------
TMS320C3x/4x COFF AssemblerVersion 5.12     Mon Nov 19 13:45:24 2018
Copyright (c) 1987-1999 Texas Instruments Incorporatedasm30.exe -@_6L4.AAB 

F:\WKDIR\CodeComposer\EEA_SA_V613b\BOOT\SOURCE\ASM\main.asm          PAGE   55

     2917 00000464 08700000-        ldp       @CL231,DP
     2918 00000465 50600001         ldiu      1,r0                  ; |378| 
     2919 00000466 02400301         addi      *+fp(1),r0            ; |378| 
     2920 00000467 502100ea-        ldiu      @CL231,r1             ; |378| 
     2921 00000468 0f200000         push      r0                    ; |378| 
     2922 00000469 0f210000         push      r1                    ; |378| 
     2923 0000046a 504a0301         ldiu      *+fp(1),ar2           ; |378| 
     2924 0000046b 08700000-        ldp       @CL230,DP
     2925 0000046c 0aea017e         mpyi      382,ar2               ; |378| 
     2926 0000046d 022a00e9-        addi      @CL230,ar2            ; |378| Unsigned
     2927 0000046e 08700000-        ldp       @CL16,DP
     2928 0000046f 5020000f-        ldiu      @CL16,r0              ; |378| 
     2929 00000470 70000000         callu     r0                    ; far call to _sprintf  ; |378| 
     2930                                                           ; |378| Far Call Occurs
     2931 00000471 18740002         subi      2,sp                  ; |378| 
     2932                           .line   323
     2933                   ;----------------------------------------------------------------------
     2934                   ; 379 | COR[i].mfr_cutoff.aux = (i<<16)|(195);                                 
     2935                   ;----------------------------------------------------------------------
     2936 00000472 08700000-        ldp       @CL232,DP
     2937 00000473 50400301         ldiu      *+fp(1),r0            ; |379| 
     2938 00000474 502800eb-        ldiu      @CL232,ar0            ; |379| 
     2939 00000475 50110000         ldiu      r0,ir0                ; |379| 
     2940 00000476 03e00010         ash       16,r0                 ; |379| 
     2941 00000477 0af1017e         mpyi      382,ir0               ; |379| 
     2942 00000478 106000c3         or        195,r0                ; |379| 
     2943 00000479 15404000         sti       r0,*+ar0(ir0)         ; |379| 
     2944                           .line   324
     2945                   ;----------------------------------------------------------------------
     2946                   ; 380 | VAR_Update(&COR[i].mfr_cutoff, 0.0, 0, 0);                             
     2947                   ;----------------------------------------------------------------------
     2948 0000047a 08700000-        ldp       @CL67,DP
     2949 0000047b 50200042-        ldiu      @CL67,r0              ; |380| 
     2950 0000047c 504a0301         ldiu      *+fp(1),ar2           ; |380| 
     2951 0000047d 08700000-        ldp       @CL228,DP
     2952 0000047e 0aea017e         mpyi      382,ar2               ; |380| 
     2953 0000047f 022a00e7-        addi      @CL228,ar2            ; |380| Unsigned
     2954 00000480 08700000-        ldp       @CL79+0,DP
     2955 00000481 4022004e-        ldfu      @CL79+0,f2            ; |380| 40b float hi half
     2956 00000482 08700000-        ldp       @CL79+1,DP
     2957 00000483 5022004f-        ldiu      @CL79+1,r2            ; |380| 40b float lo half
     2958 00000484 507b0000         ldiu      0,rc                  ; |380| 
     2959 00000485 50630000         ldiu      0,r3                  ; |380| 
     2960 00000486 70000000         callu     r0                    ; far call to _VAR_Update       ; |380| 
     2961                                                           ; |380| Far Call Occurs
     2962                           .line   325
     2963                   ;----------------------------------------------------------------------
     2964                   ; 381 | COR[i].mfr_cutoff.vect2 = (int*)CORIOLIS_CFG;                          
     2965                   ;----------------------------------------------------------------------
     2966 00000487 08700000-        ldp       @CL233,DP
     2967 00000488 502800ec-        ldiu      @CL233,ar0            ; |381| 
     2968 00000489 50510301         ldiu      *+fp(1),ir0           ; |381| 
     2969 0000048a 08700000-        ldp       @CL222,DP
     2970 0000048b 0af1017e         mpyi      382,ir0               ; |381| 
TMS320C3x/4x COFF AssemblerVersion 5.12     Mon Nov 19 13:45:24 2018
Copyright (c) 1987-1999 Texas Instruments Incorporatedasm30.exe -@_6L4.AAB 

F:\WKDIR\CodeComposer\EEA_SA_V613b\BOOT\SOURCE\ASM\main.asm          PAGE   56

     2971 0000048c 502000e1-        ldiu      @CL222,r0             ; |381| 
     2972 0000048d 15404000         sti       r0,*+ar0(ir0)         ; |381| 
     2973                           .line   328
     2974                   ;----------------------------------------------------------------------
     2975                   ; 384 | VAR_Initialize(&COR[i].vfr_cutoff, c_volumetric_flow, u_generic_none, 1
     2976                   ;     | 00.0, 1000.0, var_no_alarm|var_no_bound);                              
     2977                   ;----------------------------------------------------------------------
     2978 0000048e 08700000-        ldp       @CL234,DP
     2979 0000048f 504a0301         ldiu      *+fp(1),ar2           ; |384| 
     2980 00000490 0aea017e         mpyi      382,ar2               ; |384| 
     2981 00000491 022a00ed-        addi      @CL234,ar2            ; |384| Unsigned
     2982 00000492 08700000-        ldp       @CL217,DP
     2983 00000493 502000dc-        ldiu      @CL217,r0             ; |384| 
     2984 00000494 08700000-        ldp       @CL229,DP
     2985 00000495 507900fb         ldiu      251,rs                ; |384| 
     2986 00000496 507a0006         ldiu      6,re                  ; |384| 
     2987 00000497 507b0042         ldiu      66,rc                 ; |384| 
     2988 00000498 402300e8-        ldfu      @CL229,f3             ; |384| 
     2989 00000499 40626480         ldfu      1.0000000000e+02,f2   ; |384| 
     2990 0000049a 70000000         callu     r0                    ; far call to _VAR_Initialize   ; |384| 
     2991                                                           ; |384| Far Call Occurs
     2992                           .line   329
     2993                   ;----------------------------------------------------------------------
     2994                   ; 385 | sprintf(COR[i].vfr_cutoff.name, "COR%i VFR Cutoff", i+1);              
     2995                   ;----------------------------------------------------------------------
     2996 0000049b 50600001         ldiu      1,r0                  ; |385| 
     2997 0000049c 08700000-        ldp       @CL236,DP
     2998 0000049d 02400301         addi      *+fp(1),r0            ; |385| 
     2999 0000049e 502100ef-        ldiu      @CL236,r1             ; |385| 
     3000 0000049f 0f200000         push      r0                    ; |385| 
     3001 000004a0 08700000-        ldp       @CL235,DP
     3002 000004a1 0f210000         push      r1                    ; |385| 
     3003 000004a2 504a0301         ldiu      *+fp(1),ar2           ; |385| 
     3004 000004a3 0aea017e         mpyi      382,ar2               ; |385| 
     3005 000004a4 022a00ee-        addi      @CL235,ar2            ; |385| Unsigned
     3006 000004a5 08700000-        ldp       @CL16,DP
     3007 000004a6 5020000f-        ldiu      @CL16,r0              ; |385| 
     3008 000004a7 70000000         callu     r0                    ; far call to _sprintf  ; |385| 
     3009                                                           ; |385| Far Call Occurs
     3010 000004a8 18740002         subi      2,sp                  ; |385| 
     3011                           .line   330
     3012                   ;----------------------------------------------------------------------
     3013                   ; 386 | COR[i].vfr_cutoff.aux = (i<<16)|(197);                                 
     3014                   ;----------------------------------------------------------------------
     3015 000004a9 08700000-        ldp       @CL237,DP
     3016 000004aa 50400301         ldiu      *+fp(1),r0            ; |386| 
     3017 000004ab 50110000         ldiu      r0,ir0                ; |386| 
     3018 000004ac 502800f0-        ldiu      @CL237,ar0            ; |386| 
     3019 000004ad 0af1017e         mpyi      382,ir0               ; |386| 
     3020 000004ae 03e00010         ash       16,r0                 ; |386| 
     3021 000004af 106000c5         or        197,r0                ; |386| 
     3022 000004b0 15404000         sti       r0,*+ar0(ir0)         ; |386| 
     3023                           .line   331
     3024                   ;----------------------------------------------------------------------
TMS320C3x/4x COFF AssemblerVersion 5.12     Mon Nov 19 13:45:24 2018
Copyright (c) 1987-1999 Texas Instruments Incorporatedasm30.exe -@_6L4.AAB 

F:\WKDIR\CodeComposer\EEA_SA_V613b\BOOT\SOURCE\ASM\main.asm          PAGE   57

     3025                   ; 387 | VAR_Update(&COR[i].vfr_cutoff, 0.0, 0, 0);                             
     3026                   ;----------------------------------------------------------------------
     3027 000004b1 08700000-        ldp       @CL67,DP
     3028 000004b2 504a0301         ldiu      *+fp(1),ar2           ; |387| 
     3029 000004b3 50200042-        ldiu      @CL67,r0              ; |387| 
     3030 000004b4 08700000-        ldp       @CL234,DP
     3031 000004b5 0aea017e         mpyi      382,ar2               ; |387| 
     3032 000004b6 022a00ed-        addi      @CL234,ar2            ; |387| Unsigned
     3033 000004b7 08700000-        ldp       @CL79+0,DP
     3034 000004b8 4022004e-        ldfu      @CL79+0,f2            ; |387| 40b float hi half
     3035 000004b9 08700000-        ldp       @CL79+1,DP
     3036 000004ba 507b0000         ldiu      0,rc                  ; |387| 
     3037 000004bb 5022004f-        ldiu      @CL79+1,r2            ; |387| 40b float lo half
     3038 000004bc 50630000         ldiu      0,r3                  ; |387| 
     3039 000004bd 70000000         callu     r0                    ; far call to _VAR_Update       ; |387| 
     3040                                                           ; |387| Far Call Occurs
     3041                           .line   332
     3042                   ;----------------------------------------------------------------------
     3043                   ; 388 | COR[i].vfr_cutoff.vect2 = (int*)CORIOLIS_CFG;                          
     3044                   ;----------------------------------------------------------------------
     3045 000004be 08700000-        ldp       @CL238,DP
     3046 000004bf 50510301         ldiu      *+fp(1),ir0           ; |388| 
     3047 000004c0 502800f1-        ldiu      @CL238,ar0            ; |388| 
     3048 000004c1 08700000-        ldp       @CL222,DP
     3049 000004c2 0af1017e         mpyi      382,ir0               ; |388| 
     3050 000004c3 502000e1-        ldiu      @CL222,r0             ; |388| 
     3051 000004c4 15404000         sti       r0,*+ar0(ir0)         ; |388| 
     3052                           .line   335
     3053                   ;----------------------------------------------------------------------
     3054                   ; 391 | VAR_Initialize(&COR[i].mcf, c_mass_flow, u_generic_none, 100.0, 100000.
     3055                   ;     | 0, var_no_alarm|var_no_bound);                                         
     3056                   ;----------------------------------------------------------------------
     3057 000004c5 504a0301         ldiu      *+fp(1),ar2           ; |391| 
     3058 000004c6 0aea017e         mpyi      382,ar2               ; |391| 
     3059 000004c7 08700000-        ldp       @CL239,DP
     3060 000004c8 507900fb         ldiu      251,rs                ; |391| 
     3061 000004c9 022a00f2-        addi      @CL239,ar2            ; |391| Unsigned
     3062 000004ca 08700000-        ldp       @CL217,DP
     3063 000004cb 507a0006         ldiu      6,re                  ; |391| 
     3064 000004cc 502000dc-        ldiu      @CL217,r0             ; |391| 
     3065 000004cd 08700000-        ldp       @CL240,DP
     3066 000004ce 507b0048         ldiu      72,rc                 ; |391| 
     3067 000004cf 402300f3-        ldfu      @CL240,f3             ; |391| 
     3068 000004d0 40626480         ldfu      1.0000000000e+02,f2   ; |391| 
     3069 000004d1 70000000         callu     r0                    ; far call to _VAR_Initialize   ; |391| 
     3070                                                           ; |391| Far Call Occurs
     3071                           .line   336
     3072                   ;----------------------------------------------------------------------
     3073                   ; 392 | sprintf(COR[i].mcf.name, "COR%i MCF", i+1);                            
     3074                   ;----------------------------------------------------------------------
     3075 000004d2 08700000-        ldp       @CL242,DP
     3076 000004d3 50600001         ldiu      1,r0                  ; |392| 
     3077 000004d4 02400301         addi      *+fp(1),r0            ; |392| 
     3078 000004d5 0f200000         push      r0                    ; |392| 
TMS320C3x/4x COFF AssemblerVersion 5.12     Mon Nov 19 13:45:24 2018
Copyright (c) 1987-1999 Texas Instruments Incorporatedasm30.exe -@_6L4.AAB 

F:\WKDIR\CodeComposer\EEA_SA_V613b\BOOT\SOURCE\ASM\main.asm          PAGE   58

     3079 000004d6 502100f5-        ldiu      @CL242,r1             ; |392| 
     3080 000004d7 0f210000         push      r1                    ; |392| 
     3081 000004d8 08700000-        ldp       @CL241,DP
     3082 000004d9 504a0301         ldiu      *+fp(1),ar2           ; |392| 
     3083 000004da 0aea017e         mpyi      382,ar2               ; |392| 
     3084 000004db 022a00f4-        addi      @CL241,ar2            ; |392| Unsigned
     3085 000004dc 08700000-        ldp       @CL16,DP
     3086 000004dd 5020000f-        ldiu      @CL16,r0              ; |392| 
     3087 000004de 70000000         callu     r0                    ; far call to _sprintf  ; |392| 
     3088                                                           ; |392| Far Call Occurs
     3089 000004df 18740002         subi      2,sp                  ; |392| 
     3090                           .line   337
     3091                   ;----------------------------------------------------------------------
     3092                   ; 393 | COR[i].mcf.aux = (i<<16)|(237);                                        
     3093                   ;----------------------------------------------------------------------
     3094 000004e0 50510301         ldiu      *+fp(1),ir0           ; |393| 
     3095 000004e1 50000011         ldiu      ir0,r0                ; |393| 
     3096 000004e2 08700000-        ldp       @CL243,DP
     3097 000004e3 03e00010         ash       16,r0                 ; |393| 
     3098 000004e4 0af1017e         mpyi      382,ir0               ; |393| 
     3099 000004e5 502800f6-        ldiu      @CL243,ar0            ; |393| 
     3100 000004e6 106000ed         or        237,r0                ; |393| 
     3101 000004e7 15404000         sti       r0,*+ar0(ir0)         ; |393| 
     3102                           .line   338
     3103                   ;----------------------------------------------------------------------
     3104                   ; 394 | VAR_Update(&COR[i].mcf, 1.0, 0, 0);                                    
     3105                   ;----------------------------------------------------------------------
     3106 000004e8 08700000-        ldp       @CL67,DP
     3107 000004e9 504a0301         ldiu      *+fp(1),ar2           ; |394| 
     3108 000004ea 50200042-        ldiu      @CL67,r0              ; |394| 
     3109 000004eb 08700000-        ldp       @CL239,DP
     3110 000004ec 0aea017e         mpyi      382,ar2               ; |394| 
     3111 000004ed 022a00f2-        addi      @CL239,ar2            ; |394| Unsigned
     3112 000004ee 08700000-        ldp       @CL244+0,DP
     3113 000004ef 402200f7-        ldfu      @CL244+0,f2           ; |394| 40b float hi half
     3114 000004f0 08700000-        ldp       @CL244+1,DP
     3115 000004f1 502200f8-        ldiu      @CL244+1,r2           ; |394| 40b float lo half
     3116 000004f2 507b0000         ldiu      0,rc                  ; |394| 
     3117 000004f3 50630000         ldiu      0,r3                  ; |394| 
     3118 000004f4 70000000         callu     r0                    ; far call to _VAR_Update       ; |394| 
     3119                                                           ; |394| Far Call Occurs
     3120                           .line   339
     3121                   ;----------------------------------------------------------------------
     3122                   ; 395 | COR[i].mcf.vect2 = (int*)CORIOLIS_CFG;                                 
     3123                   ;----------------------------------------------------------------------
     3124 000004f5 08700000-        ldp       @CL245,DP
     3125 000004f6 50510301         ldiu      *+fp(1),ir0           ; |395| 
     3126 000004f7 502800f9-        ldiu      @CL245,ar0            ; |395| 
     3127 000004f8 08700000-        ldp       @CL222,DP
     3128 000004f9 0af1017e         mpyi      382,ir0               ; |395| 
     3129 000004fa 502000e1-        ldiu      @CL222,r0             ; |395| 
     3130 000004fb 15404000         sti       r0,*+ar0(ir0)         ; |395| 
     3131                           .line   342
     3132                   ;----------------------------------------------------------------------
TMS320C3x/4x COFF AssemblerVersion 5.12     Mon Nov 19 13:45:24 2018
Copyright (c) 1987-1999 Texas Instruments Incorporatedasm30.exe -@_6L4.AAB 

F:\WKDIR\CodeComposer\EEA_SA_V613b\BOOT\SOURCE\ASM\main.asm          PAGE   59

     3133                   ; 398 | VAR_Initialize(&COR[i].address, c_not_classified, u_generic_none, 1.0,
     3134                   ;     | 1.0, var_no_alarm|var_round);                                          
     3135                   ;----------------------------------------------------------------------
     3136 000004fc 504a0301         ldiu      *+fp(1),ar2           ; |398| 
     3137 000004fd 08700000-        ldp       @CL246,DP
     3138 000004fe 0aea017e         mpyi      382,ar2               ; |398| 
     3139 000004ff 022a00fa-        addi      @CL246,ar2            ; |398| Unsigned
     3140 00000500 08700000-        ldp       @CL217,DP
     3141 00000501 502000dc-        ldiu      @CL217,r0             ; |398| 
     3142 00000502 507900fb         ldiu      251,rs                ; |398| 
     3143 00000503 507a0104         ldiu      260,re                ; |398| 
     3144 00000504 507b0000         ldiu      0,rc                  ; |398| 
     3145 00000505 40630000         ldfu      1.0000000000e+00,f3   ; |398| 
     3146 00000506 40620000         ldfu      1.0000000000e+00,f2   ; |398| 
     3147 00000507 70000000         callu     r0                    ; far call to _VAR_Initialize   ; |398| 
     3148                                                           ; |398| Far Call Occurs
     3149                           .line   343
     3150                   ;----------------------------------------------------------------------
     3151                   ; 399 | sprintf(COR[i].address.name, "COR%i Address", i+1);                    
     3152                   ;----------------------------------------------------------------------
     3153 00000508 08700000-        ldp       @CL248,DP
     3154 00000509 502100fc-        ldiu      @CL248,r1             ; |399| 
     3155 0000050a 08700000-        ldp       @CL247,DP
     3156 0000050b 50600001         ldiu      1,r0                  ; |399| 
     3157 0000050c 02400301         addi      *+fp(1),r0            ; |399| 
     3158 0000050d 0f200000         push      r0                    ; |399| 
     3159 0000050e 0f210000         push      r1                    ; |399| 
     3160 0000050f 504a0301         ldiu      *+fp(1),ar2           ; |399| 
     3161 00000510 0aea017e         mpyi      382,ar2               ; |399| 
     3162 00000511 022a00fb-        addi      @CL247,ar2            ; |399| Unsigned
     3163 00000512 08700000-        ldp       @CL16,DP
     3164 00000513 5020000f-        ldiu      @CL16,r0              ; |399| 
     3165 00000514 70000000         callu     r0                    ; far call to _sprintf  ; |399| 
     3166                                                           ; |399| Far Call Occurs
     3167 00000515 18740002         subi      2,sp                  ; |399| 
     3168                           .line   344
     3169                   ;----------------------------------------------------------------------
     3170                   ; 400 | COR[i].address.aux = (i<<16)|(313);                                    
     3171                   ;----------------------------------------------------------------------
     3172 00000516 50400301         ldiu      *+fp(1),r0            ; |400| 
     3173 00000517 50110000         ldiu      r0,ir0                ; |400| 
     3174 00000518 03e00010         ash       16,r0                 ; |400| 
     3175 00000519 08700000-        ldp       @CL249,DP
     3176 0000051a 0af1017e         mpyi      382,ir0               ; |400| 
     3177 0000051b 502800fd-        ldiu      @CL249,ar0            ; |400| 
     3178 0000051c 10600139         or        313,r0                ; |400| 
     3179 0000051d 15404000         sti       r0,*+ar0(ir0)         ; |400| 
     3180                           .line   345
     3181                   ;----------------------------------------------------------------------
     3182                   ; 401 | VAR_Update(&COR[i].address, 1.0, 0, 0);                                
     3183                   ;----------------------------------------------------------------------
     3184 0000051e 08700000-        ldp       @CL67,DP
     3185 0000051f 504a0301         ldiu      *+fp(1),ar2           ; |401| 
     3186 00000520 50200042-        ldiu      @CL67,r0              ; |401| 
TMS320C3x/4x COFF AssemblerVersion 5.12     Mon Nov 19 13:45:24 2018
Copyright (c) 1987-1999 Texas Instruments Incorporatedasm30.exe -@_6L4.AAB 

F:\WKDIR\CodeComposer\EEA_SA_V613b\BOOT\SOURCE\ASM\main.asm          PAGE   60

     3187 00000521 08700000-        ldp       @CL246,DP
     3188 00000522 0aea017e         mpyi      382,ar2               ; |401| 
     3189 00000523 022a00fa-        addi      @CL246,ar2            ; |401| Unsigned
     3190 00000524 08700000-        ldp       @CL244+0,DP
     3191 00000525 402200f7-        ldfu      @CL244+0,f2           ; |401| 40b float hi half
     3192 00000526 08700000-        ldp       @CL244+1,DP
     3193 00000527 507b0000         ldiu      0,rc                  ; |401| 
     3194 00000528 502200f8-        ldiu      @CL244+1,r2           ; |401| 40b float lo half
     3195 00000529 50630000         ldiu      0,r3                  ; |401| 
     3196 0000052a 70000000         callu     r0                    ; far call to _VAR_Update       ; |401| 
     3197                                                           ; |401| Far Call Occurs
     3198                           .line   346
     3199                   ;----------------------------------------------------------------------
     3200                   ; 402 | COR[i].address.vect2 = (int*)CORIOLIS_INT_CFG;      /*CORIOLIS_INT_CFG
     3201                   ;     | instead of CORIOLIS_CFG RS*/                                           
     3202                   ;----------------------------------------------------------------------
     3203 0000052b 08700000-        ldp       @CL250,DP
     3204 0000052c 502800fe-        ldiu      @CL250,ar0            ; |402| 
     3205 0000052d 50510301         ldiu      *+fp(1),ir0           ; |402| 
     3206 0000052e 08700000-        ldp       @CL251,DP
     3207 0000052f 0af1017e         mpyi      382,ir0               ; |402| 
     3208 00000530 502000ff-        ldiu      @CL251,r0             ; |402| 
     3209 00000531 15404000         sti       r0,*+ar0(ir0)         ; |402| 
     3210                           .line   349
     3211                   ;----------------------------------------------------------------------
     3212                   ; 405 | VAR_Initialize(&COR[i].mass_unit, c_not_classified, u_generic_none, 1.0
     3213                   ;     | , 1.0, var_no_alarm|var_no_bound);                                     
     3214                   ;----------------------------------------------------------------------
     3215 00000532 504a0301         ldiu      *+fp(1),ar2           ; |405| 
     3216 00000533 0aea017e         mpyi      382,ar2               ; |405| 
     3217 00000534 08700000-        ldp       @CL252,DP
     3218 00000535 507900fb         ldiu      251,rs                ; |405| 
     3219 00000536 022a0100-        addi      @CL252,ar2            ; |405| Unsigned
     3220 00000537 507a0006         ldiu      6,re                  ; |405| 
     3221 00000538 08700000-        ldp       @CL217,DP
     3222 00000539 507b0000         ldiu      0,rc                  ; |405| 
     3223 0000053a 502000dc-        ldiu      @CL217,r0             ; |405| 
     3224 0000053b 40630000         ldfu      1.0000000000e+00,f3   ; |405| 
     3225 0000053c 40620000         ldfu      1.0000000000e+00,f2   ; |405| 
     3226 0000053d 70000000         callu     r0                    ; far call to _VAR_Initialize   ; |405| 
     3227                                                           ; |405| Far Call Occurs
     3228                           .line   350
     3229                   ;----------------------------------------------------------------------
     3230                   ; 406 | sprintf(COR[i].mass_unit.name, "COR%i Mass Flow Unit", i+1);           
     3231                   ;----------------------------------------------------------------------
     3232 0000053e 50600001         ldiu      1,r0                  ; |406| 
     3233 0000053f 02400301         addi      *+fp(1),r0            ; |406| 
     3234 00000540 08700000-        ldp       @CL254,DP
     3235 00000541 0f200000         push      r0                    ; |406| 
     3236 00000542 50210102-        ldiu      @CL254,r1             ; |406| 
     3237 00000543 0f210000         push      r1                    ; |406| 
     3238 00000544 504a0301         ldiu      *+fp(1),ar2           ; |406| 
     3239 00000545 08700000-        ldp       @CL253,DP
     3240 00000546 0aea017e         mpyi      382,ar2               ; |406| 
TMS320C3x/4x COFF AssemblerVersion 5.12     Mon Nov 19 13:45:24 2018
Copyright (c) 1987-1999 Texas Instruments Incorporatedasm30.exe -@_6L4.AAB 

F:\WKDIR\CodeComposer\EEA_SA_V613b\BOOT\SOURCE\ASM\main.asm          PAGE   61

     3241 00000547 022a0101-        addi      @CL253,ar2            ; |406| Unsigned
     3242 00000548 08700000-        ldp       @CL16,DP
     3243 00000549 5020000f-        ldiu      @CL16,r0              ; |406| 
     3244 0000054a 70000000         callu     r0                    ; far call to _sprintf  ; |406| 
     3245                                                           ; |406| Far Call Occurs
     3246 0000054b 18740002         subi      2,sp                  ; |406| 
     3247                           .line   351
     3248                   ;----------------------------------------------------------------------
     3249                   ; 407 | COR[i].mass_unit.aux = (i<<16)|(39);                                   
     3250                   ;----------------------------------------------------------------------
     3251 0000054c 50510301         ldiu      *+fp(1),ir0           ; |407| 
     3252 0000054d 08700000-        ldp       @CL255,DP
     3253 0000054e 50000011         ldiu      ir0,r0
     3254 0000054f 0af1017e         mpyi      382,ir0               ; |407| 
     3255 00000550 03e00010         ash       16,r0                 ; |407| 
     3256 00000551 50280103-        ldiu      @CL255,ar0            ; |407| 
     3257 00000552 10600027         or        39,r0                 ; |407| 
     3258 00000553 15404000         sti       r0,*+ar0(ir0)         ; |407| 
     3259                           .line   353
     3260                   ;----------------------------------------------------------------------
     3261                   ; 409 | COR[i].mass_unit.vect2 = (int*)CORIOLIS_INT_CFG;                       
     3262                   ;----------------------------------------------------------------------
     3263 00000554 08700000-        ldp       @CL256,DP
     3264 00000555 50280104-        ldiu      @CL256,ar0            ; |409| 
     3265 00000556 50510301         ldiu      *+fp(1),ir0           ; |409| 
     3266 00000557 08700000-        ldp       @CL251,DP
     3267 00000558 0af1017e         mpyi      382,ir0               ; |409| 
     3268 00000559 502000ff-        ldiu      @CL251,r0             ; |409| 
     3269 0000055a 15404000         sti       r0,*+ar0(ir0)         ; |409| 
     3270                           .line   356
     3271                   ;----------------------------------------------------------------------
     3272                   ; 412 | VAR_Initialize(&COR[i].density_cutoff, c_not_classified, u_generic_none
     3273                   ;     | , 100.0, 1000.0, var_no_alarm|var_no_bound);                           
     3274                   ;----------------------------------------------------------------------
     3275 0000055b 504a0301         ldiu      *+fp(1),ar2           ; |412| 
     3276 0000055c 08700000-        ldp       @CL257,DP
     3277 0000055d 0aea017e         mpyi      382,ar2               ; |412| 
     3278 0000055e 022a0105-        addi      @CL257,ar2            ; |412| Unsigned
     3279 0000055f 08700000-        ldp       @CL217,DP
     3280 00000560 502000dc-        ldiu      @CL217,r0             ; |412| 
     3281 00000561 507900fb         ldiu      251,rs                ; |412| 
     3282 00000562 507a0006         ldiu      6,re                  ; |412| 
     3283 00000563 08700000-        ldp       @CL229,DP
     3284 00000564 507b0000         ldiu      0,rc                  ; |412| 
     3285 00000565 402300e8-        ldfu      @CL229,f3             ; |412| 
     3286 00000566 40626480         ldfu      1.0000000000e+02,f2   ; |412| 
     3287 00000567 70000000         callu     r0                    ; far call to _VAR_Initialize   ; |412| 
     3288                                                           ; |412| Far Call Occurs
     3289                           .line   357
     3290                   ;----------------------------------------------------------------------
     3291                   ; 413 | sprintf(COR[i].density_cutoff.name, "COR%i Density Cutoff", i+1);      
     3292                   ;----------------------------------------------------------------------
     3293 00000568 08700000-        ldp       @CL259,DP
     3294 00000569 50600001         ldiu      1,r0                  ; |413| 
TMS320C3x/4x COFF AssemblerVersion 5.12     Mon Nov 19 13:45:24 2018
Copyright (c) 1987-1999 Texas Instruments Incorporatedasm30.exe -@_6L4.AAB 

F:\WKDIR\CodeComposer\EEA_SA_V613b\BOOT\SOURCE\ASM\main.asm          PAGE   62

     3295 0000056a 02400301         addi      *+fp(1),r0            ; |413| 
     3296 0000056b 0f200000         push      r0                    ; |413| 
     3297 0000056c 50210107-        ldiu      @CL259,r1             ; |413| 
     3298 0000056d 0f210000         push      r1                    ; |413| 
     3299 0000056e 08700000-        ldp       @CL258,DP
     3300 0000056f 504a0301         ldiu      *+fp(1),ar2           ; |413| 
     3301 00000570 0aea017e         mpyi      382,ar2               ; |413| 
     3302 00000571 022a0106-        addi      @CL258,ar2            ; |413| Unsigned
     3303 00000572 08700000-        ldp       @CL16,DP
     3304 00000573 5020000f-        ldiu      @CL16,r0              ; |413| 
     3305 00000574 70000000         callu     r0                    ; far call to _sprintf  ; |413| 
     3306                                                           ; |413| Far Call Occurs
     3307 00000575 18740002         subi      2,sp                  ; |413| 
     3308                           .line   358
     3309                   ;----------------------------------------------------------------------
     3310                   ; 414 | COR[i].density_cutoff.aux = (i<<16)|(149);                             
     3311                   ;----------------------------------------------------------------------
     3312 00000576 08700000-        ldp       @CL260,DP
     3313 00000577 50400301         ldiu      *+fp(1),r0            ; |414| 
     3314 00000578 50110000         ldiu      r0,ir0                ; |414| 
     3315 00000579 50280108-        ldiu      @CL260,ar0            ; |414| 
     3316 0000057a 0af1017e         mpyi      382,ir0               ; |414| 
     3317 0000057b 03e00010         ash       16,r0                 ; |414| 
     3318 0000057c 10600095         or        149,r0                ; |414| 
     3319 0000057d 15404000         sti       r0,*+ar0(ir0)         ; |414| 
     3320                           .line   359
     3321                   ;----------------------------------------------------------------------
     3322                   ; 415 | VAR_Update(&COR[i].density_cutoff, 0.0, 0, 0);                         
     3323                   ;----------------------------------------------------------------------
     3324 0000057e 08700000-        ldp       @CL67,DP
     3325 0000057f 504a0301         ldiu      *+fp(1),ar2           ; |415| 
     3326 00000580 50200042-        ldiu      @CL67,r0              ; |415| 
     3327 00000581 08700000-        ldp       @CL257,DP
     3328 00000582 0aea017e         mpyi      382,ar2               ; |415| 
     3329 00000583 022a0105-        addi      @CL257,ar2            ; |415| Unsigned
     3330 00000584 08700000-        ldp       @CL79+0,DP
     3331 00000585 4022004e-        ldfu      @CL79+0,f2            ; |415| 40b float hi half
     3332 00000586 08700000-        ldp       @CL79+1,DP
     3333 00000587 507b0000         ldiu      0,rc                  ; |415| 
     3334 00000588 5022004f-        ldiu      @CL79+1,r2            ; |415| 40b float lo half
     3335 00000589 50630000         ldiu      0,r3                  ; |415| 
     3336 0000058a 70000000         callu     r0                    ; far call to _VAR_Update       ; |415| 
     3337                                                           ; |415| Far Call Occurs
     3338                           .line   360
     3339                   ;----------------------------------------------------------------------
     3340                   ; 416 | COR[i].density_cutoff.vect2 = (int*)CORIOLIS_CFG;                      
     3341                   ;----------------------------------------------------------------------
     3342 0000058b 08700000-        ldp       @CL261,DP
     3343 0000058c 50510301         ldiu      *+fp(1),ir0           ; |416| 
     3344 0000058d 50280109-        ldiu      @CL261,ar0            ; |416| 
     3345 0000058e 08700000-        ldp       @CL222,DP
     3346 0000058f 0af1017e         mpyi      382,ir0               ; |416| 
     3347 00000590 502000e1-        ldiu      @CL222,r0             ; |416| 
     3348 00000591 15404000         sti       r0,*+ar0(ir0)         ; |416| 
TMS320C3x/4x COFF AssemblerVersion 5.12     Mon Nov 19 13:45:24 2018
Copyright (c) 1987-1999 Texas Instruments Incorporatedasm30.exe -@_6L4.AAB 

F:\WKDIR\CodeComposer\EEA_SA_V613b\BOOT\SOURCE\ASM\main.asm          PAGE   63

     3349                           .line   362
     3350                   ;----------------------------------------------------------------------
     3351                   ; 418 | COR[i].u_density                                = u_mpv_kg_cm;         
     3352                   ;----------------------------------------------------------------------
     3353 00000592 50510301         ldiu      *+fp(1),ir0           ; |418| 
     3354 00000593 08700000-        ldp       @CL262,DP
     3355 00000594 0af1017e         mpyi      382,ir0               ; |418| 
     3356 00000595 5028010a-        ldiu      @CL262,ar0            ; |418| 
     3357 00000596 5060005c         ldiu      92,r0                 ; |418| 
     3358 00000597 15404000         sti       r0,*+ar0(ir0)         ; |418| 
     3359                           .line   363
     3360                   ;----------------------------------------------------------------------
     3361                   ; 419 | COR[i].density_corrected                = API_error_num;               
     3362                   ;----------------------------------------------------------------------
     3363 00000598 08700000-        ldp       @CL263,DP
     3364 00000599 50510301         ldiu      *+fp(1),ir0           ; |419| 
     3365 0000059a 5028010b-        ldiu      @CL263,ar0            ; |419| 
     3366 0000059b 08700000-        ldp       @CL264,DP
     3367 0000059c 0af1017e         mpyi      382,ir0               ; |419| 
     3368 0000059d 4020010c-        ldfu      @CL264,f0             ; |419| 
     3369 0000059e 14404000         stf       f0,*+ar0(ir0)         ; |419| 
     3370                           .line   364
     3371                   ;----------------------------------------------------------------------
     3372                   ; 420 | COR[i].density_PDI_corrected    = 0;                                   
     3373                   ;----------------------------------------------------------------------
     3374 0000059f 50510301         ldiu      *+fp(1),ir0           ; |420| 
     3375 000005a0 08700000-        ldp       @CL265,DP
     3376 000005a1 0af1017e         mpyi      382,ir0               ; |420| 
     3377 000005a2 5028010d-        ldiu      @CL265,ar0            ; |420| 
     3378 000005a3 40608000         ldfu      0.0000000000e+00,f0   ; |420| 
     3379 000005a4 14404000         stf       f0,*+ar0(ir0)         ; |420| 
     3380                           .line   365
     3381                   ;----------------------------------------------------------------------
     3382                   ; 421 | COR[i].u_density_corrected              = u_mpv_deg_API_60F;           
     3383                   ;----------------------------------------------------------------------
     3384 000005a5 50510301         ldiu      *+fp(1),ir0           ; |421| 
     3385 000005a6 08700000-        ldp       @CL266,DP
     3386 000005a7 0af1017e         mpyi      382,ir0               ; |421| 
     3387 000005a8 5028010e-        ldiu      @CL266,ar0            ; |421| 
     3388 000005a9 50600069         ldiu      105,r0                ; |421| 
     3389 000005aa 15404000         sti       r0,*+ar0(ir0)         ; |421| 
     3390                           .line   366
     3391                   ;----------------------------------------------------------------------
     3392                   ; 422 | COR[i].u_P                                              = u_p_psi;     
     3393                   ;----------------------------------------------------------------------
     3394 000005ab 50510301         ldiu      *+fp(1),ir0           ; |422| 
     3395 000005ac 08700000-        ldp       @CL267,DP
     3396 000005ad 0af1017e         mpyi      382,ir0               ; |422| 
     3397 000005ae 5028010f-        ldiu      @CL267,ar0            ; |422| 
     3398 000005af 50600006         ldiu      6,r0                  ; |422| 
     3399 000005b0 15404000         sti       r0,*+ar0(ir0)         ; |422| 
     3400                           .line   367
     3401                   ;----------------------------------------------------------------------
     3402                   ; 423 | COR[i].P                                                = 0;           
TMS320C3x/4x COFF AssemblerVersion 5.12     Mon Nov 19 13:45:24 2018
Copyright (c) 1987-1999 Texas Instruments Incorporatedasm30.exe -@_6L4.AAB 

F:\WKDIR\CodeComposer\EEA_SA_V613b\BOOT\SOURCE\ASM\main.asm          PAGE   64

     3403                   ;----------------------------------------------------------------------
     3404 000005b1 50510301         ldiu      *+fp(1),ir0           ; |423| 
     3405 000005b2 08700000-        ldp       @CL268,DP
     3406 000005b3 0af1017e         mpyi      382,ir0               ; |423| 
     3407 000005b4 50280110-        ldiu      @CL268,ar0            ; |423| 
     3408 000005b5 40608000         ldfu      0.0000000000e+00,f0   ; |423| 
     3409 000005b6 14404000         stf       f0,*+ar0(ir0)         ; |423| 
     3410                           .line   368
     3411                   ;----------------------------------------------------------------------
     3412                   ; 424 | COR[i].T                                                = 0;           
     3413                   ;----------------------------------------------------------------------
     3414 000005b7 50510301         ldiu      *+fp(1),ir0           ; |424| 
     3415 000005b8 08700000-        ldp       @CL269,DP
     3416 000005b9 0af1017e         mpyi      382,ir0               ; |424| 
     3417 000005ba 50280111-        ldiu      @CL269,ar0            ; |424| 
     3418 000005bb 40608000         ldfu      0.0000000000e+00,f0   ; |424| 
     3419 000005bc 14404000         stf       f0,*+ar0(ir0)         ; |424| 
     3420                           .line   369
     3421                   ;----------------------------------------------------------------------
     3422                   ; 425 | COR[i].u_T                                              = u_temp_F;    
     3423                   ;----------------------------------------------------------------------
     3424 000005bd 50510301         ldiu      *+fp(1),ir0           ; |425| 
     3425 000005be 08700000-        ldp       @CL270,DP
     3426 000005bf 0af1017e         mpyi      382,ir0               ; |425| 
     3427 000005c0 50280112-        ldiu      @CL270,ar0            ; |425| 
     3428 000005c1 50600021         ldiu      33,r0                 ; |425| 
     3429 000005c2 15404000         sti       r0,*+ar0(ir0)         ; |425| 
     3430                           .line   370
     3431                   ;----------------------------------------------------------------------
     3432                   ; 426 | COR[i].vfr                                              = 0;           
     3433                   ;----------------------------------------------------------------------
     3434 000005c3 50510301         ldiu      *+fp(1),ir0           ; |426| 
     3435 000005c4 08700000-        ldp       @CL271,DP
     3436 000005c5 0af1017e         mpyi      382,ir0               ; |426| 
     3437 000005c6 50280113-        ldiu      @CL271,ar0            ; |426| 
     3438 000005c7 40608000         ldfu      0.0000000000e+00,f0   ; |426| 
     3439 000005c8 14404000         stf       f0,*+ar0(ir0)         ; |426| 
     3440                           .line   371
     3441                   ;----------------------------------------------------------------------
     3442                   ; 427 | COR[i].visc                                     = 0;                   
     3443                   ;----------------------------------------------------------------------
     3444 000005c9 50510301         ldiu      *+fp(1),ir0           ; |427| 
     3445 000005ca 08700000-        ldp       @CL272,DP
     3446 000005cb 0af1017e         mpyi      382,ir0               ; |427| 
     3447 000005cc 50280114-        ldiu      @CL272,ar0            ; |427| 
     3448 000005cd 40608000         ldfu      0.0000000000e+00,f0   ; |427| 
     3449 000005ce 14404000         stf       f0,*+ar0(ir0)         ; |427| 
     3450                           .line   372
     3451                   ;----------------------------------------------------------------------
     3452                   ; 428 | COR[i].press                                    = 0;                   
     3453                   ;----------------------------------------------------------------------
     3454 000005cf 50510301         ldiu      *+fp(1),ir0           ; |428| 
     3455 000005d0 08700000-        ldp       @CL273,DP
     3456 000005d1 0af1017e         mpyi      382,ir0               ; |428| 
TMS320C3x/4x COFF AssemblerVersion 5.12     Mon Nov 19 13:45:24 2018
Copyright (c) 1987-1999 Texas Instruments Incorporatedasm30.exe -@_6L4.AAB 

F:\WKDIR\CodeComposer\EEA_SA_V613b\BOOT\SOURCE\ASM\main.asm          PAGE   65

     3457 000005d2 50280115-        ldiu      @CL273,ar0            ; |428| 
     3458 000005d3 40608000         ldfu      0.0000000000e+00,f0   ; |428| 
     3459 000005d4 14404000         stf       f0,*+ar0(ir0)         ; |428| 
     3460                           .line   373
     3461                   ;----------------------------------------------------------------------
     3462                   ; 429 | COR[i].mass_total                               = 0;                   
     3463                   ;----------------------------------------------------------------------
     3464 000005d5 08700000-        ldp       @CL274,DP
     3465 000005d6 50510301         ldiu      *+fp(1),ir0           ; |429| 
     3466 000005d7 50280116-        ldiu      @CL274,ar0            ; |429| 
     3467 000005d8 0af1017e         mpyi      382,ir0               ; |429| 
     3468 000005d9 40608000         ldfu      0.0000000000e+00,f0   ; |429| 
     3469 000005da 14404000         stf       f0,*+ar0(ir0)         ; |429| 
     3470                           .line   374
     3471                   ;----------------------------------------------------------------------
     3472                   ; 430 | COR[i].volume_total                     = 0;                           
     3473                   ;----------------------------------------------------------------------
     3474 000005db 08700000-        ldp       @CL275,DP
     3475 000005dc 50510301         ldiu      *+fp(1),ir0           ; |430| 
     3476 000005dd 0af1017e         mpyi      382,ir0               ; |430| 
     3477 000005de 50280117-        ldiu      @CL275,ar0            ; |430| 
     3478 000005df 40608000         ldfu      0.0000000000e+00,f0   ; |430| 
     3479 000005e0 14404000         stf       f0,*+ar0(ir0)         ; |430| 
     3480                           .line   375
     3481                   ;----------------------------------------------------------------------
     3482                   ; 431 | COR[i].mass_inv                                 = 0;                   
     3483                   ;----------------------------------------------------------------------
     3484 000005e1 50510301         ldiu      *+fp(1),ir0           ; |431| 
     3485 000005e2 08700000-        ldp       @CL276,DP
     3486 000005e3 0af1017e         mpyi      382,ir0               ; |431| 
     3487 000005e4 50280118-        ldiu      @CL276,ar0            ; |431| 
     3488 000005e5 40608000         ldfu      0.0000000000e+00,f0   ; |431| 
     3489 000005e6 14404000         stf       f0,*+ar0(ir0)         ; |431| 
     3490                           .line   376
     3491                   ;----------------------------------------------------------------------
     3492                   ; 432 | COR[i].volume_inv                               = 0;                   
     3493                   ;----------------------------------------------------------------------
     3494 000005e7 50510301         ldiu      *+fp(1),ir0           ; |432| 
     3495 000005e8 08700000-        ldp       @CL277,DP
     3496 000005e9 0af1017e         mpyi      382,ir0               ; |432| 
     3497 000005ea 50280119-        ldiu      @CL277,ar0            ; |432| 
     3498 000005eb 40608000         ldfu      0.0000000000e+00,f0   ; |432| 
     3499 000005ec 14404000         stf       f0,*+ar0(ir0)         ; |432| 
     3500                           .line   377
     3501                   ;----------------------------------------------------------------------
     3502                   ; 433 | COR[i].raw_tube_freq                    = 0;                           
     3503                   ;----------------------------------------------------------------------
     3504 000005ed 08700000-        ldp       @CL278,DP
     3505 000005ee 50510301         ldiu      *+fp(1),ir0           ; |433| 
     3506 000005ef 5028011a-        ldiu      @CL278,ar0            ; |433| 
     3507 000005f0 0af1017e         mpyi      382,ir0               ; |433| 
     3508 000005f1 40608000         ldfu      0.0000000000e+00,f0   ; |433| 
     3509 000005f2 14404000         stf       f0,*+ar0(ir0)         ; |433| 
     3510                           .line   378
TMS320C3x/4x COFF AssemblerVersion 5.12     Mon Nov 19 13:45:24 2018
Copyright (c) 1987-1999 Texas Instruments Incorporatedasm30.exe -@_6L4.AAB 

F:\WKDIR\CodeComposer\EEA_SA_V613b\BOOT\SOURCE\ASM\main.asm          PAGE   66

     3511                   ;----------------------------------------------------------------------
     3512                   ; 434 | COR[i].left_pickup_value                = 0;                           
     3513                   ;----------------------------------------------------------------------
     3514 000005f3 50510301         ldiu      *+fp(1),ir0           ; |434| 
     3515 000005f4 08700000-        ldp       @CL279,DP
     3516 000005f5 0af1017e         mpyi      382,ir0               ; |434| 
     3517 000005f6 5028011b-        ldiu      @CL279,ar0            ; |434| 
     3518 000005f7 40608000         ldfu      0.0000000000e+00,f0   ; |434| 
     3519 000005f8 14404000         stf       f0,*+ar0(ir0)         ; |434| 
     3520                           .line   379
     3521                   ;----------------------------------------------------------------------
     3522                   ; 435 | COR[i].right_pickup_value               = 0;                           
     3523                   ;----------------------------------------------------------------------
     3524 000005f9 08700000-        ldp       @CL280,DP
     3525 000005fa 50510301         ldiu      *+fp(1),ir0           ; |435| 
     3526 000005fb 5028011c-        ldiu      @CL280,ar0            ; |435| 
     3527 000005fc 0af1017e         mpyi      382,ir0               ; |435| 
     3528 000005fd 40608000         ldfu      0.0000000000e+00,f0   ; |435| 
     3529 000005fe 14404000         stf       f0,*+ar0(ir0)         ; |435| 
     3530                           .line   380
     3531                   ;----------------------------------------------------------------------
     3532                   ; 436 | COR[i].drive_gain                               = 0;                   
     3533                   ;----------------------------------------------------------------------
     3534 000005ff 08700000-        ldp       @CL281,DP
     3535 00000600 5028011d-        ldiu      @CL281,ar0            ; |436| 
     3536 00000601 50510301         ldiu      *+fp(1),ir0           ; |436| 
     3537 00000602 0af1017e         mpyi      382,ir0               ; |436| 
     3538 00000603 40608000         ldfu      0.0000000000e+00,f0   ; |436| 
     3539 00000604 14404000         stf       f0,*+ar0(ir0)         ; |436| 
     3540                           .line   381
     3541                   ;----------------------------------------------------------------------
     3542                   ; 437 | COR[i].u_v                                              = u_generic_unk
     3543                   ;     | nown;                                                                  
     3544                   ;----------------------------------------------------------------------
     3545 00000605 08700000-        ldp       @CL282,DP
     3546 00000606 50510301         ldiu      *+fp(1),ir0           ; |437| 
     3547 00000607 5028011e-        ldiu      @CL282,ar0            ; |437| 
     3548 00000608 0af1017e         mpyi      382,ir0               ; |437| 
     3549 00000609 506000fc         ldiu      252,r0                ; |437| 
     3550 0000060a 15404000         sti       r0,*+ar0(ir0)         ; |437| 
     3551                           .line   382
     3552                   ;----------------------------------------------------------------------
     3553                   ; 438 | COR[i].u_vfr                                    = u_generic_unknown;   
     3554                   ;----------------------------------------------------------------------
     3555 0000060b 08700000-        ldp       @CL283,DP
     3556 0000060c 50510301         ldiu      *+fp(1),ir0           ; |438| 
     3557 0000060d 0af1017e         mpyi      382,ir0               ; |438| 
     3558 0000060e 5028011f-        ldiu      @CL283,ar0            ; |438| 
     3559 0000060f 15404000         sti       r0,*+ar0(ir0)         ; |438| 
     3560                           .line   383
     3561                   ;----------------------------------------------------------------------
     3562                   ; 439 | COR[i].u_visc                                   = u_generic_unknown;   
     3563                   ;----------------------------------------------------------------------
     3564 00000610 50510301         ldiu      *+fp(1),ir0           ; |439| 
TMS320C3x/4x COFF AssemblerVersion 5.12     Mon Nov 19 13:45:24 2018
Copyright (c) 1987-1999 Texas Instruments Incorporatedasm30.exe -@_6L4.AAB 

F:\WKDIR\CodeComposer\EEA_SA_V613b\BOOT\SOURCE\ASM\main.asm          PAGE   67

     3565 00000611 08700000-        ldp       @CL284,DP
     3566 00000612 0af1017e         mpyi      382,ir0               ; |439| 
     3567 00000613 50280120-        ldiu      @CL284,ar0            ; |439| 
     3568 00000614 15404000         sti       r0,*+ar0(ir0)         ; |439| 
     3569                           .line   384
     3570                   ;----------------------------------------------------------------------
     3571                   ; 440 | COR[i].u_m                                              = u_generic_unk
     3572                   ;     | nown;                                                                  
     3573                   ;----------------------------------------------------------------------
     3574 00000615 50510301         ldiu      *+fp(1),ir0           ; |440| 
     3575 00000616 08700000-        ldp       @CL285,DP
     3576 00000617 0af1017e         mpyi      382,ir0               ; |440| 
     3577 00000618 50280121-        ldiu      @CL285,ar0            ; |440| 
     3578 00000619 15404000         sti       r0,*+ar0(ir0)         ; |440| 
     3579                           .line   385
     3580                   ;----------------------------------------------------------------------
     3581                   ; 441 | COR[i].u_mfr                                    = u_generic_unknown;   
     3582                   ;----------------------------------------------------------------------
     3583 0000061a 50510301         ldiu      *+fp(1),ir0           ; |441| 
     3584 0000061b 08700000-        ldp       @CL286,DP
     3585 0000061c 0af1017e         mpyi      382,ir0               ; |441| 
     3586 0000061d 50280122-        ldiu      @CL286,ar0            ; |441| 
     3587 0000061e 15404000         sti       r0,*+ar0(ir0)         ; |441| 
     3588                           .line   386
     3589                   ;----------------------------------------------------------------------
     3590                   ; 442 | COR[i].Z.val                                    = 0;                   
     3591                   ;----------------------------------------------------------------------
     3592 0000061f 08700000-        ldp       @CL287,DP
     3593 00000620 50510301         ldiu      *+fp(1),ir0           ; |442| 
     3594 00000621 50280123-        ldiu      @CL287,ar0            ; |442| 
     3595 00000622 0af1017e         mpyi      382,ir0               ; |442| 
     3596 00000623 50600000         ldiu      0,r0                  ; |442| 
     3597 00000624 15404000         sti       r0,*+ar0(ir0)         ; |442| 
     3598                           .line   300
     3599 00000625 50600001         ldiu      1,r0                  ; |356| 
     3600 00000626 02400301         addi      *+fp(1),r0            ; |356| 
     3601 00000627 15400301         sti       r0,*+fp(1)            ; |356| 
     3602 00000628 04e00005         cmpi      5,r0                  ; |356| 
     3603 00000629 6a07fdaf         blt       L31                   ; |356| 
     3604                   ;*      Branch Occurs to L31            ; |356| 
     3605 0000062a          L34:        
     3606                           .line   389
     3607                   ;----------------------------------------------------------------------
     3608                   ; 445 | COR[0].Z.vect  = (int*)CORIOLIS_ZERO1;                                 
     3609                   ;----------------------------------------------------------------------
     3610 0000062a 08700000-        ldp       @CL288,DP
     3611 0000062b 50280124-        ldiu      @CL288,ar0            ; |445| 
     3612 0000062c 08700000-        ldp       @CL289,DP
     3613 0000062d 50200125-        ldiu      @CL289,r0             ; |445| 
     3614 0000062e 1540c000         sti       r0,*ar0               ; |445| 
     3615                           .line   390
     3616                   ;----------------------------------------------------------------------
     3617                   ; 446 | COR[1].Z.vect  = (int*)CORIOLIS_ZERO2;                                 
     3618                   ;----------------------------------------------------------------------
TMS320C3x/4x COFF AssemblerVersion 5.12     Mon Nov 19 13:45:24 2018
Copyright (c) 1987-1999 Texas Instruments Incorporatedasm30.exe -@_6L4.AAB 

F:\WKDIR\CodeComposer\EEA_SA_V613b\BOOT\SOURCE\ASM\main.asm          PAGE   68

     3619 0000062f 08700000-        ldp       @CL290,DP
     3620 00000630 50280126-        ldiu      @CL290,ar0            ; |446| 
     3621 00000631 08700000-        ldp       @CL291,DP
     3622 00000632 50200127-        ldiu      @CL291,r0             ; |446| 
     3623 00000633 1540c000         sti       r0,*ar0               ; |446| 
     3624                           .line   391
     3625                   ;----------------------------------------------------------------------
     3626                   ; 447 | COR[2].Z.vect  = (int*)CORIOLIS_ZERO3;                                 
     3627                   ;----------------------------------------------------------------------
     3628 00000634 08700000-        ldp       @CL292,DP
     3629 00000635 50280128-        ldiu      @CL292,ar0            ; |447| 
     3630 00000636 08700000-        ldp       @CL293,DP
     3631 00000637 50200129-        ldiu      @CL293,r0             ; |447| 
     3632 00000638 1540c000         sti       r0,*ar0               ; |447| 
     3633                           .line   392
     3634                   ;----------------------------------------------------------------------
     3635                   ; 448 | COR[3].Z.vect  = (int*)CORIOLIS_ZERO4;                                 
     3636                   ;----------------------------------------------------------------------
     3637 00000639 08700000-        ldp       @CL294,DP
     3638 0000063a 5028012a-        ldiu      @CL294,ar0            ; |448| 
     3639 0000063b 08700000-        ldp       @CL295,DP
     3640 0000063c 5020012b-        ldiu      @CL295,r0             ; |448| 
     3641 0000063d 1540c000         sti       r0,*ar0               ; |448| 
     3642                           .line   393
     3643                   ;----------------------------------------------------------------------
     3644                   ; 449 | COR[0].Z.vect2 = NULL_PTR;                              /*define .vect2
     3645                   ;     |  for ZERO coil or sys freeze RS*/                                      
     3646                   ;----------------------------------------------------------------------
     3647 0000063e 08700000-        ldp       @CL296,DP
     3648 0000063f 5028012c-        ldiu      @CL296,ar0            ; |449| 
     3649 00000640 50600000         ldiu      0,r0                  ; |449| 
     3650 00000641 1540c000         sti       r0,*ar0               ; |449| 
     3651                           .line   394
     3652                   ;----------------------------------------------------------------------
     3653                   ; 450 | COR[1].Z.vect2 = NULL_PTR;                                             
     3654                   ;----------------------------------------------------------------------
     3655 00000642 08700000-        ldp       @CL297,DP
     3656 00000643 5028012d-        ldiu      @CL297,ar0            ; |450| 
     3657 00000644 1540c000         sti       r0,*ar0               ; |450| 
     3658                           .line   395
     3659                   ;----------------------------------------------------------------------
     3660                   ; 451 | COR[2].Z.vect2 = NULL_PTR;                                             
     3661                   ;----------------------------------------------------------------------
     3662 00000645 08700000-        ldp       @CL298,DP
     3663 00000646 5028012e-        ldiu      @CL298,ar0            ; |451| 
     3664 00000647 1540c000         sti       r0,*ar0               ; |451| 
     3665                           .line   396
     3666                   ;----------------------------------------------------------------------
     3667                   ; 452 | COR[3].Z.vect2 = NULL_PTR;                                             
     3668                   ;----------------------------------------------------------------------
     3669 00000648 08700000-        ldp       @CL299,DP
     3670 00000649 5028012f-        ldiu      @CL299,ar0            ; |452| 
     3671 0000064a 1540c000         sti       r0,*ar0               ; |452| 
     3672                           .line   398
TMS320C3x/4x COFF AssemblerVersion 5.12     Mon Nov 19 13:45:24 2018
Copyright (c) 1987-1999 Texas Instruments Incorporatedasm30.exe -@_6L4.AAB 

F:\WKDIR\CodeComposer\EEA_SA_V613b\BOOT\SOURCE\ASM\main.asm          PAGE   69

     3673                   ;----------------------------------------------------------------------
     3674                   ; 454 | for (i=0;i<FCMAX;i++)                                                  
     3675                   ;----------------------------------------------------------------------
     3676 0000064b 15400301         sti       r0,*+fp(1)            ; |454| 
     3677 0000064c 04e00003         cmpi      3,r0                  ; |454| 
     3678 0000064d 6a0a0182         bge       L51                   ; |454| 
     3679                   ;*      Branch Occurs to L51            ; |454| 
     3680 0000064e          L35:        
     3681                           .line   401
     3682                   ;----------------------------------------------------------------------
     3683                   ; 457 | PRESS[i].u_DP           = u_p_in_H2O_60F;                              
     3684                   ;----------------------------------------------------------------------
     3685 0000064e 50510301         ldiu      *+fp(1),ir0           ; |457| 
     3686 0000064f 08700000-        ldp       @CL300,DP
     3687 00000650 0af10009         mpyi      9,ir0                 ; |457| 
     3688 00000651 50280130-        ldiu      @CL300,ar0            ; |457| 
     3689 00000652 50600091         ldiu      145,r0                ; |457| 
     3690 00000653 15404000         sti       r0,*+ar0(ir0)         ; |457| 
     3691                           .line   402
     3692                   ;----------------------------------------------------------------------
     3693                   ; 458 | PRESS[i].u_SP           = u_p_psi;                                     
     3694                   ;----------------------------------------------------------------------
     3695 00000654 08700000-        ldp       @CL301,DP
     3696 00000655 50510301         ldiu      *+fp(1),ir0           ; |458| 
     3697 00000656 50280131-        ldiu      @CL301,ar0            ; |458| 
     3698 00000657 0af10009         mpyi      9,ir0                 ; |458| 
     3699 00000658 50600006         ldiu      6,r0                  ; |458| 
     3700 00000659 15404000         sti       r0,*+ar0(ir0)         ; |458| 
     3701                           .line   403
     3702                   ;----------------------------------------------------------------------
     3703                   ; 459 | PRESS[i].u_PT           = u_temp_F;                                    
     3704                   ;----------------------------------------------------------------------
     3705 0000065a 08700000-        ldp       @CL302,DP
     3706 0000065b 50510301         ldiu      *+fp(1),ir0           ; |459| 
     3707 0000065c 50280132-        ldiu      @CL302,ar0            ; |459| 
     3708 0000065d 0af10009         mpyi      9,ir0                 ; |459| 
     3709 0000065e 50600021         ldiu      33,r0                 ; |459| 
     3710 0000065f 15404000         sti       r0,*+ar0(ir0)         ; |459| 
     3711                           .line   404
     3712                   ;----------------------------------------------------------------------
     3713                   ; 460 | PRESS[i].p_delta        = 0;                                           
     3714                   ;----------------------------------------------------------------------
     3715 00000660 08700000-        ldp       @CL303,DP
     3716 00000661 50510301         ldiu      *+fp(1),ir0           ; |460| 
     3717 00000662 50280133-        ldiu      @CL303,ar0            ; |460| 
     3718 00000663 0af10009         mpyi      9,ir0                 ; |460| 
     3719 00000664 40608000         ldfu      0.0000000000e+00,f0   ; |460| 
     3720 00000665 14404000         stf       f0,*+ar0(ir0)         ; |460| 
     3721                           .line   405
     3722                   ;----------------------------------------------------------------------
     3723                   ; 461 | PRESS[i].p_static       = 0;                                           
     3724                   ;----------------------------------------------------------------------
     3725 00000666 08700000-        ldp       @CL304,DP
     3726 00000667 50510301         ldiu      *+fp(1),ir0           ; |461| 
TMS320C3x/4x COFF AssemblerVersion 5.12     Mon Nov 19 13:45:24 2018
Copyright (c) 1987-1999 Texas Instruments Incorporatedasm30.exe -@_6L4.AAB 

F:\WKDIR\CodeComposer\EEA_SA_V613b\BOOT\SOURCE\ASM\main.asm          PAGE   70

     3727 00000668 50280134-        ldiu      @CL304,ar0            ; |461| 
     3728 00000669 0af10009         mpyi      9,ir0                 ; |461| 
     3729 0000066a 40608000         ldfu      0.0000000000e+00,f0   ; |461| 
     3730 0000066b 14404000         stf       f0,*+ar0(ir0)         ; |461| 
     3731                           .line   406
     3732                   ;----------------------------------------------------------------------
     3733                   ; 462 | PRESS[i].T                      = 0;                                   
     3734                   ;----------------------------------------------------------------------
     3735 0000066c 50510301         ldiu      *+fp(1),ir0           ; |462| 
     3736 0000066d 08700000-        ldp       @CL305,DP
     3737 0000066e 0af10009         mpyi      9,ir0                 ; |462| 
     3738 0000066f 50280135-        ldiu      @CL305,ar0            ; |462| 
     3739 00000670 40608000         ldfu      0.0000000000e+00,f0   ; |462| 
     3740 00000671 14404000         stf       f0,*+ar0(ir0)         ; |462| 
     3741                           .line   407
     3742                   ;----------------------------------------------------------------------
     3743                   ; 463 | PRESS[i].diag0          = 0;                                           
     3744                   ;----------------------------------------------------------------------
     3745 00000672 08700000-        ldp       @CL306,DP
     3746 00000673 50510301         ldiu      *+fp(1),ir0           ; |463| 
     3747 00000674 50280136-        ldiu      @CL306,ar0            ; |463| 
     3748 00000675 0af10009         mpyi      9,ir0                 ; |463| 
     3749 00000676 40608000         ldfu      0.0000000000e+00,f0   ; |463| 
     3750 00000677 14404000         stf       f0,*+ar0(ir0)         ; |463| 
     3751                           .line   408
     3752                   ;----------------------------------------------------------------------
     3753                   ; 464 | PRESS[i].diag1          = 0;                                           
     3754                   ;----------------------------------------------------------------------
     3755 00000678 08700000-        ldp       @CL307,DP
     3756 00000679 50280137-        ldiu      @CL307,ar0            ; |464| 
     3757 0000067a 50510301         ldiu      *+fp(1),ir0           ; |464| 
     3758 0000067b 0af10009         mpyi      9,ir0                 ; |464| 
     3759 0000067c 40608000         ldfu      0.0000000000e+00,f0   ; |464| 
     3760 0000067d 14404000         stf       f0,*+ar0(ir0)         ; |464| 
     3761                           .line   409
     3762                   ;----------------------------------------------------------------------
     3763                   ; 465 | PRESS[i].diag2          = 0;                                           
     3764                   ;----------------------------------------------------------------------
     3765 0000067e 50510301         ldiu      *+fp(1),ir0           ; |465| 
     3766 0000067f 08700000-        ldp       @CL308,DP
     3767 00000680 0af10009         mpyi      9,ir0                 ; |465| 
     3768 00000681 50280138-        ldiu      @CL308,ar0            ; |465| 
     3769 00000682 40608000         ldfu      0.0000000000e+00,f0   ; |465| 
     3770 00000683 14404000         stf       f0,*+ar0(ir0)         ; |465| 
     3771                           .line   412
     3772                   ;----------------------------------------------------------------------
     3773                   ; 468 | TMPTRANS[i].T                                   = 0;                   
     3774                   ;----------------------------------------------------------------------
     3775 00000684 50510301         ldiu      *+fp(1),ir0           ; |468| 
     3776 00000685 08700000-        ldp       @CL309,DP
     3777 00000686 0af10006         mpyi      6,ir0                 ; |468| 
     3778 00000687 50280139-        ldiu      @CL309,ar0            ; |468| 
     3779 00000688 40608000         ldfu      0.0000000000e+00,f0   ; |468| 
     3780 00000689 14404000         stf       f0,*+ar0(ir0)         ; |468| 
TMS320C3x/4x COFF AssemblerVersion 5.12     Mon Nov 19 13:45:24 2018
Copyright (c) 1987-1999 Texas Instruments Incorporatedasm30.exe -@_6L4.AAB 

F:\WKDIR\CodeComposer\EEA_SA_V613b\BOOT\SOURCE\ASM\main.asm          PAGE   71

     3781                           .line   413
     3782                   ;----------------------------------------------------------------------
     3783                   ; 469 | TMPTRANS[i].etc0                                = 0;                   
     3784                   ;----------------------------------------------------------------------
     3785 0000068a 08700000-        ldp       @CL310,DP
     3786 0000068b 50510301         ldiu      *+fp(1),ir0           ; |469| 
     3787 0000068c 5028013a-        ldiu      @CL310,ar0            ; |469| 
     3788 0000068d 0af10006         mpyi      6,ir0                 ; |469| 
     3789 0000068e 40608000         ldfu      0.0000000000e+00,f0   ; |469| 
     3790 0000068f 14404000         stf       f0,*+ar0(ir0)         ; |469| 
     3791                           .line   414
     3792                   ;----------------------------------------------------------------------
     3793                   ; 470 | TMPTRANS[i].etc1                                = 0;                   
     3794                   ;----------------------------------------------------------------------
     3795 00000690 50510301         ldiu      *+fp(1),ir0           ; |470| 
     3796 00000691 08700000-        ldp       @CL311,DP
     3797 00000692 0af10006         mpyi      6,ir0                 ; |470| 
     3798 00000693 5028013b-        ldiu      @CL311,ar0            ; |470| 
     3799 00000694 40608000         ldfu      0.0000000000e+00,f0   ; |470| 
     3800 00000695 14404000         stf       f0,*+ar0(ir0)         ; |470| 
     3801                           .line   415
     3802                   ;----------------------------------------------------------------------
     3803                   ; 471 | TMPTRANS[i].etc2                                = 0;                   
     3804                   ;----------------------------------------------------------------------
     3805 00000696 08700000-        ldp       @CL312,DP
     3806 00000697 50510301         ldiu      *+fp(1),ir0           ; |471| 
     3807 00000698 5028013c-        ldiu      @CL312,ar0            ; |471| 
     3808 00000699 0af10006         mpyi      6,ir0                 ; |471| 
     3809 0000069a 40608000         ldfu      0.0000000000e+00,f0   ; |471| 
     3810 0000069b 14404000         stf       f0,*+ar0(ir0)         ; |471| 
     3811                           .line   416
     3812                   ;----------------------------------------------------------------------
     3813                   ; 472 | TMPTRANS[i].etc3                                = 0;                   
     3814                   ;----------------------------------------------------------------------
     3815 0000069c 08700000-        ldp       @CL313,DP
     3816 0000069d 50510301         ldiu      *+fp(1),ir0           ; |472| 
     3817 0000069e 5028013d-        ldiu      @CL313,ar0            ; |472| 
     3818 0000069f 0af10006         mpyi      6,ir0                 ; |472| 
     3819 000006a0 40608000         ldfu      0.0000000000e+00,f0   ; |472| 
     3820 000006a1 14404000         stf       f0,*+ar0(ir0)         ; |472| 
     3821                           .line   417
     3822                   ;----------------------------------------------------------------------
     3823                   ; 473 | TMPTRANS[i].etc4                                = 0;                   
     3824                   ;----------------------------------------------------------------------
     3825 000006a2 50510301         ldiu      *+fp(1),ir0           ; |473| 
     3826 000006a3 08700000-        ldp       @CL314,DP
     3827 000006a4 0af10006         mpyi      6,ir0                 ; |473| 
     3828 000006a5 5028013e-        ldiu      @CL314,ar0            ; |473| 
     3829 000006a6 40608000         ldfu      0.0000000000e+00,f0   ; |473| 
     3830 000006a7 14404000         stf       f0,*+ar0(ir0)         ; |473| 
     3831                           .line   418
     3832                   ;----------------------------------------------------------------------
     3833                   ; 474 | FC[i].Dadj                                              = 0;    /* Adju
     3834                   ;     | sted Density */                                                        
TMS320C3x/4x COFF AssemblerVersion 5.12     Mon Nov 19 13:45:24 2018
Copyright (c) 1987-1999 Texas Instruments Incorporatedasm30.exe -@_6L4.AAB 

F:\WKDIR\CodeComposer\EEA_SA_V613b\BOOT\SOURCE\ASM\main.asm          PAGE   72

     3835                   ;----------------------------------------------------------------------
     3836 000006a8 50510301         ldiu      *+fp(1),ir0           ; |474| 
     3837 000006a9 08700000-        ldp       @CL315,DP
     3838 000006aa 0af10538         mpyi      1336,ir0              ; |474| 
     3839 000006ab 5028013f-        ldiu      @CL315,ar0            ; |474| 
     3840 000006ac 40608000         ldfu      0.0000000000e+00,f0   ; |474| 
     3841 000006ad 14404000         stf       f0,*+ar0(ir0)         ; |474| 
     3842                           .line   419
     3843                   ;----------------------------------------------------------------------
     3844                   ; 475 | FC[i].PULSE_STAT                                = 0;                   
     3845                   ;----------------------------------------------------------------------
     3846 000006ae 50510301         ldiu      *+fp(1),ir0           ; |475| 
     3847 000006af 08700000-        ldp       @CL316,DP
     3848 000006b0 0af10538         mpyi      1336,ir0              ; |475| 
     3849 000006b1 50280140-        ldiu      @CL316,ar0            ; |475| 
     3850 000006b2 50600000         ldiu      0,r0                  ; |475| 
     3851 000006b3 15404000         sti       r0,*+ar0(ir0)         ; |475| 
     3852                           .line   420
     3853                   ;----------------------------------------------------------------------
     3854                   ; 476 | FC[i].net_watercut                              = 0.0;                 
     3855                   ;----------------------------------------------------------------------
     3856 000006b4 50510301         ldiu      *+fp(1),ir0           ; |476| 
     3857 000006b5 08700000-        ldp       @CL317,DP
     3858 000006b6 0af10538         mpyi      1336,ir0              ; |476| 
     3859 000006b7 50280141-        ldiu      @CL317,ar0            ; |476| 
     3860 000006b8 40608000         ldfu      0.0000000000e+00,f0   ; |476| 
     3861 000006b9 14404000         stf       f0,*+ar0(ir0)         ; |476| 
     3862                           .line   421
     3863                   ;----------------------------------------------------------------------
     3864                   ; 477 | FC[i].net_watercut_mass                 = 0.0;                         
     3865                   ;----------------------------------------------------------------------
     3866 000006ba 08700000-        ldp       @CL318,DP
     3867 000006bb 50510301         ldiu      *+fp(1),ir0           ; |477| 
     3868 000006bc 50280142-        ldiu      @CL318,ar0            ; |477| 
     3869 000006bd 0af10538         mpyi      1336,ir0              ; |477| 
     3870 000006be 40608000         ldfu      0.0000000000e+00,f0   ; |477| 
     3871 000006bf 14404000         stf       f0,*+ar0(ir0)         ; |477| 
     3872                           .line   422
     3873                   ;----------------------------------------------------------------------
     3874                   ; 478 | FC[i].density_PDI_corrected     = API_error_num;                       
     3875                   ;----------------------------------------------------------------------
     3876 000006c0 08700000-        ldp       @CL319,DP
     3877 000006c1 50510301         ldiu      *+fp(1),ir0           ; |478| 
     3878 000006c2 50280143-        ldiu      @CL319,ar0            ; |478| 
     3879 000006c3 08700000-        ldp       @CL264,DP
     3880 000006c4 0af10538         mpyi      1336,ir0              ; |478| 
     3881 000006c5 4020010c-        ldfu      @CL264,f0             ; |478| 
     3882 000006c6 14404000         stf       f0,*+ar0(ir0)         ; |478| 
     3883                           .line   424
     3884                   ;----------------------------------------------------------------------
     3885                   ; 480 | VAR_NaN(&FC[i].PULSE_FREQ);                                            
     3886                   ;----------------------------------------------------------------------
     3887 000006c7 504a0301         ldiu      *+fp(1),ar2           ; |480| 
     3888 000006c8 08700000-        ldp       @CL320,DP
TMS320C3x/4x COFF AssemblerVersion 5.12     Mon Nov 19 13:45:24 2018
Copyright (c) 1987-1999 Texas Instruments Incorporatedasm30.exe -@_6L4.AAB 

F:\WKDIR\CodeComposer\EEA_SA_V613b\BOOT\SOURCE\ASM\main.asm          PAGE   73

     3889 000006c9 0aea0538         mpyi      1336,ar2              ; |480| 
     3890 000006ca 022a0144-        addi      @CL320,ar2            ; |480| Unsigned
     3891 000006cb 08700000-        ldp       @CL126,DP
     3892 000006cc 50200080-        ldiu      @CL126,r0             ; |480| 
     3893 000006cd 70000000         callu     r0                    ; far call to _VAR_NaN  ; |480| 
     3894                                                           ; |480| Far Call Occurs
     3895                           .line   426
     3896                   ;----------------------------------------------------------------------
     3897                   ; 482 | if (FC[i].USE_PDI_SALINITY || !FC[i].MAN_SALINITY)                     
     3898                   ;----------------------------------------------------------------------
     3899 000006ce 08700000-        ldp       @CL321,DP
     3900 000006cf 50510301         ldiu      *+fp(1),ir0           ; |482| 
     3901 000006d0 50280145-        ldiu      @CL321,ar0            ; |482| 
     3902 000006d1 0af10538         mpyi      1336,ir0              ; |482| 
     3903 000006d2 50404000         ldiu      *+ar0(ir0),r0         ; |482| 
     3904 000006d3 04e00000         cmpi      0,r0                  ; |482| 
     3905 000006d4 6a060007         bne       L37                   ; |482| 
     3906                   ;*      Branch Occurs to L37            ; |482| 
     3907 000006d5 50510301         ldiu      *+fp(1),ir0           ; |482| 
     3908 000006d6 08700000-        ldp       @CL322,DP
     3909 000006d7 0af10538         mpyi      1336,ir0              ; |482| 
     3910 000006d8 50280146-        ldiu      @CL322,ar0            ; |482| 
     3911 000006d9 50404000         ldiu      *+ar0(ir0),r0         ; |482| 
     3912 000006da 04e00000         cmpi      0,r0                  ; |482| 
     3913 000006db 6a060007         bne       L38                   ; |482| 
     3914                   ;*      Branch Occurs to L38            ; |482| 
     3915 000006dc          L37:        
     3916                           .line   427
     3917                   ;----------------------------------------------------------------------
     3918                   ; 483 | VAR_NaN(&FC[i].salinity);                                              
     3919                   ;----------------------------------------------------------------------
     3920 000006dc 504a0301         ldiu      *+fp(1),ar2           ; |483| 
     3921 000006dd 08700000-        ldp       @CL323,DP
     3922 000006de 0aea0538         mpyi      1336,ar2              ; |483| 
     3923 000006df 022a0147-        addi      @CL323,ar2            ; |483| Unsigned
     3924 000006e0 08700000-        ldp       @CL126,DP
     3925 000006e1 50200080-        ldiu      @CL126,r0             ; |483| 
     3926 000006e2 70000000         callu     r0                    ; far call to _VAR_NaN  ; |483| 
     3927                                                           ; |483| Far Call Occurs
     3928 000006e3          L38:        
     3929                           .line   429
     3930                   ;----------------------------------------------------------------------
     3931                   ; 485 | if (USE_PDI_WATERCUT.val || CALC_WC_DENSITY.val || !FC[i].MAN_WATERCUT)
     3932                   ;     |                                                                        
     3933                   ;----------------------------------------------------------------------
     3934 000006e3 08700000-        ldp       @CL324,DP
     3935 000006e4 50280148-        ldiu      @CL324,ar0            ; |485| 
     3936 000006e5 5040c000         ldiu      *ar0,r0               ; |485| 
     3937 000006e6 04e00000         cmpi      0,r0                  ; |485| 
     3938 000006e7 6a06000c         bne       L41                   ; |485| 
     3939                   ;*      Branch Occurs to L41            ; |485| 
     3940 000006e8 08700000-        ldp       @CL325,DP
     3941 000006e9 50280149-        ldiu      @CL325,ar0            ; |485| 
     3942 000006ea 5040c000         ldiu      *ar0,r0               ; |485| 
TMS320C3x/4x COFF AssemblerVersion 5.12     Mon Nov 19 13:45:24 2018
Copyright (c) 1987-1999 Texas Instruments Incorporatedasm30.exe -@_6L4.AAB 

F:\WKDIR\CodeComposer\EEA_SA_V613b\BOOT\SOURCE\ASM\main.asm          PAGE   74

     3943 000006eb 04e00000         cmpi      0,r0                  ; |485| 
     3944 000006ec 6a060007         bne       L41                   ; |485| 
     3945                   ;*      Branch Occurs to L41            ; |485| 
     3946 000006ed 50510301         ldiu      *+fp(1),ir0           ; |485| 
     3947 000006ee 08700000-        ldp       @CL326,DP
     3948 000006ef 0af10538         mpyi      1336,ir0              ; |485| 
     3949 000006f0 5028014a-        ldiu      @CL326,ar0            ; |485| 
     3950 000006f1 50404000         ldiu      *+ar0(ir0),r0         ; |485| 
     3951 000006f2 04e00000         cmpi      0,r0                  ; |485| 
     3952 000006f3 6a060007         bne       L42                   ; |485| 
     3953                   ;*      Branch Occurs to L42            ; |485| 
     3954 000006f4          L41:        
     3955                           .line   430
     3956                   ;----------------------------------------------------------------------
     3957                   ; 486 | VAR_NaN(&FC[i].watercut);                                              
     3958                   ;----------------------------------------------------------------------
     3959 000006f4 504a0301         ldiu      *+fp(1),ar2           ; |486| 
     3960 000006f5 08700000-        ldp       @CL327,DP
     3961 000006f6 0aea0538         mpyi      1336,ar2              ; |486| 
     3962 000006f7 022a014b-        addi      @CL327,ar2            ; |486| Unsigned
     3963 000006f8 08700000-        ldp       @CL126,DP
     3964 000006f9 50200080-        ldiu      @CL126,r0             ; |486| 
     3965 000006fa 70000000         callu     r0                    ; far call to _VAR_NaN  ; |486| 
     3966                                                           ; |486| Far Call Occurs
     3967 000006fb          L42:        
     3968                           .line   432
     3969                   ;----------------------------------------------------------------------
     3970                   ; 488 | if (!FC[i].MAN_PRESSURE)                                               
     3971                   ;----------------------------------------------------------------------
     3972 000006fb 50510301         ldiu      *+fp(1),ir0           ; |488| 
     3973 000006fc 08700000-        ldp       @CL328,DP
     3974 000006fd 0af10538         mpyi      1336,ir0              ; |488| 
     3975 000006fe 5028014c-        ldiu      @CL328,ar0            ; |488| 
     3976 000006ff 50404000         ldiu      *+ar0(ir0),r0         ; |488| 
     3977 00000700 04e00000         cmpi      0,r0                  ; |488| 
     3978 00000701 6a060007         bne       L44                   ; |488| 
     3979                   ;*      Branch Occurs to L44            ; |488| 
     3980                           .line   433
     3981                   ;----------------------------------------------------------------------
     3982                   ; 489 | VAR_NaN(&FC[i].pressure);                                              
     3983                   ;----------------------------------------------------------------------
     3984 00000702 504a0301         ldiu      *+fp(1),ar2           ; |489| 
     3985 00000703 08700000-        ldp       @CL329,DP
     3986 00000704 0aea0538         mpyi      1336,ar2              ; |489| 
     3987 00000705 022a014d-        addi      @CL329,ar2            ; |489| Unsigned
     3988 00000706 08700000-        ldp       @CL126,DP
     3989 00000707 50200080-        ldiu      @CL126,r0             ; |489| 
     3990 00000708 70000000         callu     r0                    ; far call to _VAR_NaN  ; |489| 
     3991                                                           ; |489| Far Call Occurs
     3992 00000709          L44:        
     3993                           .line   435
     3994                   ;----------------------------------------------------------------------
     3995                   ; 491 | if (FC[i].USE_PDI_TEMP || !FC[i].MAN_TEMP)                             
     3996                   ;----------------------------------------------------------------------
TMS320C3x/4x COFF AssemblerVersion 5.12     Mon Nov 19 13:45:24 2018
Copyright (c) 1987-1999 Texas Instruments Incorporatedasm30.exe -@_6L4.AAB 

F:\WKDIR\CodeComposer\EEA_SA_V613b\BOOT\SOURCE\ASM\main.asm          PAGE   75

     3997 00000709 50510301         ldiu      *+fp(1),ir0           ; |491| 
     3998 0000070a 08700000-        ldp       @CL330,DP
     3999 0000070b 0af10538         mpyi      1336,ir0              ; |491| 
     4000 0000070c 5028014e-        ldiu      @CL330,ar0            ; |491| 
     4001 0000070d 50404000         ldiu      *+ar0(ir0),r0         ; |491| 
     4002 0000070e 04e00000         cmpi      0,r0                  ; |491| 
     4003 0000070f 6a060007         bne       L46                   ; |491| 
     4004                   ;*      Branch Occurs to L46            ; |491| 
     4005 00000710 50510301         ldiu      *+fp(1),ir0           ; |491| 
     4006 00000711 08700000-        ldp       @CL331,DP
     4007 00000712 0af10538         mpyi      1336,ir0              ; |491| 
     4008 00000713 5028014f-        ldiu      @CL331,ar0            ; |491| 
     4009 00000714 50404000         ldiu      *+ar0(ir0),r0         ; |491| 
     4010 00000715 04e00000         cmpi      0,r0                  ; |491| 
     4011 00000716 6a060007         bne       L47                   ; |491| 
     4012                   ;*      Branch Occurs to L47            ; |491| 
     4013 00000717          L46:        
     4014                           .line   436
     4015                   ;----------------------------------------------------------------------
     4016                   ; 492 | VAR_NaN(&FC[i].T);                                                     
     4017                   ;----------------------------------------------------------------------
     4018 00000717 504a0301         ldiu      *+fp(1),ar2           ; |492| 
     4019 00000718 08700000-        ldp       @CL332,DP
     4020 00000719 0aea0538         mpyi      1336,ar2              ; |492| 
     4021 0000071a 022a0150-        addi      @CL332,ar2            ; |492| Unsigned
     4022 0000071b 08700000-        ldp       @CL126,DP
     4023 0000071c 50200080-        ldiu      @CL126,r0             ; |492| 
     4024 0000071d 70000000         callu     r0                    ; far call to _VAR_NaN  ; |492| 
     4025                                                           ; |492| Far Call Occurs
     4026 0000071e          L47:        
     4027                           .line   438
     4028                   ;----------------------------------------------------------------------
     4029                   ; 494 | if (!FC[i].MAN_FLOW)                                                   
     4030                   ;----------------------------------------------------------------------
     4031 0000071e 50510301         ldiu      *+fp(1),ir0           ; |494| 
     4032 0000071f 08700000-        ldp       @CL333,DP
     4033 00000720 0af10538         mpyi      1336,ir0              ; |494| 
     4034 00000721 50280151-        ldiu      @CL333,ar0            ; |494| 
     4035 00000722 50404000         ldiu      *+ar0(ir0),r0         ; |494| 
     4036 00000723 04e00000         cmpi      0,r0                  ; |494| 
     4037 00000724 6a060007         bne       L49                   ; |494| 
     4038                   ;*      Branch Occurs to L49            ; |494| 
     4039                           .line   439
     4040                   ;----------------------------------------------------------------------
     4041                   ; 495 | VAR_NaN(&FC[i].FLOW_TOTAL);                                            
     4042                   ;----------------------------------------------------------------------
     4043 00000725 504a0301         ldiu      *+fp(1),ar2           ; |495| 
     4044 00000726 08700000-        ldp       @CL334,DP
     4045 00000727 0aea0538         mpyi      1336,ar2              ; |495| 
     4046 00000728 022a0152-        addi      @CL334,ar2            ; |495| Unsigned
     4047 00000729 08700000-        ldp       @CL126,DP
     4048 0000072a 50200080-        ldiu      @CL126,r0             ; |495| 
     4049 0000072b 70000000         callu     r0                    ; far call to _VAR_NaN  ; |495| 
     4050                                                           ; |495| Far Call Occurs
TMS320C3x/4x COFF AssemblerVersion 5.12     Mon Nov 19 13:45:24 2018
Copyright (c) 1987-1999 Texas Instruments Incorporatedasm30.exe -@_6L4.AAB 

F:\WKDIR\CodeComposer\EEA_SA_V613b\BOOT\SOURCE\ASM\main.asm          PAGE   76

     4051 0000072c          L49:        
     4052                           .line   441
     4053                   ;----------------------------------------------------------------------
     4054                   ; 497 | VAR_NaN(&FC[i].FLOW_WATER);                                            
     4055                   ;----------------------------------------------------------------------
     4056 0000072c 504a0301         ldiu      *+fp(1),ar2           ; |497| 
     4057 0000072d 08700000-        ldp       @CL335,DP
     4058 0000072e 0aea0538         mpyi      1336,ar2              ; |497| 
     4059 0000072f 022a0153-        addi      @CL335,ar2            ; |497| Unsigned
     4060 00000730 08700000-        ldp       @CL126,DP
     4061 00000731 50200080-        ldiu      @CL126,r0             ; |497| 
     4062 00000732 70000000         callu     r0                    ; far call to _VAR_NaN  ; |497| 
     4063                                                           ; |497| Far Call Occurs
     4064                           .line   442
     4065                   ;----------------------------------------------------------------------
     4066                   ; 498 | VAR_NaN(&FC[i].FLOW_OIL);                                              
     4067                   ;----------------------------------------------------------------------
     4068 00000733 08700000-        ldp       @CL336,DP
     4069 00000734 504a0301         ldiu      *+fp(1),ar2           ; |498| 
     4070 00000735 0aea0538         mpyi      1336,ar2              ; |498| 
     4071 00000736 022a0154-        addi      @CL336,ar2            ; |498| Unsigned
     4072 00000737 08700000-        ldp       @CL126,DP
     4073 00000738 50200080-        ldiu      @CL126,r0             ; |498| 
     4074 00000739 70000000         callu     r0                    ; far call to _VAR_NaN  ; |498| 
     4075                                                           ; |498| Far Call Occurs
     4076                           .line   443
     4077                   ;----------------------------------------------------------------------
     4078                   ; 499 | VAR_NaN(&FC[i].GROSS_TOTAL);                                           
     4079                   ;----------------------------------------------------------------------
     4080 0000073a 08700000-        ldp       @CL337,DP
     4081 0000073b 504a0301         ldiu      *+fp(1),ar2           ; |499| 
     4082 0000073c 0aea0538         mpyi      1336,ar2              ; |499| 
     4083 0000073d 022a0155-        addi      @CL337,ar2            ; |499| Unsigned
     4084 0000073e 08700000-        ldp       @CL126,DP
     4085 0000073f 50200080-        ldiu      @CL126,r0             ; |499| 
     4086 00000740 70000000         callu     r0                    ; far call to _VAR_NaN  ; |499| 
     4087                                                           ; |499| Far Call Occurs
     4088                           .line   444
     4089                   ;----------------------------------------------------------------------
     4090                   ; 500 | VAR_NaN(&FC[i].GROSS_WATER);                                           
     4091                   ;----------------------------------------------------------------------
     4092 00000741 504a0301         ldiu      *+fp(1),ar2           ; |500| 
     4093 00000742 08700000-        ldp       @CL338,DP
     4094 00000743 0aea0538         mpyi      1336,ar2              ; |500| 
     4095 00000744 022a0156-        addi      @CL338,ar2            ; |500| Unsigned
     4096 00000745 08700000-        ldp       @CL126,DP
     4097 00000746 50200080-        ldiu      @CL126,r0             ; |500| 
     4098 00000747 70000000         callu     r0                    ; far call to _VAR_NaN  ; |500| 
     4099                                                           ; |500| Far Call Occurs
     4100                           .line   445
     4101                   ;----------------------------------------------------------------------
     4102                   ; 501 | VAR_NaN(&FC[i].GROSS_OIL);                                             
     4103                   ;----------------------------------------------------------------------
     4104 00000748 08700000-        ldp       @CL339,DP
TMS320C3x/4x COFF AssemblerVersion 5.12     Mon Nov 19 13:45:24 2018
Copyright (c) 1987-1999 Texas Instruments Incorporatedasm30.exe -@_6L4.AAB 

F:\WKDIR\CodeComposer\EEA_SA_V613b\BOOT\SOURCE\ASM\main.asm          PAGE   77

     4105 00000749 504a0301         ldiu      *+fp(1),ar2           ; |501| 
     4106 0000074a 0aea0538         mpyi      1336,ar2              ; |501| 
     4107 0000074b 022a0157-        addi      @CL339,ar2            ; |501| Unsigned
     4108 0000074c 08700000-        ldp       @CL126,DP
     4109 0000074d 50200080-        ldiu      @CL126,r0             ; |501| 
     4110 0000074e 70000000         callu     r0                    ; far call to _VAR_NaN  ; |501| 
     4111                                                           ; |501| Far Call Occurs
     4112                           .line   446
     4113                   ;----------------------------------------------------------------------
     4114                   ; 502 | VAR_NaN(&FC[i].NET_FLOW_TOTAL);                                        
     4115                   ;----------------------------------------------------------------------
     4116 0000074f 504a0301         ldiu      *+fp(1),ar2           ; |502| 
     4117 00000750 08700000-        ldp       @CL340,DP
     4118 00000751 0aea0538         mpyi      1336,ar2              ; |502| 
     4119 00000752 022a0158-        addi      @CL340,ar2            ; |502| Unsigned
     4120 00000753 08700000-        ldp       @CL126,DP
     4121 00000754 50200080-        ldiu      @CL126,r0             ; |502| 
     4122 00000755 70000000         callu     r0                    ; far call to _VAR_NaN  ; |502| 
     4123                                                           ; |502| Far Call Occurs
     4124                           .line   447
     4125                   ;----------------------------------------------------------------------
     4126                   ; 503 | VAR_NaN(&FC[i].NET_FLOW_WATER);                                        
     4127                   ;----------------------------------------------------------------------
     4128 00000756 08700000-        ldp       @CL341,DP
     4129 00000757 504a0301         ldiu      *+fp(1),ar2           ; |503| 
     4130 00000758 0aea0538         mpyi      1336,ar2              ; |503| 
     4131 00000759 022a0159-        addi      @CL341,ar2            ; |503| Unsigned
     4132 0000075a 08700000-        ldp       @CL126,DP
     4133 0000075b 50200080-        ldiu      @CL126,r0             ; |503| 
     4134 0000075c 70000000         callu     r0                    ; far call to _VAR_NaN  ; |503| 
     4135                                                           ; |503| Far Call Occurs
     4136                           .line   448
     4137                   ;----------------------------------------------------------------------
     4138                   ; 504 | VAR_NaN(&FC[i].NET_FLOW_OIL);                                          
     4139                   ;----------------------------------------------------------------------
     4140 0000075d 08700000-        ldp       @CL342,DP
     4141 0000075e 504a0301         ldiu      *+fp(1),ar2           ; |504| 
     4142 0000075f 0aea0538         mpyi      1336,ar2              ; |504| 
     4143 00000760 022a015a-        addi      @CL342,ar2            ; |504| Unsigned
     4144 00000761 08700000-        ldp       @CL126,DP
     4145 00000762 50200080-        ldiu      @CL126,r0             ; |504| 
     4146 00000763 70000000         callu     r0                    ; far call to _VAR_NaN  ; |504| 
     4147                                                           ; |504| Far Call Occurs
     4148                           .line   449
     4149                   ;----------------------------------------------------------------------
     4150                   ; 505 | VAR_NaN(&FC[i].NET_TOTAL);                                             
     4151                   ;----------------------------------------------------------------------
     4152 00000764 504a0301         ldiu      *+fp(1),ar2           ; |505| 
     4153 00000765 08700000-        ldp       @CL343,DP
     4154 00000766 0aea0538         mpyi      1336,ar2              ; |505| 
     4155 00000767 022a015b-        addi      @CL343,ar2            ; |505| Unsigned
     4156 00000768 08700000-        ldp       @CL126,DP
     4157 00000769 50200080-        ldiu      @CL126,r0             ; |505| 
     4158 0000076a 70000000         callu     r0                    ; far call to _VAR_NaN  ; |505| 
TMS320C3x/4x COFF AssemblerVersion 5.12     Mon Nov 19 13:45:24 2018
Copyright (c) 1987-1999 Texas Instruments Incorporatedasm30.exe -@_6L4.AAB 

F:\WKDIR\CodeComposer\EEA_SA_V613b\BOOT\SOURCE\ASM\main.asm          PAGE   78

     4159                                                           ; |505| Far Call Occurs
     4160                           .line   450
     4161                   ;----------------------------------------------------------------------
     4162                   ; 506 | VAR_NaN(&FC[i].NET_WATER);                                             
     4163                   ;----------------------------------------------------------------------
     4164 0000076b 08700000-        ldp       @CL344,DP
     4165 0000076c 504a0301         ldiu      *+fp(1),ar2           ; |506| 
     4166 0000076d 0aea0538         mpyi      1336,ar2              ; |506| 
     4167 0000076e 022a015c-        addi      @CL344,ar2            ; |506| Unsigned
     4168 0000076f 08700000-        ldp       @CL126,DP
     4169 00000770 50200080-        ldiu      @CL126,r0             ; |506| 
     4170 00000771 70000000         callu     r0                    ; far call to _VAR_NaN  ; |506| 
     4171                                                           ; |506| Far Call Occurs
     4172                           .line   451
     4173                   ;----------------------------------------------------------------------
     4174                   ; 507 | VAR_NaN(&FC[i].NET_OIL);                                               
     4175                   ; 509 | //accumulated whole number component of gross oil                      
     4176                   ;----------------------------------------------------------------------
     4177 00000772 504a0301         ldiu      *+fp(1),ar2           ; |507| 
     4178 00000773 08700000-        ldp       @CL345,DP
     4179 00000774 0aea0538         mpyi      1336,ar2              ; |507| 
     4180 00000775 022a015d-        addi      @CL345,ar2            ; |507| Unsigned
     4181 00000776 08700000-        ldp       @CL126,DP
     4182 00000777 50200080-        ldiu      @CL126,r0             ; |507| 
     4183 00000778 70000000         callu     r0                    ; far call to _VAR_NaN  ; |507| 
     4184                                                           ; |507| Far Call Occurs
     4185                           .line   454
     4186                   ;----------------------------------------------------------------------
     4187                   ; 510 | FC[i].gross_oil_whole_part              = floor(FC[i].GROSS_OIL.calc_va
     4188                   ;     | l);                                                                    
     4189                   ; 512 | //accumulated fractional component of gross oil                        
     4190                   ;----------------------------------------------------------------------
     4191 00000779 50480301         ldiu      *+fp(1),ar0           ; |510| 
     4192 0000077a 08700000-        ldp       @CL347,DP
     4193 0000077b 0ae80538         mpyi      1336,ar0              ; |510| 
     4194 0000077c 0228015f-        addi      @CL347,ar0            ; |510| Unsigned
     4195 0000077d 4040c000         ldfu      *ar0,f0               ; |510| 40b float hi half
     4196 0000077e 08700000-        ldp       @CL348,DP
     4197 0000077f 50400001         ldiu      *+ar0,r0              ; |510| 40b float lo half
     4198 00000780 50210160-        ldiu      @CL348,r1             ; |510| 
     4199 00000781 11020000         rnd       f0,f2                 ; |510| Demote to low precision
     4200 00000782 70000001         callu     r1                    ; far call to _floor    ; |510| 
     4201                                                           ; |510| Far Call Occurs
     4202 00000783 50480301         ldiu      *+fp(1),ar0           ; |510| 
     4203 00000784 506100ff         ldiu      255,r1                ; |510| 
     4204 00000785 08700000-        ldp       @CL346,DP
     4205 00000786 0ae80538         mpyi      1336,ar0              ; |510| 
     4206 00000787 0228015e-        addi      @CL346,ar0            ; |510| Unsigned
     4207 00000788 03000001         andn      r1,f0                 ; |510| Bit mask for F32/F40 conversion
     4208 00000789 1440c000         stf       f0,*ar0               ; |510| Store high half
     4209 0000078a 15400001         sti       r0,*+ar0              ; |510| Store low half
     4210                           .line   457
     4211                   ;----------------------------------------------------------------------
     4212                   ; 513 | FC[i].gross_oil_fract_part              = FC[i].GROSS_OIL.calc_val - fl
TMS320C3x/4x COFF AssemblerVersion 5.12     Mon Nov 19 13:45:24 2018
Copyright (c) 1987-1999 Texas Instruments Incorporatedasm30.exe -@_6L4.AAB 

F:\WKDIR\CodeComposer\EEA_SA_V613b\BOOT\SOURCE\ASM\main.asm          PAGE   79

     4213                   ;     | oor(FC[0].GROSS_OIL.calc_val);                                         
     4214                   ; 515 | //accumulated whole number component of gross water                    
     4215                   ;----------------------------------------------------------------------
     4216 0000078b 08700000-        ldp       @CL347,DP
     4217 0000078c 5028015f-        ldiu      @CL347,ar0            ; |513| 
     4218 0000078d 4040c000         ldfu      *ar0,f0               ; |513| 40b float hi half
     4219 0000078e 50400001         ldiu      *+ar0,r0              ; |513| 40b float lo half
     4220 0000078f 08700000-        ldp       @CL348,DP
     4221 00000790 11020000         rnd       f0,f2                 ; |513| Demote to low precision
     4222 00000791 50210160-        ldiu      @CL348,r1             ; |513| 
     4223 00000792 70000001         callu     r1                    ; far call to _floor    ; |513| 
     4224                                                           ; |513| Far Call Occurs
     4225 00000793 50490301         ldiu      *+fp(1),ar1           ; |513| 
     4226 00000794 506100ff         ldiu      255,r1                ; |513| 
     4227 00000795 0ae90538         mpyi      1336,ar1              ; |513| 
     4228 00000796 08700000-        ldp       @CL347,DP
     4229 00000797 03000001         andn      r1,f0                 ; |513| Bit mask for F32/F40 conversion
     4230 00000798 0229015f-        addi      @CL347,ar1            ; |513| Unsigned
     4231 00000799 50480301         ldiu      *+fp(1),ar0           ; |513| 
     4232 0000079a 4041c100         ldfu      *ar1,f1               ; |513| 40b float hi half
     4233 0000079b 0ae80538         mpyi      1336,ar0              ; |513| 
     4234 0000079c 08700000-        ldp       @CL349,DP
     4235 0000079d 50410101         ldiu      *+ar1,r1              ; |513| 40b float lo half
     4236 0000079e 02280161-        addi      @CL349,ar0            ; |513| Unsigned
     4237 0000079f 19000001         subrf     f1,f0                 ; |513| 
     4238 000007a0 1440c000         stf       f0,*ar0               ; |513| Store high half
     4239 000007a1 15400001         sti       r0,*+ar0              ; |513| Store low half
     4240                           .line   460
     4241                   ;----------------------------------------------------------------------
     4242                   ; 516 | FC[i].gross_water_whole_part    = floor(FC[i].GROSS_WATER.calc_val);
     4243                   ;     |                                                                        
     4244                   ; 518 | //accumulated fractional component of gross water                      
     4245                   ;----------------------------------------------------------------------
     4246 000007a2 50480301         ldiu      *+fp(1),ar0           ; |516| 
     4247 000007a3 08700000-        ldp       @CL351,DP
     4248 000007a4 0ae80538         mpyi      1336,ar0              ; |516| 
     4249 000007a5 02280163-        addi      @CL351,ar0            ; |516| Unsigned
     4250 000007a6 4041c000         ldfu      *ar0,f1               ; |516| 40b float hi half
     4251 000007a7 08700000-        ldp       @CL348,DP
     4252 000007a8 50410001         ldiu      *+ar0,r1              ; |516| 40b float lo half
     4253 000007a9 50200160-        ldiu      @CL348,r0             ; |516| 
     4254 000007aa 11020001         rnd       f1,f2                 ; |516| Demote to low precision
     4255 000007ab 70000000         callu     r0                    ; far call to _floor    ; |516| 
     4256                                                           ; |516| Far Call Occurs
     4257 000007ac 50480301         ldiu      *+fp(1),ar0           ; |516| 
     4258 000007ad 506100ff         ldiu      255,r1                ; |516| 
     4259 000007ae 08700000-        ldp       @CL350,DP
     4260 000007af 0ae80538         mpyi      1336,ar0              ; |516| 
     4261 000007b0 02280162-        addi      @CL350,ar0            ; |516| Unsigned
     4262 000007b1 03000001         andn      r1,f0                 ; |516| Bit mask for F32/F40 conversion
     4263 000007b2 1440c000         stf       f0,*ar0               ; |516| Store high half
     4264 000007b3 15400001         sti       r0,*+ar0              ; |516| Store low half
     4265                           .line   463
     4266                   ;----------------------------------------------------------------------
TMS320C3x/4x COFF AssemblerVersion 5.12     Mon Nov 19 13:45:24 2018
Copyright (c) 1987-1999 Texas Instruments Incorporatedasm30.exe -@_6L4.AAB 

F:\WKDIR\CodeComposer\EEA_SA_V613b\BOOT\SOURCE\ASM\main.asm          PAGE   80

     4267                   ; 519 | FC[i].gross_water_fract_part    = FC[i].GROSS_WATER.calc_val - floor(FC
     4268                   ;     | [0].GROSS_WATER.calc_val);                                             
     4269                   ;----------------------------------------------------------------------
     4270 000007b4 08700000-        ldp       @CL351,DP
     4271 000007b5 50280163-        ldiu      @CL351,ar0            ; |519| 
     4272 000007b6 4040c000         ldfu      *ar0,f0               ; |519| 40b float hi half
     4273 000007b7 08700000-        ldp       @CL348,DP
     4274 000007b8 50400001         ldiu      *+ar0,r0              ; |519| 40b float lo half
     4275 000007b9 50210160-        ldiu      @CL348,r1             ; |519| 
     4276 000007ba 11020000         rnd       f0,f2                 ; |519| Demote to low precision
     4277 000007bb 70000001         callu     r1                    ; far call to _floor    ; |519| 
     4278                                                           ; |519| Far Call Occurs
     4279 000007bc 50490301         ldiu      *+fp(1),ar1           ; |519| 
     4280 000007bd 50080009         ldiu      ar1,ar0               ; |519| 
     4281 000007be 0ae80538         mpyi      1336,ar0              ; |519| 
     4282 000007bf 506100ff         ldiu      255,r1                ; |519| 
     4283 000007c0 0ae90538         mpyi      1336,ar1              ; |519| 
     4284 000007c1 08700000-        ldp       @CL351,DP
     4285 000007c2 02290163-        addi      @CL351,ar1            ; |519| Unsigned
     4286 000007c3 4042c100         ldfu      *ar1,f2               ; |519| 40b float hi half
     4287 000007c4 08700000-        ldp       @CL352,DP
     4288 000007c5 50420101         ldiu      *+ar1,r2              ; |519| 40b float lo half
     4289 000007c6 03000001         andn      r1,f0                 ; |519| Bit mask for F32/F40 conversion
     4290 000007c7 02280164-        addi      @CL352,ar0            ; |519| Unsigned
     4291 000007c8 19000002         subrf     f2,f0                 ; |519| 
     4292 000007c9 1440c000         stf       f0,*ar0               ; |519| Store high half
     4293 000007ca 15400001         sti       r0,*+ar0              ; |519| Store low half
     4294                           .line   398
     4295 000007cb 50600001         ldiu      1,r0                  ; |454| 
     4296 000007cc 02400301         addi      *+fp(1),r0            ; |454| 
     4297 000007cd 15400301         sti       r0,*+fp(1)            ; |454| 
     4298 000007ce 04e00003         cmpi      3,r0                  ; |454| 
     4299 000007cf 6a07fe7e         blt       L35                   ; |454| 
     4300                   ;*      Branch Occurs to L35            ; |454| 
     4301 000007d0          L51:        
     4302                           .line   466
     4303                   ;----------------------------------------------------------------------
     4304                   ; 522 | ALYESKA.WATERCUT                = 0.0;                                 
     4305                   ;----------------------------------------------------------------------
     4306 000007d0 08700000-        ldp       @CL353,DP
     4307 000007d1 50280165-        ldiu      @CL353,ar0            ; |522| 
     4308 000007d2 40608000         ldfu      0.0000000000e+00,f0   ; |522| 
     4309 000007d3 1440c000         stf       f0,*ar0               ; |522| 
     4310                           .line   467
     4311                   ;----------------------------------------------------------------------
     4312                   ; 523 | ALYESKA.FLOW_RATE               = 0.0;                                 
     4313                   ;----------------------------------------------------------------------
     4314 000007d4 08700000-        ldp       @CL354,DP
     4315 000007d5 50280166-        ldiu      @CL354,ar0            ; |523| 
     4316 000007d6 40608000         ldfu      0.0000000000e+00,f0   ; |523| 
     4317 000007d7 1440c000         stf       f0,*ar0               ; |523| 
     4318                           .line   468
     4319                   ;----------------------------------------------------------------------
     4320                   ; 524 | ALYESKA.TEMPERATURE             = 0.0;                                 
TMS320C3x/4x COFF AssemblerVersion 5.12     Mon Nov 19 13:45:24 2018
Copyright (c) 1987-1999 Texas Instruments Incorporatedasm30.exe -@_6L4.AAB 

F:\WKDIR\CodeComposer\EEA_SA_V613b\BOOT\SOURCE\ASM\main.asm          PAGE   81

     4321                   ;----------------------------------------------------------------------
     4322 000007d8 08700000-        ldp       @CL355,DP
     4323 000007d9 50280167-        ldiu      @CL355,ar0            ; |524| 
     4324 000007da 40608000         ldfu      0.0000000000e+00,f0   ; |524| 
     4325 000007db 1440c000         stf       f0,*ar0               ; |524| 
     4326                           .line   469
     4327                   ;----------------------------------------------------------------------
     4328                   ; 525 | ALYESKA.DENSITY                 = 0.0;                                 
     4329                   ;----------------------------------------------------------------------
     4330 000007dc 08700000-        ldp       @CL356,DP
     4331 000007dd 50280168-        ldiu      @CL356,ar0            ; |525| 
     4332 000007de 40608000         ldfu      0.0000000000e+00,f0   ; |525| 
     4333 000007df 1440c000         stf       f0,*ar0               ; |525| 
     4334                           .line   470
     4335                   ;----------------------------------------------------------------------
     4336                   ; 526 | ALYESKA.VISCOSITY               = 0.0;                                 
     4337                   ;----------------------------------------------------------------------
     4338 000007e0 08700000-        ldp       @CL357,DP
     4339 000007e1 50280169-        ldiu      @CL357,ar0            ; |526| 
     4340 000007e2 40608000         ldfu      0.0000000000e+00,f0   ; |526| 
     4341 000007e3 1440c000         stf       f0,*ar0               ; |526| 
     4342                           .line   471
     4343                   ;----------------------------------------------------------------------
     4344                   ; 527 | ALYESKA.iWATERCUTz              = 0;                                   
     4345                   ;----------------------------------------------------------------------
     4346 000007e4 08700000-        ldp       @CL358,DP
     4347 000007e5 5028016a-        ldiu      @CL358,ar0            ; |527| 
     4348 000007e6 50600000         ldiu      0,r0                  ; |527| 
     4349 000007e7 1540c000         sti       r0,*ar0               ; |527| 
     4350                           .line   472
     4351                   ;----------------------------------------------------------------------
     4352                   ; 528 | ALYESKA.iWATERCUT               = 0;                                   
     4353                   ;----------------------------------------------------------------------
     4354 000007e8 08700000-        ldp       @CL359,DP
     4355 000007e9 5028016b-        ldiu      @CL359,ar0            ; |528| 
     4356 000007ea 1540c000         sti       r0,*ar0               ; |528| 
     4357                           .line   473
     4358                   ;----------------------------------------------------------------------
     4359                   ; 529 | ALYESKA.iFLOW_RATE              = 0;                                   
     4360                   ;----------------------------------------------------------------------
     4361 000007eb 08700000-        ldp       @CL360,DP
     4362 000007ec 5028016c-        ldiu      @CL360,ar0            ; |529| 
     4363 000007ed 1540c000         sti       r0,*ar0               ; |529| 
     4364                           .line   474
     4365                   ;----------------------------------------------------------------------
     4366                   ; 530 | ALYESKA.iTEMPERATURE    = 0;                                           
     4367                   ;----------------------------------------------------------------------
     4368 000007ee 08700000-        ldp       @CL361,DP
     4369 000007ef 5028016d-        ldiu      @CL361,ar0            ; |530| 
     4370 000007f0 1540c000         sti       r0,*ar0               ; |530| 
     4371                           .line   475
     4372                   ;----------------------------------------------------------------------
     4373                   ; 531 | ALYESKA.iDENSITY                = 0;                                   
     4374                   ;----------------------------------------------------------------------
TMS320C3x/4x COFF AssemblerVersion 5.12     Mon Nov 19 13:45:24 2018
Copyright (c) 1987-1999 Texas Instruments Incorporatedasm30.exe -@_6L4.AAB 

F:\WKDIR\CodeComposer\EEA_SA_V613b\BOOT\SOURCE\ASM\main.asm          PAGE   82

     4375 000007f1 08700000-        ldp       @CL362,DP
     4376 000007f2 5028016e-        ldiu      @CL362,ar0            ; |531| 
     4377 000007f3 1540c000         sti       r0,*ar0               ; |531| 
     4378                           .line   476
     4379                   ;----------------------------------------------------------------------
     4380                   ; 532 | ALYESKA.iVISCOSITY              = 0;                                   
     4381                   ; 535 | //ALFAT INIT                                                           
     4382                   ;----------------------------------------------------------------------
     4383 000007f4 08700000-        ldp       @CL363,DP
     4384 000007f5 5028016f-        ldiu      @CL363,ar0            ; |532| 
     4385 000007f6 1540c000         sti       r0,*ar0               ; |532| 
     4386                           .line   480
     4387                   ;----------------------------------------------------------------------
     4388                   ; 536 | ALFAT_STATUS_REG = 0x0;                                                
     4389                   ;----------------------------------------------------------------------
     4390 000007f7 08700000-        ldp       @CL364,DP
     4391 000007f8 50280170-        ldiu      @CL364,ar0            ; |536| 
     4392 000007f9 1540c000         sti       r0,*ar0               ; |536| 
     4393                           .line   481
     4394                   ;----------------------------------------------------------------------
     4395                   ; 537 | ALFAT_INIT_ALL = FALSE;                                                
     4396                   ;----------------------------------------------------------------------
     4397 000007fa 08700000-        ldp       @CL365,DP
     4398 000007fb 50280171-        ldiu      @CL365,ar0            ; |537| 
     4399 000007fc 1540c000         sti       r0,*ar0               ; |537| 
     4400                           .line   482
     4401                   ;----------------------------------------------------------------------
     4402                   ; 538 | ALFAT_APPEND_LF = FALSE;                                               
     4403                   ;----------------------------------------------------------------------
     4404 000007fd 08700000-        ldp       @CL366,DP
     4405 000007fe 50280172-        ldiu      @CL366,ar0            ; |538| 
     4406 000007ff 1540c000         sti       r0,*ar0               ; |538| 
     4407                           .line   483
     4408                   ;----------------------------------------------------------------------
     4409                   ; 539 | PORT[5].pvector_main = NULL_PTR;                                       
     4410                   ;----------------------------------------------------------------------
     4411 00000800 08700000-        ldp       @CL367,DP
     4412 00000801 50280173-        ldiu      @CL367,ar0            ; |539| 
     4413 00000802 1540c000         sti       r0,*ar0               ; |539| 
     4414                           .line   485
     4415                   ;----------------------------------------------------------------------
     4416                   ; 541 | for (i=0;i<ALFAT_RX_MAX_SIZE;i++)                                      
     4417                   ;----------------------------------------------------------------------
     4418 00000803 15400301         sti       r0,*+fp(1)            ; |541| 
     4419 00000804 50610000         ldiu      0,r1                  ; |543| 
     4420 00000805 04e00080         cmpi      128,r0                ; |541| 
     4421 00000806 6a0a0009         bge       L53                   ; |541| 
     4422                   ;*      Branch Occurs to L53            ; |541| 
     4423 00000807          L52:        
     4424                           .line   487
     4425                   ;----------------------------------------------------------------------
     4426                   ; 543 | ALFAT_RX[i] = 0;                                                       
     4427                   ;----------------------------------------------------------------------
     4428 00000807 08700000-        ldp       @CL368,DP
TMS320C3x/4x COFF AssemblerVersion 5.12     Mon Nov 19 13:45:24 2018
Copyright (c) 1987-1999 Texas Instruments Incorporatedasm30.exe -@_6L4.AAB 

F:\WKDIR\CodeComposer\EEA_SA_V613b\BOOT\SOURCE\ASM\main.asm          PAGE   83

     4429 00000808 50510301         ldiu      *+fp(1),ir0           ; |543| 
     4430 00000809 50280174-        ldiu      @CL368,ar0            ; |543| 
     4431 0000080a 15414000         sti       r1,*+ar0(ir0)         ; |543| 
     4432                           .line   485
     4433 0000080b 50600001         ldiu      1,r0                  ; |541| 
     4434 0000080c 02400301         addi      *+fp(1),r0            ; |541| 
     4435 0000080d 15400301         sti       r0,*+fp(1)            ; |541| 
     4436 0000080e 04e00080         cmpi      128,r0                ; |541| 
     4437 0000080f 6a07fff7         blt       L52                   ; |541| 
     4438                   ;*      Branch Occurs to L52            ; |541| 
     4439 00000810          L53:        
     4440                           .line   490
     4441                   ;----------------------------------------------------------------------
     4442                   ; 546 | DEMO_Init(&DEMO_ANALYZER_MODE);                                        
     4443                   ;----------------------------------------------------------------------
     4444 00000810 08700000-        ldp       @CL370,DP
     4445 00000811 50200176-        ldiu      @CL370,r0             ; |546| 
     4446 00000812 08700000-        ldp       @CL369,DP
     4447 00000813 502a0175-        ldiu      @CL369,ar2            ; |546| 
     4448 00000814 70000000         callu     r0                    ; far call to _DEMO_Init        ; |546| 
     4449                                                           ; |546| Far Call Occurs
     4450                           .line   491
     4451                                                           ; Begin Epilog Code
     4452 00000815 50410b01         ldiu      *-fp(1),r1
     4453 00000816 504bc300         ldiu      *fp,fp
     4454                                                           ; Unallocate the Frame
     4455 00000817 18740005         subi      5,sp
     4456 00000818 68000001         bu        r1
     4457                   ;*      Branch Occurs to r1 
     4458                           .endfunc        547,000000000h,3
     4459                   
     4460                   
     4461 00000819                  .sect    "initialization"
     4462                   
     4463                           .global _Initialize_Hardware
     4464                           .sym    _Initialize_Hardware,_Initialize_Hardware,32,2,0
     4465                           .func   562
     4466                   ;******************************************************************************
     4467                   ;* FUNCTION NAME: _Initialize_Hardware                                        *
     4468                   ;*                                                                            *
     4469                   ;*   Architecture       : TMS320C33                                           *
     4470                   ;*   Calling Convention : TI Standard Register Parameters                     *
     4471                   ;*   Function Uses Regs : f0,r0,r1,f2,r2,f3,r3,ar0,ar1,ar2,fp,ir0,ir1,sp,st,  *
     4472                   ;*                        rc                                                  *
     4473                   ;*   Regs Saved         :                                                     *
     4474                   ;*   Stack Frame        : Full (w/ debug)                                     *
     4475                   ;*   Total Frame Size   : 2 Call + 0 Parm + 7 Auto + 0 SOE = 9 words          *
     4476                   ;******************************************************************************
     4477 00000819          _Initialize_Hardware:
     4478                           .sym    _i,1,14,1,32
     4479                           .sym    _j,2,14,1,32
     4480                           .sym    _s,3,30,1,32
     4481                           .sym    _d,4,30,1,32
     4482                           .sym    _fw,5,6,1,32
TMS320C3x/4x COFF AssemblerVersion 5.12     Mon Nov 19 13:45:24 2018
Copyright (c) 1987-1999 Texas Instruments Incorporatedasm30.exe -@_6L4.AAB 

F:\WKDIR\CodeComposer\EEA_SA_V613b\BOOT\SOURCE\ASM\main.asm          PAGE   84

     4483                           .sym    _hwu,6,4,1,32
     4484                           .sym    _hwl,7,4,1,32
     4485                           .line   1
     4486                   ;----------------------------------------------------------------------
     4487                   ; 562 | void Initialize_Hardware(void)                                         
     4488                   ; 564 | unsigned int i,j;       /* counters
     4489                   ;     |          */                                                            
     4490                   ; 565 | unsigned int* s;        /* branch table start
     4491                   ;     |  */                                                                    
     4492                   ; 566 | unsigned int* d;        /* program start address
     4493                   ;     |  */                                                                    
     4494                   ; 567 | float   fw;                     /* firmware version
     4495                   ;     |          */                                                            
     4496                   ; 568 | int             hwu,hwl;        /* hardware upper byte; lower byte
     4497                   ;     |  */                                                                    
     4498                   ;----------------------------------------------------------------------
     4499 00000819 0f2b0000         push      fp
     4500 0000081a 500b0014         ldiu      sp,fp
     4501 0000081b 02740007         addi      7,sp
     4502                           .line   9
     4503                   ;----------------------------------------------------------------------
     4504                   ; 570 | _GIE;                                                                  
     4505                   ;----------------------------------------------------------------------
     4506 0000081c 13fb0001         rpts    1                       
     4507 0000081d 03752000         andn    2000h, ST       
     4508                           .line   10
     4509                   ;----------------------------------------------------------------------
     4510                   ; 571 | DISABLE_WDOG;                                                          
     4511                   ;----------------------------------------------------------------------
     4512 0000081e 0f350000         push    ST                      
     4513 0000081f 03752000         andn    2000h, ST       
     4514 00000820 08700000-        ldp       @CL5,DP
     4515 00000821 50280004-        ldiu      @CL5,ar0              ; |571| 
     4516 00000822 506000f7         ldiu      247,r0                ; |571| 
     4517 00000823 21a0c000         and3      r0,*ar0,r0            ; |571| 
     4518 00000824 1540c000         sti       r0,*ar0               ; |571| 
     4519 00000825 0e350000         pop             ST                      
     4520                           .line   11
     4521                   ;----------------------------------------------------------------------
     4522                   ; 572 | HW_VER  = *XHW_VER & 0xFF;                                             
     4523                   ;----------------------------------------------------------------------
     4524 00000826 08700000-        ldp       @CL372,DP
     4525 00000827 50280178-        ldiu      @CL372,ar0            ; |572| 
     4526 00000828 08700000-        ldp       @CL371,DP
     4527 00000829 506000ff         ldiu      255,r0                ; |572| 
     4528 0000082a 50290177-        ldiu      @CL371,ar1            ; |572| 
     4529 0000082b 21a0c000         and3      r0,*ar0,r0            ; |572| 
     4530 0000082c 1540c100         sti       r0,*ar1               ; |572| 
     4531                           .line   13
     4532                   ;----------------------------------------------------------------------
     4533                   ; 574 | if (HW_VER&0x80)                                                       
     4534                   ;----------------------------------------------------------------------
     4535 0000082d 50280177-        ldiu      @CL371,ar0            ; |574| 
     4536 0000082e 50600080         ldiu      128,r0                ; |574| 
TMS320C3x/4x COFF AssemblerVersion 5.12     Mon Nov 19 13:45:24 2018
Copyright (c) 1987-1999 Texas Instruments Incorporatedasm30.exe -@_6L4.AAB 

F:\WKDIR\CodeComposer\EEA_SA_V613b\BOOT\SOURCE\ASM\main.asm          PAGE   85

     4537 0000082f 27c000c0         tstb3     *ar0,r0               ; |574| 
     4538 00000830 6a050005         beq       L58                   ; |574| 
     4539                   ;*      Branch Occurs to L58            ; |574| 
     4540                           .line   14
     4541                   ;----------------------------------------------------------------------
     4542                   ; 575 | SA = TRUE;                                                             
     4543                   ; 576 | else                                                                   
     4544                   ;----------------------------------------------------------------------
     4545 00000831 08700000-        ldp       @CL373,DP
     4546 00000832 50280179-        ldiu      @CL373,ar0            ; |575| 
     4547 00000833 50600001         ldiu      1,r0                  ; |575| 
     4548 00000834 1540c000         sti       r0,*ar0               ; |575| 
     4549 00000835 6a000004         bu        L59                   ; |561| 
     4550                   ;*      Branch Occurs to L59            ; |561| 
     4551 00000836          L58:        
     4552                           .line   16
     4553                   ;----------------------------------------------------------------------
     4554                   ; 577 | SA = FALSE;                                                            
     4555                   ;----------------------------------------------------------------------
     4556 00000836 08700000-        ldp       @CL373,DP
     4557 00000837 50280179-        ldiu      @CL373,ar0            ; |577| 
     4558 00000838 50600000         ldiu      0,r0                  ; |577| 
     4559 00000839 1540c000         sti       r0,*ar0               ; |577| 
     4560 0000083a          L59:        
     4561                           .line   18
     4562                   ;----------------------------------------------------------------------
     4563                   ; 579 | if (SA)                                                                
     4564                   ;----------------------------------------------------------------------
     4565 0000083a 08700000-        ldp       @CL373,DP
     4566 0000083b 50280179-        ldiu      @CL373,ar0            ; |579| 
     4567 0000083c 5040c000         ldiu      *ar0,r0               ; |579| 
     4568 0000083d 04e00000         cmpi      0,r0                  ; |579| 
     4569 0000083e 6a050011         beq       L63                   ; |579| 
     4570                   ;*      Branch Occurs to L63            ; |579| 
     4571                           .line   20
     4572                   ;----------------------------------------------------------------------
     4573                   ; 581 | if (HW_VER>=0xB7)                                                      
     4574                   ;----------------------------------------------------------------------
     4575 0000083f 08700000-        ldp       @CL371,DP
     4576 00000840 50280177-        ldiu      @CL371,ar0            ; |581| 
     4577 00000841 5040c000         ldiu      *ar0,r0               ; |581| 
     4578 00000842 04e000b7         cmpi      183,r0                ; |581| 
     4579 00000843 6a010006         blo       L62                   ; |581| 
     4580                   ;*      Branch Occurs to L62            ; |581| 
     4581                           .line   21
     4582                   ;----------------------------------------------------------------------
     4583                   ; 582 | SRAM_SCRATCHPAD = SRAM_SCRATCHPAD_EEA;                                 
     4584                   ; 583 | else                                                                   
     4585                   ;----------------------------------------------------------------------
     4586 00000844 08700000-        ldp       @CL374,DP
     4587 00000845 5028017a-        ldiu      @CL374,ar0            ; |582| 
     4588 00000846 08700000-        ldp       @CL375,DP
     4589 00000847 5020017b-        ldiu      @CL375,r0             ; |582| 
     4590 00000848 1540c000         sti       r0,*ar0               ; |582| 
TMS320C3x/4x COFF AssemblerVersion 5.12     Mon Nov 19 13:45:24 2018
Copyright (c) 1987-1999 Texas Instruments Incorporatedasm30.exe -@_6L4.AAB 

F:\WKDIR\CodeComposer\EEA_SA_V613b\BOOT\SOURCE\ASM\main.asm          PAGE   86

     4591 00000849 6a00000b         bu        L64                   ; |561| 
     4592                   ;*      Branch Occurs to L64            ; |561| 
     4593 0000084a          L62:        
     4594                           .line   23
     4595                   ;----------------------------------------------------------------------
     4596                   ; 584 | SRAM_SCRATCHPAD = SRAM_SCRATCHPAD_SA;                                  
     4597                   ; 586 | else                                                                   
     4598                   ;----------------------------------------------------------------------
     4599 0000084a 08700000-        ldp       @CL374,DP
     4600 0000084b 5028017a-        ldiu      @CL374,ar0            ; |584| 
     4601 0000084c 08700000-        ldp       @CL376,DP
     4602 0000084d 5020017c-        ldiu      @CL376,r0             ; |584| 
     4603 0000084e 1540c000         sti       r0,*ar0               ; |584| 
     4604 0000084f 6a000005         bu        L64                   ; |561| 
     4605                   ;*      Branch Occurs to L64            ; |561| 
     4606 00000850          L63:        
     4607                           .line   26
     4608                   ;----------------------------------------------------------------------
     4609                   ; 587 | SRAM_SCRATCHPAD = SRAM_SCRATCHPAD_EEA;                                 
     4610                   ;----------------------------------------------------------------------
     4611 00000850 08700000-        ldp       @CL374,DP
     4612 00000851 5028017a-        ldiu      @CL374,ar0            ; |587| 
     4613 00000852 08700000-        ldp       @CL375,DP
     4614 00000853 5020017b-        ldiu      @CL375,r0             ; |587| 
     4615 00000854 1540c000         sti       r0,*ar0               ; |587| 
     4616 00000855          L64:        
     4617                           .line   28
     4618                   ;----------------------------------------------------------------------
     4619                   ; 589 | *PBCR  = (PBCR_SWW_RDYandCNT | PBCR_WTCNT_5);   /* ws=5 for 90ns flash,
     4620                   ;     |  or RDY */                                                             
     4621                   ;----------------------------------------------------------------------
     4622 00000855 08700000-        ldp       @CL377,DP
     4623 00000856 5028017d-        ldiu      @CL377,ar0            ; |589| 
     4624 00000857 506000b8         ldiu      184,r0                ; |589| 
     4625 00000858 1540c000         sti       r0,*ar0               ; |589| 
     4626                           .line   29
     4627                   ;----------------------------------------------------------------------
     4628                   ; 590 | DISABLE_BOOTINT;                                                       
     4629                   ;----------------------------------------------------------------------
     4630 00000859 0f350000         push    ST                      
     4631 0000085a 03752000         andn    2000h, ST       
     4632 0000085b 08700000-        ldp       @CL378,DP
     4633 0000085c 5028017e-        ldiu      @CL378,ar0            ; |590| 
     4634 0000085d 50600010         ldiu      16,r0                 ; |590| 
     4635 0000085e 25a0c000         or3       r0,*ar0,r0            ; |590| 
     4636 0000085f 1540c000         sti       r0,*ar0               ; |590| 
     4637 00000860 0e350000         pop             ST                      
     4638                           .line   30
     4639                   ;----------------------------------------------------------------------
     4640                   ; 591 | CLEAR_INT_MASK;                                                        
     4641                   ;----------------------------------------------------------------------
     4642 00000861 08760000         ldi             0h, IE
     4643                           .line   31
     4644                   ;----------------------------------------------------------------------
TMS320C3x/4x COFF AssemblerVersion 5.12     Mon Nov 19 13:45:24 2018
Copyright (c) 1987-1999 Texas Instruments Incorporatedasm30.exe -@_6L4.AAB 

F:\WKDIR\CodeComposer\EEA_SA_V613b\BOOT\SOURCE\ASM\main.asm          PAGE   87

     4645                   ; 592 | CLEAR_INT_PEND;                                                        
     4646                   ;----------------------------------------------------------------------
     4647 00000862 08770000         ldi             0h, IF
     4648                           .line   32
     4649                   ;----------------------------------------------------------------------
     4650                   ; 593 | INITIALIZING = TRUE;                                                   
     4651                   ;----------------------------------------------------------------------
     4652 00000863 08700000-        ldp       @CL379,DP
     4653 00000864 5028017f-        ldiu      @CL379,ar0            ; |593| 
     4654 00000865 50600001         ldiu      1,r0                  ; |593| 
     4655 00000866 1540c000         sti       r0,*ar0               ; |593| 
     4656                           .line   33
     4657                   ;----------------------------------------------------------------------
     4658                   ; 594 | XFINIT_OUTPUT;                                                         
     4659                   ;----------------------------------------------------------------------
     4660 00000867 08780022         ldi             22h,IOF         
     4661                           .line   34
     4662                   ;----------------------------------------------------------------------
     4663                   ; 595 | CACHE_ENABLE;                                                          
     4664                   ;----------------------------------------------------------------------
     4665 00000868 08751800         ldi             1800h, ST
     4666                           .line   35
     4667                   ;----------------------------------------------------------------------
     4668                   ; 596 | DISABLE_EXTINT0;                                                       
     4669                   ;----------------------------------------------------------------------
     4670 00000869 0f350000         push    ST                      
     4671 0000086a 03752000         andn    2000h, ST       
     4672 0000086b 08700000-        ldp       @CL378,DP
     4673 0000086c 5028017e-        ldiu      @CL378,ar0            ; |596| 
     4674 0000086d 506000fe         ldiu      254,r0                ; |596| 
     4675 0000086e 21a0c000         and3      r0,*ar0,r0            ; |596| 
     4676 0000086f 1540c000         sti       r0,*ar0               ; |596| 
     4677 00000870 0e350000         pop             ST                      
     4678                           .line   36
     4679                   ;----------------------------------------------------------------------
     4680                   ; 597 | DISABLE_EXTINT1;                                                       
     4681                   ;----------------------------------------------------------------------
     4682 00000871 0f350000         push    ST                      
     4683 00000872 03752000         andn    2000h, ST       
     4684 00000873 506000fd         ldiu      253,r0                ; |597| 
     4685 00000874 21a0c000         and3      r0,*ar0,r0            ; |597| 
     4686 00000875 1540c000         sti       r0,*ar0               ; |597| 
     4687 00000876 0e350000         pop             ST                      
     4688                           .line   37
     4689                   ;----------------------------------------------------------------------
     4690                   ; 598 | DISABLE_EXTINT2;                                                       
     4691                   ;----------------------------------------------------------------------
     4692 00000877 0f350000         push    ST                      
     4693 00000878 03752000         andn    2000h, ST       
     4694 00000879 506000fb         ldiu      251,r0                ; |598| 
     4695 0000087a 21a0c000         and3      r0,*ar0,r0            ; |598| 
     4696 0000087b 1540c000         sti       r0,*ar0               ; |598| 
     4697 0000087c 0e350000         pop             ST                      
     4698                           .line   38
TMS320C3x/4x COFF AssemblerVersion 5.12     Mon Nov 19 13:45:24 2018
Copyright (c) 1987-1999 Texas Instruments Incorporatedasm30.exe -@_6L4.AAB 

F:\WKDIR\CodeComposer\EEA_SA_V613b\BOOT\SOURCE\ASM\main.asm          PAGE   88

     4699                   ;----------------------------------------------------------------------
     4700                   ; 599 | DISABLE_EXTINT3;                                                       
     4701                   ;----------------------------------------------------------------------
     4702 0000087d 0f350000         push    ST                      
     4703 0000087e 03752000         andn    2000h, ST       
     4704 0000087f 506000f7         ldiu      247,r0                ; |599| 
     4705 00000880 21a0c000         and3      r0,*ar0,r0            ; |599| 
     4706 00000881 1540c000         sti       r0,*ar0               ; |599| 
     4707 00000882 0e350000         pop             ST                      
     4708                           .line   41
     4709                   ;----------------------------------------------------------------------
     4710                   ; 602 | s = &INT0;                                                             
     4711                   ;----------------------------------------------------------------------
     4712 00000883 08700000-        ldp       @CL380,DP
     4713 00000884 50200180-        ldiu      @CL380,r0             ; |602| 
     4714 00000885 15400303         sti       r0,*+fp(3)            ; |602| 
     4715                           .line   42
     4716                   ;----------------------------------------------------------------------
     4717                   ; 603 | d = (unsigned int*) 0x00809FC1;                                        
     4718                   ;----------------------------------------------------------------------
     4719 00000886 08700000-        ldp       @CL381,DP
     4720 00000887 50200181-        ldiu      @CL381,r0             ; |603| 
     4721 00000888 15400304         sti       r0,*+fp(4)            ; |603| 
     4722                           .line   44
     4723                   ;----------------------------------------------------------------------
     4724                   ; 605 | for (i=0;i<0x3F;i++)                                                   
     4725                   ;----------------------------------------------------------------------
     4726 00000889 50600000         ldiu      0,r0                  ; |605| 
     4727 0000088a 15400301         sti       r0,*+fp(1)            ; |605| 
     4728 0000088b 04e0003f         cmpi      63,r0                 ; |605| 
     4729 0000088c 6a04000b         bhs       L66                   ; |605| 
     4730                   ;*      Branch Occurs to L66            ; |605| 
     4731 0000088d          L65:        
     4732                           .line   45
     4733                   ;----------------------------------------------------------------------
     4734                   ; 606 | d[i] = s[i];                                                           
     4735                   ;----------------------------------------------------------------------
     4736 0000088d 50490301         ldiu      *+fp(1),ar1           ; |606| 
     4737 0000088e 50510303         ldiu      *+fp(3),ir0           ; |606| 
     4738 0000088f 50520304         ldiu      *+fp(4),ir1           ; |606| 
     4739 00000890 50080009         ldiu      ar1,ar0               ; |606| 
     4740 00000891 50404100         ldiu      *+ar1(ir0),r0         ; |606| 
     4741 00000892 15408000         sti       r0,*+ar0(ir1)         ; |606| 
     4742                           .line   44
     4743 00000893 50600001         ldiu      1,r0                  ; |605| 
     4744 00000894 02400301         addi      *+fp(1),r0            ; |605| Unsigned
     4745 00000895 15400301         sti       r0,*+fp(1)            ; |605| 
     4746 00000896 04e0003f         cmpi      63,r0                 ; |605| 
     4747 00000897 6a01fff5         blo       L65                   ; |605| 
     4748                   ;*      Branch Occurs to L65            ; |605| 
     4749 00000898          L66:        
     4750                           .line   48
     4751                   ;----------------------------------------------------------------------
     4752                   ; 609 | d = (unsigned int*) &c_int00;                                          
TMS320C3x/4x COFF AssemblerVersion 5.12     Mon Nov 19 13:45:24 2018
Copyright (c) 1987-1999 Texas Instruments Incorporatedasm30.exe -@_6L4.AAB 

F:\WKDIR\CodeComposer\EEA_SA_V613b\BOOT\SOURCE\ASM\main.asm          PAGE   89

     4753                   ;----------------------------------------------------------------------
     4754 00000898 08700000-        ldp       @CL382,DP
     4755 00000899 50200182-        ldiu      @CL382,r0             ; |609| 
     4756 0000089a 15400304         sti       r0,*+fp(4)            ; |609| 
     4757                           .line   49
     4758                   ;----------------------------------------------------------------------
     4759                   ; 610 | s = (unsigned int*) FLASH_LOC;                                         
     4760                   ;----------------------------------------------------------------------
     4761 0000089b 08700000-        ldp       @CL383,DP
     4762 0000089c 50200183-        ldiu      @CL383,r0             ; |610| 
     4763 0000089d 15400303         sti       r0,*+fp(3)            ; |610| 
     4764                           .line   51
     4765                   ;----------------------------------------------------------------------
     4766                   ; 612 | if ( (d >= s) && (d < (s + FLASH_MAX_SIZE)) )                          
     4767                   ;----------------------------------------------------------------------
     4768 0000089e 50400304         ldiu      *+fp(4),r0            ; |612| 
     4769 0000089f 04c00303         cmpi      *+fp(3),r0            ; |612| 
     4770 000008a0 6a01000b         blo       L69                   ; |612| 
     4771                   ;*      Branch Occurs to L69            ; |612| 
     4772 000008a1 08700000-        ldp       @CL384,DP
     4773 000008a2 50010000         ldiu      r0,r1
     4774 000008a3 50200184-        ldiu      @CL384,r0             ; |612| 
     4775 000008a4 02400303         addi      *+fp(3),r0            ; |612| Unsigned
     4776 000008a5 23800100         cmpi3     r0,r1                 ; |612| 
     4777 000008a6 6a040005         bhs       L69                   ; |612| 
     4778                   ;*      Branch Occurs to L69            ; |612| 
     4779                           .line   52
     4780                   ;----------------------------------------------------------------------
     4781                   ; 613 | MEM = FALSE;                                                           
     4782                   ; 614 | else                                                                   
     4783                   ;----------------------------------------------------------------------
     4784 000008a7 08700000-        ldp       @CL2,DP
     4785 000008a8 50280001-        ldiu      @CL2,ar0              ; |613| 
     4786 000008a9 50600000         ldiu      0,r0                  ; |613| 
     4787 000008aa 1540c000         sti       r0,*ar0               ; |613| 
     4788 000008ab 6a000004         bu        L70                   ; |561| 
     4789                   ;*      Branch Occurs to L70            ; |561| 
     4790 000008ac          L69:        
     4791                           .line   54
     4792                   ;----------------------------------------------------------------------
     4793                   ; 615 | MEM = TRUE;                                                            
     4794                   ;----------------------------------------------------------------------
     4795 000008ac 08700000-        ldp       @CL2,DP
     4796 000008ad 50280001-        ldiu      @CL2,ar0              ; |615| 
     4797 000008ae 50600001         ldiu      1,r0                  ; |615| 
     4798 000008af 1540c000         sti       r0,*ar0               ; |615| 
     4799 000008b0          L70:        
     4800                           .line   56
     4801                   ;----------------------------------------------------------------------
     4802                   ; 617 | RELAY1_OFF;                                                            
     4803                   ;----------------------------------------------------------------------
     4804 000008b0 0f350000         push    ST                      
     4805 000008b1 03752000         andn    2000h, ST       
     4806 000008b2 08700000-        ldp       @CL73,DP
TMS320C3x/4x COFF AssemblerVersion 5.12     Mon Nov 19 13:45:24 2018
Copyright (c) 1987-1999 Texas Instruments Incorporatedasm30.exe -@_6L4.AAB 

F:\WKDIR\CodeComposer\EEA_SA_V613b\BOOT\SOURCE\ASM\main.asm          PAGE   90

     4807 000008b3 50280048-        ldiu      @CL73,ar0             ; |617| 
     4808 000008b4 506000fe         ldiu      254,r0                ; |617| 
     4809 000008b5 21a0c000         and3      r0,*ar0,r0            ; |617| 
     4810 000008b6 1540c000         sti       r0,*ar0               ; |617| 
     4811 000008b7 0e350000         pop             ST                      
     4812                           .line   57
     4813                   ;----------------------------------------------------------------------
     4814                   ; 618 | RELAY2_OFF;                                                            
     4815                   ;----------------------------------------------------------------------
     4816 000008b8 0f350000         push    ST                      
     4817 000008b9 03752000         andn    2000h, ST       
     4818 000008ba 506000fd         ldiu      253,r0                ; |618| 
     4819 000008bb 21a0c000         and3      r0,*ar0,r0            ; |618| 
     4820 000008bc 1540c000         sti       r0,*ar0               ; |618| 
     4821 000008bd 0e350000         pop             ST                      
     4822                           .line   58
     4823                   ;----------------------------------------------------------------------
     4824                   ; 619 | CLOCK = CLOCK_DEFAULT;                                                 
     4825                   ;----------------------------------------------------------------------
     4826 000008be 08700000-        ldp       @CL385,DP
     4827 000008bf 50280185-        ldiu      @CL385,ar0            ; |619| 
     4828 000008c0 08700000-        ldp       @CL386,DP
     4829 000008c1 50200186-        ldiu      @CL386,r0             ; |619| 
     4830 000008c2 1540c000         sti       r0,*ar0               ; |619| 
     4831                           .line   60
     4832                   ;----------------------------------------------------------------------
     4833                   ; 621 | LCD_INIT();                                                            
     4834                   ;----------------------------------------------------------------------
     4835 000008c3 08700000-        ldp       @CL387,DP
     4836 000008c4 50200187-        ldiu      @CL387,r0             ; |621| 
     4837 000008c5 70000000         callu     r0                    ; far call to _LCD_INIT ; |621| 
     4838                                                           ; |621| Far Call Occurs
     4839                           .line   63
     4840                   ;----------------------------------------------------------------------
     4841                   ; 624 | for (i=0;i<4;i++)                                                      
     4842                   ;----------------------------------------------------------------------
     4843 000008c6 50600000         ldiu      0,r0                  ; |624| 
     4844 000008c7 15400301         sti       r0,*+fp(1)            ; |624| 
     4845 000008c8 04e00004         cmpi      4,r0                  ; |624| 
     4846 000008c9 6a040015         bhs       L74                   ; |624| 
     4847                   ;*      Branch Occurs to L74            ; |624| 
     4848 000008ca          L71:        
     4849                           .line   65
     4850                   ;----------------------------------------------------------------------
     4851                   ; 626 | for (j=0;j<101;j++)                                                    
     4852                   ;----------------------------------------------------------------------
     4853 000008ca 50600000         ldiu      0,r0                  ; |626| 
     4854 000008cb 15400302         sti       r0,*+fp(2)            ; |626| 
     4855 000008cc 04e00065         cmpi      101,r0                ; |626| 
     4856 000008cd 50610020         ldiu      32,r1                 ; |627| 
     4857 000008ce 6a04000b         bhs       L73                   ; |626| 
     4858                   ;*      Branch Occurs to L73            ; |626| 
     4859 000008cf          L72:        
     4860                           .line   66
TMS320C3x/4x COFF AssemblerVersion 5.12     Mon Nov 19 13:45:24 2018
Copyright (c) 1987-1999 Texas Instruments Incorporatedasm30.exe -@_6L4.AAB 

F:\WKDIR\CodeComposer\EEA_SA_V613b\BOOT\SOURCE\ASM\main.asm          PAGE   91

     4861                   ;----------------------------------------------------------------------
     4862                   ; 627 | LCD_DISPLAY[i][j] = 0x20;                                              
     4863                   ;----------------------------------------------------------------------
     4864 000008cf 50510301         ldiu      *+fp(1),ir0           ; |627| 
     4865 000008d0 08700000-        ldp       @CL388,DP
     4866 000008d1 0af10065         mpyi      101,ir0               ; |627| 
     4867 000008d2 50280188-        ldiu      @CL388,ar0            ; |627| 
     4868 000008d3 02510302         addi      *+fp(2),ir0           ; |627| Unsigned
     4869 000008d4 15414000         sti       r1,*+ar0(ir0)         ; |627| 
     4870                           .line   65
     4871 000008d5 50600001         ldiu      1,r0                  ; |626| 
     4872 000008d6 02400302         addi      *+fp(2),r0            ; |626| Unsigned
     4873 000008d7 15400302         sti       r0,*+fp(2)            ; |626| 
     4874 000008d8 04e00065         cmpi      101,r0                ; |626| 
     4875 000008d9 6a01fff5         blo       L72                   ; |626| 
     4876                   ;*      Branch Occurs to L72            ; |626| 
     4877 000008da          L73:        
     4878                           .line   63
     4879 000008da 50600001         ldiu      1,r0                  ; |624| 
     4880 000008db 02400301         addi      *+fp(1),r0            ; |624| Unsigned
     4881 000008dc 15400301         sti       r0,*+fp(1)            ; |624| 
     4882 000008dd 04e00004         cmpi      4,r0                  ; |624| 
     4883 000008de 6a01ffeb         blo       L71                   ; |624| 
     4884                   ;*      Branch Occurs to L71            ; |624| 
     4885 000008df          L74:        
     4886                           .line   69
     4887                   ;----------------------------------------------------------------------
     4888                   ; 630 | hwu = (HW_VER & 0x0078)>>3;                                            
     4889                   ;----------------------------------------------------------------------
     4890 000008df 08700000-        ldp       @CL371,DP
     4891 000008e0 50280177-        ldiu      @CL371,ar0            ; |630| 
     4892 000008e1 50600078         ldiu      120,r0                ; |630| 
     4893 000008e2 21a0c000         and3      r0,*ar0,r0            ; |630| 
     4894 000008e3 09e0fffd         lsh       -3,r0                 ; |630| 
     4895 000008e4 15400306         sti       r0,*+fp(6)            ; |630| 
     4896                           .line   70
     4897                   ;----------------------------------------------------------------------
     4898                   ; 631 | hwl = HW_VER & 0x0007;                                                 
     4899                   ;----------------------------------------------------------------------
     4900 000008e5 50280177-        ldiu      @CL371,ar0            ; |631| 
     4901 000008e6 50600007         ldiu      7,r0                  ; |631| 
     4902 000008e7 21a0c000         and3      r0,*ar0,r0            ; |631| 
     4903 000008e8 15400307         sti       r0,*+fp(7)            ; |631| 
     4904                           .line   71
     4905                   ;----------------------------------------------------------------------
     4906                   ; 632 | fw      = FIRMWARE_VERSION/100.0;                                      
     4907                   ;----------------------------------------------------------------------
     4908 000008e9 08700000-        ldp       @CL389,DP
     4909 000008ea 40200189-        ldfu      @CL389,f0             ; |632| 
     4910 000008eb 14400305         stf       f0,*+fp(5)            ; |632| 
     4911                           .line   72
     4912                   ;----------------------------------------------------------------------
     4913                   ; 633 | i       = FIRMWARE_SUBVERSION;                                         
     4914                   ;----------------------------------------------------------------------
TMS320C3x/4x COFF AssemblerVersion 5.12     Mon Nov 19 13:45:24 2018
Copyright (c) 1987-1999 Texas Instruments Incorporatedasm30.exe -@_6L4.AAB 

F:\WKDIR\CodeComposer\EEA_SA_V613b\BOOT\SOURCE\ASM\main.asm          PAGE   92

     4915 000008ec 5060000d         ldiu      13,r0                 ; |633| 
     4916 000008ed 15400301         sti       r0,*+fp(1)            ; |633| 
     4917                           .line   74
     4918                   ;----------------------------------------------------------------------
     4919                   ; 635 | if(RUSS)                                                               
     4920                   ;----------------------------------------------------------------------
     4921 000008ee 08700000-        ldp       @CL390,DP
     4922 000008ef 5028018a-        ldiu      @CL390,ar0            ; |635| 
     4923 000008f0 5040c000         ldiu      *ar0,r0               ; |635| 
     4924 000008f1 04e00000         cmpi      0,r0                  ; |635| 
     4925 000008f2 6a050053         beq       L76                   ; |635| 
     4926                   ;*      Branch Occurs to L76            ; |635| 
     4927                           .line   76
     4928                   ;----------------------------------------------------------------------
     4929                   ; 637 | Get_Russ_Line(87,OUT_STR,0);                                           
     4930                   ;----------------------------------------------------------------------
     4931 000008f3 08700000-        ldp       @CL392,DP
     4932 000008f4 5020018c-        ldiu      @CL392,r0             ; |637| 
     4933 000008f5 506a0057         ldiu      87,ar2                ; |637| 
     4934 000008f6 08700000-        ldp       @CL391,DP
     4935 000008f7 50630000         ldiu      0,r3                  ; |637| 
     4936 000008f8 5022018b-        ldiu      @CL391,r2             ; |637| 
     4937 000008f9 70000000         callu     r0                    ; far call to _Get_Russ_Line    ; |637| 
     4938                                                           ; |637| Far Call Occurs
     4939                           .line   77
     4940                   ;----------------------------------------------------------------------
     4941                   ; 638 | sprintf(LCD_DISPLAY[0],"%s", OUT_STR);  //R87                          
     4942                   ;----------------------------------------------------------------------
     4943 000008fa 08700000-        ldp       @CL391,DP
     4944 000008fb 5022018b-        ldiu      @CL391,r2             ; |638| 
     4945 000008fc 08700000-        ldp       @CL393,DP
     4946 000008fd 5021018d-        ldiu      @CL393,r1             ; |638| 
     4947 000008fe 08700000-        ldp       @CL388,DP
     4948 000008ff 502a0188-        ldiu      @CL388,ar2            ; |638| 
     4949 00000900 08700000-        ldp       @CL16,DP
     4950 00000901 0f220000         push      r2                    ; |638| 
     4951 00000902 5020000f-        ldiu      @CL16,r0              ; |638| 
     4952 00000903 0f210000         push      r1                    ; |638| 
     4953 00000904 70000000         callu     r0                    ; far call to _sprintf  ; |638| 
     4954                                                           ; |638| Far Call Occurs
     4955 00000905 18740002         subi      2,sp                  ; |638| 
     4956                           .line   78
     4957                   ;----------------------------------------------------------------------
     4958                   ; 639 | Get_Russ_Line(378,OUT_STR2,0);                                         
     4959                   ;----------------------------------------------------------------------
     4960 00000906 08700000-        ldp       @CL392,DP
     4961 00000907 5020018c-        ldiu      @CL392,r0             ; |639| 
     4962 00000908 08700000-        ldp       @CL394,DP
     4963 00000909 5022018e-        ldiu      @CL394,r2             ; |639| 
     4964 0000090a 506a017a         ldiu      378,ar2               ; |639| 
     4965 0000090b 50630000         ldiu      0,r3                  ; |639| 
     4966 0000090c 70000000         callu     r0                    ; far call to _Get_Russ_Line    ; |639| 
     4967                                                           ; |639| Far Call Occurs
     4968                           .line   79
TMS320C3x/4x COFF AssemblerVersion 5.12     Mon Nov 19 13:45:24 2018
Copyright (c) 1987-1999 Texas Instruments Incorporatedasm30.exe -@_6L4.AAB 

F:\WKDIR\CodeComposer\EEA_SA_V613b\BOOT\SOURCE\ASM\main.asm          PAGE   93

     4969                   ;----------------------------------------------------------------------
     4970                   ; 640 | sprintf(LCD_DISPLAY[1],"%s", OUT_STR2); //R378                         
     4971                   ;----------------------------------------------------------------------
     4972 0000090d 08700000-        ldp       @CL394,DP
     4973 0000090e 5022018e-        ldiu      @CL394,r2             ; |640| 
     4974 0000090f 08700000-        ldp       @CL393,DP
     4975 00000910 5021018d-        ldiu      @CL393,r1             ; |640| 
     4976 00000911 08700000-        ldp       @CL395,DP
     4977 00000912 502a018f-        ldiu      @CL395,ar2            ; |640| 
     4978 00000913 08700000-        ldp       @CL16,DP
     4979 00000914 5020000f-        ldiu      @CL16,r0              ; |640| 
     4980 00000915 0f220000         push      r2                    ; |640| 
     4981 00000916 0f210000         push      r1                    ; |640| 
     4982 00000917 70000000         callu     r0                    ; far call to _sprintf  ; |640| 
     4983                                                           ; |640| Far Call Occurs
     4984 00000918 18740002         subi      2,sp                  ; |640| 
     4985                           .line   80
     4986                   ;----------------------------------------------------------------------
     4987                   ; 641 | Get_Russ_Line(377,OUT_STR,0);                                          
     4988                   ;----------------------------------------------------------------------
     4989 00000919 08700000-        ldp       @CL392,DP
     4990 0000091a 5020018c-        ldiu      @CL392,r0             ; |641| 
     4991 0000091b 08700000-        ldp       @CL391,DP
     4992 0000091c 5022018b-        ldiu      @CL391,r2             ; |641| 
     4993 0000091d 50630000         ldiu      0,r3                  ; |641| 
     4994 0000091e 506a0179         ldiu      377,ar2               ; |641| 
     4995 0000091f 70000000         callu     r0                    ; far call to _Get_Russ_Line    ; |641| 
     4996                                                           ; |641| Far Call Occurs
     4997                           .line   81
     4998                   ;----------------------------------------------------------------------
     4999                   ; 642 | sprintf(LCD_DISPLAY[2],"%s:    %2d.%02d", OUT_STR, hwu, hwl);   //R377 
     5000                   ;----------------------------------------------------------------------
     5001 00000920 08700000-        ldp       @CL391,DP
     5002 00000921 5021018b-        ldiu      @CL391,r1             ; |642| 
     5003 00000922 08700000-        ldp       @CL397,DP
     5004 00000923 50420307         ldiu      *+fp(7),r2            ; |642| 
     5005 00000924 50230191-        ldiu      @CL397,r3             ; |642| 
     5006 00000925 0f220000         push      r2                    ; |642| 
     5007 00000926 08700000-        ldp       @CL396,DP
     5008 00000927 50420306         ldiu      *+fp(6),r2            ; |642| 
     5009 00000928 502a0190-        ldiu      @CL396,ar2            ; |642| 
     5010 00000929 0f220000         push      r2                    ; |642| 
     5011 0000092a 0f210000         push      r1                    ; |642| 
     5012 0000092b 08700000-        ldp       @CL16,DP
     5013 0000092c 0f230000         push      r3                    ; |642| 
     5014 0000092d 5020000f-        ldiu      @CL16,r0              ; |642| 
     5015 0000092e 70000000         callu     r0                    ; far call to _sprintf  ; |642| 
     5016                                                           ; |642| Far Call Occurs
     5017 0000092f 18740004         subi      4,sp                  ; |642| 
     5018                           .line   82
     5019                   ;----------------------------------------------------------------------
     5020                   ; 643 | Get_Russ_Line(375,OUT_STR2,0);                                         
     5021                   ;----------------------------------------------------------------------
     5022 00000930 08700000-        ldp       @CL392,DP
TMS320C3x/4x COFF AssemblerVersion 5.12     Mon Nov 19 13:45:24 2018
Copyright (c) 1987-1999 Texas Instruments Incorporatedasm30.exe -@_6L4.AAB 

F:\WKDIR\CodeComposer\EEA_SA_V613b\BOOT\SOURCE\ASM\main.asm          PAGE   94

     5023 00000931 5020018c-        ldiu      @CL392,r0             ; |643| 
     5024 00000932 506a0177         ldiu      375,ar2               ; |643| 
     5025 00000933 08700000-        ldp       @CL394,DP
     5026 00000934 50630000         ldiu      0,r3                  ; |643| 
     5027 00000935 5022018e-        ldiu      @CL394,r2             ; |643| 
     5028 00000936 70000000         callu     r0                    ; far call to _Get_Russ_Line    ; |643| 
     5029                                                           ; |643| Far Call Occurs
     5030                           .line   83
     5031                   ;----------------------------------------------------------------------
     5032                   ; 644 | sprintf(LCD_DISPLAY[3],"%s:      %4.2f", OUT_STR2, fw); //R375         
     5033                   ; 646 | else                                                                   
     5034                   ;----------------------------------------------------------------------
     5035 00000937 08700000-        ldp       @CL394,DP
     5036 00000938 5021018e-        ldiu      @CL394,r1             ; |644| 
     5037 00000939 40430305         ldfu      *+fp(5),f3            ; |644| 
     5038 0000093a 08700000-        ldp       @CL399,DP
     5039 0000093b 0fa30000         pushf     f3                    ; |644| 
     5040 0000093c 50220193-        ldiu      @CL399,r2             ; |644| 
     5041 0000093d 08700000-        ldp       @CL398,DP
     5042 0000093e 0f210000         push      r1                    ; |644| 
     5043 0000093f 502a0192-        ldiu      @CL398,ar2            ; |644| 
     5044 00000940 08700000-        ldp       @CL16,DP
     5045 00000941 0f220000         push      r2                    ; |644| 
     5046 00000942 5020000f-        ldiu      @CL16,r0              ; |644| 
     5047 00000943 70000000         callu     r0                    ; far call to _sprintf  ; |644| 
     5048                                                           ; |644| Far Call Occurs
     5049 00000944 18740003         subi      3,sp                  ; |644| 
     5050 00000945 6a00002c         bu        L77                   ; |561| 
     5051                   ;*      Branch Occurs to L77            ; |561| 
     5052 00000946          L76:        
     5053                           .line   87
     5054                   ;----------------------------------------------------------------------
     5055                   ; 648 | sprintf(LCD_DISPLAY[0],"Phase Dynamics, Inc."); //R87                  
     5056                   ;----------------------------------------------------------------------
     5057 00000946 08700000-        ldp       @CL400,DP
     5058 00000947 50210194-        ldiu      @CL400,r1             ; |648| 
     5059 00000948 08700000-        ldp       @CL388,DP
     5060 00000949 502a0188-        ldiu      @CL388,ar2            ; |648| 
     5061 0000094a 08700000-        ldp       @CL16,DP
     5062 0000094b 0f210000         push      r1                    ; |648| 
     5063 0000094c 5020000f-        ldiu      @CL16,r0              ; |648| 
     5064 0000094d 70000000         callu     r0                    ; far call to _sprintf  ; |648| 
     5065                                                           ; |648| Far Call Occurs
     5066 0000094e 18740001         subi      1,sp                  ; |648| 
     5067                           .line   88
     5068                   ;----------------------------------------------------------------------
     5069                   ; 649 | sprintf(LCD_DISPLAY[1],"Initializing Data..."); //R378                 
     5070                   ;----------------------------------------------------------------------
     5071 0000094f 08700000-        ldp       @CL401,DP
     5072 00000950 50210195-        ldiu      @CL401,r1             ; |649| 
     5073 00000951 08700000-        ldp       @CL395,DP
     5074 00000952 502a018f-        ldiu      @CL395,ar2            ; |649| 
     5075 00000953 08700000-        ldp       @CL16,DP
     5076 00000954 0f210000         push      r1                    ; |649| 
TMS320C3x/4x COFF AssemblerVersion 5.12     Mon Nov 19 13:45:24 2018
Copyright (c) 1987-1999 Texas Instruments Incorporatedasm30.exe -@_6L4.AAB 

F:\WKDIR\CodeComposer\EEA_SA_V613b\BOOT\SOURCE\ASM\main.asm          PAGE   95

     5077 00000955 5020000f-        ldiu      @CL16,r0              ; |649| 
     5078 00000956 70000000         callu     r0                    ; far call to _sprintf  ; |649| 
     5079                                                           ; |649| Far Call Occurs
     5080 00000957 18740001         subi      1,sp                  ; |649| 
     5081                           .line   89
     5082                   ;----------------------------------------------------------------------
     5083                   ; 650 | sprintf(LCD_DISPLAY[2],"HW Version:    %2d.%02d", hwu, hwl);    //R377 
     5084                   ; 651 | //sprintf(LCD_DISPLAY[3],"FW Version:     %4.2f", fw);                 
     5085                   ;----------------------------------------------------------------------
     5086 00000958 08700000-        ldp       @CL402,DP
     5087 00000959 50210196-        ldiu      @CL402,r1             ; |650| 
     5088 0000095a 08700000-        ldp       @CL396,DP
     5089 0000095b 502a0190-        ldiu      @CL396,ar2            ; |650| 
     5090 0000095c 08700000-        ldp       @CL16,DP
     5091 0000095d 5020000f-        ldiu      @CL16,r0              ; |650| 
     5092 0000095e 50420307         ldiu      *+fp(7),r2            ; |650| 
     5093 0000095f 0f220000         push      r2                    ; |650| 
     5094 00000960 50420306         ldiu      *+fp(6),r2            ; |650| 
     5095 00000961 0f220000         push      r2                    ; |650| 
     5096 00000962 0f210000         push      r1                    ; |650| 
     5097 00000963 70000000         callu     r0                    ; far call to _sprintf  ; |650| 
     5098                                                           ; |650| Far Call Occurs
     5099 00000964 18740003         subi      3,sp                  ; |650| 
     5100                           .line   92
     5101                   ;----------------------------------------------------------------------
     5102                   ; 653 | sprintf(LCD_DISPLAY[3],"FW Version:  %4.2f.%02i", fw, i);       //R375 
     5103                   ;----------------------------------------------------------------------
     5104 00000965 08700000-        ldp       @CL403,DP
     5105 00000966 50220197-        ldiu      @CL403,r2             ; |653| 
     5106 00000967 50400301         ldiu      *+fp(1),r0            ; |653| 
     5107 00000968 08700000-        ldp       @CL398,DP
     5108 00000969 0f200000         push      r0                    ; |653| 
     5109 0000096a 502a0192-        ldiu      @CL398,ar2            ; |653| 
     5110 0000096b 40400305         ldfu      *+fp(5),f0            ; |653| 
     5111 0000096c 08700000-        ldp       @CL16,DP
     5112 0000096d 0fa00000         pushf     f0                    ; |653| 
     5113 0000096e 5021000f-        ldiu      @CL16,r1              ; |653| 
     5114 0000096f 0f220000         push      r2                    ; |653| 
     5115 00000970 70000001         callu     r1                    ; far call to _sprintf  ; |653| 
     5116                                                           ; |653| Far Call Occurs
     5117 00000971 18740003         subi      3,sp                  ; |653| 
     5118 00000972          L77:        
     5119                           .line   95
     5120                   ;----------------------------------------------------------------------
     5121                   ; 656 | LCD_PAGE();                                                            
     5122                   ;----------------------------------------------------------------------
     5123 00000972 08700000-        ldp       @CL404,DP
     5124 00000973 50200198-        ldiu      @CL404,r0             ; |656| 
     5125 00000974 70000000         callu     r0                    ; far call to _LCD_PAGE ; |656| 
     5126                                                           ; |656| Far Call Occurs
     5127                           .line   96
     5128                   ;----------------------------------------------------------------------
     5129                   ; 657 | MENU_INIT();                                                           
     5130                   ;----------------------------------------------------------------------
TMS320C3x/4x COFF AssemblerVersion 5.12     Mon Nov 19 13:45:24 2018
Copyright (c) 1987-1999 Texas Instruments Incorporatedasm30.exe -@_6L4.AAB 

F:\WKDIR\CodeComposer\EEA_SA_V613b\BOOT\SOURCE\ASM\main.asm          PAGE   96

     5131 00000975 08700000-        ldp       @CL405,DP
     5132 00000976 50200199-        ldiu      @CL405,r0             ; |657| 
     5133 00000977 70000000         callu     r0                    ; far call to _MENU_INIT        ; |657| 
     5134                                                           ; |657| Far Call Occurs
     5135                           .line   99
     5136                   ;----------------------------------------------------------------------
     5137                   ; 660 | Initialize_Variables();                                                
     5138                   ; 662 | switch (ANALYZER_MODE.val)                                             
     5139                   ; 664 |         case SUB_LOW:                                                  
     5140                   ;----------------------------------------------------------------------
     5141 00000978 08700000-        ldp       @CL406,DP
     5142 00000979 5020019a-        ldiu      @CL406,r0             ; |660| 
     5143 0000097a 70000000         callu     r0                    ; far call to _Initialize_Variables     ; |660| 
     5144                                                           ; |660| Far Call Occurs
     5145 0000097b 6a000054         bu        L85                   ; |561| 
     5146                   ;*      Branch Occurs to L85            ; |561| 
     5147 0000097c          L78:        
     5148                           .line   104
     5149                   ;----------------------------------------------------------------------
     5150                   ; 665 | sprintf(LCD_DISPLAY[1]," Low Range Analyzer "); //R380                 
     5151                   ;----------------------------------------------------------------------
     5152 0000097c 08700000-        ldp       @CL407,DP
     5153 0000097d 5021019b-        ldiu      @CL407,r1             ; |665| 
     5154 0000097e 08700000-        ldp       @CL395,DP
     5155 0000097f 502a018f-        ldiu      @CL395,ar2            ; |665| 
     5156 00000980 08700000-        ldp       @CL16,DP
     5157 00000981 0f210000         push      r1                    ; |665| 
     5158 00000982 5020000f-        ldiu      @CL16,r0              ; |665| 
     5159 00000983 70000000         callu     r0                    ; far call to _sprintf  ; |665| 
     5160                                                           ; |665| Far Call Occurs
     5161 00000984 18740001         subi      1,sp                  ; |665| 
     5162                           .line   105
     5163                   ;----------------------------------------------------------------------
     5164                   ; 666 | Print_To_LCD(1, 380, ENG_STR, 1);                                      
     5165                   ;----------------------------------------------------------------------
     5166 00000985 08700000-        ldp       @CL408,DP
     5167 00000986 507b0001         ldiu      1,rc                  ; |666| 
     5168 00000987 506a0001         ldiu      1,ar2                 ; |666| 
     5169 00000988 5062017c         ldiu      380,r2                ; |666| 
     5170 00000989 5023019c-        ldiu      @CL408,r3             ; |666| 
     5171 0000098a 62000000!        call      _Print_To_LCD         ; |666| 
     5172                                                           ; |666| Call Occurs
     5173                           .line   106
     5174                   ;----------------------------------------------------------------------
     5175                   ; 667 | break;                                                                 
     5176                   ; 668 | case SUB_MID:                                                          
     5177                   ;----------------------------------------------------------------------
     5178 0000098b 6a000053         bu        L91                   ; |667| 
     5179                   ;*      Branch Occurs to L91            ; |667| 
     5180 0000098c          L79:        
     5181                           .line   108
     5182                   ;----------------------------------------------------------------------
     5183                   ; 669 | sprintf(ENG_STR," Mid Range Analyzer ");        //R381                 
     5184                   ;----------------------------------------------------------------------
TMS320C3x/4x COFF AssemblerVersion 5.12     Mon Nov 19 13:45:24 2018
Copyright (c) 1987-1999 Texas Instruments Incorporatedasm30.exe -@_6L4.AAB 

F:\WKDIR\CodeComposer\EEA_SA_V613b\BOOT\SOURCE\ASM\main.asm          PAGE   97

     5185 0000098c 08700000-        ldp       @CL409,DP
     5186 0000098d 5021019d-        ldiu      @CL409,r1             ; |669| 
     5187 0000098e 08700000-        ldp       @CL16,DP
     5188 0000098f 5020000f-        ldiu      @CL16,r0              ; |669| 
     5189 00000990 08700000-        ldp       @CL408,DP
     5190 00000991 0f210000         push      r1                    ; |669| 
     5191 00000992 502a019c-        ldiu      @CL408,ar2            ; |669| 
     5192 00000993 70000000         callu     r0                    ; far call to _sprintf  ; |669| 
     5193                                                           ; |669| Far Call Occurs
     5194 00000994 18740001         subi      1,sp                  ; |669| 
     5195                           .line   109
     5196                   ;----------------------------------------------------------------------
     5197                   ; 670 | Print_To_LCD(1, 381, ENG_STR, 1);                                      
     5198                   ;----------------------------------------------------------------------
     5199 00000995 08700000-        ldp       @CL408,DP
     5200 00000996 507b0001         ldiu      1,rc                  ; |670| 
     5201 00000997 506a0001         ldiu      1,ar2                 ; |670| 
     5202 00000998 5062017d         ldiu      381,r2                ; |670| 
     5203 00000999 5023019c-        ldiu      @CL408,r3             ; |670| 
     5204 0000099a 62000000!        call      _Print_To_LCD         ; |670| 
     5205                                                           ; |670| Call Occurs
     5206                           .line   110
     5207                   ;----------------------------------------------------------------------
     5208                   ; 671 | break;                                                                 
     5209                   ; 672 | case SUB_HIGH:                                                         
     5210                   ;----------------------------------------------------------------------
     5211 0000099b 6a000043         bu        L91                   ; |671| 
     5212                   ;*      Branch Occurs to L91            ; |671| 
     5213 0000099c          L80:        
     5214                           .line   112
     5215                   ;----------------------------------------------------------------------
     5216                   ; 673 | sprintf(ENG_STR,"High Range Analyzer ");        //R376                 
     5217                   ;----------------------------------------------------------------------
     5218 0000099c 08700000-        ldp       @CL410,DP
     5219 0000099d 5021019e-        ldiu      @CL410,r1             ; |673| 
     5220 0000099e 08700000-        ldp       @CL16,DP
     5221 0000099f 5020000f-        ldiu      @CL16,r0              ; |673| 
     5222 000009a0 08700000-        ldp       @CL408,DP
     5223 000009a1 0f210000         push      r1                    ; |673| 
     5224 000009a2 502a019c-        ldiu      @CL408,ar2            ; |673| 
     5225 000009a3 70000000         callu     r0                    ; far call to _sprintf  ; |673| 
     5226                                                           ; |673| Far Call Occurs
     5227 000009a4 18740001         subi      1,sp                  ; |673| 
     5228                           .line   113
     5229                   ;----------------------------------------------------------------------
     5230                   ; 674 | Print_To_LCD(1, 376, ENG_STR, 1);                                      
     5231                   ;----------------------------------------------------------------------
     5232 000009a5 08700000-        ldp       @CL408,DP
     5233 000009a6 507b0001         ldiu      1,rc                  ; |674| 
     5234 000009a7 506a0001         ldiu      1,ar2                 ; |674| 
     5235 000009a8 50620178         ldiu      376,r2                ; |674| 
     5236 000009a9 5023019c-        ldiu      @CL408,r3             ; |674| 
     5237 000009aa 62000000!        call      _Print_To_LCD         ; |674| 
     5238                                                           ; |674| Call Occurs
TMS320C3x/4x COFF AssemblerVersion 5.12     Mon Nov 19 13:45:24 2018
Copyright (c) 1987-1999 Texas Instruments Incorporatedasm30.exe -@_6L4.AAB 

F:\WKDIR\CodeComposer\EEA_SA_V613b\BOOT\SOURCE\ASM\main.asm          PAGE   98

     5239                           .line   114
     5240                   ;----------------------------------------------------------------------
     5241                   ; 675 | break;                                                                 
     5242                   ; 676 | case SUB_FULL:                                                         
     5243                   ;----------------------------------------------------------------------
     5244 000009ab 6a000033         bu        L91                   ; |675| 
     5245                   ;*      Branch Occurs to L91            ; |675| 
     5246 000009ac          L81:        
     5247                           .line   116
     5248                   ;----------------------------------------------------------------------
     5249                   ; 677 | sprintf(ENG_STR,"Full Range Analyzer ");        //R374                 
     5250                   ;----------------------------------------------------------------------
     5251 000009ac 08700000-        ldp       @CL411,DP
     5252 000009ad 5021019f-        ldiu      @CL411,r1             ; |677| 
     5253 000009ae 08700000-        ldp       @CL16,DP
     5254 000009af 5020000f-        ldiu      @CL16,r0              ; |677| 
     5255 000009b0 08700000-        ldp       @CL408,DP
     5256 000009b1 0f210000         push      r1                    ; |677| 
     5257 000009b2 502a019c-        ldiu      @CL408,ar2            ; |677| 
     5258 000009b3 70000000         callu     r0                    ; far call to _sprintf  ; |677| 
     5259                                                           ; |677| Far Call Occurs
     5260 000009b4 18740001         subi      1,sp                  ; |677| 
     5261                           .line   117
     5262                   ;----------------------------------------------------------------------
     5263                   ; 678 | Print_To_LCD(1, 374, ENG_STR, 1);                                      
     5264                   ;----------------------------------------------------------------------
     5265 000009b5 08700000-        ldp       @CL408,DP
     5266 000009b6 507b0001         ldiu      1,rc                  ; |678| 
     5267 000009b7 506a0001         ldiu      1,ar2                 ; |678| 
     5268 000009b8 50620176         ldiu      374,r2                ; |678| 
     5269 000009b9 5023019c-        ldiu      @CL408,r3             ; |678| 
     5270 000009ba 62000000!        call      _Print_To_LCD         ; |678| 
     5271                                                           ; |678| Call Occurs
     5272                           .line   118
     5273                   ;----------------------------------------------------------------------
     5274                   ; 679 | break;                                                                 
     5275                   ; 680 | case SUB_CCM:                                                          
     5276                   ;----------------------------------------------------------------------
     5277 000009bb 6a000023         bu        L91                   ; |679| 
     5278                   ;*      Branch Occurs to L91            ; |679| 
     5279 000009bc          L82:        
     5280                           .line   120
     5281                   ;----------------------------------------------------------------------
     5282                   ; 681 | sprintf(LCD_DISPLAY[1],"  CCM Application   ");                        
     5283                   ;----------------------------------------------------------------------
     5284 000009bc 08700000-        ldp       @CL412,DP
     5285 000009bd 502101a0-        ldiu      @CL412,r1             ; |681| 
     5286 000009be 08700000-        ldp       @CL395,DP
     5287 000009bf 502a018f-        ldiu      @CL395,ar2            ; |681| 
     5288 000009c0 08700000-        ldp       @CL16,DP
     5289 000009c1 0f210000         push      r1                    ; |681| 
     5290 000009c2 5020000f-        ldiu      @CL16,r0              ; |681| 
     5291 000009c3 70000000         callu     r0                    ; far call to _sprintf  ; |681| 
     5292                                                           ; |681| Far Call Occurs
TMS320C3x/4x COFF AssemblerVersion 5.12     Mon Nov 19 13:45:24 2018
Copyright (c) 1987-1999 Texas Instruments Incorporatedasm30.exe -@_6L4.AAB 

F:\WKDIR\CodeComposer\EEA_SA_V613b\BOOT\SOURCE\ASM\main.asm          PAGE   99

     5293 000009c4 18740001         subi      1,sp                  ; |681| 
     5294                           .line   121
     5295                   ;----------------------------------------------------------------------
     5296                   ; 682 | break;                                                                 
     5297                   ; 683 | case SUB_ANALYZER:                                                     
     5298                   ;----------------------------------------------------------------------
     5299 000009c5 6a000019         bu        L91                   ; |682| 
     5300                   ;*      Branch Occurs to L91            ; |682| 
     5301 000009c6          L83:        
     5302                           .line   123
     5303                   ;----------------------------------------------------------------------
     5304                   ; 684 | sprintf(LCD_DISPLAY[1],"      Analyzer      ");                        
     5305                   ;----------------------------------------------------------------------
     5306 000009c6 08700000-        ldp       @CL413,DP
     5307 000009c7 502101a1-        ldiu      @CL413,r1             ; |684| 
     5308 000009c8 08700000-        ldp       @CL395,DP
     5309 000009c9 502a018f-        ldiu      @CL395,ar2            ; |684| 
     5310 000009ca 08700000-        ldp       @CL16,DP
     5311 000009cb 0f210000         push      r1                    ; |684| 
     5312 000009cc 5020000f-        ldiu      @CL16,r0              ; |684| 
     5313 000009cd 70000000         callu     r0                    ; far call to _sprintf  ; |684| 
     5314                                                           ; |684| Far Call Occurs
     5315 000009ce 18740001         subi      1,sp                  ; |684| 
     5316                           .line   124
     5317                   ;----------------------------------------------------------------------
     5318                   ; 685 | break;                                                                 
     5319                   ;----------------------------------------------------------------------
     5320 000009cf 6a00000f         bu        L91                   ; |685| 
     5321                   ;*      Branch Occurs to L91            ; |685| 
     5322                           .line   125
     5323                   ;----------------------------------------------------------------------
     5324                   ; 686 | default: break;                                                        
     5325                   ;----------------------------------------------------------------------
     5326 000009d0          L85:        
     5327                           .line   101
     5328 000009d0 08700000-        ldp       @CL98,DP
     5329 000009d1 50280063-        ldiu      @CL98,ar0             ; |662| 
     5330 000009d2 5040c000         ldiu      *ar0,r0               ; |662| 
     5331 000009d3 04e00000         cmpi      0,r0                  ; |662| 
     5332 000009d4 6a05ffa7         beq       L78                   ; |662| 
     5333                   ;*      Branch Occurs to L78            ; |662| 
     5334 000009d5 04e00001         cmpi      1,r0                  ; |662| 
     5335 000009d6 6a05ffd5         beq       L81                   ; |662| 
     5336                   ;*      Branch Occurs to L81            ; |662| 
     5337 000009d7 04e00002         cmpi      2,r0                  ; |662| 
     5338 000009d8 6a05ffed         beq       L83                   ; |662| 
     5339                   ;*      Branch Occurs to L83            ; |662| 
     5340 000009d9 04e00003         cmpi      3,r0                  ; |662| 
     5341 000009da 6a05ffb1         beq       L79                   ; |662| 
     5342                   ;*      Branch Occurs to L79            ; |662| 
     5343 000009db 04e00004         cmpi      4,r0                  ; |662| 
     5344 000009dc 6a05ffbf         beq       L80                   ; |662| 
     5345                   ;*      Branch Occurs to L80            ; |662| 
     5346 000009dd 04e00006         cmpi      6,r0                  ; |662| 
TMS320C3x/4x COFF AssemblerVersion 5.12     Mon Nov 19 13:45:24 2018
Copyright (c) 1987-1999 Texas Instruments Incorporatedasm30.exe -@_6L4.AAB 

F:\WKDIR\CodeComposer\EEA_SA_V613b\BOOT\SOURCE\ASM\main.asm          PAGE  100

     5347 000009de 6a05ffdd         beq       L82                   ; |662| 
     5348                   ;*      Branch Occurs to L82            ; |662| 
     5349 000009df          L91:        
     5350                           .line   128
     5351                   ;----------------------------------------------------------------------
     5352                   ; 689 | LCD_PAGE();                                                            
     5353                   ;----------------------------------------------------------------------
     5354 000009df 08700000-        ldp       @CL404,DP
     5355 000009e0 50200198-        ldiu      @CL404,r0             ; |689| 
     5356 000009e1 70000000         callu     r0                    ; far call to _LCD_PAGE ; |689| 
     5357                                                           ; |689| Far Call Occurs
     5358                           .line   129
     5359                   ;----------------------------------------------------------------------
     5360                   ; 690 | RTC_setup();                                                           
     5361                   ;----------------------------------------------------------------------
     5362 000009e2 08700000-        ldp       @CL414,DP
     5363 000009e3 502001a2-        ldiu      @CL414,r0             ; |690| 
     5364 000009e4 70000000         callu     r0                    ; far call to _RTC_setup        ; |690| 
     5365                                                           ; |690| Far Call Occurs
     5366                           .line   130
     5367                   ;----------------------------------------------------------------------
     5368                   ; 691 | Setup_Timer(0, 11.0/(2.0*115200.0));                                   
     5369                   ;----------------------------------------------------------------------
     5370 000009e5 08700000-        ldp       @CL415,DP
     5371 000009e6 402201a3-        ldfu      @CL415,f2             ; |691| 
     5372 000009e7 08700000-        ldp       @CL416,DP
     5373 000009e8 506a0000         ldiu      0,ar2                 ; |691| 
     5374 000009e9 502001a4-        ldiu      @CL416,r0             ; |691| 
     5375 000009ea 70000000         callu     r0                    ; far call to _Setup_Timer      ; |691| 
     5376                                                           ; |691| Far Call Occurs
     5377                           .line   131
     5378                   ;----------------------------------------------------------------------
     5379                   ; 692 | Setup_Timer(1, 0);                                                     
     5380                   ;----------------------------------------------------------------------
     5381 000009eb 08700000-        ldp       @CL416,DP
     5382 000009ec 506a0001         ldiu      1,ar2                 ; |692| 
     5383 000009ed 502001a4-        ldiu      @CL416,r0             ; |692| 
     5384 000009ee 40628000         ldfu      0.0000000000e+00,f2   ; |692| 
     5385 000009ef 70000000         callu     r0                    ; far call to _Setup_Timer      ; |692| 
     5386                                                           ; |692| Far Call Occurs
     5387                           .line   132
     5388                   ;----------------------------------------------------------------------
     5389                   ; 693 | VAR_DAMP_Init(0);                                                      
     5390                   ;----------------------------------------------------------------------
     5391 000009f0 08700000-        ldp       @CL417,DP
     5392 000009f1 502001a5-        ldiu      @CL417,r0             ; |693| 
     5393 000009f2 506a0000         ldiu      0,ar2                 ; |693| 
     5394 000009f3 70000000         callu     r0                    ; far call to _VAR_DAMP_Init    ; |693| 
     5395                                                           ; |693| Far Call Occurs
     5396                           .line   133
     5397                   ;----------------------------------------------------------------------
     5398                   ; 694 | Initialize_Periodic_Events();                                          
     5399                   ;----------------------------------------------------------------------
     5400 000009f4 08700000-        ldp       @CL418,DP
TMS320C3x/4x COFF AssemblerVersion 5.12     Mon Nov 19 13:45:24 2018
Copyright (c) 1987-1999 Texas Instruments Incorporatedasm30.exe -@_6L4.AAB 

F:\WKDIR\CodeComposer\EEA_SA_V613b\BOOT\SOURCE\ASM\main.asm          PAGE  101

     5401 000009f5 502001a6-        ldiu      @CL418,r0             ; |694| 
     5402 000009f6 70000000         callu     r0                    ; far call to _Initialize_Periodic_Events       ; |694| 
     5403                                                           ; |694| Far Call Occurs
     5404                           .line   134
     5405                   ;----------------------------------------------------------------------
     5406                   ; 695 | Setup_Serial_Port0();                                                  
     5407                   ;----------------------------------------------------------------------
     5408 000009f7 08700000-        ldp       @CL419,DP
     5409 000009f8 502001a7-        ldiu      @CL419,r0             ; |695| 
     5410 000009f9 70000000         callu     r0                    ; far call to _Setup_Serial_Port0       ; |695| 
     5411                                                           ; |695| Far Call Occurs
     5412                           .line   136
     5413                   ;----------------------------------------------------------------------
     5414                   ; 697 | for (i=0;i<ADC_MAX;i++)                                                
     5415                   ;----------------------------------------------------------------------
     5416 000009fa 50600000         ldiu      0,r0                  ; |697| 
     5417 000009fb 15400301         sti       r0,*+fp(1)            ; |697| 
     5418 000009fc 04e0000c         cmpi      12,r0                 ; |697| 
     5419 000009fd 6a040009         bhs       L93                   ; |697| 
     5420                   ;*      Branch Occurs to L93            ; |697| 
     5421 000009fe          L92:        
     5422                           .line   137
     5423                   ;----------------------------------------------------------------------
     5424                   ; 698 | Setup_ADC(i);                                                          
     5425                   ;----------------------------------------------------------------------
     5426 000009fe 08700000-        ldp       @CL420,DP
     5427 000009ff 504a0301         ldiu      *+fp(1),ar2           ; |698| 
     5428 00000a00 502001a8-        ldiu      @CL420,r0             ; |698| 
     5429 00000a01 70000000         callu     r0                    ; far call to _Setup_ADC        ; |698| 
     5430                                                           ; |698| Far Call Occurs
     5431                           .line   136
     5432 00000a02 50600001         ldiu      1,r0                  ; |697| 
     5433 00000a03 02400301         addi      *+fp(1),r0            ; |697| Unsigned
     5434 00000a04 15400301         sti       r0,*+fp(1)            ; |697| 
     5435 00000a05 04e0000c         cmpi      12,r0                 ; |697| 
     5436 00000a06 6a01fff7         blo       L92                   ; |697| 
     5437                   ;*      Branch Occurs to L92            ; |697| 
     5438 00000a07          L93:        
     5439                           .line   139
     5440                   ;----------------------------------------------------------------------
     5441                   ; 700 | for (i=0;i<DAC_MAX;i++)                                                
     5442                   ;----------------------------------------------------------------------
     5443 00000a07 50600000         ldiu      0,r0                  ; |700| 
     5444 00000a08 15400301         sti       r0,*+fp(1)            ; |700| 
     5445 00000a09 04e0000c         cmpi      12,r0                 ; |700| 
     5446 00000a0a 6a040009         bhs       L95                   ; |700| 
     5447                   ;*      Branch Occurs to L95            ; |700| 
     5448 00000a0b          L94:        
     5449                           .line   140
     5450                   ;----------------------------------------------------------------------
     5451                   ; 701 | Setup_DAC(i);                                                          
     5452                   ;----------------------------------------------------------------------
     5453 00000a0b 08700000-        ldp       @CL421,DP
     5454 00000a0c 504a0301         ldiu      *+fp(1),ar2           ; |701| 
TMS320C3x/4x COFF AssemblerVersion 5.12     Mon Nov 19 13:45:24 2018
Copyright (c) 1987-1999 Texas Instruments Incorporatedasm30.exe -@_6L4.AAB 

F:\WKDIR\CodeComposer\EEA_SA_V613b\BOOT\SOURCE\ASM\main.asm          PAGE  102

     5455 00000a0d 502001a9-        ldiu      @CL421,r0             ; |701| 
     5456 00000a0e 70000000         callu     r0                    ; far call to _Setup_DAC        ; |701| 
     5457                                                           ; |701| Far Call Occurs
     5458                           .line   139
     5459 00000a0f 50600001         ldiu      1,r0                  ; |700| 
     5460 00000a10 02400301         addi      *+fp(1),r0            ; |700| Unsigned
     5461 00000a11 15400301         sti       r0,*+fp(1)            ; |700| 
     5462 00000a12 04e0000c         cmpi      12,r0                 ; |700| 
     5463 00000a13 6a01fff7         blo       L94                   ; |700| 
     5464                   ;*      Branch Occurs to L94            ; |700| 
     5465 00000a14          L95:        
     5466                           .line   142
     5467                   ;----------------------------------------------------------------------
     5468                   ; 703 | if ((REG_TEMPERATURE_EXTERNAL.unit & 0xFF) == u_temp_C)                
     5469                   ;----------------------------------------------------------------------
     5470 00000a14 08700000-        ldp       @CL422,DP
     5471 00000a15 502801aa-        ldiu      @CL422,ar0            ; |703| 
     5472 00000a16 506000ff         ldiu      255,r0                ; |703| 
     5473 00000a17 21a0c000         and3      r0,*ar0,r0            ; |703| 
     5474 00000a18 04e00020         cmpi      32,r0                 ; |703| 
     5475 00000a19 6a060005         bne       L97                   ; |703| 
     5476                   ;*      Branch Occurs to L97            ; |703| 
     5477                           .line   143
     5478                   ;----------------------------------------------------------------------
     5479                   ; 704 | DIO_TEMP_C.val = TRUE;                                                 
     5480                   ; 705 | else                                                                   
     5481                   ;----------------------------------------------------------------------
     5482 00000a1a 08700000-        ldp       @CL423,DP
     5483 00000a1b 502801ab-        ldiu      @CL423,ar0            ; |704| 
     5484 00000a1c 50600001         ldiu      1,r0                  ; |704| 
     5485 00000a1d 1540c000         sti       r0,*ar0               ; |704| 
     5486 00000a1e 6a000004         bu        L98                   ; |561| 
     5487                   ;*      Branch Occurs to L98            ; |561| 
     5488 00000a1f          L97:        
     5489                           .line   145
     5490                   ;----------------------------------------------------------------------
     5491                   ; 706 | DIO_TEMP_C.val = FALSE;                                                
     5492                   ;----------------------------------------------------------------------
     5493 00000a1f 08700000-        ldp       @CL423,DP
     5494 00000a20 502801ab-        ldiu      @CL423,ar0            ; |706| 
     5495 00000a21 50600000         ldiu      0,r0                  ; |706| 
     5496 00000a22 1540c000         sti       r0,*ar0               ; |706| 
     5497 00000a23          L98:        
     5498                           .line   147
     5499                   ;----------------------------------------------------------------------
     5500                   ; 708 | if (DIO_BUILT_IN_TEST_ENABLE.val)                                      
     5501                   ;----------------------------------------------------------------------
     5502 00000a23 08700000-        ldp       @CL424,DP
     5503 00000a24 502801ac-        ldiu      @CL424,ar0            ; |708| 
     5504 00000a25 5040c000         ldiu      *ar0,r0               ; |708| 
     5505 00000a26 04e00000         cmpi      0,r0                  ; |708| 
     5506 00000a27 6a050003         beq       L100                  ; |708| 
     5507                   ;*      Branch Occurs to L100           ; |708| 
     5508                           .line   148
TMS320C3x/4x COFF AssemblerVersion 5.12     Mon Nov 19 13:45:24 2018
Copyright (c) 1987-1999 Texas Instruments Incorporatedasm30.exe -@_6L4.AAB 

F:\WKDIR\CodeComposer\EEA_SA_V613b\BOOT\SOURCE\ASM\main.asm          PAGE  103

     5509                   ;----------------------------------------------------------------------
     5510                   ; 709 | Self_Test_FULL();                                                      
     5511                   ;----------------------------------------------------------------------
     5512 00000a28 08700000-        ldp       @CL425,DP
     5513 00000a29 502001ad-        ldiu      @CL425,r0             ; |709| 
     5514 00000a2a 70000000         callu     r0                    ; far call to _Self_Test_FULL   ; |709| 
     5515                                                           ; |709| Far Call Occurs
     5516 00000a2b          L100:        
     5517                           .line   151
     5518                   ;----------------------------------------------------------------------
     5519                   ; 712 | ENABLE_EXTINT1;                                                        
     5520                   ;----------------------------------------------------------------------
     5521 00000a2b 0f350000         push    ST                      
     5522 00000a2c 03752000         andn    2000h, ST       
     5523 00000a2d 08700000-        ldp       @CL378,DP
     5524 00000a2e 5028017e-        ldiu      @CL378,ar0            ; |712| 
     5525 00000a2f 50600002         ldiu      2,r0                  ; |712| 
     5526 00000a30 25a0c000         or3       r0,*ar0,r0            ; |712| 
     5527 00000a31 1540c000         sti       r0,*ar0               ; |712| 
     5528 00000a32 0e350000         pop             ST                      
     5529                           .line   152
     5530                   ;----------------------------------------------------------------------
     5531                   ; 713 | ENABLE_INT1;                                                           
     5532                   ;----------------------------------------------------------------------
     5533 00000a33 10760002         or              0002h, IE
     5534                           .line   153
     5535                   ;----------------------------------------------------------------------
     5536                   ; 714 | CLEAR_INT1;                                                            
     5537                   ;----------------------------------------------------------------------
     5538 00000a34 03770002         andn    0002h, IF
     5539                           .line   156
     5540                   ;----------------------------------------------------------------------
     5541                   ; 717 | ENABLE_IRDA; //enable IrDA (USB)                                       
     5542                   ;----------------------------------------------------------------------
     5543 00000a35 0f350000         push    ST                      
     5544 00000a36 03752000         andn    2000h, ST       
     5545 00000a37 08700000-        ldp       @CL5,DP
     5546 00000a38 50280004-        ldiu      @CL5,ar0              ; |717| 
     5547 00000a39 50600010         ldiu      16,r0                 ; |717| 
     5548 00000a3a 25a0c000         or3       r0,*ar0,r0            ; |717| 
     5549 00000a3b 1540c000         sti       r0,*ar0               ; |717| 
     5550 00000a3c 0e350000         pop             ST                      
     5551                           .line   158
     5552                   ;----------------------------------------------------------------------
     5553                   ; 719 | if (LOG_STATUS == ALFAT_CONTINUE_LOG)                                  
     5554                   ;----------------------------------------------------------------------
     5555 00000a3d 08700000-        ldp       @CL426,DP
     5556 00000a3e 502801ae-        ldiu      @CL426,ar0            ; |719| 
     5557 00000a3f 5040c000         ldiu      *ar0,r0               ; |719| 
     5558 00000a40 04e00052         cmpi      82,r0                 ; |719| 
     5559 00000a41 6a060007         bne       L102                  ; |719| 
     5560                   ;*      Branch Occurs to L102           ; |719| 
     5561                           .line   160
     5562                   ;----------------------------------------------------------------------
TMS320C3x/4x COFF AssemblerVersion 5.12     Mon Nov 19 13:45:24 2018
Copyright (c) 1987-1999 Texas Instruments Incorporatedasm30.exe -@_6L4.AAB 

F:\WKDIR\CodeComposer\EEA_SA_V613b\BOOT\SOURCE\ASM\main.asm          PAGE  104

     5563                   ; 721 | Timer_Insert(&ALFAT_LOG,0,TMR_action_replace);                         
     5564                   ;----------------------------------------------------------------------
     5565 00000a42 08700000-        ldp       @CL428,DP
     5566 00000a43 502001b0-        ldiu      @CL428,r0             ; |721| 
     5567 00000a44 50630001         ldiu      1,r3                  ; |721| 
     5568 00000a45 08700000-        ldp       @CL427,DP
     5569 00000a46 50620000         ldiu      0,r2                  ; |721| 
     5570 00000a47 502a01af-        ldiu      @CL427,ar2            ; |721| 
     5571 00000a48 70000000         callu     r0                    ; far call to _Timer_Insert     ; |721| 
     5572                                                           ; |721| Far Call Occurs
     5573 00000a49          L102:        
     5574                           .line   163
     5575                   ;----------------------------------------------------------------------
     5576                   ; 724 | Port_Defaults(FALSE);                                                  
     5577                   ;----------------------------------------------------------------------
     5578 00000a49 08700000-        ldp       @CL429,DP
     5579 00000a4a 506a0000         ldiu      0,ar2                 ; |724| 
     5580 00000a4b 502001b1-        ldiu      @CL429,r0             ; |724| 
     5581 00000a4c 70000000         callu     r0                    ; far call to _Port_Defaults    ; |724| 
     5582                                                           ; |724| Far Call Occurs
     5583                           .line   164
     5584                   ;----------------------------------------------------------------------
     5585                   ; 725 | Disable_Heater();                                                      
     5586                   ;----------------------------------------------------------------------
     5587 00000a4d 08700000-        ldp       @CL430,DP
     5588 00000a4e 502001b2-        ldiu      @CL430,r0             ; |725| 
     5589 00000a4f 70000000         callu     r0                    ; far call to _Disable_Heater   ; |725| 
     5590                                                           ; |725| Far Call Occurs
     5591                           .line   167
     5592                   ;----------------------------------------------------------------------
     5593                   ; 728 | RESET_COUNTER++;                                                       
     5594                   ;----------------------------------------------------------------------
     5595 00000a50 08700000-        ldp       @CL431,DP
     5596 00000a51 502801b3-        ldiu      @CL431,ar0            ; |728| 
     5597 00000a52 50600001         ldiu      1,r0                  ; |728| 
     5598 00000a53 2120c000         addi3     r0,*ar0,r0            ; |728| 
     5599 00000a54 1540c000         sti       r0,*ar0               ; |728| 
     5600                           .line   168
     5601                   ;----------------------------------------------------------------------
     5602                   ; 729 | Write_CFG_USER();                                                      
     5603                   ;----------------------------------------------------------------------
     5604 00000a55 08700000-        ldp       @CL432,DP
     5605 00000a56 502001b4-        ldiu      @CL432,r0             ; |729| 
     5606 00000a57 70000000         callu     r0                    ; far call to _Write_CFG_USER   ; |729| 
     5607                                                           ; |729| Far Call Occurs
     5608                           .line   171
     5609                   ;----------------------------------------------------------------------
     5610                   ; 732 | if (!DEMO)                                                             
     5611                   ;----------------------------------------------------------------------
     5612 00000a58 08700000-        ldp       @CL433,DP
     5613 00000a59 502801b5-        ldiu      @CL433,ar0            ; |732| 
     5614 00000a5a 5040c000         ldiu      *ar0,r0               ; |732| 
     5615 00000a5b 04e00000         cmpi      0,r0                  ; |732| 
     5616 00000a5c 6a060004         bne       L104                  ; |732| 
TMS320C3x/4x COFF AssemblerVersion 5.12     Mon Nov 19 13:45:24 2018
Copyright (c) 1987-1999 Texas Instruments Incorporatedasm30.exe -@_6L4.AAB 

F:\WKDIR\CodeComposer\EEA_SA_V613b\BOOT\SOURCE\ASM\main.asm          PAGE  105

     5617                   ;*      Branch Occurs to L104           ; |732| 
     5618                           .line   172
     5619                   ;----------------------------------------------------------------------
     5620                   ; 733 | Clear_Accumulators(0);                                                 
     5621                   ;----------------------------------------------------------------------
     5622 00000a5d 08700000-        ldp       @CL434,DP
     5623 00000a5e 506a0000         ldiu      0,ar2                 ; |733| 
     5624 00000a5f 502001b6-        ldiu      @CL434,r0             ; |733| 
     5625 00000a60 70000000         callu     r0                    ; far call to _Clear_Accumulators       ; |733| 
     5626                                                           ; |733| Far Call Occurs
     5627 00000a61          L104:        
     5628                           .line   175
     5629                   ;----------------------------------------------------------------------
     5630                   ; 736 | VT_SELECT       = 0;                                                   
     5631                   ;----------------------------------------------------------------------
     5632 00000a61 08700000-        ldp       @CL435,DP
     5633 00000a62 502801b7-        ldiu      @CL435,ar0            ; |736| 
     5634 00000a63 50600000         ldiu      0,r0                  ; |736| 
     5635 00000a64 1540c000         sti       r0,*ar0               ; |736| 
     5636                           .line   176
     5637                   ;----------------------------------------------------------------------
     5638                   ; 737 | OSWITCH         = 1;                                                   
     5639                   ;----------------------------------------------------------------------
     5640 00000a65 08700000-        ldp       @CL436,DP
     5641 00000a66 502801b8-        ldiu      @CL436,ar0            ; |737| 
     5642 00000a67 50600001         ldiu      1,r0                  ; |737| 
     5643 00000a68 1540c000         sti       r0,*ar0               ; |737| 
     5644                           .line   177
     5645                   ;----------------------------------------------------------------------
     5646                   ; 738 | SELECT_LOAD_EXT;                                                       
     5647                   ;----------------------------------------------------------------------
     5648 00000a69 0f350000         push    ST                      
     5649 00000a6a 03752000         andn    2000h, ST       
     5650 00000a6b 08700000-        ldp       @CL437,DP
     5651 00000a6c 502801b9-        ldiu      @CL437,ar0            ; |738| 
     5652 00000a6d 25a0c000         or3       r0,*ar0,r0            ; |738| 
     5653 00000a6e 1540c000         sti       r0,*ar0               ; |738| 
     5654 00000a6f 0e350000         pop             ST                      
     5655                           .line   179
     5656                   ;----------------------------------------------------------------------
     5657                   ; 740 | if (EXTUNE)                                                            
     5658                   ;----------------------------------------------------------------------
     5659 00000a70 08700000-        ldp       @CL438,DP
     5660 00000a71 502801ba-        ldiu      @CL438,ar0            ; |740| 
     5661 00000a72 5040c000         ldiu      *ar0,r0               ; |740| 
     5662 00000a73 04e00000         cmpi      0,r0                  ; |740| 
     5663 00000a74 6a05001b         beq       L106                  ; |740| 
     5664                   ;*      Branch Occurs to L106           ; |740| 
     5665                           .line   181
     5666                   ;----------------------------------------------------------------------
     5667                   ; 742 | VAR_Update(&REG_DAC[DAC_VTUNE], REG_VTUNE_SET[VT_SELECT].calc_val, 0, 0
     5668                   ;     | );                                                                     
     5669                   ;----------------------------------------------------------------------
     5670 00000a75 08700000-        ldp       @CL435,DP
TMS320C3x/4x COFF AssemblerVersion 5.12     Mon Nov 19 13:45:24 2018
Copyright (c) 1987-1999 Texas Instruments Incorporatedasm30.exe -@_6L4.AAB 

F:\WKDIR\CodeComposer\EEA_SA_V613b\BOOT\SOURCE\ASM\main.asm          PAGE  106

     5671 00000a76 502801b7-        ldiu      @CL435,ar0            ; |742| 
     5672 00000a77 08700000-        ldp       @CL439,DP
     5673 00000a78 5060002c         ldiu      44,r0                 ; |742| 
     5674 00000a79 502a01bb-        ldiu      @CL439,ar2            ; |742| 
     5675 00000a7a 2528c000         mpyi3     r0,*ar0,ar0           ; |742| 
     5676 00000a7b 08700000-        ldp       @CL440,DP
     5677 00000a7c 507b0000         ldiu      0,rc                  ; |742| 
     5678 00000a7d 022801bc-        addi      @CL440,ar0            ; |742| Unsigned
     5679 00000a7e 08700000-        ldp       @CL67,DP
     5680 00000a7f 4042c000         ldfu      *ar0,f2               ; |742| 40b float hi half
     5681 00000a80 50200042-        ldiu      @CL67,r0              ; |742| 
     5682 00000a81 50420001         ldiu      *+ar0,r2              ; |742| 40b float lo half
     5683 00000a82 50630000         ldiu      0,r3                  ; |742| 
     5684 00000a83 70000000         callu     r0                    ; far call to _VAR_Update       ; |742| 
     5685                                                           ; |742| Far Call Occurs
     5686                           .line   182
     5687                   ;----------------------------------------------------------------------
     5688                   ; 743 | VAR_Update(&REG_DAC[DAC_TUNESEL], 5.0, 0, 0);                          
     5689                   ; 745 | else                                                                   
     5690                   ;----------------------------------------------------------------------
     5691 00000a84 08700000-        ldp       @CL441,DP
     5692 00000a85 502a01bd-        ldiu      @CL441,ar2            ; |743| 
     5693 00000a86 08700000-        ldp       @CL67,DP
     5694 00000a87 50200042-        ldiu      @CL67,r0              ; |743| 
     5695 00000a88 08700000-        ldp       @CL442+0,DP
     5696 00000a89 402201be-        ldfu      @CL442+0,f2           ; |743| 40b float hi half
     5697 00000a8a 08700000-        ldp       @CL442+1,DP
     5698 00000a8b 507b0000         ldiu      0,rc                  ; |743| 
     5699 00000a8c 502201bf-        ldiu      @CL442+1,r2           ; |743| 40b float lo half
     5700 00000a8d 50630000         ldiu      0,r3                  ; |743| 
     5701 00000a8e 70000000         callu     r0                    ; far call to _VAR_Update       ; |743| 
     5702                                                           ; |743| Far Call Occurs
     5703 00000a8f 6a000016         bu        L107                  ; |561| 
     5704                   ;*      Branch Occurs to L107           ; |561| 
     5705 00000a90          L106:        
     5706                           .line   186
     5707                   ;----------------------------------------------------------------------
     5708                   ; 747 | VAR_Update(&REG_DAC[DAC_VTUNE], 0.0, 0, 0);                            
     5709                   ;----------------------------------------------------------------------
     5710 00000a90 08700000-        ldp       @CL439,DP
     5711 00000a91 502a01bb-        ldiu      @CL439,ar2            ; |747| 
     5712 00000a92 08700000-        ldp       @CL67,DP
     5713 00000a93 50200042-        ldiu      @CL67,r0              ; |747| 
     5714 00000a94 08700000-        ldp       @CL79+0,DP
     5715 00000a95 4022004e-        ldfu      @CL79+0,f2            ; |747| 40b float hi half
     5716 00000a96 08700000-        ldp       @CL79+1,DP
     5717 00000a97 507b0000         ldiu      0,rc                  ; |747| 
     5718 00000a98 5022004f-        ldiu      @CL79+1,r2            ; |747| 40b float lo half
     5719 00000a99 50630000         ldiu      0,r3                  ; |747| 
     5720 00000a9a 70000000         callu     r0                    ; far call to _VAR_Update       ; |747| 
     5721                                                           ; |747| Far Call Occurs
     5722                           .line   187
     5723                   ;----------------------------------------------------------------------
     5724                   ; 748 | VAR_Update(&REG_DAC[DAC_TUNESEL], 0.0, 0, 0);                          
TMS320C3x/4x COFF AssemblerVersion 5.12     Mon Nov 19 13:45:24 2018
Copyright (c) 1987-1999 Texas Instruments Incorporatedasm30.exe -@_6L4.AAB 

F:\WKDIR\CodeComposer\EEA_SA_V613b\BOOT\SOURCE\ASM\main.asm          PAGE  107

     5725                   ;----------------------------------------------------------------------
     5726 00000a9b 08700000-        ldp       @CL441,DP
     5727 00000a9c 502a01bd-        ldiu      @CL441,ar2            ; |748| 
     5728 00000a9d 08700000-        ldp       @CL67,DP
     5729 00000a9e 50200042-        ldiu      @CL67,r0              ; |748| 
     5730 00000a9f 08700000-        ldp       @CL79+0,DP
     5731 00000aa0 4022004e-        ldfu      @CL79+0,f2            ; |748| 40b float hi half
     5732 00000aa1 08700000-        ldp       @CL79+1,DP
     5733 00000aa2 507b0000         ldiu      0,rc                  ; |748| 
     5734 00000aa3 5022004f-        ldiu      @CL79+1,r2            ; |748| 40b float lo half
     5735 00000aa4 50630000         ldiu      0,r3                  ; |748| 
     5736 00000aa5 70000000         callu     r0                    ; far call to _VAR_Update       ; |748| 
     5737                                                           ; |748| Far Call Occurs
     5738 00000aa6          L107:        
     5739                           .line   190
     5740                   ;----------------------------------------------------------------------
     5741                   ; 751 | if (!SA)                                                               
     5742                   ;----------------------------------------------------------------------
     5743 00000aa6 08700000-        ldp       @CL373,DP
     5744 00000aa7 50280179-        ldiu      @CL373,ar0            ; |751| 
     5745 00000aa8 5040c000         ldiu      *ar0,r0               ; |751| 
     5746 00000aa9 04e00000         cmpi      0,r0                  ; |751| 
     5747 00000aaa 6a060004         bne       L109                  ; |751| 
     5748                   ;*      Branch Occurs to L109           ; |751| 
     5749                           .line   191
     5750                   ;----------------------------------------------------------------------
     5751                   ; 752 | Write_DAC(DAC_TUNESEL);                                                
     5752                   ;----------------------------------------------------------------------
     5753 00000aab 08700000-        ldp       @CL443,DP
     5754 00000aac 506a000b         ldiu      11,ar2                ; |752| 
     5755 00000aad 502001c0-        ldiu      @CL443,r0             ; |752| 
     5756 00000aae 70000000         callu     r0                    ; far call to _Write_DAC        ; |752| 
     5757                                                           ; |752| Far Call Occurs
     5758 00000aaf          L109:        
     5759                           .line   193
     5760                   ;----------------------------------------------------------------------
     5761                   ; 754 | Write_DAC(DAC_VTUNE);                                                  
     5762                   ;----------------------------------------------------------------------
     5763 00000aaf 08700000-        ldp       @CL443,DP
     5764 00000ab0 506a000a         ldiu      10,ar2                ; |754| 
     5765 00000ab1 502001c0-        ldiu      @CL443,r0             ; |754| 
     5766 00000ab2 70000000         callu     r0                    ; far call to _Write_DAC        ; |754| 
     5767                                                           ; |754| Far Call Occurs
     5768                           .line   194
     5769                   ;----------------------------------------------------------------------
     5770                   ; 755 | Set_Research_Mode();            /* start sampling */                   
     5771                   ;----------------------------------------------------------------------
     5772 00000ab3 08700000-        ldp       @CL444,DP
     5773 00000ab4 502001c1-        ldiu      @CL444,r0             ; |755| 
     5774 00000ab5 70000000         callu     r0                    ; far call to _Set_Research_Mode        ; |755| 
     5775                                                           ; |755| Far Call Occurs
     5776                           .line   197
     5777                   ;----------------------------------------------------------------------
     5778                   ; 758 | if (MEM)                                                               
TMS320C3x/4x COFF AssemblerVersion 5.12     Mon Nov 19 13:45:24 2018
Copyright (c) 1987-1999 Texas Instruments Incorporatedasm30.exe -@_6L4.AAB 

F:\WKDIR\CodeComposer\EEA_SA_V613b\BOOT\SOURCE\ASM\main.asm          PAGE  108

     5779                   ;----------------------------------------------------------------------
     5780 00000ab6 08700000-        ldp       @CL2,DP
     5781 00000ab7 50280001-        ldiu      @CL2,ar0              ; |758| 
     5782 00000ab8 5040c000         ldiu      *ar0,r0               ; |758| 
     5783 00000ab9 04e00000         cmpi      0,r0                  ; |758| 
     5784 00000aba 6a050003         beq       L111                  ; |758| 
     5785                   ;*      Branch Occurs to L111           ; |758| 
     5786                           .line   198
     5787                   ;----------------------------------------------------------------------
     5788                   ; 759 | Debug();                                                               
     5789                   ;----------------------------------------------------------------------
     5790 00000abb 08700000-        ldp       @CL445,DP
     5791 00000abc 502001c2-        ldiu      @CL445,r0             ; |759| 
     5792 00000abd 70000000         callu     r0                    ; far call to _Debug    ; |759| 
     5793                                                           ; |759| Far Call Occurs
     5794 00000abe          L111:        
     5795                           .line   200
     5796                   ;----------------------------------------------------------------------
     5797                   ; 761 | ENABLE_WDOG;                                                           
     5798                   ;----------------------------------------------------------------------
     5799 00000abe 0f350000         push    ST                      
     5800 00000abf 03752000         andn    2000h, ST       
     5801 00000ac0 08700000-        ldp       @CL5,DP
     5802 00000ac1 50280004-        ldiu      @CL5,ar0              ; |761| 
     5803 00000ac2 50600008         ldiu      8,r0                  ; |761| 
     5804 00000ac3 25a0c000         or3       r0,*ar0,r0            ; |761| 
     5805 00000ac4 1540c000         sti       r0,*ar0               ; |761| 
     5806 00000ac5 50600080         ldiu      128,r0                ; |761| 
     5807 00000ac6 25a0c000         or3       r0,*ar0,r0            ; |761| 
     5808 00000ac7 1540c000         sti       r0,*ar0               ; |761| 
     5809 00000ac8 0e350000         pop             ST                      
     5810                           .line   201
     5811                   ;----------------------------------------------------------------------
     5812                   ; 762 | INITIALIZING = FALSE;                                                  
     5813                   ;----------------------------------------------------------------------
     5814 00000ac9 08700000-        ldp       @CL379,DP
     5815 00000aca 5028017f-        ldiu      @CL379,ar0            ; |762| 
     5816 00000acb 50600000         ldiu      0,r0                  ; |762| 
     5817 00000acc 1540c000         sti       r0,*ar0               ; |762| 
     5818                           .line   202
     5819                   ;----------------------------------------------------------------------
     5820                   ; 763 | GIE;                                                                   
     5821                   ;----------------------------------------------------------------------
     5822 00000acd 10752000         or              2000h, ST       
     5823                           .line   203
     5824                                                           ; Begin Epilog Code
     5825 00000ace 50410b01         ldiu      *-fp(1),r1
     5826 00000acf 504bc300         ldiu      *fp,fp
     5827                                                           ; Unallocate the Frame
     5828 00000ad0 18740009         subi      9,sp
     5829 00000ad1 68000001         bu        r1
     5830                   ;*      Branch Occurs to r1 
     5831                           .endfunc        764,000000000h,7
     5832                   
TMS320C3x/4x COFF AssemblerVersion 5.12     Mon Nov 19 13:45:24 2018
Copyright (c) 1987-1999 Texas Instruments Incorporatedasm30.exe -@_6L4.AAB 

F:\WKDIR\CodeComposer\EEA_SA_V613b\BOOT\SOURCE\ASM\main.asm          PAGE  109

     5833                   
     5834 00000000                  .sect    "internal_RAM"
     5835                   
     5836                           .global _main
     5837                           .sym    _main,_main,36,2,0
     5838                           .func   782
     5839                   ;******************************************************************************
     5840                   ;* FUNCTION NAME: _main                                                       *
     5841                   ;*                                                                            *
     5842                   ;*   Architecture       : TMS320C33                                           *
     5843                   ;*   Calling Convention : TI Standard Register Parameters                     *
     5844                   ;*   Function Uses Regs : r0,ar0                                              *
     5845                   ;*   Regs Saved         :                                                     *
     5846                   ;*   Stack Frame        : Full (w/ debug)                                     *
     5847                   ;*   Total Frame Size   : 2 Call + 0 Parm + 0 Auto + 0 SOE = 2 words          *
     5848                   ;******************************************************************************
     5849 00000000          _main:
     5850                           .line   1
     5851                   ;----------------------------------------------------------------------
     5852                   ; 782 | main()                                                                 
     5853                   ; 784 | while (TRUE)                                                           
     5854                   ;----------------------------------------------------------------------
     5855 00000000 0f2b0000         push      fp
     5856 00000001 500b0014         ldiu      sp,fp
     5857 00000002          L115:        
     5858                           .line   5
     5859                   ;----------------------------------------------------------------------
     5860                   ; 786 | TICKLE_WATCHDOG;                                                       
     5861                   ;----------------------------------------------------------------------
     5862 00000002 0f350000         push    ST                      
     5863 00000003 03752000         andn    2000h, ST       
     5864 00000004 08700000-        ldp       @CL5,DP
     5865 00000005 50280004-        ldiu      @CL5,ar0              ; |786| 
     5866 00000006 50600080         ldiu      128,r0                ; |786| 
     5867 00000007 25a0c000         or3       r0,*ar0,r0            ; |786| 
     5868 00000008 1540c000         sti       r0,*ar0               ; |786| 
     5869 00000009 0e350000         pop             ST                      
     5870                           .line   7
     5871                   ;----------------------------------------------------------------------
     5872                   ; 788 | LCD_PAGE();                                                            
     5873                   ;----------------------------------------------------------------------
     5874 0000000a 08700000-        ldp       @CL404,DP
     5875 0000000b 50200198-        ldiu      @CL404,r0             ; |788| 
     5876 0000000c 70000000         callu     r0                    ; far call to _LCD_PAGE ; |788| 
     5877                                                           ; |788| Far Call Occurs
     5878                           .line   8
     5879                   ;----------------------------------------------------------------------
     5880                   ; 789 | Execute();                                                             
     5881                   ;----------------------------------------------------------------------
     5882 0000000d 62000000!        call      _Execute              ; |789| 
     5883                                                           ; |789| Call Occurs
     5884                           .line   9
     5885 0000000e 6a00fff3         bu        L115                  ; |790| 
     5886                   ;*      Branch Occurs to L115           ; |790| 
TMS320C3x/4x COFF AssemblerVersion 5.12     Mon Nov 19 13:45:24 2018
Copyright (c) 1987-1999 Texas Instruments Incorporatedasm30.exe -@_6L4.AAB 

F:\WKDIR\CodeComposer\EEA_SA_V613b\BOOT\SOURCE\ASM\main.asm          PAGE  110

     5887                           .line   10
     5888                           .endfunc        791,000000000h,0
     5889                   
     5890                   
     5891                   ;******************************************************************************
     5892                   ;* STRINGS                                                                    *
     5893                   ;******************************************************************************
     5894 00000000                  .sect   ".const"
     5895 00000000 00000000 SL1:    .byte   0
     5896 00000001 00000043 SL2:    .byte   "COR%i Dampen Flow",0
          00000002 0000004f 
          00000003 00000052 
          00000004 00000025 
          00000005 00000069 
          00000006 00000020 
          00000007 00000044 
          00000008 00000061 
          00000009 0000006d 
          0000000a 00000070 
          0000000b 00000065 
          0000000c 0000006e 
          0000000d 00000020 
          0000000e 00000046 
          0000000f 0000006c 
          00000010 0000006f 
          00000011 00000077 
          00000012 00000000 
     5897 00000013 00000043 SL3:    .byte   "COR%i Dampen Density",0
          00000014 0000004f 
          00000015 00000052 
          00000016 00000025 
          00000017 00000069 
          00000018 00000020 
          00000019 00000044 
          0000001a 00000061 
          0000001b 0000006d 
          0000001c 00000070 
          0000001d 00000065 
          0000001e 0000006e 
          0000001f 00000020 
          00000020 00000044 
          00000021 00000065 
          00000022 0000006e 
          00000023 00000073 
          00000024 00000069 
          00000025 00000074 
          00000026 00000079 
          00000027 00000000 
     5898 00000028 00000043 SL4:    .byte   "COR%i MFR Cutoff",0
          00000029 0000004f 
          0000002a 00000052 
          0000002b 00000025 
          0000002c 00000069 
          0000002d 00000020 
TMS320C3x/4x COFF AssemblerVersion 5.12     Mon Nov 19 13:45:24 2018
Copyright (c) 1987-1999 Texas Instruments Incorporatedasm30.exe -@_6L4.AAB 

F:\WKDIR\CodeComposer\EEA_SA_V613b\BOOT\SOURCE\ASM\main.asm          PAGE  111

          0000002e 0000004d 
          0000002f 00000046 
          00000030 00000052 
          00000031 00000020 
          00000032 00000043 
          00000033 00000075 
          00000034 00000074 
          00000035 0000006f 
          00000036 00000066 
          00000037 00000066 
          00000038 00000000 
     5899 00000039 00000043 SL5:    .byte   "COR%i VFR Cutoff",0
          0000003a 0000004f 
          0000003b 00000052 
          0000003c 00000025 
          0000003d 00000069 
          0000003e 00000020 
          0000003f 00000056 
          00000040 00000046 
          00000041 00000052 
          00000042 00000020 
          00000043 00000043 
          00000044 00000075 
          00000045 00000074 
          00000046 0000006f 
          00000047 00000066 
          00000048 00000066 
          00000049 00000000 
     5900 0000004a 00000043 SL6:    .byte   "COR%i MCF",0
          0000004b 0000004f 
          0000004c 00000052 
          0000004d 00000025 
          0000004e 00000069 
          0000004f 00000020 
          00000050 0000004d 
          00000051 00000043 
          00000052 00000046 
          00000053 00000000 
     5901 00000054 00000043 SL7:    .byte   "COR%i Address",0
          00000055 0000004f 
          00000056 00000052 
          00000057 00000025 
          00000058 00000069 
          00000059 00000020 
          0000005a 00000041 
          0000005b 00000064 
          0000005c 00000064 
          0000005d 00000072 
          0000005e 00000065 
          0000005f 00000073 
          00000060 00000073 
          00000061 00000000 
     5902 00000062 00000043 SL8:    .byte   "COR%i Mass Flow Unit",0
          00000063 0000004f 
TMS320C3x/4x COFF AssemblerVersion 5.12     Mon Nov 19 13:45:24 2018
Copyright (c) 1987-1999 Texas Instruments Incorporatedasm30.exe -@_6L4.AAB 

F:\WKDIR\CodeComposer\EEA_SA_V613b\BOOT\SOURCE\ASM\main.asm          PAGE  112

          00000064 00000052 
          00000065 00000025 
          00000066 00000069 
          00000067 00000020 
          00000068 0000004d 
          00000069 00000061 
          0000006a 00000073 
          0000006b 00000073 
          0000006c 00000020 
          0000006d 00000046 
          0000006e 0000006c 
          0000006f 0000006f 
          00000070 00000077 
          00000071 00000020 
          00000072 00000055 
          00000073 0000006e 
          00000074 00000069 
          00000075 00000074 
          00000076 00000000 
     5903 00000077 00000043 SL9:    .byte   "COR%i Density Cutoff",0
          00000078 0000004f 
          00000079 00000052 
          0000007a 00000025 
          0000007b 00000069 
          0000007c 00000020 
          0000007d 00000044 
          0000007e 00000065 
          0000007f 0000006e 
          00000080 00000073 
          00000081 00000069 
          00000082 00000074 
          00000083 00000079 
          00000084 00000020 
          00000085 00000043 
          00000086 00000075 
          00000087 00000074 
          00000088 0000006f 
          00000089 00000066 
          0000008a 00000066 
          0000008b 00000000 
     5904 0000008c 00000025 SL10:   .byte   "%s",0
          0000008d 00000073 
          0000008e 00000000 
     5905 0000008f 00000025 SL11:   .byte   "%s:    %2d.%02d",0
          00000090 00000073 
          00000091 0000003a 
          00000092 00000020 
          00000093 00000020 
          00000094 00000020 
          00000095 00000020 
          00000096 00000025 
          00000097 00000032 
          00000098 00000064 
          00000099 0000002e 
TMS320C3x/4x COFF AssemblerVersion 5.12     Mon Nov 19 13:45:24 2018
Copyright (c) 1987-1999 Texas Instruments Incorporatedasm30.exe -@_6L4.AAB 

F:\WKDIR\CodeComposer\EEA_SA_V613b\BOOT\SOURCE\ASM\main.asm          PAGE  113

          0000009a 00000025 
          0000009b 00000030 
          0000009c 00000032 
          0000009d 00000064 
          0000009e 00000000 
     5906 0000009f 00000025 SL12:   .byte   "%s:      %4.2f",0
          000000a0 00000073 
          000000a1 0000003a 
          000000a2 00000020 
          000000a3 00000020 
          000000a4 00000020 
          000000a5 00000020 
          000000a6 00000020 
          000000a7 00000020 
          000000a8 00000025 
          000000a9 00000034 
          000000aa 0000002e 
          000000ab 00000032 
          000000ac 00000066 
          000000ad 00000000 
     5907 000000ae 00000050 SL13:   .byte   "Phase Dynamics, Inc.",0
          000000af 00000068 
          000000b0 00000061 
          000000b1 00000073 
          000000b2 00000065 
          000000b3 00000020 
          000000b4 00000044 
          000000b5 00000079 
          000000b6 0000006e 
          000000b7 00000061 
          000000b8 0000006d 
          000000b9 00000069 
          000000ba 00000063 
          000000bb 00000073 
          000000bc 0000002c 
          000000bd 00000020 
          000000be 00000049 
          000000bf 0000006e 
          000000c0 00000063 
          000000c1 0000002e 
          000000c2 00000000 
     5908 000000c3 00000049 SL14:   .byte   "Initializing Data...",0
          000000c4 0000006e 
          000000c5 00000069 
          000000c6 00000074 
          000000c7 00000069 
          000000c8 00000061 
          000000c9 0000006c 
          000000ca 00000069 
          000000cb 0000007a 
          000000cc 00000069 
          000000cd 0000006e 
          000000ce 00000067 
          000000cf 00000020 
TMS320C3x/4x COFF AssemblerVersion 5.12     Mon Nov 19 13:45:24 2018
Copyright (c) 1987-1999 Texas Instruments Incorporatedasm30.exe -@_6L4.AAB 

F:\WKDIR\CodeComposer\EEA_SA_V613b\BOOT\SOURCE\ASM\main.asm          PAGE  114

          000000d0 00000044 
          000000d1 00000061 
          000000d2 00000074 
          000000d3 00000061 
          000000d4 0000002e 
          000000d5 0000002e 
          000000d6 0000002e 
          000000d7 00000000 
     5909 000000d8 00000048 SL15:   .byte   "HW Version:    %2d.%02d",0
          000000d9 00000057 
          000000da 00000020 
          000000db 00000056 
          000000dc 00000065 
          000000dd 00000072 
          000000de 00000073 
          000000df 00000069 
          000000e0 0000006f 
          000000e1 0000006e 
          000000e2 0000003a 
          000000e3 00000020 
          000000e4 00000020 
          000000e5 00000020 
          000000e6 00000020 
          000000e7 00000025 
          000000e8 00000032 
          000000e9 00000064 
          000000ea 0000002e 
          000000eb 00000025 
          000000ec 00000030 
          000000ed 00000032 
          000000ee 00000064 
          000000ef 00000000 
     5910 000000f0 00000046 SL16:   .byte   "FW Version:  %4.2f.%02i",0
          000000f1 00000057 
          000000f2 00000020 
          000000f3 00000056 
          000000f4 00000065 
          000000f5 00000072 
          000000f6 00000073 
          000000f7 00000069 
          000000f8 0000006f 
          000000f9 0000006e 
          000000fa 0000003a 
          000000fb 00000020 
          000000fc 00000020 
          000000fd 00000025 
          000000fe 00000034 
          000000ff 0000002e 
          00000100 00000032 
          00000101 00000066 
          00000102 0000002e 
          00000103 00000025 
          00000104 00000030 
          00000105 00000032 
TMS320C3x/4x COFF AssemblerVersion 5.12     Mon Nov 19 13:45:24 2018
Copyright (c) 1987-1999 Texas Instruments Incorporatedasm30.exe -@_6L4.AAB 

F:\WKDIR\CodeComposer\EEA_SA_V613b\BOOT\SOURCE\ASM\main.asm          PAGE  115

          00000106 00000069 
          00000107 00000000 
     5911 00000108 00000020 SL17:   .byte   " Low Range Analyzer ",0
          00000109 0000004c 
          0000010a 0000006f 
          0000010b 00000077 
          0000010c 00000020 
          0000010d 00000052 
          0000010e 00000061 
          0000010f 0000006e 
          00000110 00000067 
          00000111 00000065 
          00000112 00000020 
          00000113 00000041 
          00000114 0000006e 
          00000115 00000061 
          00000116 0000006c 
          00000117 00000079 
          00000118 0000007a 
          00000119 00000065 
          0000011a 00000072 
          0000011b 00000020 
          0000011c 00000000 
     5912 0000011d 00000020 SL18:   .byte   " Mid Range Analyzer ",0
          0000011e 0000004d 
          0000011f 00000069 
          00000120 00000064 
          00000121 00000020 
          00000122 00000052 
          00000123 00000061 
          00000124 0000006e 
          00000125 00000067 
          00000126 00000065 
          00000127 00000020 
          00000128 00000041 
          00000129 0000006e 
          0000012a 00000061 
          0000012b 0000006c 
          0000012c 00000079 
          0000012d 0000007a 
          0000012e 00000065 
          0000012f 00000072 
          00000130 00000020 
          00000131 00000000 
     5913 00000132 00000048 SL19:   .byte   "High Range Analyzer ",0
          00000133 00000069 
          00000134 00000067 
          00000135 00000068 
          00000136 00000020 
          00000137 00000052 
          00000138 00000061 
          00000139 0000006e 
          0000013a 00000067 
          0000013b 00000065 
TMS320C3x/4x COFF AssemblerVersion 5.12     Mon Nov 19 13:45:24 2018
Copyright (c) 1987-1999 Texas Instruments Incorporatedasm30.exe -@_6L4.AAB 

F:\WKDIR\CodeComposer\EEA_SA_V613b\BOOT\SOURCE\ASM\main.asm          PAGE  116

          0000013c 00000020 
          0000013d 00000041 
          0000013e 0000006e 
          0000013f 00000061 
          00000140 0000006c 
          00000141 00000079 
          00000142 0000007a 
          00000143 00000065 
          00000144 00000072 
          00000145 00000020 
          00000146 00000000 
     5914 00000147 00000046 SL20:   .byte   "Full Range Analyzer ",0
          00000148 00000075 
          00000149 0000006c 
          0000014a 0000006c 
          0000014b 00000020 
          0000014c 00000052 
          0000014d 00000061 
          0000014e 0000006e 
          0000014f 00000067 
          00000150 00000065 
          00000151 00000020 
          00000152 00000041 
          00000153 0000006e 
          00000154 00000061 
          00000155 0000006c 
          00000156 00000079 
          00000157 0000007a 
          00000158 00000065 
          00000159 00000072 
          0000015a 00000020 
          0000015b 00000000 
     5915 0000015c 00000020 SL21:   .byte   "  CCM Application   ",0
          0000015d 00000020 
          0000015e 00000043 
          0000015f 00000043 
          00000160 0000004d 
          00000161 00000020 
          00000162 00000041 
          00000163 00000070 
          00000164 00000070 
          00000165 0000006c 
          00000166 00000069 
          00000167 00000063 
          00000168 00000061 
          00000169 00000074 
          0000016a 00000069 
          0000016b 0000006f 
          0000016c 0000006e 
          0000016d 00000020 
          0000016e 00000020 
          0000016f 00000020 
          00000170 00000000 
     5916 00000171 00000020 SL22:   .byte   "      Analyzer      ",0
TMS320C3x/4x COFF AssemblerVersion 5.12     Mon Nov 19 13:45:24 2018
Copyright (c) 1987-1999 Texas Instruments Incorporatedasm30.exe -@_6L4.AAB 

F:\WKDIR\CodeComposer\EEA_SA_V613b\BOOT\SOURCE\ASM\main.asm          PAGE  117

          00000172 00000020 
          00000173 00000020 
          00000174 00000020 
          00000175 00000020 
          00000176 00000020 
          00000177 00000041 
          00000178 0000006e 
          00000179 00000061 
          0000017a 0000006c 
          0000017b 00000079 
          0000017c 0000007a 
          0000017d 00000065 
          0000017e 00000072 
          0000017f 00000020 
          00000180 00000020 
          00000181 00000020 
          00000182 00000020 
          00000183 00000020 
          00000184 00000020 
          00000185 00000000 
     5917                   ;******************************************************************************
     5918                   ;* CONSTANT TABLE                                                             *
     5919                   ;******************************************************************************
     5920 00000186                  .sect   ".const"
     5921 00000000                  .bss    CL1,1
     5922 00000001                  .bss    CL2,1
     5923 00000002                  .bss    CL3,1
     5924 00000003                  .bss    CL4,1
     5925 00000004                  .bss    CL5,1
     5926 00000005                  .bss    CL6,1
     5927 00000006                  .bss    CL7,1
     5928 00000007                  .bss    CL8,1
     5929 00000008                  .bss    CL9,1
     5930 00000009                  .bss    CL10,1
     5931 0000000a                  .bss    CL11,1
     5932 0000000b                  .bss    CL12,1
     5933 0000000c                  .bss    CL13,1
     5934 0000000d                  .bss    CL14,1
     5935 0000000e                  .bss    CL15,1
     5936 0000000f                  .bss    CL16,1
     5937 00000010                  .bss    CL17,1
     5938 00000011                  .bss    CL18,1
     5939 00000012                  .bss    CL19,1
     5940 00000013                  .bss    CL20,1
     5941 00000014                  .bss    CL21,1
     5942 00000015                  .bss    CL22,1
     5943 00000016                  .bss    CL23,1
     5944 00000017                  .bss    CL24,1
     5945 00000018                  .bss    CL25,1
     5946 00000019                  .bss    CL26,1
     5947 0000001a                  .bss    CL27,1
     5948 0000001b                  .bss    CL28,1
     5949 0000001c                  .bss    CL29,1
     5950 0000001d                  .bss    CL30,1
TMS320C3x/4x COFF AssemblerVersion 5.12     Mon Nov 19 13:45:24 2018
Copyright (c) 1987-1999 Texas Instruments Incorporatedasm30.exe -@_6L4.AAB 

F:\WKDIR\CodeComposer\EEA_SA_V613b\BOOT\SOURCE\ASM\main.asm          PAGE  118

     5951 0000001e                  .bss    CL31,1
     5952 0000001f                  .bss    CL32,1
     5953 00000020                  .bss    CL33,1
     5954 00000021                  .bss    CL34,1
     5955 00000022                  .bss    CL35,1
     5956 00000023                  .bss    CL36,1
     5957 00000024                  .bss    CL37,1
     5958 00000025                  .bss    CL38,1
     5959 00000026                  .bss    CL39,1
     5960 00000027                  .bss    CL40,1
     5961 00000028                  .bss    CL41,1
     5962 00000029                  .bss    CL42,1
     5963 0000002a                  .bss    CL43,1
     5964 0000002b                  .bss    CL44,1
     5965 0000002c                  .bss    CL45,1
     5966 0000002d                  .bss    CL46,1
     5967 0000002e                  .bss    CL47,1
     5968 0000002f                  .bss    CL48,1
     5969 00000030                  .bss    CL49,1
     5970 00000031                  .bss    CL50,1
     5971 00000032                  .bss    CL51,1
     5972 00000033                  .bss    CL52,1
     5973 00000034                  .bss    CL53,1
     5974 00000035                  .bss    CL54,1
     5975 00000036                  .bss    CL55,1
     5976 00000037                  .bss    CL56,1
     5977 00000038                  .bss    CL57,1
     5978 00000039                  .bss    CL58,1
     5979 0000003a                  .bss    CL59,1
     5980 0000003b                  .bss    CL60,1
     5981 0000003c                  .bss    CL61,1
     5982 0000003d                  .bss    CL62,1
     5983 0000003e                  .bss    CL63,1
     5984 0000003f                  .bss    CL64,1
     5985 00000040                  .bss    CL65,1
     5986 00000041                  .bss    CL66,1
     5987 00000042                  .bss    CL67,1
     5988 00000043                  .bss    CL68,1
     5989 00000044                  .bss    CL69,1
     5990 00000045                  .bss    CL70,1
     5991 00000046                  .bss    CL71,1
     5992 00000047                  .bss    CL72,1
     5993 00000048                  .bss    CL73,1
     5994 00000049                  .bss    CL74,1
     5995 0000004a                  .bss    CL75,1
     5996 0000004b                  .bss    CL76,1
     5997 0000004c                  .bss    CL77,1
     5998 0000004d                  .bss    CL78,1
     5999 0000004e                  .bss    CL79,2
     6000 00000050                  .bss    CL80,1
     6001 00000051                  .bss    CL81,1
     6002 00000052                  .bss    CL82,1
     6003 00000053                  .bss    CL83,1
     6004 00000054                  .bss    CL84,1
TMS320C3x/4x COFF AssemblerVersion 5.12     Mon Nov 19 13:45:24 2018
Copyright (c) 1987-1999 Texas Instruments Incorporatedasm30.exe -@_6L4.AAB 

F:\WKDIR\CodeComposer\EEA_SA_V613b\BOOT\SOURCE\ASM\main.asm          PAGE  119

     6005 00000055                  .bss    CL85,1
     6006 00000056                  .bss    CL86,1
     6007 00000057                  .bss    CL87,1
     6008 00000058                  .bss    CL88,1
     6009 00000059                  .bss    CL89,1
     6010 0000005a                  .bss    CL90,1
     6011 0000005b                  .bss    CL91,2
     6012 0000005d                  .bss    CL92,1
     6013 0000005e                  .bss    CL93,1
     6014 0000005f                  .bss    CL94,1
     6015 00000060                  .bss    CL95,1
     6016 00000061                  .bss    CL96,1
     6017 00000062                  .bss    CL97,1
     6018 00000063                  .bss    CL98,1
     6019 00000064                  .bss    CL99,1
     6020 00000065                  .bss    CL100,1
     6021 00000066                  .bss    CL101,1
     6022 00000067                  .bss    CL102,1
     6023 00000068                  .bss    CL103,1
     6024 00000069                  .bss    CL104,1
     6025 0000006a                  .bss    CL105,1
     6026 0000006b                  .bss    CL106,1
     6027 0000006c                  .bss    CL107,1
     6028 0000006d                  .bss    CL108,1
     6029 0000006e                  .bss    CL109,1
     6030 0000006f                  .bss    CL110,1
     6031 00000070                  .bss    CL111,1
     6032 00000071                  .bss    CL112,1
     6033 00000072                  .bss    CL113,1
     6034 00000073                  .bss    CL114,1
     6035 00000074                  .bss    CL115,1
     6036 00000075                  .bss    CL116,1
     6037 00000076                  .bss    CL117,1
     6038 00000077                  .bss    CL118,1
     6039 00000078                  .bss    CL119,1
     6040 00000079                  .bss    CL120,1
     6041 0000007a                  .bss    CL121,1
     6042 0000007b                  .bss    CL122,1
     6043 0000007c                  .bss    CL123,1
     6044 0000007d                  .bss    CL124,2
     6045 0000007f                  .bss    CL125,1
     6046 00000080                  .bss    CL126,1
     6047 00000081                  .bss    CL127,1
     6048 00000082                  .bss    CL128,1
     6049 00000083                  .bss    CL129,1
     6050 00000084                  .bss    CL130,1
     6051 00000085                  .bss    CL131,1
     6052 00000086                  .bss    CL132,1
     6053 00000087                  .bss    CL133,1
     6054 00000088                  .bss    CL134,1
     6055 00000089                  .bss    CL135,1
     6056 0000008a                  .bss    CL136,1
     6057 0000008b                  .bss    CL137,1
     6058 0000008c                  .bss    CL138,1
TMS320C3x/4x COFF AssemblerVersion 5.12     Mon Nov 19 13:45:24 2018
Copyright (c) 1987-1999 Texas Instruments Incorporatedasm30.exe -@_6L4.AAB 

F:\WKDIR\CodeComposer\EEA_SA_V613b\BOOT\SOURCE\ASM\main.asm          PAGE  120

     6059 0000008d                  .bss    CL139,1
     6060 0000008e                  .bss    CL140,1
     6061 0000008f                  .bss    CL141,1
     6062 00000090                  .bss    CL142,1
     6063 00000091                  .bss    CL143,1
     6064 00000092                  .bss    CL144,1
     6065 00000093                  .bss    CL145,1
     6066 00000094                  .bss    CL146,1
     6067 00000095                  .bss    CL147,1
     6068 00000096                  .bss    CL148,1
     6069 00000097                  .bss    CL149,1
     6070 00000098                  .bss    CL150,1
     6071 00000099                  .bss    CL151,1
     6072 0000009a                  .bss    CL152,1
     6073 0000009b                  .bss    CL153,1
     6074 0000009c                  .bss    CL154,1
     6075 0000009d                  .bss    CL155,1
     6076 0000009e                  .bss    CL156,1
     6077 0000009f                  .bss    CL157,1
     6078 000000a0                  .bss    CL158,1
     6079 000000a1                  .bss    CL159,1
     6080 000000a2                  .bss    CL160,1
     6081 000000a3                  .bss    CL161,1
     6082 000000a4                  .bss    CL162,1
     6083 000000a5                  .bss    CL163,1
     6084 000000a6                  .bss    CL164,1
     6085 000000a7                  .bss    CL165,1
     6086 000000a8                  .bss    CL166,1
     6087 000000a9                  .bss    CL167,1
     6088 000000aa                  .bss    CL168,1
     6089 000000ab                  .bss    CL169,1
     6090 000000ac                  .bss    CL170,1
     6091 000000ad                  .bss    CL171,1
     6092 000000ae                  .bss    CL172,1
     6093 000000af                  .bss    CL173,1
     6094 000000b0                  .bss    CL174,1
     6095 000000b1                  .bss    CL175,1
     6096 000000b2                  .bss    CL176,1
     6097 000000b3                  .bss    CL177,1
     6098 000000b4                  .bss    CL178,1
     6099 000000b5                  .bss    CL179,1
     6100 000000b6                  .bss    CL180,1
     6101 000000b7                  .bss    CL181,2
     6102 000000b9                  .bss    CL182,1
     6103 000000ba                  .bss    CL183,1
     6104 000000bb                  .bss    CL184,1
     6105 000000bc                  .bss    CL185,1
     6106 000000bd                  .bss    CL186,1
     6107 000000be                  .bss    CL187,1
     6108 000000bf                  .bss    CL188,1
     6109 000000c0                  .bss    CL189,1
     6110 000000c1                  .bss    CL190,1
     6111 000000c2                  .bss    CL191,1
     6112 000000c3                  .bss    CL192,1
TMS320C3x/4x COFF AssemblerVersion 5.12     Mon Nov 19 13:45:24 2018
Copyright (c) 1987-1999 Texas Instruments Incorporatedasm30.exe -@_6L4.AAB 

F:\WKDIR\CodeComposer\EEA_SA_V613b\BOOT\SOURCE\ASM\main.asm          PAGE  121

     6113 000000c4                  .bss    CL193,1
     6114 000000c5                  .bss    CL194,1
     6115 000000c6                  .bss    CL195,1
     6116 000000c7                  .bss    CL196,1
     6117 000000c8                  .bss    CL197,1
     6118 000000c9                  .bss    CL198,1
     6119 000000ca                  .bss    CL199,1
     6120 000000cb                  .bss    CL200,1
     6121 000000cc                  .bss    CL201,1
     6122 000000cd                  .bss    CL202,1
     6123 000000ce                  .bss    CL203,1
     6124 000000cf                  .bss    CL204,1
     6125 000000d0                  .bss    CL205,1
     6126 000000d1                  .bss    CL206,1
     6127 000000d2                  .bss    CL207,1
     6128 000000d3                  .bss    CL208,1
     6129 000000d4                  .bss    CL209,1
     6130 000000d5                  .bss    CL210,1
     6131 000000d6                  .bss    CL211,1
     6132 000000d7                  .bss    CL212,1
     6133 000000d8                  .bss    CL213,1
     6134 000000d9                  .bss    CL214,1
     6135 000000da                  .bss    CL215,1
     6136 000000db                  .bss    CL216,1
     6137 000000dc                  .bss    CL217,1
     6138 000000dd                  .bss    CL218,1
     6139 000000de                  .bss    CL219,1
     6140 000000df                  .bss    CL220,1
     6141 000000e0                  .bss    CL221,1
     6142 000000e1                  .bss    CL222,1
     6143 000000e2                  .bss    CL223,1
     6144 000000e3                  .bss    CL224,1
     6145 000000e4                  .bss    CL225,1
     6146 000000e5                  .bss    CL226,1
     6147 000000e6                  .bss    CL227,1
     6148 000000e7                  .bss    CL228,1
     6149 000000e8                  .bss    CL229,1
     6150 000000e9                  .bss    CL230,1
     6151 000000ea                  .bss    CL231,1
     6152 000000eb                  .bss    CL232,1
     6153 000000ec                  .bss    CL233,1
     6154 000000ed                  .bss    CL234,1
     6155 000000ee                  .bss    CL235,1
     6156 000000ef                  .bss    CL236,1
     6157 000000f0                  .bss    CL237,1
     6158 000000f1                  .bss    CL238,1
     6159 000000f2                  .bss    CL239,1
     6160 000000f3                  .bss    CL240,1
     6161 000000f4                  .bss    CL241,1
     6162 000000f5                  .bss    CL242,1
     6163 000000f6                  .bss    CL243,1
     6164 000000f7                  .bss    CL244,2
     6165 000000f9                  .bss    CL245,1
     6166 000000fa                  .bss    CL246,1
TMS320C3x/4x COFF AssemblerVersion 5.12     Mon Nov 19 13:45:24 2018
Copyright (c) 1987-1999 Texas Instruments Incorporatedasm30.exe -@_6L4.AAB 

F:\WKDIR\CodeComposer\EEA_SA_V613b\BOOT\SOURCE\ASM\main.asm          PAGE  122

     6167 000000fb                  .bss    CL247,1
     6168 000000fc                  .bss    CL248,1
     6169 000000fd                  .bss    CL249,1
     6170 000000fe                  .bss    CL250,1
     6171 000000ff                  .bss    CL251,1
     6172 00000100                  .bss    CL252,1
     6173 00000101                  .bss    CL253,1
     6174 00000102                  .bss    CL254,1
     6175 00000103                  .bss    CL255,1
     6176 00000104                  .bss    CL256,1
     6177 00000105                  .bss    CL257,1
     6178 00000106                  .bss    CL258,1
     6179 00000107                  .bss    CL259,1
     6180 00000108                  .bss    CL260,1
     6181 00000109                  .bss    CL261,1
     6182 0000010a                  .bss    CL262,1
     6183 0000010b                  .bss    CL263,1
     6184 0000010c                  .bss    CL264,1
     6185 0000010d                  .bss    CL265,1
     6186 0000010e                  .bss    CL266,1
     6187 0000010f                  .bss    CL267,1
     6188 00000110                  .bss    CL268,1
     6189 00000111                  .bss    CL269,1
     6190 00000112                  .bss    CL270,1
     6191 00000113                  .bss    CL271,1
     6192 00000114                  .bss    CL272,1
     6193 00000115                  .bss    CL273,1
     6194 00000116                  .bss    CL274,1
     6195 00000117                  .bss    CL275,1
     6196 00000118                  .bss    CL276,1
     6197 00000119                  .bss    CL277,1
     6198 0000011a                  .bss    CL278,1
     6199 0000011b                  .bss    CL279,1
     6200 0000011c                  .bss    CL280,1
     6201 0000011d                  .bss    CL281,1
     6202 0000011e                  .bss    CL282,1
     6203 0000011f                  .bss    CL283,1
     6204 00000120                  .bss    CL284,1
     6205 00000121                  .bss    CL285,1
     6206 00000122                  .bss    CL286,1
     6207 00000123                  .bss    CL287,1
     6208 00000124                  .bss    CL288,1
     6209 00000125                  .bss    CL289,1
     6210 00000126                  .bss    CL290,1
     6211 00000127                  .bss    CL291,1
     6212 00000128                  .bss    CL292,1
     6213 00000129                  .bss    CL293,1
     6214 0000012a                  .bss    CL294,1
     6215 0000012b                  .bss    CL295,1
     6216 0000012c                  .bss    CL296,1
     6217 0000012d                  .bss    CL297,1
     6218 0000012e                  .bss    CL298,1
     6219 0000012f                  .bss    CL299,1
     6220 00000130                  .bss    CL300,1
TMS320C3x/4x COFF AssemblerVersion 5.12     Mon Nov 19 13:45:24 2018
Copyright (c) 1987-1999 Texas Instruments Incorporatedasm30.exe -@_6L4.AAB 

F:\WKDIR\CodeComposer\EEA_SA_V613b\BOOT\SOURCE\ASM\main.asm          PAGE  123

     6221 00000131                  .bss    CL301,1
     6222 00000132                  .bss    CL302,1
     6223 00000133                  .bss    CL303,1
     6224 00000134                  .bss    CL304,1
     6225 00000135                  .bss    CL305,1
     6226 00000136                  .bss    CL306,1
     6227 00000137                  .bss    CL307,1
     6228 00000138                  .bss    CL308,1
     6229 00000139                  .bss    CL309,1
     6230 0000013a                  .bss    CL310,1
     6231 0000013b                  .bss    CL311,1
     6232 0000013c                  .bss    CL312,1
     6233 0000013d                  .bss    CL313,1
     6234 0000013e                  .bss    CL314,1
     6235 0000013f                  .bss    CL315,1
     6236 00000140                  .bss    CL316,1
     6237 00000141                  .bss    CL317,1
     6238 00000142                  .bss    CL318,1
     6239 00000143                  .bss    CL319,1
     6240 00000144                  .bss    CL320,1
     6241 00000145                  .bss    CL321,1
     6242 00000146                  .bss    CL322,1
     6243 00000147                  .bss    CL323,1
     6244 00000148                  .bss    CL324,1
     6245 00000149                  .bss    CL325,1
     6246 0000014a                  .bss    CL326,1
     6247 0000014b                  .bss    CL327,1
     6248 0000014c                  .bss    CL328,1
     6249 0000014d                  .bss    CL329,1
     6250 0000014e                  .bss    CL330,1
     6251 0000014f                  .bss    CL331,1
     6252 00000150                  .bss    CL332,1
     6253 00000151                  .bss    CL333,1
     6254 00000152                  .bss    CL334,1
     6255 00000153                  .bss    CL335,1
     6256 00000154                  .bss    CL336,1
     6257 00000155                  .bss    CL337,1
     6258 00000156                  .bss    CL338,1
     6259 00000157                  .bss    CL339,1
     6260 00000158                  .bss    CL340,1
     6261 00000159                  .bss    CL341,1
     6262 0000015a                  .bss    CL342,1
     6263 0000015b                  .bss    CL343,1
     6264 0000015c                  .bss    CL344,1
     6265 0000015d                  .bss    CL345,1
     6266 0000015e                  .bss    CL346,1
     6267 0000015f                  .bss    CL347,1
     6268 00000160                  .bss    CL348,1
     6269 00000161                  .bss    CL349,1
     6270 00000162                  .bss    CL350,1
     6271 00000163                  .bss    CL351,1
     6272 00000164                  .bss    CL352,1
     6273 00000165                  .bss    CL353,1
     6274 00000166                  .bss    CL354,1
TMS320C3x/4x COFF AssemblerVersion 5.12     Mon Nov 19 13:45:24 2018
Copyright (c) 1987-1999 Texas Instruments Incorporatedasm30.exe -@_6L4.AAB 

F:\WKDIR\CodeComposer\EEA_SA_V613b\BOOT\SOURCE\ASM\main.asm          PAGE  124

     6275 00000167                  .bss    CL355,1
     6276 00000168                  .bss    CL356,1
     6277 00000169                  .bss    CL357,1
     6278 0000016a                  .bss    CL358,1
     6279 0000016b                  .bss    CL359,1
     6280 0000016c                  .bss    CL360,1
     6281 0000016d                  .bss    CL361,1
     6282 0000016e                  .bss    CL362,1
     6283 0000016f                  .bss    CL363,1
     6284 00000170                  .bss    CL364,1
     6285 00000171                  .bss    CL365,1
     6286 00000172                  .bss    CL366,1
     6287 00000173                  .bss    CL367,1
     6288 00000174                  .bss    CL368,1
     6289 00000175                  .bss    CL369,1
     6290 00000176                  .bss    CL370,1
     6291 00000177                  .bss    CL371,1
     6292 00000178                  .bss    CL372,1
     6293 00000179                  .bss    CL373,1
     6294 0000017a                  .bss    CL374,1
     6295 0000017b                  .bss    CL375,1
     6296 0000017c                  .bss    CL376,1
     6297 0000017d                  .bss    CL377,1
     6298 0000017e                  .bss    CL378,1
     6299 0000017f                  .bss    CL379,1
     6300 00000180                  .bss    CL380,1
     6301 00000181                  .bss    CL381,1
     6302 00000182                  .bss    CL382,1
     6303 00000183                  .bss    CL383,1
     6304 00000184                  .bss    CL384,1
     6305 00000185                  .bss    CL385,1
     6306 00000186                  .bss    CL386,1
     6307 00000187                  .bss    CL387,1
     6308 00000188                  .bss    CL388,1
     6309 00000189                  .bss    CL389,1
     6310 0000018a                  .bss    CL390,1
     6311 0000018b                  .bss    CL391,1
     6312 0000018c                  .bss    CL392,1
     6313 0000018d                  .bss    CL393,1
     6314 0000018e                  .bss    CL394,1
     6315 0000018f                  .bss    CL395,1
     6316 00000190                  .bss    CL396,1
     6317 00000191                  .bss    CL397,1
     6318 00000192                  .bss    CL398,1
     6319 00000193                  .bss    CL399,1
     6320 00000194                  .bss    CL400,1
     6321 00000195                  .bss    CL401,1
     6322 00000196                  .bss    CL402,1
     6323 00000197                  .bss    CL403,1
     6324 00000198                  .bss    CL404,1
     6325 00000199                  .bss    CL405,1
     6326 0000019a                  .bss    CL406,1
     6327 0000019b                  .bss    CL407,1
     6328 0000019c                  .bss    CL408,1
TMS320C3x/4x COFF AssemblerVersion 5.12     Mon Nov 19 13:45:24 2018
Copyright (c) 1987-1999 Texas Instruments Incorporatedasm30.exe -@_6L4.AAB 

F:\WKDIR\CodeComposer\EEA_SA_V613b\BOOT\SOURCE\ASM\main.asm          PAGE  125

     6329 0000019d                  .bss    CL409,1
     6330 0000019e                  .bss    CL410,1
     6331 0000019f                  .bss    CL411,1
     6332 000001a0                  .bss    CL412,1
     6333 000001a1                  .bss    CL413,1
     6334 000001a2                  .bss    CL414,1
     6335 000001a3                  .bss    CL415,1
     6336 000001a4                  .bss    CL416,1
     6337 000001a5                  .bss    CL417,1
     6338 000001a6                  .bss    CL418,1
     6339 000001a7                  .bss    CL419,1
     6340 000001a8                  .bss    CL420,1
     6341 000001a9                  .bss    CL421,1
     6342 000001aa                  .bss    CL422,1
     6343 000001ab                  .bss    CL423,1
     6344 000001ac                  .bss    CL424,1
     6345 000001ad                  .bss    CL425,1
     6346 000001ae                  .bss    CL426,1
     6347 000001af                  .bss    CL427,1
     6348 000001b0                  .bss    CL428,1
     6349 000001b1                  .bss    CL429,1
     6350 000001b2                  .bss    CL430,1
     6351 000001b3                  .bss    CL431,1
     6352 000001b4                  .bss    CL432,1
     6353 000001b5                  .bss    CL433,1
     6354 000001b6                  .bss    CL434,1
     6355 000001b7                  .bss    CL435,1
     6356 000001b8                  .bss    CL436,1
     6357 000001b9                  .bss    CL437,1
     6358 000001ba                  .bss    CL438,1
     6359 000001bb                  .bss    CL439,1
     6360 000001bc                  .bss    CL440,1
     6361 000001bd                  .bss    CL441,1
     6362 000001be                  .bss    CL442,2
     6363 000001c0                  .bss    CL443,1
     6364 000001c1                  .bss    CL444,1
     6365 000001c2                  .bss    CL445,1
     6366                   
     6367 00000000                  .sect   ".cinit"
     6368 00000000 000001c3         .field          451,32
     6369 00000001 00000000-        .field          CL1+0,32
     6370 00000002 00000000!        .field          _InitLog,32
     6371 00000003 00000000!        .field          _MEM,32
     6372 00000004 00000000!        .field          _Setup_Basics,32
     6373 00000005 00000000!        .field          _Restore_CFG,32
     6374 00000006 00900004         .field          9437188,32
     6375 00000007 00000000!        .field          _DIAG_TEMP,32
     6376 00000008 00000001!        .field          _DIAG_TEMP+1,32
     6377 00000009 00000000!        .field          _DIAGNOSTICS,32
     6378 0000000a 00000001!        .field          _DIAGNOSTICS+1,32
     6379 0000000b 00000000!        .field          _DIAGNOSTICS_MSG_CODE,32
     6380 0000000c 00000000!        .field          _DIAGNOSTICS_ERROR_CODE,32
     6381 0000000d 00000000!        .field          _CHANGE,32
     6382 0000000e 00000000!        .field          _DATA_CHANGE,32
TMS320C3x/4x COFF AssemblerVersion 5.12     Mon Nov 19 13:45:24 2018
Copyright (c) 1987-1999 Texas Instruments Incorporatedasm30.exe -@_6L4.AAB 

F:\WKDIR\CodeComposer\EEA_SA_V613b\BOOT\SOURCE\ASM\main.asm          PAGE  126

     6383 0000000f 00000000+        .field          SL1,32
     6384 00000010 00000000!        .field          _E_STRING,32
     6385 00000011 00000000!        .field          _sprintf,32
     6386 00000012 00000000!        .field          _Execute_Init,32
     6387 00000013 00000000!        .field          _IDEC_PORT,32
     6388 00000014 00000000!        .field          _IDEC_SA,32
     6389 00000015 00000001!        .field          _IDEC_SA+1,32
     6390 00000016 00000002!        .field          _IDEC_SA+2,32
     6391 00000017 0000000f!        .field          _IDEC_SA+15,32
     6392 00000018 00000000!        .field          _Set_Time,32
     6393 00000019 00000019!        .field          _IDEC_SA+25,32
     6394 0000001a 00000000!        .field          _Set_IDEC_Port,32
     6395 0000001b 00000000!        .field          _ESN_MFGR,32
     6396 0000001c 00000000!        .field          _FLASH_READ_ESN_MFGR,32
     6397 0000001d 00000000!        .field          _ESN_USER,32
     6398 0000001e 00000000!        .field          _FLASH_READ_ESN_USER,32
     6399 0000001f 00000000!        .field          _LOCKOUT,32
     6400 00000020 00000003!        .field          _DIO_LOCK+3,32
     6401 00000021 00000006!        .field          _DIO_LOCK+6,32
     6402 00000022 00000009!        .field          _DIO_LOCK+9,32
     6403 00000023 00000000!        .field          _RESEARCH_FORCE_MODE,32
     6404 00000024 00000000!        .field          _SAMPLE_PENDING,32
     6405 00000025 00000000!        .field          _SN_PIPE,32
     6406 00000026 00ffffff         .field          16777215,32
     6407 00000027 00000000!        .field          _DUMMY,32
     6408 00000028 00000000!        .field          _PORT2_LIQ_TEMP,32
     6409 00000029 00000000!        .field          _PORT2_GAS_TEMP,32
     6410 0000002a 00000000!        .field          _PORT3_TEMP,32
     6411 0000002b 00000000!        .field          _MM_LIQ_fail,32
     6412 0000002c 00000000!        .field          _MM_GAS_fail,32
     6413 0000002d 00000000!        .field          _Rosemount_fail,32
     6414 0000002e 00000000!        .field          _DIO_ERROR,32
     6415 0000002f 00000000!        .field          _DIO_ALARM,32
     6416 00000030 00000000!        .field          _DIO_SYSTEM_RESET,32
     6417 00000031 00000000!        .field          _DIO_BUILT_IN_TEST,32
     6418 00000032 00000000!        .field          _DIO_BEEP,32
     6419 00000033 00000000!        .field          _DIO_uP_GET,32
     6420 00000034 00000000!        .field          _DIO_uP_SET,32
     6421 00000035 00000000!        .field          _DIO_COMM_GET,32
     6422 00000036 00000000!        .field          _DIO_COMM_SET,32
     6423 00000037 00000000!        .field          _DIO_POWER_GET,32
     6424 00000038 00000000!        .field          _DIO_POWER_SET,32
     6425 00000039 00000000!        .field          _DIO_DISPLAY_GET,32
     6426 0000003a 00000000!        .field          _DIO_DISPLAY_SET,32
     6427 0000003b 00000000!        .field          _DIO_MOTHERBOARD_GET,32
     6428 0000003c 00000000!        .field          _DIO_MOTHERBOARD_SET,32
     6429 0000003d 00000000!        .field          _DIO_ANALYZER_GET,32
     6430 0000003e 00000000!        .field          _DIO_ANALYZER_SET,32
     6431 0000003f 00000000!        .field          _DIO_ANALOGIO_GET,32
     6432 00000040 00000000!        .field          _DIO_ANALOGIO_SET,32
     6433 00000041 00000000!        .field          _DIO_PV_PERCMASS,32
     6434 00000042 00000000!        .field          _LED_GREEN,32
     6435 00000043 00000000!        .field          _REG_FREQ_OIL_LO,32
     6436 00000044 00000000!        .field          _VAR_Update,32
TMS320C3x/4x COFF AssemblerVersion 5.12     Mon Nov 19 13:45:24 2018
Copyright (c) 1987-1999 Texas Instruments Incorporatedasm30.exe -@_6L4.AAB 

F:\WKDIR\CodeComposer\EEA_SA_V613b\BOOT\SOURCE\ASM\main.asm          PAGE  127

     6437 00000045 00000000!        .field          _REG_FREQ_OIL_HI,32
     6438 00000046 00000000!        .field          _REG_FREQ_WATER_LO,32
     6439 00000047 00000000!        .field          _REG_FREQ_WATER_HI,32
     6440 00000048 00000000!        .field          _REG_LOWSALT_THRESHOLD,32
     6441 00000049 00000000!        .field          _EXTENDED_FW_VERSION_ENABLE,32
     6442 0000004a 00900001         .field          9437185,32
     6443 0000004b 00000000!        .field          _DIPSWITCH,32
     6444 0000004c 00000001!        .field          _DIPSWITCH+1,32
     6445 0000004d 00000000!        .field          _REG_TIME,32
     6446 0000004e 00000000!        .field          _N_TEMP,32
     6447 0000004f 00000000!        .field          _SUM_TEMP,32
     6448 00000050 80000000         .word           080000000H ; ldouble 0.000000000000000e+00
     6449 00000051 00000000         .word           000000000H ; ldouble
     6450 00000052 00000000!        .field          _AVG_TEMP,32
     6451 00000053 00000000!        .field          _cycles,32
     6452 00000054 00000000!        .field          _previous_phase,32
     6453 00000055 00000000!        .field          _phase,32
     6454 00000056 00000000!        .field          _phase_rollover_count,32
     6455 00000057 00000000!        .field          _N_WC,32
     6456 00000058 00000000!        .field          _WC_SUM,32
     6457 00000059 00000000!        .field          _WC_SAMPLE,32
     6458 0000005a 00000000!        .field          _N_FREQ,32
     6459 0000005b 00000000!        .field          _HSALT_FREQ_TRIGGER,32
     6460 0000005c 00000000!        .field          _REG_FREQ_VARIANCE_RATIO,32
     6461 0000005d 00400000         .word           000400000H ; ldouble 1.500000000000000e+00
     6462 0000005e 40000000         .word           040000000H ; ldouble
     6463 0000005f 00000000!        .field          _TEMP_SAMPLE,32
     6464 00000060 00000000!        .field          _LAST_TEMP_RESET,32
     6465 00000061 00000000!        .field          _HSALT_TEMP_TRIGGER,32
     6466 00000062 00000000!        .field          _GAS_ENTRAINED_DENS_DETECT,32
     6467 00000063 00000000!        .field          _gas_routine_reset_needed,32
     6468 00000064 00000000!        .field          _boxcar_reset_needed,32
     6469 00000065 00000000!        .field          _ANALYZER_MODE,32
     6470 00000066 00000003!        .field          _REG_WATERCUT_DENSITY+3,32
     6471 00000067 00000000!        .field          _TRIM_RTD_LO,32
     6472 00000068 00000000!        .field          _TRIM_RTD_HI,32
     6473 00000069 00000000!        .field          _CAP_WATER_STOP,32
     6474 0000006a 00000000!        .field          _CAP_OIL_STOP,32
     6475 0000006b 00000000!        .field          _PV_SAMPLES,32
     6476 0000006c 00000000!        .field          _Clear,32
     6477 0000006d 00000000!        .field          _PV_SAMPLES_24hr,32
     6478 0000006e 00000000!        .field          _PV_SAMPLES_5min,32
     6479 0000006f 00000131!        .field          _PV_SAMPLES+305,32
     6480 00000070 80000000         .field          -2147483648,32
     6481 00000071 00000131!        .field          _PV_SAMPLES_24hr+305,32
     6482 00000072 00000000!        .field          _REG_PV_AVG_24hr,32
     6483 00000073 00000131!        .field          _PV_SAMPLES_5min+305,32
     6484 00000074 00000000!        .field          _REG_PV_AVG_5min,32
     6485 00000075 00000000!        .field          _REG_PV_AVG_1sec,32
     6486 00000076 00000000!        .field          _REG_PV_AVG_CNT,32
     6487 00000077 00000000!        .field          _Mirror_From_Stream_Table,32
     6488 00000078 00000000!        .field          _WC,32
     6489 00000079 00000000!        .field          _REG_WATERCUT_RAW,32
     6490 0000007a 00000009!        .field          _REG_CAL_OIL+9,32
TMS320C3x/4x COFF AssemblerVersion 5.12     Mon Nov 19 13:45:24 2018
Copyright (c) 1987-1999 Texas Instruments Incorporatedasm30.exe -@_6L4.AAB 

F:\WKDIR\CodeComposer\EEA_SA_V613b\BOOT\SOURCE\ASM\main.asm          PAGE  128

     6491 0000007b 00000000!        .field          _REG_CAL_OIL,32
     6492 0000007c 00000009!        .field          _REG_CAL_WATER+9,32
     6493 0000007d 00000000!        .field          _REG_CAL_WATER,32
     6494 0000007e 00000000!        .field          _REG_EMULSION_PHASE,32
     6495 0000007f 01000000         .word           001000000H ; ldouble 2.000000000000000e+00
     6496 00000080 00000000         .word           000000000H ; ldouble
     6497 00000081 00000000!        .field          _REG_WATERCUT,32
     6498 00000082 00000000!        .field          _VAR_NaN,32
     6499 00000083 00000000!        .field          _REG_TEMPERATURE_USER,32
     6500 00000084 00000000!        .field          _REG_TEMPERATURE_AVG,32
     6501 00000085 00000000!        .field          _REG_TEMPERATURE_EXTERNAL,32
     6502 00000086 00000000!        .field          _REG_DUMMY,32
     6503 00000087 00000000!        .field          _VAR_SELECT_DVIN,32
     6504 00000088 00000001!        .field          _VAR_SELECT_DVIN+1,32
     6505 00000089 00000000!        .field          _VAR_SET_STR_DVIN,32
     6506 0000008a 00000000!        .field          _VAR_SELECT_DV,32
     6507 0000008b 00000001!        .field          _VAR_SELECT_DV+1,32
     6508 0000008c 00000000!        .field          _VAR_SET_STR_DV,32
     6509 0000008d 0000002c!        .field          _AO+44,32
     6510 0000008e 00000000!        .field          _PID_Init,32
     6511 0000008f 00000108!        .field          _AI+264,32
     6512 00000090 00000000!        .field          _AI,32
     6513 00000091 0000002c!        .field          _AI+44,32
     6514 00000092 0000013d!        .field          _AI+317,32
     6515 00000093 00000000!        .field          _NaN_val_flt,32
     6516 00000094 00000000!        .field          _i_CCM_Level_Setpoint,32
     6517 00000095 00000000!        .field          _i_CCM_Level,32
     6518 00000096 00000000!        .field          _i_CCM_Pressure_Setpoint,32
     6519 00000097 00000000!        .field          _i_CCM_Pressure,32
     6520 00000098 00000000!        .field          _i_CCM_Gas_Valve,32
     6521 00000099 00000000!        .field          _i_CCM_Liquid_Valve,32
     6522 0000009a 00000000!        .field          _i_CCM_Flow,32
     6523 0000009b 00000000!        .field          _i_CCM_Flow_Oil,32
     6524 0000009c 00000000!        .field          _i_CCM_Flow_Water,32
     6525 0000009d 00000000!        .field          _i_CCM_Flow_Gas,32
     6526 0000009e 00000000!        .field          _CCM_24_GAS,32
     6527 0000009f 00000000!        .field          _CCM_24_TOTAL,32
     6528 000000a0 00000000!        .field          _CCM_24_OIL,32
     6529 000000a1 00000000!        .field          _CCM_24_WATER,32
     6530 000000a2 00000000!        .field          _CCM_REMAINING,32
     6531 000000a3 00000000!        .field          _CCM_REMAINING_S,32
     6532 000000a4 00000000!        .field          _CCM_ELAPSED_S,32
     6533 000000a5 00000000!        .field          _DIO_CCM_START,32
     6534 000000a6 00000000!        .field          _DIO_CCM_PURGE_STAT,32
     6535 000000a7 00000000!        .field          _REG_CCM_TEST_STAT,32
     6536 000000a8 00000000!        .field          _REG_CCM_PURGE_STAT,32
     6537 000000a9 00000000!        .field          _CCM_GAS_FLOW,32
     6538 000000aa 00000000!        .field          _CCM_GAS_TOTAL,32
     6539 000000ab 00000000!        .field          _CCM_VESSEL_LEVEL,32
     6540 000000ac 0000002c!        .field          _CCM_VESSEL_LEVEL+44,32
     6541 000000ad 00000000!        .field          _CCM_VESSEL_PRESSURE,32
     6542 000000ae 0000002c!        .field          _CCM_VESSEL_PRESSURE+44,32
     6543 000000af 00000000!        .field          _CCM_TIME_START,32
     6544 000000b0 00000000!        .field          _CLEAR_TIME,32
TMS320C3x/4x COFF AssemblerVersion 5.12     Mon Nov 19 13:45:24 2018
Copyright (c) 1987-1999 Texas Instruments Incorporatedasm30.exe -@_6L4.AAB 

F:\WKDIR\CodeComposer\EEA_SA_V613b\BOOT\SOURCE\ASM\main.asm          PAGE  129

     6545 000000b1 00000000!        .field          _CCM_TIME_STOP,32
     6546 000000b2 00000000!        .field          _CCM_TIME_REMAINING,32
     6547 000000b3 00000000!        .field          _CCM_TIME_ELAPSED,32
     6548 000000b4 00000000!        .field          _REG_VINC,32
     6549 000000b5 00000000!        .field          _REG_VREF,32
     6550 000000b6 00000000!        .field          _REG_FREQ,32
     6551 000000b7 00000000!        .field          _REG_VTUNE,32
     6552 000000b8 00000000!        .field          _TMP_VINC,32
     6553 000000b9 ff800000         .word           0FF800000H ; ldouble -1.000000000000000e+00
     6554 000000ba 80000000         .word           080000000H ; ldouble
     6555 000000bb 00000000!        .field          _TMP_VREF,32
     6556 000000bc 00000000!        .field          _TMP_FREQ,32
     6557 000000bd 00000000!        .field          _TMP_VTUNE,32
     6558 000000be 00000000!        .field          _REG_VINC_O,32
     6559 000000bf 00000000!        .field          _REG_VREF_O,32
     6560 000000c0 00000000!        .field          _REG_FREQ_O,32
     6561 000000c1 00000000!        .field          _REG_VINC_W,32
     6562 000000c2 00000000!        .field          _REG_VREF_W,32
     6563 000000c3 00000000!        .field          _REG_FREQ_W,32
     6564 000000c4 00000000!        .field          _FREQ_O,32
     6565 000000c5 00000000!        .field          _IP_O,32
     6566 000000c6 00000000!        .field          _RP_O,32
     6567 000000c7 00000000!        .field          _IP_RP_O,32
     6568 000000c8 00000000!        .field          _DB_IP_RP_O,32
     6569 000000c9 00000000!        .field          _FREQ_W,32
     6570 000000ca 00000000!        .field          _IP_W,32
     6571 000000cb 00000000!        .field          _RP_W,32
     6572 000000cc 00000000!        .field          _IP_RP_W,32
     6573 000000cd 00000000!        .field          _DB_IP_RP_W,32
     6574 000000ce 00000000!        .field          _i_FREQ_O,32
     6575 000000cf 00000000!        .field          _i_IP_O,32
     6576 000000d0 00000000!        .field          _i_RP_O,32
     6577 000000d1 00000000!        .field          _i_FREQ_W,32
     6578 000000d2 00000000!        .field          _i_IP_W,32
     6579 000000d3 00000000!        .field          _i_RP_W,32
     6580 000000d4 00000000!        .field          _i_TEMP,32
     6581 000000d5 00000000!        .field          _i_WC,32
     6582 000000d6 00000000!        .field          _compatibility_dummy,32
     6583 000000d7 00000000!        .field          _i_LV,32
     6584 000000d8 00000000!        .field          _il_LV,32
     6585 000000d9 00000000!        .field          _f_LV,32
     6586 000000da 00000000!        .field          _COR,32
     6587 000000db 00000001!        .field          _COR+1,32
     6588 000000dc 00000003!        .field          _COR+3,32
     6589 000000dd 0000001b!        .field          _COR+27,32
     6590 000000de 00000000!        .field          _VAR_Initialize,32
     6591 000000df 00000031!        .field          _COR+49,32
     6592 000000e0 00000001+        .field          SL2,32
     6593 000000e1 00000021!        .field          _COR+33,32
     6594 000000e2 0000001d!        .field          _COR+29,32
     6595 000000e3 00000000!        .field          _CORIOLIS_CFG,32
     6596 000000e4 00000047!        .field          _COR+71,32
     6597 000000e5 0000005d!        .field          _COR+93,32
     6598 000000e6 00000013+        .field          SL3,32
TMS320C3x/4x COFF AssemblerVersion 5.12     Mon Nov 19 13:45:24 2018
Copyright (c) 1987-1999 Texas Instruments Incorporatedasm30.exe -@_6L4.AAB 

F:\WKDIR\CodeComposer\EEA_SA_V613b\BOOT\SOURCE\ASM\main.asm          PAGE  130

     6599 000000e7 0000004d!        .field          _COR+77,32
     6600 000000e8 00000049!        .field          _COR+73,32
     6601 000000e9 00000073!        .field          _COR+115,32
     6602 000000ea 097a0000         .word           0097A0000H ; double  1.000000000000000e+03
     6603 000000eb 00000089!        .field          _COR+137,32
     6604 000000ec 00000028+        .field          SL4,32
     6605 000000ed 00000079!        .field          _COR+121,32
     6606 000000ee 00000075!        .field          _COR+117,32
     6607 000000ef 0000009f!        .field          _COR+159,32
     6608 000000f0 000000b5!        .field          _COR+181,32
     6609 000000f1 00000039+        .field          SL5,32
     6610 000000f2 000000a5!        .field          _COR+165,32
     6611 000000f3 000000a1!        .field          _COR+161,32
     6612 000000f4 000000cb!        .field          _COR+203,32
     6613 000000f5 10435000         .word           010435000H ; double  1.000000000000000e+05
     6614 000000f6 000000e1!        .field          _COR+225,32
     6615 000000f7 0000004a+        .field          SL6,32
     6616 000000f8 000000d1!        .field          _COR+209,32
     6617 000000f9 00000000         .word           000000000H ; ldouble 1.000000000000000e+00
     6618 000000fa 00000000         .word           000000000H ; ldouble
     6619 000000fb 000000cd!        .field          _COR+205,32
     6620 000000fc 000000f7!        .field          _COR+247,32
     6621 000000fd 0000010d!        .field          _COR+269,32
     6622 000000fe 00000054+        .field          SL7,32
     6623 000000ff 000000fd!        .field          _COR+253,32
     6624 00000100 000000f9!        .field          _COR+249,32
     6625 00000101 00000000!        .field          _CORIOLIS_INT_CFG,32
     6626 00000102 00000123!        .field          _COR+291,32
     6627 00000103 00000139!        .field          _COR+313,32
     6628 00000104 00000062+        .field          SL8,32
     6629 00000105 00000129!        .field          _COR+297,32
     6630 00000106 00000125!        .field          _COR+293,32
     6631 00000107 0000014f!        .field          _COR+335,32
     6632 00000108 00000165!        .field          _COR+357,32
     6633 00000109 00000077+        .field          SL9,32
     6634 0000010a 00000155!        .field          _COR+341,32
     6635 0000010b 00000151!        .field          _COR+337,32
     6636 0000010c 00000004!        .field          _COR+4,32
     6637 0000010d 00000006!        .field          _COR+6,32
     6638 0000010e 06ba0000         .word           006BA0000H ; double  -9.900000000000000e+01
     6639 0000010f 00000005!        .field          _COR+5,32
     6640 00000110 00000007!        .field          _COR+7,32
     6641 00000111 00000013!        .field          _COR+19,32
     6642 00000112 00000014!        .field          _COR+20,32
     6643 00000113 00000008!        .field          _COR+8,32
     6644 00000114 00000009!        .field          _COR+9,32
     6645 00000115 0000000a!        .field          _COR+10,32
     6646 00000116 0000000c!        .field          _COR+12,32
     6647 00000117 0000000e!        .field          _COR+14,32
     6648 00000118 0000000f!        .field          _COR+15,32
     6649 00000119 00000011!        .field          _COR+17,32
     6650 0000011a 00000015!        .field          _COR+21,32
     6651 0000011b 00000016!        .field          _COR+22,32
     6652 0000011c 00000017!        .field          _COR+23,32
TMS320C3x/4x COFF AssemblerVersion 5.12     Mon Nov 19 13:45:24 2018
Copyright (c) 1987-1999 Texas Instruments Incorporatedasm30.exe -@_6L4.AAB 

F:\WKDIR\CodeComposer\EEA_SA_V613b\BOOT\SOURCE\ASM\main.asm          PAGE  131

     6653 0000011d 00000018!        .field          _COR+24,32
     6654 0000011e 00000019!        .field          _COR+25,32
     6655 0000011f 0000001a!        .field          _COR+26,32
     6656 00000120 00000012!        .field          _COR+18,32
     6657 00000121 0000000b!        .field          _COR+11,32
     6658 00000122 0000000d!        .field          _COR+13,32
     6659 00000123 00000010!        .field          _COR+16,32
     6660 00000124 00000002!        .field          _COR+2,32
     6661 00000125 0000017b!        .field          _COR+379,32
     6662 00000126 0000017c!        .field          _COR+380,32
     6663 00000127 00000000!        .field          _CORIOLIS_ZERO1,32
     6664 00000128 000002fa!        .field          _COR+762,32
     6665 00000129 00000000!        .field          _CORIOLIS_ZERO2,32
     6666 0000012a 00000478!        .field          _COR+1144,32
     6667 0000012b 00000000!        .field          _CORIOLIS_ZERO3,32
     6668 0000012c 000005f6!        .field          _COR+1526,32
     6669 0000012d 00000000!        .field          _CORIOLIS_ZERO4,32
     6670 0000012e 0000017d!        .field          _COR+381,32
     6671 0000012f 000002fb!        .field          _COR+763,32
     6672 00000130 00000479!        .field          _COR+1145,32
     6673 00000131 000005f7!        .field          _COR+1527,32
     6674 00000132 00000006!        .field          _PRESS+6,32
     6675 00000133 00000007!        .field          _PRESS+7,32
     6676 00000134 00000008!        .field          _PRESS+8,32
     6677 00000135 00000000!        .field          _PRESS,32
     6678 00000136 00000001!        .field          _PRESS+1,32
     6679 00000137 00000002!        .field          _PRESS+2,32
     6680 00000138 00000003!        .field          _PRESS+3,32
     6681 00000139 00000004!        .field          _PRESS+4,32
     6682 0000013a 00000005!        .field          _PRESS+5,32
     6683 0000013b 00000000!        .field          _TMPTRANS,32
     6684 0000013c 00000001!        .field          _TMPTRANS+1,32
     6685 0000013d 00000002!        .field          _TMPTRANS+2,32
     6686 0000013e 00000003!        .field          _TMPTRANS+3,32
     6687 0000013f 00000004!        .field          _TMPTRANS+4,32
     6688 00000140 00000005!        .field          _TMPTRANS+5,32
     6689 00000141 000001ec!        .field          _FC+492,32
     6690 00000142 000004e7!        .field          _FC+1255,32
     6691 00000143 000001ea!        .field          _FC+490,32
     6692 00000144 000001eb!        .field          _FC+491,32
     6693 00000145 000000b0!        .field          _FC+176,32
     6694 00000146 000004b6!        .field          _FC+1206,32
     6695 00000147 0000052c!        .field          _FC+1324,32
     6696 00000148 0000052f!        .field          _FC+1327,32
     6697 00000149 00000162!        .field          _FC+354,32
     6698 0000014a 00000000!        .field          _USE_PDI_WATERCUT,32
     6699 0000014b 00000000!        .field          _CALC_WC_DENSITY,32
     6700 0000014c 00000530!        .field          _FC+1328,32
     6701 0000014d 00000000!        .field          _FC,32
     6702 0000014e 00000532!        .field          _FC+1330,32
     6703 0000014f 00000058!        .field          _FC+88,32
     6704 00000150 0000052b!        .field          _FC+1323,32
     6705 00000151 0000052e!        .field          _FC+1326,32
     6706 00000152 0000002c!        .field          _FC+44,32
TMS320C3x/4x COFF AssemblerVersion 5.12     Mon Nov 19 13:45:24 2018
Copyright (c) 1987-1999 Texas Instruments Incorporatedasm30.exe -@_6L4.AAB 

F:\WKDIR\CodeComposer\EEA_SA_V613b\BOOT\SOURCE\ASM\main.asm          PAGE  132

     6707 00000153 00000533!        .field          _FC+1331,32
     6708 00000154 00000431!        .field          _FC+1073,32
     6709 00000155 00000405!        .field          _FC+1029,32
     6710 00000156 000003d9!        .field          _FC+985,32
     6711 00000157 00000381!        .field          _FC+897,32
     6712 00000158 00000351!        .field          _FC+849,32
     6713 00000159 00000321!        .field          _FC+801,32
     6714 0000015a 00000245!        .field          _FC+581,32
     6715 0000015b 00000219!        .field          _FC+537,32
     6716 0000015c 000001ed!        .field          _FC+493,32
     6717 0000015d 000002c9!        .field          _FC+713,32
     6718 0000015e 0000029d!        .field          _FC+669,32
     6719 0000015f 00000271!        .field          _FC+625,32
     6720 00000160 0000034d!        .field          _FC+845,32
     6721 00000161 0000032a!        .field          _FC+810,32
     6722 00000162 00000000!        .field          _floor,32
     6723 00000163 0000034f!        .field          _FC+847,32
     6724 00000164 0000037d!        .field          _FC+893,32
     6725 00000165 0000035a!        .field          _FC+858,32
     6726 00000166 0000037f!        .field          _FC+895,32
     6727 00000167 00000000!        .field          _ALYESKA,32
     6728 00000168 00000001!        .field          _ALYESKA+1,32
     6729 00000169 00000002!        .field          _ALYESKA+2,32
     6730 0000016a 00000003!        .field          _ALYESKA+3,32
     6731 0000016b 00000004!        .field          _ALYESKA+4,32
     6732 0000016c 00000005!        .field          _ALYESKA+5,32
     6733 0000016d 00000006!        .field          _ALYESKA+6,32
     6734 0000016e 00000007!        .field          _ALYESKA+7,32
     6735 0000016f 00000008!        .field          _ALYESKA+8,32
     6736 00000170 00000009!        .field          _ALYESKA+9,32
     6737 00000171 0000000a!        .field          _ALYESKA+10,32
     6738 00000172 00000000!        .field          _ALFAT_STATUS_REG,32
     6739 00000173 00000000!        .field          _ALFAT_INIT_ALL,32
     6740 00000174 00000000!        .field          _ALFAT_APPEND_LF,32
     6741 00000175 0000018b!        .field          _PORT+395,32
     6742 00000176 00000000!        .field          _ALFAT_RX,32
     6743 00000177 00000000!        .field          _DEMO_ANALYZER_MODE,32
     6744 00000178 00000000!        .field          _DEMO_Init,32
     6745 00000179 00000000!        .field          _HW_VER,32
     6746 0000017a 00900000         .field          9437184,32
     6747 0000017b 00000000!        .field          _SA,32
     6748 0000017c 00000000!        .field          _SRAM_SCRATCHPAD,32
     6749 0000017d 00a38000         .field          10715136,32
     6750 0000017e 00b00000         .field          11534336,32
     6751 0000017f 00808064         .field          8421476,32
     6752 00000180 00900006         .field          9437190,32
     6753 00000181 00000000!        .field          _INITIALIZING,32
     6754 00000182 00000000!        .field          _INT0,32
     6755 00000183 00809fc1         .field          8429505,32
     6756 00000184 00000000!        .field          _c_int00,32
     6757 00000185 00400000         .field          4194304,32
     6758 00000186 00400000         .field          4194304,32
     6759 00000187 00000000!        .field          _CLOCK,32
     6760 00000188 034bc000         .field          55296000,32
TMS320C3x/4x COFF AssemblerVersion 5.12     Mon Nov 19 13:45:24 2018
Copyright (c) 1987-1999 Texas Instruments Incorporatedasm30.exe -@_6L4.AAB 

F:\WKDIR\CodeComposer\EEA_SA_V613b\BOOT\SOURCE\ASM\main.asm          PAGE  133

     6761 00000189 00000000!        .field          _LCD_INIT,32
     6762 0000018a 00000000!        .field          _LCD_DISPLAY,32
     6763 0000018b 024428f6         .word           0024428F6H ; double  6.130000000000000e+00
     6764 0000018c 00000000!        .field          _RUSS,32
     6765 0000018d 00000000!        .field          _OUT_STR,32
     6766 0000018e 00000000!        .field          _Get_Russ_Line,32
     6767 0000018f 0000008c+        .field          SL10,32
     6768 00000190 00000000!        .field          _OUT_STR2,32
     6769 00000191 00000065!        .field          _LCD_DISPLAY+101,32
     6770 00000192 000000ca!        .field          _LCD_DISPLAY+202,32
     6771 00000193 0000008f+        .field          SL11,32
     6772 00000194 0000012f!        .field          _LCD_DISPLAY+303,32
     6773 00000195 0000009f+        .field          SL12,32
     6774 00000196 000000ae+        .field          SL13,32
     6775 00000197 000000c3+        .field          SL14,32
     6776 00000198 000000d8+        .field          SL15,32
     6777 00000199 000000f0+        .field          SL16,32
     6778 0000019a 00000000!        .field          _LCD_PAGE,32
     6779 0000019b 00000000!        .field          _MENU_INIT,32
     6780 0000019c 00000000+        .field          _Initialize_Variables,32
     6781 0000019d 00000108+        .field          SL17,32
     6782 0000019e 00000000!        .field          _ENG_STR,32
     6783 0000019f 0000011d+        .field          SL18,32
     6784 000001a0 00000132+        .field          SL19,32
     6785 000001a1 00000147+        .field          SL20,32
     6786 000001a2 0000015c+        .field          SL21,32
     6787 000001a3 00000171+        .field          SL22,32
     6788 000001a4 00000000!        .field          _RTC_setup,32
     6789 000001a5 f1483fb7         .word           0F1483FB7H ; double  4.774305555555556e-05
     6790 000001a6 00000000!        .field          _Setup_Timer,32
     6791 000001a7 00000000!        .field          _VAR_DAMP_Init,32
     6792 000001a8 00000000!        .field          _Initialize_Periodic_Events,32
     6793 000001a9 00000000!        .field          _Setup_Serial_Port0,32
     6794 000001aa 00000000!        .field          _Setup_ADC,32
     6795 000001ab 00000000!        .field          _Setup_DAC,32
     6796 000001ac 0000000d!        .field          _REG_TEMPERATURE_EXTERNAL+13,32
     6797 000001ad 00000000!        .field          _DIO_TEMP_C,32
     6798 000001ae 00000000!        .field          _DIO_BUILT_IN_TEST_ENABLE,32
     6799 000001af 00000000!        .field          _Self_Test_FULL,32
     6800 000001b0 00000000!        .field          _LOG_STATUS,32
     6801 000001b1 00000000!        .field          _ALFAT_LOG,32
     6802 000001b2 00000000!        .field          _Timer_Insert,32
     6803 000001b3 00000000!        .field          _Port_Defaults,32
     6804 000001b4 00000000!        .field          _Disable_Heater,32
     6805 000001b5 00000000!        .field          _RESET_COUNTER,32
     6806 000001b6 00000000!        .field          _Write_CFG_USER,32
     6807 000001b7 00000000!        .field          _DEMO,32
     6808 000001b8 00000000!        .field          _Clear_Accumulators,32
     6809 000001b9 00000000!        .field          _VT_SELECT,32
     6810 000001ba 00000000!        .field          _OSWITCH,32
     6811 000001bb 00900013         .field          9437203,32
     6812 000001bc 00000000!        .field          _EXTUNE,32
     6813 000001bd 000001b8!        .field          _REG_DAC+440,32
     6814 000001be 00000009!        .field          _REG_VTUNE_SET+9,32
TMS320C3x/4x COFF AssemblerVersion 5.12     Mon Nov 19 13:45:24 2018
Copyright (c) 1987-1999 Texas Instruments Incorporatedasm30.exe -@_6L4.AAB 

F:\WKDIR\CodeComposer\EEA_SA_V613b\BOOT\SOURCE\ASM\main.asm          PAGE  134

     6815 000001bf 000001e4!        .field          _REG_DAC+484,32
     6816 000001c0 02200000         .word           002200000H ; ldouble 5.000000000000000e+00
     6817 000001c1 20000000         .word           020000000H ; ldouble
     6818 000001c2 00000000!        .field          _Write_DAC,32
     6819 000001c3 00000000!        .field          _Set_Research_Mode,32
     6820 000001c4 00000000'        .field          _Debug,32
     6821                   
     6822 00000006                  .sect   ".text"
     6823                   ;******************************************************************************
     6824                   ;* UNDEFINED EXTERNAL REFERENCES                                              *
     6825                   ;******************************************************************************
     6826                   
     6827                           .global _sprintf
     6828                   
     6829                           .global _floor
     6830                   
     6831                           .global _VAR_Initialize
     6832                   
     6833                           .global _VAR_DAMP_Init
     6834                   
     6835                           .global _VAR_NaN
     6836                   
     6837                           .global _VAR_Update
     6838                   
     6839                           .global _Clear
     6840                   
     6841                           .global _Setup_Timer
     6842                   
     6843                           .global _Timer_Insert
     6844                   
     6845                           .global _CLEAR_TIME
     6846                   
     6847                           .global _RTC_setup
     6848                   
     6849                           .global _LCD_PAGE
     6850                   
     6851                           .global _LCD_DISPLAY
     6852                   
     6853                           .global _LCD_INIT
     6854                   
     6855                           .global _DIAG_TEMP
     6856                   
     6857                           .global _DIAGNOSTICS
     6858                   
     6859                           .global _DIAGNOSTICS_MSG_CODE
     6860                   
     6861                           .global _DIAGNOSTICS_ERROR_CODE
     6862                   
     6863                           .global _E_STRING
     6864                   
     6865                           .global _DIO_ERROR
     6866                   
     6867                           .global _DIO_ALARM
     6868                   
TMS320C3x/4x COFF AssemblerVersion 5.12     Mon Nov 19 13:45:24 2018
Copyright (c) 1987-1999 Texas Instruments Incorporatedasm30.exe -@_6L4.AAB 

F:\WKDIR\CodeComposer\EEA_SA_V613b\BOOT\SOURCE\ASM\main.asm          PAGE  135

     6869                           .global _PORT
     6870                   
     6871                           .global _Setup_Serial_Port0
     6872                   
     6873                           .global _Port_Defaults
     6874                   
     6875                           .global _AI
     6876                   
     6877                           .global _Setup_ADC
     6878                   
     6879                           .global _Setup_DAC
     6880                   
     6881                           .global _Write_DAC
     6882                   
     6883                           .global _PID_Init
     6884                   
     6885                           .global _AO
     6886                   
     6887                           .global _Execute_Init
     6888                   
     6889                           .global _SRAM_SCRATCHPAD
     6890                   
     6891                           .global _FLASH_READ_ESN_MFGR
     6892                   
     6893                           .global _FLASH_READ_ESN_USER
     6894                   
     6895                           .global _InitLog
     6896                   
     6897                           .global _DEMO_Init
     6898                   
     6899                           .global _Self_Test_FULL
     6900                   
     6901                           .global _Get_Russ_Line
     6902                   
     6903                           .global _OUT_STR
     6904                   
     6905                           .global _OUT_STR2
     6906                   
     6907                           .global _ENG_STR
     6908                   
     6909                           .global _MENU_INIT
     6910                   
     6911                           .global _CLOCK
     6912                   
     6913                           .global _LED_GREEN
     6914                   
     6915                           .global _OSWITCH
     6916                   
     6917                           .global _c_int00
     6918                   
     6919                           .global _ESN_USER
     6920                   
     6921                           .global _ESN_MFGR
     6922                   
TMS320C3x/4x COFF AssemblerVersion 5.12     Mon Nov 19 13:45:24 2018
Copyright (c) 1987-1999 Texas Instruments Incorporatedasm30.exe -@_6L4.AAB 

F:\WKDIR\CodeComposer\EEA_SA_V613b\BOOT\SOURCE\ASM\main.asm          PAGE  136

     6923                           .global _RESEARCH_FORCE_MODE
     6924                   
     6925                           .global _DIO_uP_GET
     6926                   
     6927                           .global _DIO_uP_SET
     6928                   
     6929                           .global _DIO_COMM_GET
     6930                   
     6931                           .global _DIO_COMM_SET
     6932                   
     6933                           .global _DIO_ANALYZER_GET
     6934                   
     6935                           .global _DIO_ANALYZER_SET
     6936                   
     6937                           .global _DIO_POWER_GET
     6938                   
     6939                           .global _DIO_POWER_SET
     6940                   
     6941                           .global _DIO_ANALOGIO_GET
     6942                   
     6943                           .global _DIO_ANALOGIO_SET
     6944                   
     6945                           .global _DIO_DISPLAY_GET
     6946                   
     6947                           .global _DIO_DISPLAY_SET
     6948                   
     6949                           .global _DIO_MOTHERBOARD_GET
     6950                   
     6951                           .global _DIO_MOTHERBOARD_SET
     6952                   
     6953                           .global _DIO_BEEP
     6954                   
     6955                           .global _DIO_PV_PERCMASS
     6956                   
     6957                           .global _VAR_SELECT_DV
     6958                   
     6959                           .global _VAR_SELECT_DVIN
     6960                   
     6961                           .global _i_LV
     6962                   
     6963                           .global _il_LV
     6964                   
     6965                           .global _f_LV
     6966                   
     6967                           .global _DATA_CHANGE
     6968                   
     6969                           .global _SA
     6970                   
     6971                           .global _EXTUNE
     6972                   
     6973                           .global _PV_SAMPLES
     6974                   
     6975                           .global _PV_SAMPLES_24hr
     6976                   
TMS320C3x/4x COFF AssemblerVersion 5.12     Mon Nov 19 13:45:24 2018
Copyright (c) 1987-1999 Texas Instruments Incorporatedasm30.exe -@_6L4.AAB 

F:\WKDIR\CodeComposer\EEA_SA_V613b\BOOT\SOURCE\ASM\main.asm          PAGE  137

     6977                           .global _PV_SAMPLES_5min
     6978                   
     6979                           .global _VT_SELECT
     6980                   
     6981                           .global _INITIALIZING
     6982                   
     6983                           .global _MEM
     6984                   
     6985                           .global _DIPSWITCH
     6986                   
     6987                           .global _DUMMY
     6988                   
     6989                           .global _CHANGE
     6990                   
     6991                           .global _IDEC_SA
     6992                   
     6993                           .global _IDEC_PORT
     6994                   
     6995                           .global _i_FREQ_O
     6996                   
     6997                           .global _i_IP_O
     6998                   
     6999                           .global _i_RP_O
     7000                   
     7001                           .global _i_FREQ_W
     7002                   
     7003                           .global _i_IP_W
     7004                   
     7005                           .global _i_RP_W
     7006                   
     7007                           .global _i_TEMP
     7008                   
     7009                           .global _i_WC
     7010                   
     7011                           .global _FREQ_O
     7012                   
     7013                           .global _IP_O
     7014                   
     7015                           .global _RP_O
     7016                   
     7017                           .global _IP_RP_O
     7018                   
     7019                           .global _DB_IP_RP_O
     7020                   
     7021                           .global _FREQ_W
     7022                   
     7023                           .global _IP_W
     7024                   
     7025                           .global _RP_W
     7026                   
     7027                           .global _IP_RP_W
     7028                   
     7029                           .global _DB_IP_RP_W
     7030                   
TMS320C3x/4x COFF AssemblerVersion 5.12     Mon Nov 19 13:45:24 2018
Copyright (c) 1987-1999 Texas Instruments Incorporatedasm30.exe -@_6L4.AAB 

F:\WKDIR\CodeComposer\EEA_SA_V613b\BOOT\SOURCE\ASM\main.asm          PAGE  138

     7031                           .global _HW_VER
     7032                   
     7033                           .global _i_CCM_Level_Setpoint
     7034                   
     7035                           .global _i_CCM_Level
     7036                   
     7037                           .global _i_CCM_Pressure_Setpoint
     7038                   
     7039                           .global _i_CCM_Pressure
     7040                   
     7041                           .global _i_CCM_Gas_Valve
     7042                   
     7043                           .global _i_CCM_Liquid_Valve
     7044                   
     7045                           .global _i_CCM_Flow
     7046                   
     7047                           .global _i_CCM_Flow_Oil
     7048                   
     7049                           .global _i_CCM_Flow_Water
     7050                   
     7051                           .global _i_CCM_Flow_Gas
     7052                   
     7053                           .global _CCM_TIME_START
     7054                   
     7055                           .global _CCM_TIME_STOP
     7056                   
     7057                           .global _CCM_TIME_REMAINING
     7058                   
     7059                           .global _CCM_TIME_ELAPSED
     7060                   
     7061                           .global _CCM_VESSEL_LEVEL
     7062                   
     7063                           .global _CCM_VESSEL_PRESSURE
     7064                   
     7065                           .global _CCM_REMAINING
     7066                   
     7067                           .global _CCM_REMAINING_S
     7068                   
     7069                           .global _CCM_ELAPSED_S
     7070                   
     7071                           .global _CCM_24_GAS
     7072                   
     7073                           .global _CCM_24_OIL
     7074                   
     7075                           .global _CCM_24_WATER
     7076                   
     7077                           .global _CCM_24_TOTAL
     7078                   
     7079                           .global _CCM_GAS_TOTAL
     7080                   
     7081                           .global _CCM_GAS_FLOW
     7082                   
     7083                           .global _ANALYZER_MODE
     7084                   
TMS320C3x/4x COFF AssemblerVersion 5.12     Mon Nov 19 13:45:24 2018
Copyright (c) 1987-1999 Texas Instruments Incorporatedasm30.exe -@_6L4.AAB 

F:\WKDIR\CodeComposer\EEA_SA_V613b\BOOT\SOURCE\ASM\main.asm          PAGE  139

     7085                           .global _DEMO
     7086                   
     7087                           .global _DEMO_ANALYZER_MODE
     7088                   
     7089                           .global _REG_TIME
     7090                   
     7091                           .global _SAMPLE_PENDING
     7092                   
     7093                           .global _RESET_COUNTER
     7094                   
     7095                           .global _SN_PIPE
     7096                   
     7097                           .global _NaN_val_flt
     7098                   
     7099                           .global _DIO_SYSTEM_RESET
     7100                   
     7101                           .global _DIO_BUILT_IN_TEST_ENABLE
     7102                   
     7103                           .global _DIO_BUILT_IN_TEST
     7104                   
     7105                           .global _DIO_TEMP_C
     7106                   
     7107                           .global _DIO_CCM_START
     7108                   
     7109                           .global _REG_CCM_TEST_STAT
     7110                   
     7111                           .global _DIO_CCM_PURGE_STAT
     7112                   
     7113                           .global _REG_CCM_PURGE_STAT
     7114                   
     7115                           .global _REG_DUMMY
     7116                   
     7117                           .global _WC
     7118                   
     7119                           .global _REG_WATERCUT_RAW
     7120                   
     7121                           .global _REG_PV_AVG_24hr
     7122                   
     7123                           .global _REG_PV_AVG_5min
     7124                   
     7125                           .global _REG_PV_AVG_1sec
     7126                   
     7127                           .global _REG_PV_AVG_CNT
     7128                   
     7129                           .global _REG_WATERCUT
     7130                   
     7131                           .global _REG_WATERCUT_DENSITY
     7132                   
     7133                           .global _TMP_VTUNE
     7134                   
     7135                           .global _REG_VINC
     7136                   
     7137                           .global _TMP_VINC
     7138                   
TMS320C3x/4x COFF AssemblerVersion 5.12     Mon Nov 19 13:45:24 2018
Copyright (c) 1987-1999 Texas Instruments Incorporatedasm30.exe -@_6L4.AAB 

F:\WKDIR\CodeComposer\EEA_SA_V613b\BOOT\SOURCE\ASM\main.asm          PAGE  140

     7139                           .global _REG_VREF
     7140                   
     7141                           .global _TMP_VREF
     7142                   
     7143                           .global _REG_TEMPERATURE_USER
     7144                   
     7145                           .global _REG_TEMPERATURE_AVG
     7146                   
     7147                           .global _REG_TEMPERATURE_EXTERNAL
     7148                   
     7149                           .global _REG_FREQ
     7150                   
     7151                           .global _REG_FREQ_O
     7152                   
     7153                           .global _REG_VINC_O
     7154                   
     7155                           .global _REG_VREF_O
     7156                   
     7157                           .global _REG_FREQ_W
     7158                   
     7159                           .global _REG_VINC_W
     7160                   
     7161                           .global _REG_VREF_W
     7162                   
     7163                           .global _AVG_TEMP
     7164                   
     7165                           .global _SUM_TEMP
     7166                   
     7167                           .global _N_TEMP
     7168                   
     7169                           .global _cycles
     7170                   
     7171                           .global _previous_phase
     7172                   
     7173                           .global _phase
     7174                   
     7175                           .global _phase_rollover_count
     7176                   
     7177                           .global _N_WC
     7178                   
     7179                           .global _WC_SAMPLE
     7180                   
     7181                           .global _WC_SUM
     7182                   
     7183                           .global _PORT2_LIQ_TEMP
     7184                   
     7185                           .global _PORT2_GAS_TEMP
     7186                   
     7187                           .global _PORT3_TEMP
     7188                   
     7189                           .global _MM_LIQ_fail
     7190                   
     7191                           .global _MM_GAS_fail
     7192                   
TMS320C3x/4x COFF AssemblerVersion 5.12     Mon Nov 19 13:45:24 2018
Copyright (c) 1987-1999 Texas Instruments Incorporatedasm30.exe -@_6L4.AAB 

F:\WKDIR\CodeComposer\EEA_SA_V613b\BOOT\SOURCE\ASM\main.asm          PAGE  141

     7193                           .global _Rosemount_fail
     7194                   
     7195                           .global _N_FREQ
     7196                   
     7197                           .global _HSALT_FREQ_TRIGGER
     7198                   
     7199                           .global _REG_FREQ_VARIANCE_RATIO
     7200                   
     7201                           .global _TEMP_SAMPLE
     7202                   
     7203                           .global _LAST_TEMP_RESET
     7204                   
     7205                           .global _HSALT_TEMP_TRIGGER
     7206                   
     7207                           .global _REG_LOWSALT_THRESHOLD
     7208                   
     7209                           .global _EXTENDED_FW_VERSION_ENABLE
     7210                   
     7211                           .global _GAS_ENTRAINED_DENS_DETECT
     7212                   
     7213                           .global _gas_routine_reset_needed
     7214                   
     7215                           .global _boxcar_reset_needed
     7216                   
     7217                           .global _RUSS
     7218                   
     7219                           .global _TRIM_RTD_LO
     7220                   
     7221                           .global _TRIM_RTD_HI
     7222                   
     7223                           .global _CAP_WATER_STOP
     7224                   
     7225                           .global _CAP_OIL_STOP
     7226                   
     7227                           .global _TMP_FREQ
     7228                   
     7229                           .global _REG_FREQ_OIL_LO
     7230                   
     7231                           .global _REG_FREQ_OIL_HI
     7232                   
     7233                           .global _REG_FREQ_WATER_LO
     7234                   
     7235                           .global _REG_FREQ_WATER_HI
     7236                   
     7237                           .global _REG_VTUNE_SET
     7238                   
     7239                           .global _REG_VTUNE
     7240                   
     7241                           .global _REG_EMULSION_PHASE
     7242                   
     7243                           .global _REG_CAL_OIL
     7244                   
     7245                           .global _REG_CAL_WATER
     7246                   
TMS320C3x/4x COFF AssemblerVersion 5.12     Mon Nov 19 13:45:24 2018
Copyright (c) 1987-1999 Texas Instruments Incorporatedasm30.exe -@_6L4.AAB 

F:\WKDIR\CodeComposer\EEA_SA_V613b\BOOT\SOURCE\ASM\main.asm          PAGE  142

     7247                           .global _DIO_LOCK
     7248                   
     7249                           .global _LOCKOUT
     7250                   
     7251                           .global _REG_DAC
     7252                   
     7253                           .global _COR
     7254                   
     7255                           .global _PRESS
     7256                   
     7257                           .global _TMPTRANS
     7258                   
     7259                           .global _USE_PDI_WATERCUT
     7260                   
     7261                           .global _CALC_WC_DENSITY
     7262                   
     7263                           .global _FC
     7264                   
     7265                           .global _ALYESKA
     7266                   
     7267                           .global _compatibility_dummy
     7268                   
     7269                           .global _ALFAT_RX
     7270                   
     7271                           .global _LOG_STATUS
     7272                   
     7273                           .global _ALFAT_INIT_ALL
     7274                   
     7275                           .global _ALFAT_STATUS_REG
     7276                   
     7277                           .global _ALFAT_APPEND_LF
     7278                   
     7279                           .global _Setup_Basics
     7280                   
     7281                           .global _Initialize_Periodic_Events
     7282                   
     7283                           .global _Disable_Heater
     7284                   
     7285                           .global _Set_IDEC_Port
     7286                   
     7287                           .global _Set_Time
     7288                   
     7289                           .global _VAR_SET_STR_DV
     7290                   
     7291                           .global _VAR_SET_STR_DVIN
     7292                   
     7293                           .global _Clear_Accumulators
     7294                   
     7295                           .global _ALFAT_LOG
     7296                   
     7297                           .global _Write_CFG_USER
     7298                   
     7299                           .global _Restore_CFG
     7300                   
TMS320C3x/4x COFF AssemblerVersion 5.12     Mon Nov 19 13:45:24 2018
Copyright (c) 1987-1999 Texas Instruments Incorporatedasm30.exe -@_6L4.AAB 

F:\WKDIR\CodeComposer\EEA_SA_V613b\BOOT\SOURCE\ASM\main.asm          PAGE  143

     7301                           .global _Set_Research_Mode
     7302                   
     7303                           .global _Mirror_From_Stream_Table
     7304                   
     7305                           .global _CORIOLIS_ZERO1
     7306                   
     7307                           .global _CORIOLIS_ZERO2
     7308                   
     7309                           .global _CORIOLIS_ZERO3
     7310                   
     7311                           .global _CORIOLIS_ZERO4
     7312                   
     7313                           .global _CORIOLIS_CFG
     7314                   
     7315                           .global _CORIOLIS_INT_CFG
     7316                   
     7317                           .global _INT0
     7318                           .global _Print_To_LCD
     7319                           .global _Execute

 No Errors,  No Warnings
TMS320C3x/4x COFF AssemblerVersion 5.12     Mon Nov 19 13:45:24 2018
Copyright (c) 1987-1999 Texas Instruments Incorporatedasm30.exe -@_6L4.AAB 

F:\WKDIR\CodeComposer\EEA_SA_V613b\BOOT\SOURCE\ASM\main.asm          PAGE  144

LABEL                            VALUE       DEFN    REF

.BIGMODEL                        00000001       0 
.C30                             00000000       0 
.C30INTERRUPT                    00000000       0 
.C31                             00000000       0 
.C32                             00000000       0 
.C33                             00000001       0 
.C3X                             00000001       0 
.C3x                             00000001       0 
.C40                             00000000       0 
.C44                             00000000       0 
.C4X                             00000000       0 
.C4x                             00000000       0 
.REGPARM                         00000001       0 
.TMS320C30                       00000001       0 
.TMS320C31                       00000000       0 
.TMS320C32                       00000000       0 
.TMS320C40                       00000000       0 
.TMS320C44                       00000000       0 
.TMS320xx                        00000021       0 
.tms320C30                       00000001       0 
.tms320C31                       00000000       0 
.tms320C32                       00000000       0 
.tms320C40                       00000000       0 
.tms320C44                       00000000       0 
.tms320xx                        00000021       0 
.tmx320C40                       00000000       0 
CL1                              00000000-   5921    792    793   6369 
CL10                             00000009-   5930    883    884 
CL100                            00000065-   6020   1673   1674 
CL101                            00000066-   6021   1681   1682 
CL102                            00000067-   6022   1688   1689 
CL103                            00000068-   6023   1695   1696 
CL104                            00000069-   6024   1704   1705 
CL105                            0000006a-   6025   1702   1703   1712   1713 
                                                    1722   1723 
CL106                            0000006b-   6026   1714   1715 
CL107                            0000006c-   6027   1724   1725 
CL108                            0000006d-   6028   1733   1734 
CL109                            0000006e-   6029   1735   1736   1744   1745 
                                                    1761   1762 
CL11                             0000000a-   5931    891    892 
CL110                            0000006f-   6030   1742   1743 
CL111                            00000070-   6031   1751   1752 
CL112                            00000071-   6032   1759   1760 
CL113                            00000072-   6033   1768   1769 
CL114                            00000073-   6034   1776   1777 
CL115                            00000074-   6035   1784   1785 
CL116                            00000075-   6036   1792   1793 
CL117                            00000076-   6037   1802   1803 
CL118                            00000077-   6038   1810   1811 
CL119                            00000078-   6039   1818   1819 
TMS320C3x/4x COFF AssemblerVersion 5.12     Mon Nov 19 13:45:24 2018
Copyright (c) 1987-1999 Texas Instruments Incorporatedasm30.exe -@_6L4.AAB 

F:\WKDIR\CodeComposer\EEA_SA_V613b\BOOT\SOURCE\ASM\main.asm          PAGE  145

LABEL                            VALUE       DEFN    REF

CL12                             0000000b-   5932    899    900 
CL120                            00000079-   6040   1830   1831 
CL121                            0000007a-   6041   1838   1839 
CL122                            0000007b-   6042   1850   1851 
CL123                            0000007c-   6043   1864   1867 
CL124                            0000007d-   6044   1860   1861   1862   1863 
CL125                            0000007f-   6045   1876   1877 
CL126                            00000080-   6046   1874   1875   1884   1885 
                                                    1894   1895   1904   1905 
                                                    1914   1915   1980   1981 
                                                    2019   2020   2031   2032 
                                                    2043   2044   2229   2230 
                                                    2239   2240   2249   2250 
                                                    2259   2260   2269   2270 
                                                    2279   2280   2343   2344 
                                                    2355   2356   2367   2368 
                                                    2379   2380   2451   2452 
                                                    2461   2462   2471   2472 
                                                    2481   2482   2491   2492 
                                                    2501   2502   3891   3892 
                                                    3924   3925   3963   3964 
                                                    3988   3989   4022   4023 
                                                    4047   4048   4060   4061 
                                                    4072   4073   4084   4085 
                                                    4096   4097   4108   4109 
                                                    4120   4121   4132   4133 
                                                    4144   4145   4156   4157 
                                                    4168   4169   4181   4182 
CL127                            00000081-   6047   1886   1887 
CL128                            00000082-   6048   1896   1897 
CL129                            00000083-   6049   1906   1907 
CL13                             0000000c-   5933    906    907 
CL130                            00000084-   6050   1916   1917 
CL131                            00000085-   6051   1924   1925 
CL132                            00000086-   6052   1932   1933 
CL133                            00000087-   6053   1934   1935 
CL134                            00000088-   6054   1941   1942 
CL135                            00000089-   6055   1949   1950 
CL136                            0000008a-   6056   1951   1952   1959 
CL137                            0000008b-   6057   1977   1979 
CL138                            0000008c-   6058   1988   1989 
CL139                            0000008d-   6059   2016   2018 
CL14                             0000000d-   5934    914    915 
CL140                            0000008e-   6060   2027   2030 
CL141                            0000008f-   6061   2039   2042 
CL142                            00000090-   6062   2054   2056 
CL143                            00000091-   6063   2051   2053 
CL144                            00000092-   6064   2071   2072 
CL145                            00000093-   6065   2079   2080 
CL146                            00000094-   6066   2086   2087 
CL147                            00000095-   6067   2093   2094 
TMS320C3x/4x COFF AssemblerVersion 5.12     Mon Nov 19 13:45:24 2018
Copyright (c) 1987-1999 Texas Instruments Incorporatedasm30.exe -@_6L4.AAB 

F:\WKDIR\CodeComposer\EEA_SA_V613b\BOOT\SOURCE\ASM\main.asm          PAGE  146

LABEL                            VALUE       DEFN    REF

CL148                            00000096-   6068   2100   2101 
CL149                            00000097-   6069   2107   2108 
CL15                             0000000e-   5935    918    920 
CL150                            00000098-   6070   2114   2115 
CL151                            00000099-   6071   2121   2122 
CL152                            0000009a-   6072   2128   2129 
CL153                            0000009b-   6073   2135   2136 
CL154                            0000009c-   6074   2142   2143 
CL155                            0000009d-   6075   2150   2151 
CL156                            0000009e-   6076   2158   2159 
CL157                            0000009f-   6077   2166   2167 
CL158                            000000a0-   6078   2174   2175 
CL159                            000000a1-   6079   2182   2183 
CL16                             0000000f-   5936    916    917   2770   2771 
                                                    2848   2849   2927   2928 
                                                    3006   3007   3085   3086 
                                                    3163   3164   3242   3243 
                                                    3303   3304   4949   4951 
                                                    4978   4979   5012   5014 
                                                    5044   5046   5061   5063 
                                                    5075   5077   5090   5091 
                                                    5111   5113   5156   5158 
                                                    5187   5188   5220   5221 
                                                    5253   5254   5288   5290 
                                                    5310   5312 
CL160                            000000a2-   6080   2190   2191 
CL161                            000000a3-   6081   2198   2199 
CL162                            000000a4-   6082   2206   2207 
CL163                            000000a5-   6083   2213   2214 
CL164                            000000a6-   6084   2221   2222 
CL165                            000000a7-   6085   2231   2232 
CL166                            000000a8-   6086   2241   2242 
CL167                            000000a9-   6087   2251   2252 
CL168                            000000aa-   6088   2261   2262 
CL169                            000000ab-   6089   2271   2272 
CL17                             00000010-   5937    928    929 
CL170                            000000ac-   6090   2281   2282 
CL171                            000000ad-   6091   2291   2292 
CL172                            000000ae-   6092   2289   2290   2299   2300 
                                                    2309   2310   2319   2320 
CL173                            000000af-   6093   2301   2302 
CL174                            000000b0-   6094   2311   2312 
CL175                            000000b1-   6095   2321   2322 
CL176                            000000b2-   6096   2340   2342 
CL177                            000000b3-   6097   2351   2354 
CL178                            000000b4-   6098   2363   2366 
CL179                            000000b5-   6099   2376   2378 
CL18                             00000011-   5938    936    937 
CL180                            000000b6-   6100   2387   2390 
CL181                            000000b7-   6101   2391   2392   2393   2394 
                                                    2405   2406   2407   2408 
                                                    2419   2420   2421   2422 
                                                    2433   2434   2435   2436 
TMS320C3x/4x COFF AssemblerVersion 5.12     Mon Nov 19 13:45:24 2018
Copyright (c) 1987-1999 Texas Instruments Incorporatedasm30.exe -@_6L4.AAB 

F:\WKDIR\CodeComposer\EEA_SA_V613b\BOOT\SOURCE\ASM\main.asm          PAGE  147

LABEL                            VALUE       DEFN    REF

CL182                            000000b9-   6102   2402   2404 
CL183                            000000ba-   6103   2416   2418 
CL184                            000000bb-   6104   2430   2432 
CL185                            000000bc-   6105   2453   2454 
CL186                            000000bd-   6106   2463   2464 
CL187                            000000be-   6107   2473   2474 
CL188                            000000bf-   6108   2483   2484 
CL189                            000000c0-   6109   2493   2494 
CL19                             00000012-   5939    957    959    992    993 
CL190                            000000c1-   6110   2503   2504 
CL191                            000000c2-   6111   2511   2512 
CL192                            000000c3-   6112   2519   2520 
CL193                            000000c4-   6113   2527   2528 
CL194                            000000c5-   6114   2535   2536 
CL195                            000000c6-   6115   2543   2544 
CL196                            000000c7-   6116   2551   2552 
CL197                            000000c8-   6117   2559   2560 
CL198                            000000c9-   6118   2567   2568 
CL199                            000000ca-   6119   2575   2576 
CL2                              00000001-   5922    800    801   4784   4785 
                                                    4795   4796   5780   5781 
CL20                             00000013-   5940    965    967 
CL200                            000000cb-   6120   2583   2584 
CL201                            000000cc-   6121   2591   2592 
CL202                            000000cd-   6122   2599   2600 
CL203                            000000ce-   6123   2606   2607 
CL204                            000000cf-   6124   2613   2614 
CL205                            000000d0-   6125   2620   2621 
CL206                            000000d1-   6126   2627   2628 
CL207                            000000d2-   6127   2634   2635 
CL208                            000000d3-   6128   2641   2642 
CL209                            000000d4-   6129   2649   2650 
CL21                             00000014-   5941    983    984 
CL210                            000000d5-   6130   2670   2672 
CL211                            000000d6-   6131   2678   2679 
CL212                            000000d7-   6132   2686   2687 
CL213                            000000d8-   6133   2713   2715 
CL214                            000000d9-   6134   2722   2724 
CL215                            000000da-   6135   2732   2734 
CL216                            000000db-   6136   2745   2748   2794   2796 
CL217                            000000dc-   6137   2749   2751   2826   2829 
                                                    2903   2904   2982   2983 
                                                    3062   3064   3140   3141 
                                                    3221   3223   3279   3280 
CL218                            000000dd-   6138   2767   2769 
CL219                            000000de-   6139   2762   2764 
CL22                             00000015-   5942   1000   1001 
CL220                            000000df-   6140   2781   2784 
CL221                            000000e0-   6141   2809   2810 
CL222                            000000e1-   6142   2812   2814   2890   2892 
                                                    2969   2971   3048   3050 
                                                    3127   3129   3345   3347 
TMS320C3x/4x COFF AssemblerVersion 5.12     Mon Nov 19 13:45:24 2018
Copyright (c) 1987-1999 Texas Instruments Incorporatedasm30.exe -@_6L4.AAB 

F:\WKDIR\CodeComposer\EEA_SA_V613b\BOOT\SOURCE\ASM\main.asm          PAGE  148

LABEL                            VALUE       DEFN    REF

CL223                            000000e2-   6143   2823   2825   2871   2874 
CL224                            000000e3-   6144   2845   2847 
CL225                            000000e4-   6145   2838   2839 
CL226                            000000e5-   6146   2860   2862 
CL227                            000000e6-   6147   2887   2889 
CL228                            000000e7-   6148   2900   2902   2951   2953 
CL229                            000000e8-   6149   2905   2907   2984   2988 
                                                    3283   3285 
CL23                             00000016-   5943   1002   1003 
CL230                            000000e9-   6150   2924   2926 
CL231                            000000ea-   6151   2917   2920 
CL232                            000000eb-   6152   2936   2938 
CL233                            000000ec-   6153   2966   2967 
CL234                            000000ed-   6154   2978   2981   3030   3032 
CL235                            000000ee-   6155   3001   3005 
CL236                            000000ef-   6156   2997   2999 
CL237                            000000f0-   6157   3015   3018 
CL238                            000000f1-   6158   3045   3047 
CL239                            000000f2-   6159   3059   3061   3109   3111 
CL24                             00000017-   5944   1009   1010 
CL240                            000000f3-   6160   3065   3067 
CL241                            000000f4-   6161   3081   3084 
CL242                            000000f5-   6162   3075   3079 
CL243                            000000f6-   6163   3096   3099 
CL244                            000000f7-   6164   3112   3113   3114   3115 
                                                    3190   3191   3192   3194 
CL245                            000000f9-   6165   3124   3126 
CL246                            000000fa-   6166   3137   3139   3187   3189 
CL247                            000000fb-   6167   3155   3162 
CL248                            000000fc-   6168   3153   3154 
CL249                            000000fd-   6169   3175   3177 
CL25                             00000018-   5945   1011   1012 
CL250                            000000fe-   6170   3203   3204 
CL251                            000000ff-   6171   3206   3208   3266   3268 
CL252                            00000100-   6172   3217   3219 
CL253                            00000101-   6173   3239   3241 
CL254                            00000102-   6174   3234   3236 
CL255                            00000103-   6175   3252   3256 
CL256                            00000104-   6176   3263   3264 
CL257                            00000105-   6177   3276   3278   3327   3329 
CL258                            00000106-   6178   3299   3302 
CL259                            00000107-   6179   3293   3297 
CL26                             00000019-   5946   1020   1021 
CL260                            00000108-   6180   3312   3315 
CL261                            00000109-   6181   3342   3344 
CL262                            0000010a-   6182   3354   3356 
CL263                            0000010b-   6183   3363   3365 
CL264                            0000010c-   6184   3366   3368   3879   3881 
CL265                            0000010d-   6185   3375   3377 
CL266                            0000010e-   6186   3385   3387 
CL267                            0000010f-   6187   3395   3397 
TMS320C3x/4x COFF AssemblerVersion 5.12     Mon Nov 19 13:45:24 2018
Copyright (c) 1987-1999 Texas Instruments Incorporatedasm30.exe -@_6L4.AAB 

F:\WKDIR\CodeComposer\EEA_SA_V613b\BOOT\SOURCE\ASM\main.asm          PAGE  149

LABEL                            VALUE       DEFN    REF

CL268                            00000110-   6188   3405   3407 
CL269                            00000111-   6189   3415   3417 
CL27                             0000001a-   5947   1018   1019 
CL270                            00000112-   6190   3425   3427 
CL271                            00000113-   6191   3435   3437 
CL272                            00000114-   6192   3445   3447 
CL273                            00000115-   6193   3455   3457 
CL274                            00000116-   6194   3464   3466 
CL275                            00000117-   6195   3474   3477 
CL276                            00000118-   6196   3485   3487 
CL277                            00000119-   6197   3495   3497 
CL278                            0000011a-   6198   3504   3506 
CL279                            0000011b-   6199   3515   3517 
CL28                             0000001b-   5948   1030   1031 
CL280                            0000011c-   6200   3524   3526 
CL281                            0000011d-   6201   3534   3535 
CL282                            0000011e-   6202   3545   3547 
CL283                            0000011f-   6203   3555   3558 
CL284                            00000120-   6204   3565   3567 
CL285                            00000121-   6205   3575   3577 
CL286                            00000122-   6206   3584   3586 
CL287                            00000123-   6207   3592   3594 
CL288                            00000124-   6208   3610   3611 
CL289                            00000125-   6209   3612   3613 
CL29                             0000001c-   5949   1028   1029 
CL290                            00000126-   6210   3619   3620 
CL291                            00000127-   6211   3621   3622 
CL292                            00000128-   6212   3628   3629 
CL293                            00000129-   6213   3630   3631 
CL294                            0000012a-   6214   3637   3638 
CL295                            0000012b-   6215   3639   3640 
CL296                            0000012c-   6216   3647   3648 
CL297                            0000012d-   6217   3655   3656 
CL298                            0000012e-   6218   3662   3663 
CL299                            0000012f-   6219   3669   3670 
CL3                              00000002-   5923    811    812 
CL30                             0000001d-   5950   1039   1040 
CL300                            00000130-   6220   3686   3688 
CL301                            00000131-   6221   3695   3697 
CL302                            00000132-   6222   3705   3707 
CL303                            00000133-   6223   3715   3717 
CL304                            00000134-   6224   3725   3727 
CL305                            00000135-   6225   3736   3738 
CL306                            00000136-   6226   3745   3747 
CL307                            00000137-   6227   3755   3756 
CL308                            00000138-   6228   3766   3768 
CL309                            00000139-   6229   3776   3778 
CL31                             0000001e-   5951   1047   1048 
CL310                            0000013a-   6230   3785   3787 
CL311                            0000013b-   6231   3796   3798 
CL312                            0000013c-   6232   3805   3807 
TMS320C3x/4x COFF AssemblerVersion 5.12     Mon Nov 19 13:45:24 2018
Copyright (c) 1987-1999 Texas Instruments Incorporatedasm30.exe -@_6L4.AAB 

F:\WKDIR\CodeComposer\EEA_SA_V613b\BOOT\SOURCE\ASM\main.asm          PAGE  150

LABEL                            VALUE       DEFN    REF

CL313                            0000013d-   6233   3815   3817 
CL314                            0000013e-   6234   3826   3828 
CL315                            0000013f-   6235   3837   3839 
CL316                            00000140-   6236   3847   3849 
CL317                            00000141-   6237   3857   3859 
CL318                            00000142-   6238   3866   3868 
CL319                            00000143-   6239   3876   3878 
CL32                             0000001f-   5952   1055   1056 
CL320                            00000144-   6240   3888   3890 
CL321                            00000145-   6241   3899   3901 
CL322                            00000146-   6242   3908   3910 
CL323                            00000147-   6243   3921   3923 
CL324                            00000148-   6244   3934   3935 
CL325                            00000149-   6245   3940   3941 
CL326                            0000014a-   6246   3947   3949 
CL327                            0000014b-   6247   3960   3962 
CL328                            0000014c-   6248   3973   3975 
CL329                            0000014d-   6249   3985   3987 
CL33                             00000020-   5953   1062   1063 
CL330                            0000014e-   6250   3998   4000 
CL331                            0000014f-   6251   4006   4008 
CL332                            00000150-   6252   4019   4021 
CL333                            00000151-   6253   4032   4034 
CL334                            00000152-   6254   4044   4046 
CL335                            00000153-   6255   4057   4059 
CL336                            00000154-   6256   4068   4071 
CL337                            00000155-   6257   4080   4083 
CL338                            00000156-   6258   4093   4095 
CL339                            00000157-   6259   4104   4107 
CL34                             00000021-   5954   1069   1070 
CL340                            00000158-   6260   4117   4119 
CL341                            00000159-   6261   4128   4131 
CL342                            0000015a-   6262   4140   4143 
CL343                            0000015b-   6263   4153   4155 
CL344                            0000015c-   6264   4164   4167 
CL345                            0000015d-   6265   4178   4180 
CL346                            0000015e-   6266   4204   4206 
CL347                            0000015f-   6267   4192   4194   4216   4217 
                                                    4228   4230 
CL348                            00000160-   6268   4196   4198   4220   4222 
                                                    4251   4253   4273   4275 
CL349                            00000161-   6269   4234   4236 
CL35                             00000022-   5955   1078   1079 
CL350                            00000162-   6270   4259   4261 
CL351                            00000163-   6271   4247   4249   4270   4271 
                                                    4284   4285 
CL352                            00000164-   6272   4287   4290 
CL353                            00000165-   6273   4306   4307 
CL354                            00000166-   6274   4314   4315 
CL355                            00000167-   6275   4322   4323 
CL356                            00000168-   6276   4330   4331 
TMS320C3x/4x COFF AssemblerVersion 5.12     Mon Nov 19 13:45:24 2018
Copyright (c) 1987-1999 Texas Instruments Incorporatedasm30.exe -@_6L4.AAB 

F:\WKDIR\CodeComposer\EEA_SA_V613b\BOOT\SOURCE\ASM\main.asm          PAGE  151

LABEL                            VALUE       DEFN    REF

CL357                            00000169-   6277   4338   4339 
CL358                            0000016a-   6278   4346   4347 
CL359                            0000016b-   6279   4354   4355 
CL36                             00000023-   5956   1085   1086 
CL360                            0000016c-   6280   4361   4362 
CL361                            0000016d-   6281   4368   4369 
CL362                            0000016e-   6282   4375   4376 
CL363                            0000016f-   6283   4383   4384 
CL364                            00000170-   6284   4390   4391 
CL365                            00000171-   6285   4397   4398 
CL366                            00000172-   6286   4404   4405 
CL367                            00000173-   6287   4411   4412 
CL368                            00000174-   6288   4428   4430 
CL369                            00000175-   6289   4446   4447 
CL37                             00000024-   5957   1087   1088 
CL370                            00000176-   6290   4444   4445 
CL371                            00000177-   6291   4526   4528   4535   4575 
                                                    4576   4890   4891   4900 
CL372                            00000178-   6292   4524   4525 
CL373                            00000179-   6293   4545   4546   4556   4557 
                                                    4565   4566   5743   5744 
CL374                            0000017a-   6294   4586   4587   4599   4600 
                                                    4611   4612 
CL375                            0000017b-   6295   4588   4589   4613   4614 
CL376                            0000017c-   6296   4601   4602 
CL377                            0000017d-   6297   4622   4623 
CL378                            0000017e-   6298   4632   4633   4672   4673 
                                                    5523   5524 
CL379                            0000017f-   6299   4652   4653   5814   5815 
CL38                             00000025-   5958   1095   1096 
CL380                            00000180-   6300   4712   4713 
CL381                            00000181-   6301   4719   4720 
CL382                            00000182-   6302   4754   4755 
CL383                            00000183-   6303   4761   4762 
CL384                            00000184-   6304   4772   4774 
CL385                            00000185-   6305   4826   4827 
CL386                            00000186-   6306   4828   4829 
CL387                            00000187-   6307   4835   4836 
CL388                            00000188-   6308   4865   4867   4947   4948 
                                                    5059   5060 
CL389                            00000189-   6309   4908   4909 
CL39                             00000026-   5959   1104   1105 
CL390                            0000018a-   6310   4921   4922 
CL391                            0000018b-   6311   4934   4936   4943   4944 
                                                    4991   4992   5001   5002 
CL392                            0000018c-   6312   4931   4932   4960   4961 
                                                    4989   4990   5022   5023 
CL393                            0000018d-   6313   4945   4946   4974   4975 
CL394                            0000018e-   6314   4962   4963   4972   4973 
                                                    5025   5027   5035   5036 
TMS320C3x/4x COFF AssemblerVersion 5.12     Mon Nov 19 13:45:24 2018
Copyright (c) 1987-1999 Texas Instruments Incorporatedasm30.exe -@_6L4.AAB 

F:\WKDIR\CodeComposer\EEA_SA_V613b\BOOT\SOURCE\ASM\main.asm          PAGE  152

LABEL                            VALUE       DEFN    REF

CL395                            0000018f-   6315   4976   4977   5073   5074 
                                                    5154   5155   5286   5287 
                                                    5308   5309 
CL396                            00000190-   6316   5007   5009   5088   5089 
CL397                            00000191-   6317   5003   5005 
CL398                            00000192-   6318   5041   5043   5107   5109 
CL399                            00000193-   6319   5038   5040 
CL4                              00000003-   5924    822    823 
CL40                             00000027-   5960   1111   1112 
CL400                            00000194-   6320   5057   5058 
CL401                            00000195-   6321   5071   5072 
CL402                            00000196-   6322   5086   5087 
CL403                            00000197-   6323   5104   5105 
CL404                            00000198-   6324   5123   5124   5354   5355 
                                                    5874   5875 
CL405                            00000199-   6325   5131   5132 
CL406                            0000019a-   6326   5141   5142 
CL407                            0000019b-   6327   5152   5153 
CL408                            0000019c-   6328   5166   5170   5189   5191 
                                                    5199   5203   5222   5224 
                                                    5232   5236   5255   5257 
                                                    5265   5269 
CL409                            0000019d-   6329   5185   5186 
CL41                             00000028-   5961   1118   1119 
CL410                            0000019e-   6330   5218   5219 
CL411                            0000019f-   6331   5251   5252 
CL412                            000001a0-   6332   5284   5285 
CL413                            000001a1-   6333   5306   5307 
CL414                            000001a2-   6334   5362   5363 
CL415                            000001a3-   6335   5370   5371 
CL416                            000001a4-   6336   5372   5374   5381   5383 
CL417                            000001a5-   6337   5391   5392 
CL418                            000001a6-   6338   5400   5401 
CL419                            000001a7-   6339   5408   5409 
CL42                             00000029-   5962   1125   1126 
CL420                            000001a8-   6340   5426   5428 
CL421                            000001a9-   6341   5453   5455 
CL422                            000001aa-   6342   5470   5471 
CL423                            000001ab-   6343   5482   5483   5493   5494 
CL424                            000001ac-   6344   5502   5503 
CL425                            000001ad-   6345   5512   5513 
CL426                            000001ae-   6346   5555   5556 
CL427                            000001af-   6347   5568   5570 
CL428                            000001b0-   6348   5565   5566 
CL429                            000001b1-   6349   5578   5580 
CL43                             0000002a-   5963   1133   1134 
CL430                            000001b2-   6350   5587   5588 
CL431                            000001b3-   6351   5595   5596 
CL432                            000001b4-   6352   5604   5605 
CL433                            000001b5-   6353   5612   5613 
CL434                            000001b6-   6354   5622   5624 
TMS320C3x/4x COFF AssemblerVersion 5.12     Mon Nov 19 13:45:24 2018
Copyright (c) 1987-1999 Texas Instruments Incorporatedasm30.exe -@_6L4.AAB 

F:\WKDIR\CodeComposer\EEA_SA_V613b\BOOT\SOURCE\ASM\main.asm          PAGE  153

LABEL                            VALUE       DEFN    REF

CL435                            000001b7-   6355   5632   5633   5670   5671 
CL436                            000001b8-   6356   5640   5641 
CL437                            000001b9-   6357   5650   5651 
CL438                            000001ba-   6358   5659   5660 
CL439                            000001bb-   6359   5672   5674   5710   5711 
CL44                             0000002b-   5964   1140   1141 
CL440                            000001bc-   6360   5676   5678 
CL441                            000001bd-   6361   5691   5692   5726   5727 
CL442                            000001be-   6362   5695   5696   5697   5699 
CL443                            000001c0-   6363   5753   5755   5763   5765 
CL444                            000001c1-   6364   5772   5773 
CL445                            000001c2-   6365   5790   5791 
CL45                             0000002c-   5965   1147   1148 
CL46                             0000002d-   5966   1155   1156 
CL47                             0000002e-   5967   1162   1163 
CL48                             0000002f-   5968   1169   1170 
CL49                             00000030-   5969   1176   1177 
CL5                              00000004-   5925    834    835   4514   4515 
                                                    5545   5546   5801   5802 
                                                    5864   5865 
CL50                             00000031-   5970   1183   1184 
CL51                             00000032-   5971   1190   1191 
CL52                             00000033-   5972   1197   1198 
CL53                             00000034-   5973   1204   1205 
CL54                             00000035-   5974   1211   1212 
CL55                             00000036-   5975   1218   1219 
CL56                             00000037-   5976   1225   1226 
CL57                             00000038-   5977   1232   1233 
CL58                             00000039-   5978   1239   1240 
CL59                             0000003a-   5979   1246   1247 
CL6                              00000005-   5926    852    853 
CL60                             0000003b-   5980   1253   1254 
CL61                             0000003c-   5981   1260   1261 
CL62                             0000003d-   5982   1267   1268 
CL63                             0000003e-   5983   1274   1275 
CL64                             0000003f-   5984   1281   1282 
CL65                             00000040-   5985   1288   1289 
CL66                             00000041-   5986   1296   1297   1305   1307 
CL67                             00000042-   5987   1302   1304   1319   1322 
                                                    1339   1341   1357   1360 
                                                    1374   1376   1588   1589 
                                                    1858   1859   2791   2792 
                                                    2869   2870   2948   2949 
                                                    3027   3029   3106   3108 
                                                    3184   3186   3324   3326 
                                                    5679   5681   5693   5694 
                                                    5712   5713   5728   5729 
CL68                             00000043-   5988   1315   1316   1323   1325 
CL69                             00000044-   5989   1334   1335   1342   1344 
CL7                              00000006-   5927    860    861 
CL70                             00000045-   5990   1353   1354   1361   1363 
TMS320C3x/4x COFF AssemblerVersion 5.12     Mon Nov 19 13:45:24 2018
Copyright (c) 1987-1999 Texas Instruments Incorporatedasm30.exe -@_6L4.AAB 

F:\WKDIR\CodeComposer\EEA_SA_V613b\BOOT\SOURCE\ASM\main.asm          PAGE  154

LABEL                            VALUE       DEFN    REF

CL71                             00000046-   5991   1372   1373   1379   1383 
CL72                             00000047-   5992   1391   1392 
CL73                             00000048-   5993   1399   1400   1430   1431 
                                                    4806   4807 
CL74                             00000049-   5994   1410   1411   1421   1422 
CL75                             0000004a-   5995   1441   1442   1452   1453 
CL76                             0000004b-   5996   1461   1462 
CL77                             0000004c-   5997   1469   1470 
CL78                             0000004d-   5998   1476   1477 
CL79                             0000004e-   5999   1478   1479   1480   1481 
                                                    1490   1491   1492   1493 
                                                    1820   1821   1822   1823 
                                                    1840   1841   1842   1843 
                                                    2797   2798   2799   2801 
                                                    2875   2876   2877   2879 
                                                    2954   2955   2956   2957 
                                                    3033   3034   3035   3037 
                                                    3330   3331   3332   3334 
                                                    5714   5715   5716   5718 
                                                    5730   5731   5732   5734 
CL8                              00000007-   5928    867    868 
CL80                             00000050-   6000   1488   1489 
CL81                             00000051-   6001   1500   1501 
CL82                             00000052-   6002   1508   1509 
CL83                             00000053-   6003   1515   1516 
CL84                             00000054-   6004   1522   1523 
CL85                             00000055-   6005   1529   1530 
CL86                             00000056-   6006   1537   1538 
CL87                             00000057-   6007   1556   1558 
CL88                             00000058-   6008   1572   1573 
CL89                             00000059-   6009   1581   1582 
CL9                              00000008-   5929    875    876 
CL90                             0000005a-   6010   1595   1597 
CL91                             0000005b-   6011   1590   1591   1592   1594 
CL92                             0000005d-   6012   1604   1605   1612 
CL93                             0000005e-   6013   1613   1614 
CL94                             0000005f-   6014   1622   1623 
CL95                             00000060-   6015   1630   1631 
CL96                             00000061-   6016   1637   1638 
CL97                             00000062-   6017   1645   1646 
CL98                             00000063-   6018   1652   1653   5328   5329 
CL99                             00000064-   6019   1663   1664 
FP                               0000000b       7 
L10                              00000053+    951    975 
L100                             00000a2b+   5516   5506 
L102                             00000a49+   5573   5559 
L104                             00000a61+   5627   5616 
L106                             00000a90+   5705   5663 
L107                             00000aa6+   5738   5703 
L109                             00000aaf+   5758   5747 
L11                              00000062+    977    949 
TMS320C3x/4x COFF AssemblerVersion 5.12     Mon Nov 19 13:45:24 2018
Copyright (c) 1987-1999 Texas Instruments Incorporatedasm30.exe -@_6L4.AAB 

F:\WKDIR\CodeComposer\EEA_SA_V613b\BOOT\SOURCE\ASM\main.asm          PAGE  155

LABEL                            VALUE       DEFN    REF

L111                             00000abe+   5794   5784 
L115                             00000002+   5857   5885 
L13                              0000013f+   1416   1403 
L14                              00000143+   1425   1414 
L16                              0000014d+   1447   1434 
L17                              00000151+   1456   1445 
L18                              00000182+   1551   1565 
L19                              0000018b+   1567   1549 
L21                              000001bf+   1668   1657 
L23                              0000025b+   1971   1998 
L24                              0000026b+   2000   1969 
L25                              0000026f+   2010   2064 
L26                              00000291+   2066   2008 
L27                              00000311+   2334   2444 
L28                              0000035a+   2446   2332 
L29                              000003c4+   2665   2695 
L30                              000003d5+   2697   2663 
L31                              000003d9+   2707   3603 
L34                              0000062a+   3605   2705 
L35                              0000064e+   3680   4299 
L37                              000006dc+   3915   3905 
L38                              000006e3+   3928   3913 
L41                              000006f4+   3954   3938   3944 
L42                              000006fb+   3967   3952 
L44                              00000709+   3992   3978 
L46                              00000717+   4013   4003 
L47                              0000071e+   4026   4011 
L49                              0000072c+   4051   4037 
L51                              000007d0+   4301   3678 
L52                              00000807+   4423   4437 
L53                              00000810+   4439   4421 
L58                              00000836+   4551   4538 
L59                              0000083a+   4560   4549 
L6                               00000011+    817    804 
L62                              0000084a+   4593   4579 
L63                              00000850+   4606   4569 
L64                              00000855+   4616   4591   4604 
L65                              0000088d+   4731   4747 
L66                              00000898+   4749   4729 
L69                              000008ac+   4790   4770   4777 
L7                               00000015+    827    815 
L70                              000008b0+   4799   4788 
L71                              000008ca+   4848   4883 
L72                              000008cf+   4859   4875 
L73                              000008da+   4877   4857 
L74                              000008df+   4885   4846 
L76                              00000946+   5052   4925 
L77                              00000972+   5118   5050 
L78                              0000097c+   5147   5332 
L79                              0000098c+   5180   5341 
L80                              0000099c+   5213   5344 
TMS320C3x/4x COFF AssemblerVersion 5.12     Mon Nov 19 13:45:24 2018
Copyright (c) 1987-1999 Texas Instruments Incorporatedasm30.exe -@_6L4.AAB 

F:\WKDIR\CodeComposer\EEA_SA_V613b\BOOT\SOURCE\ASM\main.asm          PAGE  156

LABEL                            VALUE       DEFN    REF

L81                              000009ac+   5246   5335 
L82                              000009bc+   5279   5347 
L83                              000009c6+   5301   5338 
L85                              000009d0+   5326   5145 
L9                               0000003d+    909    846 
L91                              000009df+   5349   5178   5211   5244   5277 
                                                    5299   5320 
L92                              000009fe+   5421   5436 
L93                              00000a07+   5438   5419 
L94                              00000a0b+   5448   5463 
L95                              00000a14+   5465   5446 
L97                              00000a1f+   5488   5475 
L98                              00000a23+   5497   5486 
SL1                              00000000+   5895   6383 
SL10                             0000008c+   5904   6767 
SL11                             0000008f+   5905   6771 
SL12                             0000009f+   5906   6773 
SL13                             000000ae+   5907   6774 
SL14                             000000c3+   5908   6775 
SL15                             000000d8+   5909   6776 
SL16                             000000f0+   5910   6777 
SL17                             00000108+   5911   6781 
SL18                             0000011d+   5912   6783 
SL19                             00000132+   5913   6784 
SL2                              00000001+   5896   6592 
SL20                             00000147+   5914   6785 
SL21                             0000015c+   5915   6786 
SL22                             00000171+   5916   6787 
SL3                              00000013+   5897   6598 
SL4                              00000028+   5898   6604 
SL5                              00000039+   5899   6609 
SL6                              0000004a+   5900   6615 
SL7                              00000054+   5901   6622 
SL8                              00000062+   5902   6628 
SL9                              00000077+   5903   6633 
_AI                              REF                6511   6512   6513   6514 
                                                    6875 
_ALFAT_APPEND_LF                 REF                6740   7277 
_ALFAT_INIT_ALL                  REF                6739   7273 
_ALFAT_LOG                       REF                6801   7295 
_ALFAT_RX                        REF                6742   7269 
_ALFAT_STATUS_REG                REF                6738   7275 
_ALYESKA                         REF                6727   6728   6729   6730 
                                                    6731   6732   6733   6734 
                                                    6735   6736   6737   7265 
_ANALYZER_MODE                   REF                6469   7083 
_AO                              REF                6509   6885 
_AVG_TEMP                        REF                6450   7163 
_CALC_WC_DENSITY                 REF                6699   7261 
_CAP_OIL_STOP                    REF                6474   7225 
_CAP_WATER_STOP                  REF                6473   7223 
TMS320C3x/4x COFF AssemblerVersion 5.12     Mon Nov 19 13:45:24 2018
Copyright (c) 1987-1999 Texas Instruments Incorporatedasm30.exe -@_6L4.AAB 

F:\WKDIR\CodeComposer\EEA_SA_V613b\BOOT\SOURCE\ASM\main.asm          PAGE  157

LABEL                            VALUE       DEFN    REF

_CCM_24_GAS                      REF                6526   7071 
_CCM_24_OIL                      REF                6528   7073 
_CCM_24_TOTAL                    REF                6527   7077 
_CCM_24_WATER                    REF                6529   7075 
_CCM_ELAPSED_S                   REF                6532   7069 
_CCM_GAS_FLOW                    REF                6537   7081 
_CCM_GAS_TOTAL                   REF                6538   7079 
_CCM_REMAINING                   REF                6530   7065 
_CCM_REMAINING_S                 REF                6531   7067 
_CCM_TIME_ELAPSED                REF                6547   7059 
_CCM_TIME_REMAINING              REF                6546   7057 
_CCM_TIME_START                  REF                6543   7053 
_CCM_TIME_STOP                   REF                6545   7055 
_CCM_VESSEL_LEVEL                REF                6539   6540   7061 
_CCM_VESSEL_PRESSURE             REF                6541   6542   7063 
_CHANGE                          REF                6381   6989 
_CLEAR_TIME                      REF                6544   6845 
_CLOCK                           REF                6759   6911 
_COR                             REF                6586   6587   6588   6589 
                                                    6591   6593   6594   6596 
                                                    6597   6599   6600   6601 
                                                    6603   6605   6606   6607 
                                                    6608   6610   6611   6612 
                                                    6614   6616   6619   6620 
                                                    6621   6623   6624   6626 
                                                    6627   6629   6630   6631 
                                                    6632   6634   6635   6636 
                                                    6637   6639   6640   6641 
                                                    6642   6643   6644   6645 
                                                    6646   6647   6648   6649 
                                                    6650   6651   6652   6653 
                                                    6654   6655   6656   6657 
                                                    6658   6659   6660   6661 
                                                    6662   6664   6666   6668 
                                                    6670   6671   6672   6673 
                                                    7253 
_CORIOLIS_CFG                    REF                6595   7313 
_CORIOLIS_INT_CFG                REF                6625   7315 
_CORIOLIS_ZERO1                  REF                6663   7305 
_CORIOLIS_ZERO2                  REF                6665   7307 
_CORIOLIS_ZERO3                  REF                6667   7309 
_CORIOLIS_ZERO4                  REF                6669   7311 
_Clear                           REF                6476   6839 
_Clear_Accumulators              REF                6808   7293 
_DATA_CHANGE                     REF                6382   6967 
_DB_IP_RP_O                      REF                6568   7019 
_DB_IP_RP_W                      REF                6573   7029 
_DEMO                            REF                6807   7085 
_DEMO_ANALYZER_MODE              REF                6743   7087 
_DEMO_Init                       REF                6744   6897 
_DIAGNOSTICS                     REF                6377   6378   6857 
TMS320C3x/4x COFF AssemblerVersion 5.12     Mon Nov 19 13:45:24 2018
Copyright (c) 1987-1999 Texas Instruments Incorporatedasm30.exe -@_6L4.AAB 

F:\WKDIR\CodeComposer\EEA_SA_V613b\BOOT\SOURCE\ASM\main.asm          PAGE  158

LABEL                            VALUE       DEFN    REF

_DIAGNOSTICS_ERROR_CODE          REF                6380   6861 
_DIAGNOSTICS_MSG_CODE            REF                6379   6859 
_DIAG_TEMP                       REF                6375   6376   6855 
_DIO_ALARM                       REF                6415   6867 
_DIO_ANALOGIO_GET                REF                6431   6941 
_DIO_ANALOGIO_SET                REF                6432   6943 
_DIO_ANALYZER_GET                REF                6429   6933 
_DIO_ANALYZER_SET                REF                6430   6935 
_DIO_BEEP                        REF                6418   6953 
_DIO_BUILT_IN_TEST               REF                6417   7103 
_DIO_BUILT_IN_TEST_ENABLE        REF                6798   7101 
_DIO_CCM_PURGE_STAT              REF                6534   7111 
_DIO_CCM_START                   REF                6533   7107 
_DIO_COMM_GET                    REF                6421   6929 
_DIO_COMM_SET                    REF                6422   6931 
_DIO_DISPLAY_GET                 REF                6425   6945 
_DIO_DISPLAY_SET                 REF                6426   6947 
_DIO_ERROR                       REF                6414   6865 
_DIO_LOCK                        REF                6400   6401   6402   7247 
_DIO_MOTHERBOARD_GET             REF                6427   6949 
_DIO_MOTHERBOARD_SET             REF                6428   6951 
_DIO_POWER_GET                   REF                6423   6937 
_DIO_POWER_SET                   REF                6424   6939 
_DIO_PV_PERCMASS                 REF                6433   6955 
_DIO_SYSTEM_RESET                REF                6416   7099 
_DIO_TEMP_C                      REF                6797   7105 
_DIO_uP_GET                      REF                6419   6925 
_DIO_uP_SET                      REF                6420   6927 
_DIPSWITCH                       REF                6443   6444   6985 
_DUMMY                           REF                6407   6987 
_Debug                           00000000'    734    721    722    722   6820 
_Disable_Heater                  REF                6804   7283 
_ENG_STR                         REF                6782   6907 
_ESN_MFGR                        REF                6395   6921 
_ESN_USER                        REF                6397   6919 
_EXTENDED_FW_VERSION_ENABLE      REF                6441   7209 
_EXTUNE                          REF                6812   6971 
_E_STRING                        REF                6384   6863 
_Execute                         REF                5882   7319 
_Execute_Init                    REF                6386   6887 
_FC                              REF                6689   6690   6691   6692 
                                                    6693   6694   6695   6696 
                                                    6697   6700   6701   6702 
                                                    6703   6704   6705   6706 
                                                    6707   6708   6709   6710 
                                                    6711   6712   6713   6714 
                                                    6715   6716   6717   6718 
                                                    6719   6720   6721   6723 
                                                    6724   6725   6726   7263 
_FLASH_READ_ESN_MFGR             REF                6396   6891 
_FLASH_READ_ESN_USER             REF                6398   6893 
TMS320C3x/4x COFF AssemblerVersion 5.12     Mon Nov 19 13:45:24 2018
Copyright (c) 1987-1999 Texas Instruments Incorporatedasm30.exe -@_6L4.AAB 

F:\WKDIR\CodeComposer\EEA_SA_V613b\BOOT\SOURCE\ASM\main.asm          PAGE  159

LABEL                            VALUE       DEFN    REF

_FREQ_O                          REF                6564   7011 
_FREQ_W                          REF                6569   7021 
_GAS_ENTRAINED_DENS_DETECT       REF                6466   7211 
_Get_Russ_Line                   REF                6766   6901 
_HSALT_FREQ_TRIGGER              REF                6459   7197 
_HSALT_TEMP_TRIGGER              REF                6465   7205 
_HW_VER                          REF                6745   7031 
_IDEC_PORT                       REF                6387   6993 
_IDEC_SA                         REF                6388   6389   6390   6391 
                                                    6393   6991 
_INITIALIZING                    REF                6753   6981 
_INT0                            REF                6754   7317 
_IP_O                            REF                6565   7013 
_IP_RP_O                         REF                6567   7017 
_IP_RP_W                         REF                6572   7027 
_IP_W                            REF                6570   7023 
_InitLog                         REF                6370   6895 
_Initialize_Hardware             00000819+   4477   4463   4464   4464 
_Initialize_Periodic_Events      REF                6792   7281 
_Initialize_Variables            00000000+    768    754    755    755   6780 
_LAST_TEMP_RESET                 REF                6464   7203 
_LCD_DISPLAY                     REF                6762   6769   6770   6772 
                                                    6851 
_LCD_INIT                        REF                6761   6853 
_LCD_PAGE                        REF                6778   6849 
_LED_GREEN                       REF                6434   6913 
_LOCKOUT                         REF                6399   7249 
_LOG_STATUS                      REF                6800   7271 
_MEM                             REF                6371   6983 
_MENU_INIT                       REF                6779   6909 
_MM_GAS_fail                     REF                6412   7191 
_MM_LIQ_fail                     REF                6411   7189 
_Mirror_From_Stream_Table        REF                6487   7303 
_N_FREQ                          REF                6458   7195 
_N_TEMP                          REF                6446   7167 
_N_WC                            REF                6455   7177 
_NaN_val_flt                     REF                6515   7097 
_OSWITCH                         REF                6810   6915 
_OUT_STR                         REF                6765   6903 
_OUT_STR2                        REF                6768   6905 
_PID_Init                        REF                6510   6883 
_PORT                            REF                6741   6869 
_PORT2_GAS_TEMP                  REF                6409   7185 
_PORT2_LIQ_TEMP                  REF                6408   7183 
_PORT3_TEMP                      REF                6410   7187 
_PRESS                           REF                6674   6675   6676   6677 
                                                    6678   6679   6680   6681 
                                                    6682   7255 
_PV_SAMPLES                      REF                6475   6479   6973 
_PV_SAMPLES_24hr                 REF                6477   6481   6975 
_PV_SAMPLES_5min                 REF                6478   6483   6977 
TMS320C3x/4x COFF AssemblerVersion 5.12     Mon Nov 19 13:45:24 2018
Copyright (c) 1987-1999 Texas Instruments Incorporatedasm30.exe -@_6L4.AAB 

F:\WKDIR\CodeComposer\EEA_SA_V613b\BOOT\SOURCE\ASM\main.asm          PAGE  160

LABEL                            VALUE       DEFN    REF

_Port_Defaults                   REF                6803   6873 
_Print_To_LCD                    REF                5171   5204   5237   5270 
                                                    7318 
_REG_CAL_OIL                     REF                6490   6491   7243 
_REG_CAL_WATER                   REF                6492   6493   7245 
_REG_CCM_PURGE_STAT              REF                6536   7113 
_REG_CCM_TEST_STAT               REF                6535   7109 
_REG_DAC                         REF                6813   6815   7251 
_REG_DUMMY                       REF                6502   7115 
_REG_EMULSION_PHASE              REF                6494   7241 
_REG_FREQ                        REF                6550   7149 
_REG_FREQ_O                      REF                6560   7151 
_REG_FREQ_OIL_HI                 REF                6437   7231 
_REG_FREQ_OIL_LO                 REF                6435   7229 
_REG_FREQ_VARIANCE_RATIO         REF                6460   7199 
_REG_FREQ_W                      REF                6563   7157 
_REG_FREQ_WATER_HI               REF                6439   7235 
_REG_FREQ_WATER_LO               REF                6438   7233 
_REG_LOWSALT_THRESHOLD           REF                6440   7207 
_REG_PV_AVG_1sec                 REF                6485   7125 
_REG_PV_AVG_24hr                 REF                6482   7121 
_REG_PV_AVG_5min                 REF                6484   7123 
_REG_PV_AVG_CNT                  REF                6486   7127 
_REG_TEMPERATURE_AVG             REF                6500   7145 
_REG_TEMPERATURE_EXTERNAL        REF                6501   6796   7147 
_REG_TEMPERATURE_USER            REF                6499   7143 
_REG_TIME                        REF                6445   7089 
_REG_VINC                        REF                6548   7135 
_REG_VINC_O                      REF                6558   7153 
_REG_VINC_W                      REF                6561   7159 
_REG_VREF                        REF                6549   7139 
_REG_VREF_O                      REF                6559   7155 
_REG_VREF_W                      REF                6562   7161 
_REG_VTUNE                       REF                6551   7239 
_REG_VTUNE_SET                   REF                6814   7237 
_REG_WATERCUT                    REF                6497   7129 
_REG_WATERCUT_DENSITY            REF                6470   7131 
_REG_WATERCUT_RAW                REF                6489   7119 
_RESEARCH_FORCE_MODE             REF                6403   6923 
_RESET_COUNTER                   REF                6805   7093 
_RP_O                            REF                6566   7015 
_RP_W                            REF                6571   7025 
_RTC_setup                       REF                6788   6847 
_RUSS                            REF                6764   7217 
_Restore_CFG                     REF                6373   7299 
_Rosemount_fail                  REF                6413   7193 
_SA                              REF                6747   6969 
_SAMPLE_PENDING                  REF                6404   7091 
_SN_PIPE                         REF                6405   7095 
_SRAM_SCRATCHPAD                 REF                6748   6889 
_SUM_TEMP                        REF                6447   7165 
TMS320C3x/4x COFF AssemblerVersion 5.12     Mon Nov 19 13:45:24 2018
Copyright (c) 1987-1999 Texas Instruments Incorporatedasm30.exe -@_6L4.AAB 

F:\WKDIR\CodeComposer\EEA_SA_V613b\BOOT\SOURCE\ASM\main.asm          PAGE  161

LABEL                            VALUE       DEFN    REF

_Self_Test_FULL                  REF                6799   6899 
_Set_IDEC_Port                   REF                6394   7285 
_Set_Research_Mode               REF                6819   7301 
_Set_Time                        REF                6392   7287 
_Setup_ADC                       REF                6794   6877 
_Setup_Basics                    REF                6372   7279 
_Setup_DAC                       REF                6795   6879 
_Setup_Serial_Port0              REF                6793   6871 
_Setup_Timer                     REF                6790   6841 
_TEMP_SAMPLE                     REF                6463   7201 
_TMPTRANS                        REF                6683   6684   6685   6686 
                                                    6687   6688   7257 
_TMP_FREQ                        REF                6556   7227 
_TMP_VINC                        REF                6552   7137 
_TMP_VREF                        REF                6555   7141 
_TMP_VTUNE                       REF                6557   7133 
_TRIM_RTD_HI                     REF                6472   7221 
_TRIM_RTD_LO                     REF                6471   7219 
_Timer_Insert                    REF                6802   6843 
_USE_PDI_WATERCUT                REF                6698   7259 
_VAR_DAMP_Init                   REF                6791   6833 
_VAR_Initialize                  REF                6590   6831 
_VAR_NaN                         REF                6498   6835 
_VAR_SELECT_DV                   REF                6506   6507   6957 
_VAR_SELECT_DVIN                 REF                6503   6504   6959 
_VAR_SET_STR_DV                  REF                6508   7289 
_VAR_SET_STR_DVIN                REF                6505   7291 
_VAR_Update                      REF                6436   6837 
_VT_SELECT                       REF                6809   6979 
_WC                              REF                6488   7117 
_WC_SAMPLE                       REF                6457   7179 
_WC_SUM                          REF                6456   7181 
_Write_CFG_USER                  REF                6806   7297 
_Write_DAC                       REF                6818   6881 
_boxcar_reset_needed             REF                6468   7215 
_c_int00                         REF                6756   6917 
_compatibility_dummy             REF                6582   7267 
_cycles                          REF                6451   7169 
_f_LV                            REF                6585   6965 
_floor                           REF                6722   6829 
_gas_routine_reset_needed        REF                6467   7213 
_i_CCM_Flow                      REF                6522   7045 
_i_CCM_Flow_Gas                  REF                6525   7051 
_i_CCM_Flow_Oil                  REF                6523   7047 
_i_CCM_Flow_Water                REF                6524   7049 
_i_CCM_Gas_Valve                 REF                6520   7041 
_i_CCM_Level                     REF                6517   7035 
_i_CCM_Level_Setpoint            REF                6516   7033 
_i_CCM_Liquid_Valve              REF                6521   7043 
_i_CCM_Pressure                  REF                6519   7039 
_i_CCM_Pressure_Setpoint         REF                6518   7037 
TMS320C3x/4x COFF AssemblerVersion 5.12     Mon Nov 19 13:45:24 2018
Copyright (c) 1987-1999 Texas Instruments Incorporatedasm30.exe -@_6L4.AAB 

F:\WKDIR\CodeComposer\EEA_SA_V613b\BOOT\SOURCE\ASM\main.asm          PAGE  162

LABEL                            VALUE       DEFN    REF

_i_FREQ_O                        REF                6574   6995 
_i_FREQ_W                        REF                6577   7001 
_i_IP_O                          REF                6575   6997 
_i_IP_W                          REF                6578   7003 
_i_LV                            REF                6583   6961 
_i_RP_O                          REF                6576   6999 
_i_RP_W                          REF                6579   7005 
_i_TEMP                          REF                6580   7007 
_i_WC                            REF                6581   7009 
_il_LV                           REF                6584   6963 
_main                            00000000+   5849   5836   5837   5837 
_phase                           REF                6453   7173 
_phase_rollover_count            REF                6454   7175 
_previous_phase                  REF                6452   7171 
_sprintf                         REF                6385   6827 
fp                               0000000b       6   3434   3444   3454   3465 
                                                    3475   3484   3494   3505 
                                                    3514   3525   3536   3546 
                                                    3556   3564   3574   3583 
                                                    3593   3600   3601   3676 
                                                    3685   3696   3706   3716 
                                                    3726   3735   3746   3757 
                                                    3765   3775   3786   3795 
                                                    3806   3816   3825   3836 
                                                    3846   3856   3867   3877 
                                                    3887   3900   3907   3920 
                                                    3946   3959   3972   3984 
                                                    3997   4005   4018   4031 
                                                    4043   4056   4069   4081 
                                                    4092   4105   4116   4129 
                                                    4141   4152   4165   4177 
                                                    4191   4202   4225   4231 
                                                    4246   4257   4279   4296 
                                                    4297   4418   4429   4434 
                                                    4435   4452   4453   4453 
                                                    4499   4500   4714   4721 
                                                    4727   4736   4737   4738 
                                                    4744   4745   4756   4763 
                                                    4768   4769   4775   4844 
                                                    4854   4864   4868   4872 
                                                    4873   4880   4881   4895 
                                                    4903   4910   4916   5004 
                                                    5008   5037   5092   5094 
                                                    5106   5110   5417   5427 
                                                    5433   5434   5444   5454 
                                                    5460   5461   5825   5826 
                                                    5826   5855   5856 
